(lp0
(dp1
S'status'
p2
(dp3
S'retweet'
p4
I1106
sS'original'
p5
I0
ssS'count'
p6
I1106
sS'user_ids'
p7
c__builtin__
set
p8
((lp9
I714611494785261568
aI758156770061803520
aI815103170711928834
aI745519458609856515
aI805651955574046724
aI758876415743844357
aI809645824762183680
aI795358919535325185
aI740573202460512257
aI2802001929
aI4909877258
aI1016002903
aI383963148
aI715678216812236802
aI3688798222
aI117899280
aI4076189713
aI822590879017922563
aI380743701
aI321568791
aI810605348864356356
aI1075382298
aI2616166427
aI2879064092
aI3295637533
aI2463825950
aI3279833120
aI3324921520
aI2823524387
aI756217317231427585
aI598323239
aI2363211817
aI3183876786
aI356569134
aI2616602671
aI3257392136
aI3700847382
aI3017073331
aI2288764982
aI2944487480
aI2688744116
aI475962260
aI2568183135
aI181291068
aI1666429663
aI816453405396893698
aI476245003
aI2613667913
aI64604235
aI1408785762
aI445206541
aI3340562513
aI517081174
aI2793393508
aI2576427100
aI822471354
aI224444510
aI391236965
aI2718666768
aI395440226
aI706636272463450112
aI870359690
aI3104788583
aI4735129704
aI3265441898
aI287365231
aI201678960
aI2238647640
aI1646299254
aI2330447993
aI1957879932
aI2399209597
aI2477226110
aI2707695637
aI3226986625
aI3161768066
aI2292123781
aI821259898407227392
aI1093089415
aI904110216
aI509679756
aI3252936846
aI4165536792
aI1658032274
aI3916660883
aI1000933524
aI1054183573
aI367249559
aI2913243288
aI3198521028
aI2339968026
aI1797427358
aI570537669
aI4261671073
aI771883334494326785
aI2995071141
aI362854566
aI33212583
aI3277058216
aI2860955676
aI3262929066
aI773764614303744000
aI2833817773
aI3002734766
aI2981141533
aI2811132080
aI1945655474
aI1365964980
aI3138127902
aI193544375
aI4397292916
aI2916135104
aI545949889
aI1220350146
aI4706613443
aI4752064708
aI2577593718
aI2149918921
aI721929456441405440
aI339280076
aI2384300238
aI1539739860
aI758460985221021696
aI310403293
aI2782737445
aI736309472
aI4299622337
aI324292835
aI3151956200
aI2739009769
aI1324217515
aI4097590994
aI469137646
aI2294798576
aI2470202492
aI38537459
aI821545802355109888
aI2895945974
aI2950875177
aI1687079161
aI252305659
aI3145988350
aI709534410282905600
aI1572040964
aI1348053253
aI721582731969175552
aI4272214283
aI385749261
aI2912461070
aI704033041
aI364210450
aI1667447060
aI2907066651
aI3105962269
aI30247198
aI311002359
aI2349480224
aI1413966114
aI3238027556
aI3239478662
aI3223773480
aI760616586080387072
aI1660920882
aI2250430856
aI777680938226421760
aI727312591601573888
aI84957493
aI377930042
aI2470113595
aI743080436851564544
aI738970488257413120
aI810183854522769410
aI2670821700
aI3331105077
aI1873426758
aI1613928776
aI261562697
aI571490634
aI733850513268191232
aI712044877
aI2420253006
aI709973659641843714
aI2163601464
aI2359431400
aI2302998585
aI2404946264
aI61958491
aI730026042
aI783750941426102273
aI528205311
aI747586015649370113
aI3078070632
aI706531577262706689
aI501352810
aI2742919531
aI752758860272721921
aI703700013663313921
aI2981828978
aI2761433460
aI1877134398
aI2859970281
aI2962448761
aI3029821818
aI2438804543
aI1534676714
aI550769023
aI740754946459500544
aI2543937923
aI2282961284
aI703676805
aI752419100899487744
aI1449044360
aI175493513
aI2837528971
aI842750018
aI393722502
aI763903019184492546
aI3432315971
aI2801754516
aI3099710830
aI741313644256890880
aI2560485787
aI2312108444
aI3481596317
aI1724215716
aI1975830949
aI1895634673
aI3244222876
aI2723738026
aI797728349711990784
aI855877111
aI1537993134
aI612989359
aI1378521522
aI701655577252876288
aI3276814772
aI2610352565
aI123996598
aI344353207
aI1686401466
aI1013246395
aI2288646589
aI775448681696886784
aI349196736
aI767045479414706178
aI2382951499
aI782025349731188736
aI1167260101
aI2643005895
aI187423179
aI2735294924
aI3152175566
aI1124132941
aI4327303633
aI1896618451
aI548817368
aI2331079129
aI489923035
aI807786269778513920
aI981366181
aI2266497506
aI1094011364
aI2208193958
aI2528078312
aI1120555502
aI750484213766512641
aI778674744254091264
aI711697473635389440
aI4183738874
aI2388144637
aI775812570666205184
aI3270654464
aI527827457
aI419965442
aI742245068
aI805602649068355584
aI1007466055
aI2760882700
aI4847772173
aI4885664270
aI1493260818
aI2987794964
aI2349562286
aI1328689687
aI3255138842
aI171684379
aI2425905692
aI251482654
aI2570136325
aI3965647392
aI2820600354
aI633547299
aI805445977578487809
aI286999078
aI1419401767
aI2737994280
aI3283115070
aI3834108460
aI3192685104
aI511701555
aI1335452664
aI1413587510
aI2833658424
aI3192480180
aI220926522
aI1867289149
aI2352792127
aI2568156257
aI739688204
aI2730508874
aI2888754473
aI2738481587
aI2977501840
aI3251010128
aI3308419665
aI2741248099
aI2527976020
aI749364602065027073
aI733934166
aI2391910999
aI284410458
aI2415060200
aI193604192
aI2894443106
aI718025312047501312
aI807782221998268416
aI3189025385
aI2697554539
aI3007153938
aI2382971503
aI815473151626846208
aI4418031854
aI190816883
aI162325109
aI121602681
aI777393852164562944
aI2346150532
aI1506298501
aI783118455146893312
aI2270925450
aI104368784
aI632496414
aI636756628
aI209941141
aI1623319321
aI2431210136
aI744980169799045120
aI171813533
aI2298393847
aI4561029973
aI3189443234
aI2887051939
aI728075073244909569
aI622603752
aI2161857536
aI750951463162093568
aI4774632104
aI4056226473
aI2324851143
aI3547378348
aI96498461
aI832981680
aI2749360817
aI2671540914
aI274175091
aI2968691380
aI2291475230
aI116091576
aI279730873
aI2845512378
aI2888169247
aI4359056060
aI763002301430636545
aI2998094526
aI263380677
aI2509365954
aI4852077253
aI1965755078
aI2431238856
aI726763489117753345
aI2467535562
aI1728240331
aI1353106124
aI935748301
aI3226522321
aI77116115
aI4203539157
aI1242888918
aI985787096
aI4041206489
aI4461103834
aI798592995033485312
aI535807781
aI817738464
aI3207768802
aI3331871459
aI1623583460
aI726944577517551616
aI734935053382393856
aI3280792297
aI351969063
aI2945577708
aI3266626285
aI2853690095
aI911160331
aI2293953265
aI3301145331
aI776441276942184448
aI217092501
aI717413340809564160
aI855659258
aI745093922960007168
aI3392529195
aI730091190616391680
aI2886451973
aI748402631039672320
aI637260551
aI758359970425430016
aI4675097353
aI1039029002
aI4716008203
aI4333405997
aI411929364
aI2225573678
aI212980502
aI3008531224
aI2363462425
aI100074266
aI1121166114
aI576852765
aI471542558
aI2662427424
aI1070172961
aI2799285026
aI301367771
aI784625029191458817
aI52516998
aI122182438
aI1733755688
aI158232028
aI822861179718696960
aI2945362732
aI839887662
aI2305975087
aI2221087536
aI2469126962
aI1002771252
aI2540225334
aI3948731838
aI920016692
aI617470779
aI737957502420017152
aI827641969618853889
aI86655807
aI2297041728
aI1385911105
aI3099761474
aI3286025029
aI1548247879
aI713242162477932546
aI2453834570
aI3322270539
aI1920932322
aI3718153041
aI2703211346
aI3260556115
aI316044116
aI1649136469
aI3096974167
aI1455296996
aI809619036468342784
aI3272995676
aI312716125
aI134372356
aI3245747040
aI2875296610
aI330954555
aI700425883
aI2211197798
aI829465772023910401
aI3387106108
aI153095603
aI556344176
aI577686385
aI2730531700
aI77845365
aI1069237111
aI892201848
aI703560135327649792
aI2594225020
aI1258008042
aI1656345470
aI2495136639
aI758599488
aI1328350082
aI2171622277
aI765459699605073920
aI3436807047
aI2534632328
aI2545988759
aI3487751054
aI1621384080
aI1738727576
aI196447122
aI55682883
aI2921167764
aI3102280598
aI727295707321749504
aI4544637852
aI1016587165
aI3177427874
aI1258789795
aI809902137463500801
aI2328179622
aI3072472561
aI2682713000
aI4694441299
aI1264938823
aI1170901934
aI377619375
aI1839541322
aI180571057
aI595176370
aI1892054515
aI3142329268
aI3598872734
aI1730788584
aI3565876152
aI724798152545583104
aI1493941178
aI807494444
aI2421289917
aI730223303160299521
aI1178557376
aI2764012611
aI776093848669818880
aI3488842692
aI2676958149
aI420156359
aI714230792969322496
aI275825609
aI3029577207
aI502244300
aI616737742
aI714861635215736832
aI4658168789
aI2381124566
aI786397809960292352
aI1393434534
aI578494629
aI2809568225
aI272540647
aI314350418
aI1062235303
aI4716299245
aI771156673595662337
aI719381488
aI2285986801
aI2265650168
aI2355074043
aI734601237207879680
aI635231061
aI2589897728
aI2735456768
aI2797126706
aI1441442820
aI785890309
aI738070609041588224
aI2562555738
aI612973576
aI4327871660
aI1634364427
aI618847244
aI2787136002
aI2187615583
aI1639105555
aI377498798
aI731045877347811328
aI2943265816
aI2729466906
aI2291678235
aI3862363994
aI3317275680
aI750939829156937728
aI742191912107540481
aI2688455717
aI4773655590
aI1943229480
aI3387282473
aI814072698527776768
aI3163132082
aI234881885
aI2877600818
aI857308212
aI2717967881
aI1566465085
aI2881428542
aI4027874367
aI2316532800
aI726633255118733314
aI743125946841075712
aI2583718980
aI1194406982
aI2938924897
aI3225027658
aI4863888459
aI702469197
aI254389819
aI3116108883
aI4391666772
aI790532622
aI1338207318
aI3820045400
aI827758259108876289
aI1265466458
aI3322750044
aI817729416159760384
aI3344342113
aI2738279522
aI2287195236
aI1066638157
aI2867469415
aI4319331433
aI2254105706
aI629856786
aI3081684078
aI2658651248
aI4862360691
aI2894933110
aI750485186953961472
aI3953620092
aI809508624846290944
aI1355920182
aI998048899
aI51985135
aI737389155374632960
aI1403489473
aI1225080684
aI3266321552
aI2430563474
aI88759444
aI3241125013
aI2681945238
aI3318275223
aI2709644440
aI366661960
aI2991259503
aI4800580764
aI913421850
aI326488944
aI751638870706393089
aI333862086
aI2624697201
aI2581778972
aI789683068529291264
aI4248949932
aI562302125
aI4799116462
aI4890860720
aI625134769
aI3000667315
aI759917749
aI1592179898
aI2248092859
aI611943614
aI536407233
aI3225148614
aI2827451591
aI3162807500
aI807441497968689153
aI596055243
aI1538426060
aI709904491324137473
aI2210975593
aI2502701766
aI1385456299
aI715091155
aI2612814030
aI575994471
aI636106617
aI3006659800
aI4647931100
aI206890206
aI1061532895
aI572388577
aI1375642850
aI2285106726
aI3197009126
aI307918056
aI2458590076
aI2251924819
aI780342640600494080
aI2268570860
aI150457581
aI3733976302
aI2888178932
aI2396288246
aI779862895207342080
aI4459232671
aI623064277
aI2941519104
aI3249456385
aI3317144790
aI731488686743789568
aI439759969
aI772698394468884480
aI2417741015
aI776642055632150529
aI1265685774
aI2788779620
aI2298834192
aI2441943895
aI502431619
aI801914137
aI1568728346
aI2698241310
aI718740451767877632
aI2866239024
aI799352136463065089
aI3406073734
aI2843569446
aI1711762729
aI2832513428
aI743885476663275520
aI783892062559010817
aI3008775474
aI1918263859
aI1687182644
aI743990999395991553
aI2975585591
aI1167369528
aI636771641
aI1543859516
aI4416646461
aI768152931342233601
aI4881130820
aI915617094
aI2900958535
aI298218825
aI1261101655
aI1406930251
aI3098209612
aI71887074
aI589200718
aI3326248273
aI2942287187
aI2192573780
aI524035413
aI2935537931
aI1652921689
aI848602460
aI4603843933
aI3738387806
aI746163104950583296
aI2365384034
aI2733784419
aI3118812516
aI532639077
aI1134789991
aI3969703277
aI1442684270
aI1655657839
aI2330670312
aI2825586036
aI376169846
aI821187394934308864
aI3248983417
aI2311933306
aI3265594748
aI3305630954
aI3255528832
aI825530904361644033
aI4220880258
aI1602764011
aI1701096836
aI1447888261
aI712760844275331072
aI2474708359
aI3308805513
aI813056318726668288
aI281247116
aI4694547853
aI4663412113
aI910740884
aI3949951214
aI804390165309517824
aI3307625195
aI30070173
aI2936448414
aI791152440586403840
aI3237563809
aI794336553375936513
aI1531143589
aI109079503
aI2795797928
aI741870492
aI3303876011
aI4808017932
aI265594288
aI3297951155
aI2310354356
aI705540742391791617
aI2860146104
aI527924667
aI1527383508
aI1404112320
aI872379841
aI2264321478
aI2253712631
aI4665132492
aI1258296782
aI2781023695
aI631399888
aI697872025579196416
aI564760020
aI532748604
aI2540818699
aI2214647258
aI4738797020
aI2954046244
aI730428818834522112
aI3307101664
aI730735464659845120
aI842517991
aI722733786
aI3388878314
aI2333644196
aI1658553836
aI1275106801
aI474721779
aI3071378932
aI719346645662498817
aI2996880887
aI467262970
aI3383743995
aI627719676
aI1855746410
aI733052334981427204
aI1714402123
aI705599151170400256
aI3129529859
aI1009612292
aI607912534
aI704889473130217472
aI2368321031
aI423155208
aI2613431817
aI572294666
aI70829579
aI3909250573
aI212352526
aI2506452495
aI551462417
aI3244371474
aI2997581337
aI843259418
aI719013403
aI762536091631161344
aI942644768
aI2564179490
aI765280029303410688
aI3333398054
aI2878692907
aI3094527536
aI77635121
aI2314534450
aI196821939
aI773711400694841345
aI3254963124
aI3537972795
aI3325992508
aI1128642110
aI2641634879
aI729161661047816194
aI1602894091
aI771521146374062080
aI1970286151
aI3141203528
aI1293090380
aI958772814
aI2491590223
aI64562768
aI455220820
aI1382747406
aI763479638
aI3245891160
aI963169892
aI2220531290
aI2931801692
aI3665821277
aI4922134110
aI2646918751
aI1617534560
aI2737790224
aI3731160674
aI1711128163
aI3323082340
aI3108868112
aI2918077472
aI1167562345
aI2451694183
aI1013782124
aI793908846
aI3167546991
aI808468250556301313
aI2781361782
aI2297419369
aI746417898290221056
aI1699395860
aI1947911802
aI71401834
aI1646624384
aI4921513602
aI2853346950
aI540238945
aI2949918345
aI2410049169
aI399881875
aI802797603473608705
aI829395660638035969
aI88268740
aI3110923930
aI2760009327
aI2953467550
aI1525598149
aI308045989
aI2938377891
aI1084055204
aI176584358
aI1961758375
aI115890141
aI2396564900
aI454678192
aI201064392
aI2348099870
aI47217688
aI1201149624
aI2650033849
aI3189302814
aI703101829924548608
aI3178751677
aI2434548000
aI2923724483
aI3068694212
aI749504197
aI703211090080079872
aI2897131218
aI3002728149
aI302345942
aI822514950203576320
aI2700680921
aI2292471515
aI2622150364
aI727625522327363585
aI2366268709
aI1859217120
aI3405058000
aI2600296164
aI1722807590
aI1386628646
aI755150418095722496
aI2916046572
aI1643198190
aI823394163412504576
aI2519054064
aI2361880305
aI2503333621
aI1663962871
aI2318208764
aI2287976191
aI263411883
aI2916806403
aI2471124740
aI2600201989
aI3286095624
aI3031623436
aI1491112237
aI1371213584
aI2987505426
aI365143839
aI380077856
aI1576142880
aI3020599076
aI2290351909
aI3025748273
aI1260963643
aI1515534122
aI3120193324
aI371795757
aI1373542190
aI816458978624290816
aI750606881735999489
aI3235651380
aI37146230
aI754576928
aI4693012280
aI2295160633
aI783975305249714176
aI2245027644
aI521735997
aI321472318
aI4748362037
aI2562727744
aI1064206159
aI521940018
aI707361258333274112
aI1878062917
aI3214327623
aI2457220939
aI2606264143
aI3658278435
aI3223557973
aI3307944870
aI2573629363
aI2731415385
aI537702234
aI251986576
aI3227672550
aI92804966
aI2371260264
aI3321892713
aI1428283242
aI401138663
aI491077484
aI4841521005
aI2937898863
aI747890669721522176
aI758729764639084545
aI424138615
aI727519591832784896
aI3037618495
aI3053340540
aI1226011285
aI2925733867
aI4092768132
aI4335947653
aI819750275040866304
aI2930270088
aI521656201
aI3189067660
aI1331898253
aI433860496
aI2490875794
aI296062869
aI2593496983
aI2808463258
aI923584411
aI339404700
aI2569531717
aI1600364449
aI623044514
aI718544267380002816
aI726832176373755905
aI4449849254
aI2386075562
aI770085713752850432
aI933146540
aI29011887
aI275165105
aI4175884211
aI2326405045
aI1063466934
aI251819960
aI459528122
aI726679484
aI3511134141
aI2321205185
aI3225575364
aI1419557563
aI2567333832
aI250955721
aI840284106
aI19613643
aI741842626052116481
aI3321016544
aI3122061262
aI4055781327
aI3377870800
aI1145640913
aI2258474964
aI3247274660
aI4166891482
aI833396142
aI297891804
aI4188331997
aI3129016290
aI794959820298194944
aI3045359590
aI802455716325916672
aI2902239211
aI3098603504
aI3022717608
aI2817728498
aI3568013299
aI1604937716
aI2877884406
aI1535408119
aI710919309229330432
aI4765384699
aI2275375100
aI2452330495
atp10
Rp11
sS'hour'
p12
I5
sS'url'
p13
ccollections
defaultdict
p14
(c__builtin__
int
p15
tp16
Rp17
sS'text'
p18
Vif u see an artist create compliment their new piece if u see someone who dressed up a bit compliment their outfit bein n\u2026
p19
sS'id'
p20
I1
sS'day'
p21
I10
sS'month'
p22
I2
sa(dp23
g2
(dp24
g4
I272
sg5
I0
ssg6
I272
sg7
g8
((lp25
I796910268722778112
aI798021852882931712
aI719615843676631043
aI583280132
aI812196438
aI737079966110646272
aI787642424327868417
aI2201179145
aI3300580876
aI716465678
aI523930639
aI212323857
aI1654840339
aI328363029
aI534117514
aI2185325591
aI94245913
aI2351330330
aI281122331
aI2792042012
aI451272733
aI2374883870
aI382510085
aI15386145
aI700218914
aI807766645091377152
aI2169463332
aI445031942
aI2160011815
aI1064416298
aI69146670
aI147357742
aI2210130992
aI633538764
aI120930357
aI48503350
aI2347782153
aI389879353
aI21709370
aI195880507
aI248989247
aI492358208
aI247621185
aI590241346
aI862212163
aI343209569
aI399756872
aI4110861194
aI377031755
aI2755248718
aI255545936
aI338452561
aI10695762
aI318728789
aI143332438
aI479922775
aI1240202653
aI33247322
aI263908443
aI803309969537896448
aI189698141
aI239090782
aI955947103
aI465134688
aI130977377
aI580744074
aI1710127718
aI1235516006
aI36227175
aI16557152
aI1639351914
aI31630098
aI2261505977
aI35635317
aI310307962
aI2314829436
aI280659582
aI77811841
aI1141499010
aI334195331
aI157765764
aI2577750661
aI727985977512235008
aI767121031
aI411873418
aI885815436
aI320872077
aI6825102
aI2920220305
aI221227666
aI6012992
aI3207714970
aI187641499
aI182929690
aI809948318
aI2284595360
aI228843169
aI558182050
aI25238691
aI448171675
aI263353542
aI2378149542
aI1036356265
aI701475179583688708
aI3368293895
aI917818831
aI235768503
aI1558426296
aI5864122
aI50594335
aI3354438844
aI793097089
aI420491971
aI3317859231
aI574724806
aI37284129
aI719248332
aI4498373836
aI491907793
aI467931861
aI44252886
aI70050008
aI890248922
aI2891234011
aI45291741
aI625101536
aI212921057
aI16492770
aI1242417896
aI298761962
aI1629515761
aI59829484
aI744665839
aI801276907325194240
aI739265961807613952
aI1255284475
aI271765244
aI719054385125265412
aI15538645
aI246855941
aI2502399238
aI310038791
aI395700490
aI22792972
aI17069442
aI998613720
aI2792729874
aI436733717
aI103978776
aI480776986
aI2382360860
aI723741470
aI164165409
aI1581016866
aI1692664099
aI799452095636119553
aI27450151
aI16559912
aI235812650
aI31272583
aI567636785
aI540445490
aI704579575
aI1587940153
aI2993239354
aI1922102077
aI396879678
aI17739317
aI147743040
aI1320728899
aI1723920950
aI518349640
aI283901770
aI3293943630
aI586194776
aI420822499
aI547157333
aI183851862
aI429523769
aI633866072
aI434035545
aI8894812
aI770639930
aI93350997
aI1639577953
aI746633058
aI928761702
aI425257833
aI2220646764
aI482675414
aI607093
aI36571777
aI558773626
aI333715324
aI441196417
aI1631883650
aI1177414657
aI1340508566
aI721837967745003520
aI46114695
aI5944712
aI192809354
aI630463554
aI403631504
aI599009169
aI234431378
aI15009171
aI3312553877
aI99229078
aI356458903
aI61948825
aI1035800474
aI2415339932
aI16482202
aI2360514840
aI481582495
aI404298145
aI126221730
aI249222051
aI2790117797
aI2217768359
aI326452137
aI163976661
aI1579072939
aI17055150
aI1542619274
aI2544814513
aI318281650
aI29874611
aI145803190
aI73049127
aI108770746
aI46011295
aI87218114
aI3300836803
aI109729988
aI337787850
aI334937547
aI3461845452
aI3077645262
aI77614151
aI20785617
aI255092690
aI1643352739
aI430281173
aI598761431
aI261689304
aI4902269913
aI637315548
aI437023098
aI4198914015
aI2493453280
aI521903585
aI251422299
aI263300579
aI339219940
aI43370150
aI21488124
aI231578394
aI1598236141
aI341944814
aI1390793713
aI40323571
aI98154484
aI3226473462
aI550493057
aI814084602
aI28490747
aI513955836
aI305609725
aI571739647
atp26
Rp27
sg12
I5
sg13
g14
(g15
tp28
Rp29
Vhttps://twitter.com/cbs46/status/827951392530784256
p30
I272
ssg18
Vi know a kid who got killed for wearing a hoodie riptrayvonmartin
p31
sg20
I2
sg21
I10
sg22
I2
sa(dp32
g2
(dp33
g4
I202
sg5
I0
ssg6
I202
sg7
g8
((lp34
I815401269032423424
aI750756366902562817
aI4190925314
aI727200563868360707
aI794969344505774084
aI796317123471704069
aI815748658952077312
aI765519499445489665
aI3305009580
aI3037272076
aI804078915740430338
aI748533567777574916
aI101297691
aI2731664924
aI1937498653
aI766737998478249984
aI4208390175
aI96088097
aI701738332687044608
aI49509924
aI745098305265242118
aI1458939943
aI2485920180
aI802251996300537856
aI540696754
aI1482800688
aI3403113010
aI726020564347932672
aI745274739166412801
aI2277423670
aI3076735543
aI761882842053742593
aI709884598461845505
aI3436472894
aI3369453119
aI329626038
aI724029049933176832
aI766227568223715328
aI1917400076
aI729512017
aI3345758386
aI2215004245
aI1014111830
aI785585356301176833
aI740555357123121152
aI2233334970
aI2537526366
aI783085152
aI810424072291160064
aI747350122296545281
aI737029854307188736
aI3364639851
aI2448532590
aI2363381360
aI798536949527171072
aI4140499572
aI3004982901
aI2823586423
aI1197127291
aI3314892565
aI234882176
aI828671534365552640
aI827924173716590592
aI1591791752
aI1893592717
aI4373826195
aI808375172067692544
aI2558813344
aI825810360494149633
aI3076674213
aI774212276362551296
aI809915895195652096
aI3526359209
aI772040789488787456
aI705669296
aI2836496050
aI3561204915
aI160007860
aI3655844535
aI790825945573756929
aI811272713700605958
aI3630945980
aI1183711423
aI3268841156
aI3490751777
aI767379306238574592
aI3289928393
aI821015795962523648
aI2751255757
aI829930443671638017
aI2778649809
aI2887051209
aI717265635366068224
aI3401737432
aI2302993531
aI2976435428
aI773184392235745280
aI3091582503
aI3255722733
aI506732787
aI2385852661
aI1195913462
aI749336617069010944
aI822626549505658881
aI1482438206
aI530968317
aI3762742528
aI1944443137
aI2339087618
aI2839240451
aI2388743940
aI4835426053
aI737039378317467648
aI4875703169
aI4325758217
aI2199257356
aI3303469837
aI2885906733
aI2860813072
aI4630274837
aI2458192662
aI3328951578
aI4898817819
aI713466928719917056
aI813657872793907200
aI707440942123458561
aI518322310
aI2842798889
aI2722475306
aI798968110355283968
aI3200207316
aI1651066669
aI4684852015
aI2743841072
aI2585197369
aI808372954715267073
aI610690367
aI2393169462
aI350640454
aI3342170440
aI2462938441
aI733726815102087168
aI2952803151
aI753747769
aI3899522788
aI3327609178
aI795396252250861568
aI1179707742
aI3124795743
aI3375082342
aI808371007677431808
aI818458848570830848
aI1462831849
aI812944673639534592
aI808597074145144832
aI3123198086
aI1921251199
aI3364143489
aI3288208771
aI828368548468715520
aI3835240336
aI2387093905
aI1511351191
aI2855347103
aI2953235874
aI2986961315
aI2954209701
aI2979464618
aI2163461182
aI738722047388438528
aI192352689
aI4842821554
aI720292801859047424
aI2337407924
aI2592209845
aI2815096320
aI396299704
aI734653110728163328
aI819829886630006784
aI1560227269
aI2932291529
aI771010588021587968
aI65660365
aI2785047502
aI4634755701
aI3435579856
aI1334892536
aI723433877549666304
aI3930726868
aI725793942235676673
aI829578087188877313
aI187595229
aI2751886305
aI3001818291
aI794200935119474688
aI2975239660
aI761189263199260672
aI4676452340
aI809041257779621888
aI827573813227487233
aI3055043067
aI766067209168977920
atp35
Rp36
sg12
I5
sg13
g14
(g15
tp37
Rp38
Vhttp://bit.ly/2k8VQnK
p39
I202
ssg18
Vawp  hyper beast factory new giveaway   rt  follow  go \U0001f449    winner in 12 hours
p40
sg20
I3
sg21
I10
sg22
I2
sa(dp41
g2
(dp42
g4
I146
sg5
I2
ssg6
I148
sg7
g8
((lp43
I3494417536
aI759369869741682688
aI780818549187031042
aI2495733547
aI730350885163905024
aI787783702881394689
aI4875796332
aI804655747661496320
aI750069880838164482
aI202994349
aI2350513298
aI952818067
aI1269342870
aI792689859429269504
aI788220420617080832
aI752482010178912256
aI1402573728
aI82896803
aI774195736221286401
aI310691237
aI3343932454
aI780812608337092608
aI398039721
aI715444427762720769
aI1654989739
aI2879667890
aI2432343730
aI4474012339
aI2931392052
aI2398093621
aI2912444598
aI786981012504993792
aI2501462712
aI783693582796460033
aI2446966074
aI786116913483116544
aI786583893579145217
aI4086367935
aI787368679835066368
aI787535750812299265
aI786524255643013120
aI2249451588
aI780353737470640128
aI3234898377
aI285129293
aI1598012750
aI75367248
aI2706242513
aI231078482
aI861938131
aI736543498401251329
aI548259286
aI4210630393
aI816664148700499968
aI2545948068
aI4717299913
aI707229520898748416
aI2571103709
aI734076571724611584
aI3057746963
aI715441189751631872
aI801085555819876352
aI552683814
aI790214139993989120
aI3255584124
aI1647075434
aI793457800651218944
aI155677549
aI793460321776128000
aI803647865025339392
aI58416147
aI799949025122385920
aI3849726313
aI2918877049
aI1383474170
aI2385265916
aI349585130
aI2889345278
aI2191643570
atp44
Rp45
sg12
I5
sg13
g14
(g15
tp46
Rp47
Vhttp://bit.ly/2fPPZVt
p48
I148
ssg18
Vlung cancer symptoms could your persistent cough be a sign of deadly disease
p49
sg20
I4
sg21
I10
sg22
I2
sa(dp50
g2
(dp51
g4
I112
sg5
I0
ssg6
I112
sg7
g8
((lp52
I746222652709167104
aI776125289646559233
aI343151618
aI35514883
aI2902495236
aI2419748358
aI2450907661
aI2336064016
aI2358716438
aI1010405401
aI1041358362
aI338833754
aI2538648097
aI540896810
aI1039260210
aI141590622
aI2195841592
aI257476675
aI983744071
aI197701192
aI989039690
aI3384137229
aI3676152915
aI259042900
aI274168411
aI3373450846
aI2416533092
aI3186273390
aI397293682
aI82143348
aI1220459642
aI4753273467
aI2870789757
aI396339329
aI1489685126
aI134182545
aI486103698
aI285932180
aI392961176
aI2602431645
aI2218412703
aI264496288
aI2893212834
aI62048943
aI236677809
aI1693594802
aI515183288
aI625327563
aI179730118
aI2536026825
aI616676557
aI258971856
aI2973844183
aI2203869913
aI967273082
aI2505956576
aI2265134820
aI2598954739
aI2822855937
aI2861716228
aI4254360327
aI487437064
aI2305823508
aI597981976
aI149240089
aI263942429
aI189645607
aI595846440
aI294835498
aI119335736
aI159935292
aI476046142
aI192654656
aI267239746
aI562932553
aI2377963342
aI991581522
aI1025642330
aI274063715
aI3184807783
aI3960126315
aI361999219
aI2268308343
aI349449593
aI868977530
aI60282752
aI350078850
aI3040101251
aI3068760457
aI388549518
aI360405903
aI175772312
aI446753690
aI311787421
aI169372657
aI2182137258
aI17428039
aI3307510204
aI1514976702
aI361716672
aI130666955
aI701592094901714944
aI190658001
aI146948056
aI169641441
aI169529829
aI316827112
aI2577923054
aI1143043568
aI73293809
aI74268158
aI2440316414
atp53
Rp54
sg12
I5
sg13
g14
(g15
tp55
Rp56
Vhttps://twitter.com/GlobalGrind/status/829744261310664707
p57
I112
ssg18
Vthe article says its because he didnt know them saved u a click
p58
sg20
I5
sg21
I10
sg22
I2
sa(dp59
g2
(dp60
g4
I110
sg5
I2
ssg6
I112
sg7
g8
((lp61
I730350885163905024
aI759369869741682688
aI780818549187031042
aI2495733547
aI786116913483116544
aI774195736221286401
aI799949025122385920
aI750069880838164482
aI2350513298
aI952818067
aI1269342870
aI734076571724611584
aI788220420617080832
aI780353737470640128
aI1402573728
aI82896803
aI787783702881394689
aI310691237
aI3343932454
aI793457800651218944
aI715444427762720769
aI398039721
aI3494417536
aI1654989739
aI2879667890
aI2432343730
aI4474012339
aI2931392052
aI2398093621
aI786981012504993792
aI2501462712
aI783693582796460033
aI2446966074
aI4086367935
aI786524255643013120
aI2249451588
aI792689859429269504
aI3234898377
aI801085555819876352
aI285129293
aI1598012750
aI75367248
aI787535750812299265
aI231078482
aI861938131
aI736543498401251329
aI548259286
aI4210630393
aI2545948068
aI4717299913
aI707229520898748416
aI2571103709
aI804655747661496320
aI3057746963
aI715441189751631872
aI816664148700499968
aI552683814
aI790214139993989120
aI2385265916
aI1647075434
aI4875796332
aI155677549
aI793460321776128000
aI803647865025339392
aI58416147
aI3849726313
aI2918877049
aI1383474170
aI3255584124
aI2889345278
atp62
Rp63
sg12
I5
sg13
g14
(g15
tp64
Rp65
Vhttp://bit.ly/2dlQHoN
p66
I112
ssg18
V15 cancer symptoms women should never ignore
p67
sg20
I6
sg21
I10
sg22
I2
sa(dp68
g2
(dp69
g4
I0
sg5
I107
ssg6
I107
sg7
g8
((lp70
I4824627072
aI4824759553
aI4824699782
aI4824716300
aI4824712214
aI4824628128
aI4824718754
aI4824763045
aI4824617898
aI4824619692
aI4824711602
aI4824721460
aI4824708938
aI4824719564
aI4824754765
aI4824703826
aI4824702428
aI4824754795
aI4824748285
aI4824611706
aI4824708266
aI4824716414
atp71
Rp72
sg12
I5
sg13
g14
(g15
tp73
Rp74
Vhttp://bit.ly/29p446T?lyW2
p75
I1
sVhttp://bit.ly/29DCVBA?IFp
p76
I1
sVhttp://bit.ly/29ufrN5?r2vP7
p77
I1
sVhttp://bit.ly/29nVSHQ?5NC
p78
I1
sVhttp://bit.ly/29ufrN5?EUXh
p79
I1
sVhttp://bit.ly/29nVSHQ?w4s
p80
I1
sVhttp://bit.ly/29nVSHQ?IRrL
p81
I1
sVhttp://bit.ly/29DCVBA?vyAw
p82
I1
sVhttp://bit.ly/29p446T?9rUt
p83
I1
sVhttp://bit.ly/29oA9e9?kKY
p84
I1
sVhttp://bit.ly/29oA9e9?pQSKx
p85
I1
sVhttp://bit.ly/29nVSHQ?4ILrT
p86
I1
sVhttp://bit.ly/29DCVBA?aP2
p87
I1
sVhttp://bit.ly/29ufrN5?JFK0o
p88
I1
sVhttp://bit.ly/29nVSHQ?J2sS
p89
I1
sVhttp://bit.ly/29oA9e9?Xrn
p90
I1
sVhttp://bit.ly/29oA9e9?o6j
p91
I1
sVhttp://bit.ly/29oA9e9?6Mg
p92
I1
sVhttp://bit.ly/29p446T?N9IOo
p93
I1
sVhttp://bit.ly/29oA9e9?ziq
p94
I1
sVhttp://bit.ly/29nVSHQ?Ic8KG
p95
I1
sVhttp://bit.ly/29p446T?4Nhpz
p96
I1
sVhttp://bit.ly/29DCVBA?hmMpe
p97
I1
sVhttp://bit.ly/29nVSHQ?iFJI
p98
I1
sVhttp://bit.ly/29ufrN5?Ggg0F
p99
I1
sVhttp://bit.ly/freessextoysinfo5
p100
I1
sVhttp://bit.ly/29oA9e9?0MuIm
p101
I1
sVhttp://bit.ly/29p446T?Hyoe
p102
I1
sVhttp://bit.ly/29nVSHQ?U6cfD
p103
I1
sVhttp://bit.ly/29p446T?ONDY1
p104
I1
sVhttp://bit.ly/29nVSHQ?aTFC
p105
I1
sVhttp://bit.ly/29p446T?CuUj
p106
I1
sVhttp://bit.ly/29ufrN5?gua
p107
I1
sVhttp://bit.ly/29DCVBA?49q7N
p108
I1
sVhttp://bit.ly/29DCVBA?3Mz
p109
I1
sVhttp://bit.ly/29DCVBA?FhMh
p110
I1
sVhttp://bit.ly/29ufrN5?eV6
p111
I1
sVhttp://bit.ly/29nVSHQ?pZJ
p112
I1
sVhttp://bit.ly/29ufrN5?gUE9B
p113
I1
sVhttp://bit.ly/29nVSHQ?CvOE
p114
I1
sVhttp://bit.ly/29p446T?QE3
p115
I1
sVhttp://bit.ly/29ufrN5?Pdxm
p116
I1
sVhttp://bit.ly/29nVSHQ?FoANt
p117
I1
sVhttp://bit.ly/29oA9e9?3Kf
p118
I1
sVhttp://bit.ly/29p446T?gYzn
p119
I1
sVhttp://bit.ly/29DCVBA?1nhc
p120
I1
sVhttp://bit.ly/29oA9e9?W442
p121
I1
sVhttp://bit.ly/29oA9e9?Pjb9
p122
I1
sVhttp://bit.ly/29DCVBA?lZe
p123
I1
sVhttp://bit.ly/29ufrN5?HML
p124
I1
sVhttp://bit.ly/29p446T?9d9
p125
I1
sVhttp://bit.ly/29DCVBA?R4f
p126
I1
sVhttp://bit.ly/freessextoysinfo
p127
I20
sVhttp://bit.ly/29nVSHQ?RnIl
p128
I1
sVhttp://bit.ly/29p446T?NBraJ
p129
I1
sVhttp://bit.ly/29ufrN5?KqPK
p130
I1
sVhttp://bit.ly/29oA9e9?sEuFv
p131
I1
sVhttp://bit.ly/29nVSHQ?euFN
p132
I1
sVhttp://bit.ly/29p446T?Zuz
p133
I1
sVhttp://bit.ly/29p446T?DM1x0
p134
I1
sVhttp://bit.ly/29oA9e9?hQy
p135
I1
sVhttp://bit.ly/29p446T?UQL
p136
I1
sVhttp://bit.ly/29nVSHQ?2pW
p137
I1
sVhttp://bit.ly/29oA9e9?n05kU
p138
I1
sVhttp://bit.ly/29ufrN5?EBNQ
p139
I1
sVhttp://bit.ly/29ufrN5?eaNyT
p140
I1
sVhttp://bit.ly/29p446T?ZbR
p141
I1
sVhttp://bit.ly/29p446T?sKrQP
p142
I1
sVhttp://bit.ly/29nVSHQ?Wb5
p143
I1
sVhttp://bit.ly/29p446T?FM3
p144
I1
sVhttp://bit.ly/29nVSHQ?Iosjk
p145
I1
sVhttp://bit.ly/29oA9e9?bDEnP
p146
I1
sVhttp://bit.ly/29oA9e9?dvn
p147
I1
sVhttp://bit.ly/29oA9e9?5ZfOa
p148
I1
sVhttp://bit.ly/29p446T?5zMXH
p149
I1
sVhttp://bit.ly/29p446T?PKh
p150
I1
sVhttp://bit.ly/29ufrN5?musnq
p151
I1
sVhttp://bit.ly/29ufrN5?d3c
p152
I1
sVhttp://bit.ly/29p446T?qWFZ
p153
I1
sVhttp://bit.ly/29ufrN5?36XQ
p154
I1
sVhttp://bit.ly/29oA9e9?dLSr7
p155
I1
sVhttp://bit.ly/29DCVBA?fjD
p156
I1
sVhttp://bit.ly/29DCVBA?FwlN
p157
I1
sVhttp://bit.ly/29DCVBA?jhpw
p158
I1
sVhttp://bit.ly/29p446T?ldL0
p159
I1
sVhttp://bit.ly/29nVSHQ?ri4e2
p160
I1
sVhttp://bit.ly/29DCVBA?Iuz
p161
I1
sVhttp://bit.ly/29nVSHQ?RwS
p162
I1
ssg18
Vfor you guys watch this video and get this masturbator for free   porn sex boobs
p163
sg20
I7
sg21
I10
sg22
I2
sa(dp164
g2
(dp165
g4
I97
sg5
I0
ssg6
I97
sg7
g8
((lp166
I800210632196767744
aI736174512128036865
aI792424844667281413
aI796162038984622080
aI701940513042116609
aI724383247
aI2384466966
aI1666902554
aI18253340
aI1571681310
aI765992134973460480
aI102718504
aI134568967
aI354120748
aI2186477405
aI1497564721
aI4115217843
aI3399828537
aI2617789506
aI2991318285
aI1296542804
aI1032853592
aI3347239516
aI2483249761
aI189393682
aI447706734
aI53698679
aI2236984441
aI3465050239
aI3044933250
aI794643647954194432
aI420007561
aI54444175
aI471236245
aI4160258717
aI1296743592
aI2565989033
aI2783041196
aI3284420785
aI4799218357
aI2236462777
aI2790570687
aI3314006725
aI1350202057
aI3284749519
aI574863576
aI750220010
aI2364114159
aI332184304
aI1503556338
aI1320697604
aI760234516707287040
aI3113623819
aI4428115213
aI1085015826
aI1357096212
aI3192488231
aI1855809320
aI4741592876
aI37382959
aI2864463411
aI712707128041943041
aI2225920836
aI2907422543
aI549622612
aI3309536605
aI429241695
aI1202844517
aI2989229930
aI3079093623
aI3213940088
aI2897009533
aI4672271232
aI819135458454040576
aI209476999
aI962550672
aI756579218
aI855281563
aI3847641501
aI3007506846
aI2385814944
aI346688417
aI827703843232346113
aI736016950279557120
aI3314228152
aI602678722
aI540308931
aI779688390
aI2396309452
aI3148430809
aI3170882383
aI530887646
aI191549416
aI2765917678
aI4036537334
aI720769022
atp167
Rp168
sg12
I5
sg13
g14
(g15
tp169
Rp170
Vhttps://twitter.com/i/web/status/829897706944356352
p171
I97
ssg18
Vwere turning back time in our new floralandfading music video watch on our facebook page \u2026
p172
sg20
I8
sg21
I10
sg22
I2
sa(dp173
g2
(dp174
g4
I93
sg5
I0
ssg6
I93
sg7
g8
((lp175
I799037406695526400
aI772648725386711040
aI54189058
aI247149061
aI754039300921106433
aI510987282
aI367951893
aI213923864
aI752074777
aI4766535198
aI3713245215
aI714688519931826176
aI157103655
aI1500143148
aI238075953
aI2990438450
aI3019196980
aI1067612731
aI17428039
aI197701192
aI54939210
aI2741315677
aI2647186015
aI41269345
aI2416533092
aI1062187111
aI239881335
aI954956923
aI398994197
aI749285050953371648
aI402405313
aI232304270
aI41436303
aI292137104
aI47005332
aI331155095
aI886664857
aI3421368483
aI815750883862401025
aI2635339440
aI841029818
aI1969254588
aI832465598
aI2521354444
aI4872858914
aI4637908697
aI819293929
aI246626431
aI2465572094
aI331388163
aI335321861
aI210168194
aI3192601365
aI594749212
aI326825758
aI768165168
aI1184687394
aI33030950
aI622632232
aI1861724970
aI564272430
aI45688112
aI727755061
aI612139572
aI448563514
aI836406086
aI4751250252
aI3134864717
aI3888393554
aI2812318554
aI468780403
aI3182327156
aI2337682807
aI448419198
aI1657202047
aI746379138
aI389727622
aI1543705992
aI52596619
aI438694296
aI31557025
aI2708319680
aI4871950273
aI1648469444
aI3270836167
aI2717899211
aI2329408472
aI2610596322
aI2802806245
aI805661672
aI627845100
aI363974645
aI403118077
atp176
Rp177
sg12
I5
sg13
g14
(g15
tp178
Rp179
Vhttps://twitter.com/enews/status/829747994417324033
p180
I93
ssg18
Vwhen nobody cares about your pr stunt
p181
sg20
I9
sg21
I10
sg22
I2
sa(dp182
g2
(dp183
g4
I84
sg5
I0
ssg6
I84
sg7
g8
((lp184
I772664636831326208
aI813657280113741824
aI756720820643328004
aI2853101701
aI770304194410582016
aI729667347590471681
aI827009542798114816
aI809989656666218496
aI751016205507502080
aI726346869958447104
aI4849763857
aI809935472273321984
aI814774176288489472
aI797750566529204228
aI794858079019929600
aI828252607344996352
aI814147558373265408
aI824960368829136896
aI810312889353510913
aI2915359856
aI826104124722778112
aI811469886119673857
aI790081321599115264
aI635178779
aI800212906646257665
aI789327341654867968
aI798852075840880640
aI750155153316065281
aI784380370053627905
aI754911182755094528
aI2942951796
aI808662174000357376
aI736472534409830400
aI826008550837198849
aI764143436706512896
aI788706135922450433
aI3019492418
aI823168592438923264
aI2865180612
aI825261497999835137
aI810429274628857856
aI2295989960
aI793764688668393472
aI2822930935
aI2981876684
aI2872723021
aI749950000851980288
aI3302346961
aI2892452178
aI2898619603
aI800269685300215808
aI2853011642
aI3501878232
aI2769239204
aI826478520146726912
aI782546904576094208
aI762287223899295744
aI3304400221
aI2996638430
aI825244803009019904
aI2862139489
aI3304374242
aI780453957235838976
aI826022259345203201
aI3316833894
aI4840357627
aI2896512872
aI782116952894504960
aI2875532090
aI817669746896289792
aI2560961341
aI821149736216436736
aI2989349361
aI2853294578
aI750675981095108608
aI2911137908
aI828970429578674177
aI2883577591
aI737618140377419776
aI751397678580400128
aI810825964456472576
aI749917403266551809
aI804943889245216769
aI821660554137927680
atp185
Rp186
sg12
I5
sg13
g14
(g15
tp187
Rp188
Vhttps://twitter.com/i/web/status/829696265420025856
p189
I1
sVhttps://twitter.com/i/web/status/829686729170841601
p190
I83
ssg18
Vtreat yourself to the soulful lyrics\U0001f3bc here presenting tujhepaake that will tug at your heart strings\U0001f3b6\U0001f49d check\u2026
p191
sg20
I10
sg21
I10
sg22
I2
sa(dp192
g2
(dp193
g4
I80
sg5
I0
ssg6
I80
sg7
g8
((lp194
I818205017228374016
aI728572417321406464
aI2339087618
aI727200563868360707
aI751548329692192772
aI3543345029
aI518322310
aI750756366902562817
aI1591791752
aI777744443063558144
aI2294336671
aI821054306702872576
aI2860813072
aI828368548468715520
aI2839240451
aI808372954715267073
aI4875703169
aI4891077014
aI1511351191
aI3312544796
aI4842821554
aI821019373322248193
aI250188193
aI785585356301176833
aI712676816134254592
aI774212276362551296
aI794200935119474688
aI234882176
aI3930726868
aI738722047388438528
aI1651066669
aI3762742528
aI2393169462
aI854424752
aI2836496050
aI726020564347932672
aI160007860
aI2537526366
aI745274739166412801
aI739185466470195200
aI2585197369
aI2865674527
aI3630945980
aI3154035773
aI737029854307188736
aI2390774336
aI815401269032423424
aI707440942123458561
aI1560227269
aI4208390175
aI707757595142959104
aI740908472838070272
aI2778649809
aI3345758386
aI3200207316
aI3131336535
aI1572547038
aI895259748
aI405555303
aI187595229
aI4839271390
aI717265635366068224
aI3835240336
aI808375172067692544
aI2976435428
aI2887236965
aI829930443671638017
aI2534360169
aI797682828062248960
aI3091582503
aI3252387008
aI2646848882
aI2208441970
aI4634755701
aI1195913462
aI808371007677431808
aI819829886630006784
aI2302993531
aI530968317
aI798968110355283968
atp195
Rp196
sg12
I5
sg13
g14
(g15
tp197
Rp198
Vhttp://bit.ly/2kWQLmy
p199
I80
ssg18
V\u2b50\ufe0f flip knife  lore 17800 giveaway   rt  follow  go \U0001f449    winner in 24 hours
p200
sg20
I11
sg21
I10
sg22
I2
sa(dp201
g2
(dp202
g4
I76
sg5
I0
ssg6
I76
sg7
g8
((lp203
I747465845178138624
aI715116958341931008
aI741650631992086530
aI723433125070565380
aI720159948345380864
aI722719209759895553
aI741697810861461506
aI704020328553406464
aI2904778896
aI3254464896
aI733715617837109249
aI825803292
aI711624524681228288
aI723438467972108288
aI711622217042243585
aI703282742675394560
aI715149785456451584
aI2897649960
aI728612986110226432
aI2708998957
aI722713470060347392
aI2834485424
aI741702436004319232
aI3494681653
aI715129411465404416
aI4764741432
aI719803636595953665
aI3007945567
aI741650559338307584
aI2587535550
aI733709779714080768
aI2926360128
aI747469621700108288
aI715144932290211840
aI715131292677869568
aI741695667723083776
aI723434570721316864
aI711619244769673218
aI2997446797
aI4516441297
aI2936909138
aI725751946158571521
aI727558048655507457
aI2976191958
aI722711754518749184
aI4614447192
aI2778334940
aI747467632979279872
aI743475904655982592
aI743470523875659776
aI725754953801695232
aI720154540570517504
aI726140848199487489
aI3306602348
aI4794440894
aI743457811435184128
aI747466888653869056
aI1709099006
atp204
Rp205
sg12
I5
sg13
g14
(g15
tp206
Rp207
Vhttp://bit.ly/2kBKri3
p208
I34
sVhttp://bit.ly/2kAHw9k
p209
I42
ssg18
Vdrink in the sun and find her 39photos  \U0001f61c\U0001f61c\U0001f602\U0001f602\U0001f606\U0001f606\U0001f62e\U0001f62e
p210
sg20
I12
sg21
I10
sg22
I2
sa(dp211
g2
(dp212
g4
I73
sg5
I0
ssg6
I73
sg7
g8
((lp213
I765471852680675328
aI806103956195667969
aI2730683010
aI828126844503388160
aI828415610845528068
aI829553840290664448
aI768367434411696129
aI2943845768
aI749513659626381313
aI825307500874436608
aI3315217170
aI820941924152606721
aI751397678580400128
aI814473748543770624
aI2951445146
aI1274442782
aI753271972717395968
aI829545007912718336
aI738987983164968961
aI2904167078
aI2868495528
aI701056801484058624
aI2917227911
aI826665563745312769
aI821896708900667392
aI820902102549532673
aI793691204462505984
aI4274652733
aI816638442889183232
aI817657039484817408
aI780580850517684225
aI796785825514033152
aI705414375624933376
aI701411601174233088
aI3256298593
aI2940466633
aI3319857655
aI2981876684
aI3220393549
aI489217232
aI766288602791809024
aI2853166418
aI732940947151945729
aI2910743382
aI720926370352783360
aI4722623960
aI2959235545
aI811185574786826241
aI810377273958395904
aI814796912398307328
aI3304400221
aI845125087
aI2931771744
aI708977569995993089
aI728832429524324352
aI731844446602600448
aI3319866600
aI2831291753
aI4432991594
aI635183079
aI4673505517
aI801078474576424960
aI2601080816
aI2983441832
aI2749293170
aI794002627084374016
aI809935472273321984
aI3224987126
aI751989784529297408
aI828970429578674177
aI826796688018903040
aI810488821167124480
aI3313605374
atp214
Rp215
sg12
I5
sg13
g14
(g15
tp216
Rp217
Vhttp://bit.ly/BookHKNKJ
p218
I73
ssg18
Vpacked with mindblowing action and stunts hknkjincinemas  book ur tickets now
p219
sg20
I13
sg21
I10
sg22
I2
sa(dp220
g2
(dp221
g4
I71
sg5
I0
ssg6
I71
sg7
g8
((lp222
I769019192712564736
aI762591566619938816
aI835454594
aI4105226603
aI3418497669
aI780303857884684288
aI1945112455
aI1316577416
aI623137034
aI2907512578
aI2762875534
aI1705935469
aI591720464
aI3373004945
aI1860886418
aI381682963
aI3245652756
aI333451285
aI1939675542
aI2939788149
aI808476697
aI768583621187895301
aI1695996830
aI702154757947916288
aI1548201378
aI1367974308
aI1651056902
aI2703031473
aI1082575879
aI1039818284
aI825776306075877376
aI2508757041
aI300400434
aI924161131
aI246163636
aI2855026486
aI2384232504
aI2777282747
aI129333053
aI2305050943
aI758440162384752640
aI2875219272
aI1267161673
aI4002827596
aI358529826
aI2314341326
aI719505303830708224
aI4838557264
aI736857912
aI3238949710
aI3131279447
aI987171804
aI823673223459938305
aI3034336162
aI2680378448
aI785064563377078273
aI328620003
aI2288417509
aI1643298278
aI731350419184754688
aI1713013608
aI799714672127672320
aI2274622187
aI3364187117
aI2730141885
aI804305632568418304
aI777807556974669825
aI586454035
aI3022923893
aI515068670
atp223
Rp224
sg12
I5
sg13
g14
(g15
tp225
Rp226
Vhttp://bit.ly/2kN1gq4
p227
I71
ssg18
Vso proud of my amazing manager philymack for making the billboard power100 \U0001f4aa\U0001f3fb
p228
sg20
I14
sg21
I10
sg22
I2
sa(dp229
g2
(dp230
g4
I70
sg5
I0
ssg6
I70
sg7
g8
((lp231
I789782697338077184
aI829553840290664448
aI762513063199121410
aI781561272
aI797750566529204228
aI2853101701
aI826104124722778112
aI743404068412940289
aI751979330935279617
aI810814722266300416
aI782542486606610432
aI3019492418
aI708977569995993089
aI2868435288
aI2861800596
aI817669746896289792
aI2880818052
aI749950000851980288
aI782544763073531904
aI806868877078429696
aI815886639901839360
aI729667347590471681
aI821149736216436736
aI750675981095108608
aI3185464236
aI798852075840880640
aI752005846943477761
aI714266449574043648
aI784380370053627905
aI2290652672
aI754911182755094528
aI3246147512
aI782546904576094208
aI782538579364966400
aI2560961341
aI820558883596959744
aI782193637136347136
aI823168592438923264
aI2981876684
aI825642766524878849
aI2822930935
aI782523491560124416
aI2872723021
aI4732575054
aI822318993658638337
aI782547485977899008
aI761193525056638976
aI738987983164968961
aI788706135922450433
aI816627978977341440
aI821173124217655297
aI3304400221
aI810312889353510913
aI799585433151799296
aI2862139489
aI824443732808372224
aI791932300728541184
aI817662822062653440
aI2852980842
aI761196215442681856
aI782833851882147840
aI810391218697961472
aI3038966894
aI764143436706512896
aI782548509300027392
aI2883577591
aI828970429578674177
aI720875199407591424
aI2911690238
aI796956514472919040
atp232
Rp233
sg12
I5
sg13
g14
(g15
tp234
Rp235
Vhttp://bit.ly/TujhePaaKeSong
p236
I70
ssg18
Vpresenting a brand new song tujhepaake from msgthefilm starring gurmeetramrahim
p237
sg20
I15
sg21
I10
sg22
I2
sa(dp238
g2
(dp239
g4
I4
sg5
I61
ssg6
I65
sg7
g8
((lp240
I820560291662598144
aI4030069889
aI702600318803120130
aI817780804369739779
aI789888045797564420
aI703308840637489152
aI2339213185
aI2669336587
aI2291153934
aI2187358607
aI4212628241
aI40243988
aI3146671909
aI3225897623
aI2920266904
aI4361035161
aI2467526299
aI2650779166
aI825781773053329408
aI827727252322258944
aI814625545577107457
aI814750236912422918
aI2819454773
aI4885865896
aI4187224233
aI4511577132
aI376583112
aI775560488566521857
aI778308318691459073
aI829930647124729856
aI4196602169
aI800261525298507776
aI769954887937458176
aI1737385920
aI2756585892
aI815758041517690880
aI2462797764
aI1410308294
aI2993055585
aI753961901290291200
aI1687364328
aI2885206610
aI377689835
aI815574393967509505
aI2624809558
aI703662708659511296
aI4735985241
aI168672959
aI716788821992472576
aI705130146504826880
aI3116261602
aI2913978011
aI2724567656
aI774308496498130944
aI1073380843
aI186599710
aI1064178673
aI31280245
aI763812646026084352
aI4514495354
aI803683250363396096
aI471068158
aI781427912801222656
atp241
Rp242
sg12
I5
sg13
g14
(g15
tp243
Rp244
Vhttp://bit.ly/british-video
p245
I65
ssg18
Vi voted for history by onedirection for british video at the brits 2017   britvidonedirection
p246
sg20
I16
sg21
I10
sg22
I2
sa(dp247
g2
(dp248
g4
I0
sg5
I62
ssg6
I62
sg7
g8
((lp249
I4824627072
aI4824759553
aI4824718754
aI4824628128
aI4824763045
aI4824699782
aI4824619692
aI4824708266
aI4824754795
aI4824716300
aI4824711602
aI4824617898
aI4824754765
aI4824703826
aI4824748285
aI4824721460
aI4824712214
aI4824719564
aI4824702428
aI4824708938
aI4824716414
atp250
Rp251
sg12
I5
sg13
g14
(g15
tp252
Rp253
Vhttp://bit.ly/29X09Pd?emFXp
p254
I1
sVhttp://bit.ly/29ty5r0?0gr35
p255
I1
sVhttp://bit.ly/29X09Pd?51kS
p256
I1
sVhttp://bit.ly/29ty5r0?Aomu
p257
I1
sVhttp://bit.ly/29ty5r0?Aab8z
p258
I1
sVhttp://bit.ly/29X09Pd?T3Ir0
p259
I1
sVhttp://bit.ly/29ty5r0?grzBM
p260
I1
sVhttp://bit.ly/29ty5r0?5t2
p261
I1
sVhttp://bit.ly/29X09Pd?87edK
p262
I1
sVhttp://bit.ly/29ty5r0?o6L0D
p263
I1
sVhttp://bit.ly/29X09Pd?FSb
p264
I1
sVhttp://bit.ly/29ty5r0?djJ
p265
I1
sVhttp://bit.ly/29X09Pd?be1O
p266
I1
sVhttp://bit.ly/29ty5r0?nX0XZ
p267
I1
sVhttp://bit.ly/29ty5r0?59Twh
p268
I1
sVhttp://bit.ly/29X09Pd?ALr
p269
I1
sVhttp://bit.ly/29ty5r0?OQY
p270
I1
sVhttp://bit.ly/29X09Pd?ksBHO
p271
I1
sVhttp://bit.ly/29ty5r0?m5cf
p272
I1
sVhttp://bit.ly/29X09Pd?YXcY
p273
I1
sVhttp://bit.ly/29ty5r0?DYkO
p274
I1
sVhttp://bit.ly/29ty5r0?Q3X
p275
I1
sVhttp://bit.ly/29ty5r0?DaUS9
p276
I1
sVhttp://bit.ly/freessextoysinfo
p277
I17
sVhttp://bit.ly/29ty5r0?BKi
p278
I1
sVhttp://bit.ly/29X09Pd?Z9mZ
p279
I1
sVhttp://bit.ly/29ty5r0?MiAu0
p280
I1
sVhttp://bit.ly/29X09Pd?JGrk
p281
I1
sVhttp://bit.ly/29ty5r0?pgzPB
p282
I1
sVhttp://bit.ly/29X09Pd?a7D
p283
I1
sVhttp://bit.ly/29X09Pd?siJp
p284
I1
sVhttp://bit.ly/29ty5r0?3at
p285
I1
sVhttp://bit.ly/29X09Pd?UdG2
p286
I1
sVhttp://bit.ly/29ty5r0?QY66
p287
I1
sVhttp://bit.ly/29ty5r0?gZn
p288
I1
sVhttp://bit.ly/29X09Pd?wP7
p289
I1
sVhttp://bit.ly/29X09Pd?k0UmT
p290
I2
sVhttp://bit.ly/29ty5r0?ZI0
p291
I1
sVhttp://bit.ly/29ty5r0?0oiM3
p292
I1
sVhttp://bit.ly/29X09Pd?5VK
p293
I1
sVhttp://bit.ly/29X09Pd?JoZV2
p294
I1
sVhttp://bit.ly/29X09Pd?wIwL
p295
I1
sVhttp://bit.ly/29X09Pd?VH0s8
p296
I1
sVhttp://bit.ly/29ty5r0?8Wr6
p297
I1
sVhttp://bit.ly/29ty5r0?PA1
p298
I1
ssg18
Vwatch me guys get this masturbator for free and watch my cam   porn sex boobs
p299
sg20
I17
sg21
I10
sg22
I2
sa(dp300
g2
(dp301
g4
I61
sg5
I0
ssg6
I61
sg7
g8
((lp302
I2645751055
atp303
Rp304
sg12
I5
sg13
g14
(g15
tp305
Rp306
Vhttp://bit.ly/2dHPhbK
p307
I61
ssg18
Viloveshopping use code z70 to get   70   off your entire purchase in my online shop wi\u2026
p308
sg20
I18
sg21
I10
sg22
I2
sa(dp309
g2
(dp310
g4
I58
sg5
I0
ssg6
I58
sg7
g8
((lp311
I723630073010491392
aI764684118512832512
aI324111234
aI2563456470
aI783810117653278720
aI409584519
aI2918958474
aI705600178133344258
aI447548686
aI2336221165
aI364026896
aI426842641
aI385256983
aI605113368
aI3021493116
aI2898024734
aI1149705120
aI1016918563
aI2560158120
aI160944297
aI753378515269988352
aI220221106
aI2850955440
aI159592626
aI2463804086
aI18657463
aI15762746
aI712488078951079936
aI947948605
aI3008591808
aI1275445057
aI130995522
aI343167555
aI1719611588
aI310063234
aI1653769801
aI2346153546
aI721837967745003520
aI96671564
aI3080276943
aI605722787
aI2767665237
aI489568854
aI748911087731347456
aI189904350
aI26930274
aI2820916839
aI493842428
aI737470572
aI3236600173
aI386311280
aI37776372
aI1005615606
aI2544457335
aI1547264376
aI233031418
aI169663100
aI139865342
atp312
Rp313
sg12
I5
sg13
g14
(g15
tp314
Rp315
Vhttps://twitter.com/i/web/status/829893107051282434
p316
I58
ssg18
Vit was illegal from the very beginning 1851 laramie treaty if amerikkka followed its own laws and honored treat\u2026
p317
sg20
I19
sg21
I10
sg22
I2
sa(dp318
g2
(dp319
g4
I55
sg5
I0
ssg6
I55
sg7
g8
((lp320
I2545931264
aI719754951547883520
aI2313061122
aI2308050948
aI2329159813
aI719774875091615744
aI2258829548
aI2647052887
aI56689422
aI1649986321
aI2531935634
aI2331777684
aI2331767406
aI2324916697
aI2331849368
aI2341574916
aI2331782940
aI2331631262
aI2545651615
aI2318858018
aI2295295524
aI2359241510
aI2545456680
aI588169385
aI2308033964
aI719750857114292224
aI1450512432
aI2331538098
aI1666873268
aI2315365824
aI2545329888
aI719748314086805504
aI166207562
aI3014002639
aI2515232850
aI2515031125
aI3091015673
aI3090913113
aI2612986332
aI2514531037
aI2998294238
aI2313020384
aI389421952
aI1513495910
aI920488039
aI2545971308
aI2325034861
aI2514576494
aI2322185839
aI2512314996
aI2322192510
aI2515377913
aI2572289533
aI2313068670
aI2322231445
atp321
Rp322
sg12
I5
sg13
g14
(g15
tp323
Rp324
Vhttps://twitter.com/i/web/status/829927858533392391
p325
I55
ssg18
Vat inauguration of national womens parliament amaravathi in association with mitsog pune along with ncbn\u2026
p326
sg20
I20
sg21
I10
sg22
I2
sa(dp327
g2
(dp328
g4
I55
sg5
I0
ssg6
I55
sg7
g8
((lp329
I724433017440067584
aI747775427096223745
aI1356108162
aI2726694917
aI728283751487180800
aI355335944
aI149656460
aI716725529072697346
aI4876296974
aI583940240
aI43810158
aI20321432
aI1912238276
aI413425947
aI394845344
aI104414491
aI772941350484385792
aI24963237
aI16641448
aI241348393
aI962636461
aI761758829717561344
aI20130736
aI15969329
aI1936403509
aI3229289016
aI3067269178
aI1512141301
aI787898256017780738
aI41944131
aI3024329412
aI41620677
aI53240007
aI104694474
aI710301458609078274
aI22171213
aI338007181
aI46916472
aI2203491043
aI839040121
aI749832610411638784
aI186654300
aI3983921594
aI53519198
aI89098209
aI88021346
aI17175139
aI40499431
aI1418313960
aI579582188
aI42790254
aI2795517045
aI340618359
aI5633372
aI355932409
atp330
Rp331
sg12
I5
sg13
g14
(g15
tp332
Rp333
Vhttps://twitter.com/fox4/status/829797928139051009
p334
I55
ssg18
Vwhat is happening
p335
sg20
I21
sg21
I10
sg22
I2
sa(dp336
g2
(dp337
g4
I54
sg5
I0
ssg6
I54
sg7
g8
((lp338
I800714153157488640
aI707093257897906176
aI17069442
aI801391363
aI3316811522
aI764937577832914944
aI740737945619947521
aI24529035
aI600280077
aI375453331
aI823204900679151616
aI20772763
aI282667933
aI132513054
aI631528607
aI441196417
aI758872689083686913
aI587198009
aI1312439078
aI758272667845795840
aI8860712
aI4258569394
aI22144947
aI1210130868
aI48225609
aI1244408377
aI53065659
aI24245180
aI35160637
aI13230272
aI810717513323581440
aI403086277
aI62977353
aI47496394
aI345182545
aI361030487
aI42817530
aI149299039
aI2739395681
aI800540782893535232
aI19803620
aI1594697972
aI2290527720
aI775141032820289536
aI761715758527291392
aI317912434
aI798300135277154304
aI64622068
aI21633141
aI16634486
aI3454876468
aI32274938
aI1876406011
atp339
Rp340
sg12
I5
sg13
g14
(g15
tp341
Rp342
Vhttp://bit.ly/2kNrkSg
p343
I54
ssg18
Vsenators denounce trumps plan to change focus of monitoring program
p344
sg20
I22
sg21
I10
sg22
I2
sa(dp345
g2
(dp346
g4
I51
sg5
I1
ssg6
I52
sg7
g8
((lp347
I809343423518019584
aI828577303852523520
aI781378537836208128
aI790112580190830596
aI766198702868496384
aI829285411860185089
aI2160605704
aI1538525449
aI817543107889786882
aI286036879
aI750994617345114112
aI2658536228
aI749230970549653508
aI401865882
aI4743611420
aI2622227999
aI298917410
aI730115150569689089
aI763257156506361856
aI2392363562
aI819831233517600768
aI795344722642563080
aI2834016649
aI3529026619
aI3317165372
aI2902984256
aI758600050922565632
aI4823172035
aI793348367090712576
aI800911753882148864
aI2929983176
aI769391653337477120
aI4257538636
aI945551010
aI777772261197635584
aI824843395898044417
aI2855844818
aI761487123883126784
aI3130667989
aI2917153495
aI30618969
aI712525532735340544
aI791844116103507968
aI755777299711086592
aI2492180594
aI825059510079279104
aI2804416510
aI827818458339434496
aI803096057005699072
aI4212140412
aI4869786791
aI806886825616928772
atp348
Rp349
sg12
I5
sg13
g14
(g15
tp350
Rp351
Vhttps://twitter.com/i/web/status/829930118034231298
p352
I52
ssg18
Vthe language of love can be spoken only through the heart heres teredilmein from commando2 \u2026
p353
sg20
I23
sg21
I10
sg22
I2
sa(dp354
g2
(dp355
g4
I0
sg5
I52
ssg6
I52
sg7
g8
((lp356
I791561167600623616
atp357
Rp358
sg12
I5
sg13
g14
(g15
tp359
Rp360
Vhttp://bit.ly/2ctXFKh
p361
I52
sVhttps://ladyindia.com/collections/salwar-suits/products/urban-naari-21445-anarkali-kurtis-cream-designer-semi-georgette-heavy-embroidered-semi-stitched-salwar-suit
p362
I18
sVhttps://ladyindia.com/collections/salwar-suits/products/urban-naari-21446-cream-designer-georgette-embroidered-semi-stitched-salwar-suit
p363
I17
sVhttps://ladyindia.com/collections/salwar-suits/products/urban-naari-21447-cream-designer-georgette-embroidered-semi-stitched-salwar-suit
p364
I2
sVhttps://ladyindia.com/collections/salwar-suits/products/urban-naari-21444-cream-designer-semi-georgette-heavy-embroidered-semi-stitched-salwar-suit
p365
I15
ssg18
Vny it\u2019s time to swirl around in the pretty salwar suits\u2026visit\u2026
p366
sg20
I24
sg21
I10
sg22
I2
sa(dp367
g2
(dp368
g4
I0
sg5
I49
ssg6
I49
sg7
g8
((lp369
I823302258393812993
atp370
Rp371
sg12
I5
sg13
g14
(g15
tp372
Rp373
Vhttps://twitter.com/2382497420/status/829927779881807873
p374
I1
sVhttps://twitter.com/61541251/status/829929906914021376
p375
I1
sVhttp://bit.ly/NeverSilent
p376
I49
sVhttps://twitter.com/769702230/status/829929356554166272
p377
I1
sVhttps://twitter.com/216780337/status/829930993263861761
p378
I1
sVhttps://twitter.com/827549442995843074/status/829929060163653633
p379
I1
sVhttps://twitter.com/350143189/status/829928479894298624
p380
I1
sVhttps://twitter.com/2484508987/status/829929443409829889
p381
I1
sVhttps://twitter.com/434706775/status/829931098167611392
p382
I1
sVhttps://twitter.com/140454427/status/829930505134968834
p383
I1
sVhttps://twitter.com/2960905120/status/829928743380455425
p384
I1
sVhttps://twitter.com/825894199157481472/status/829929719218921472
p385
I1
sVhttps://twitter.com/2468835103/status/829930263429787649
p386
I1
sVhttps://twitter.com/827547966206525442/status/829929970252144640
p387
I1
sVhttps://twitter.com/21798936/status/829929004350124033
p388
I1
sVhttps://twitter.com/20246562/status/829929736197468161
p389
I1
sVhttps://twitter.com/1899185191/status/829928421371244548
p390
I1
sVhttps://twitter.com/827495328899354624/status/829932133292470273
p391
I1
sVhttps://twitter.com/827547127337381889/status/829930404064829445
p392
I1
sVhttps://twitter.com/2206869950/status/829930503486599169
p393
I1
sVhttps://twitter.com/2572741/status/829929980737970177
p394
I1
sVhttps://twitter.com/17479538/status/829931127829729281
p395
I1
sVhttps://twitter.com/478344501/status/829929078111080448
p396
I1
sVhttps://twitter.com/1590074131/status/829932366160211968
p397
I1
sVhttps://twitter.com/1566494407/status/829930939979403264
p398
I1
sVhttps://twitter.com/2325032060/status/829932256793735170
p399
I1
sVhttps://twitter.com/827492243460218881/status/829929975016873985
p400
I1
sVhttps://twitter.com/3288394404/status/829930277736558596
p401
I1
sVhttps://twitter.com/827530429859233794/status/829929422035619840
p402
I1
sVhttps://twitter.com/2736359780/status/829928599150944260
p403
I1
sVhttps://twitter.com/16561605/status/829930005459120130
p404
I1
sVhttps://twitter.com/31007896/status/829931155919032321
p405
I1
sVhttps://twitter.com/850402488/status/829928345240424448
p406
I1
sVhttps://twitter.com/824318604166373376/status/829929640416333824
p407
I1
sVhttps://twitter.com/337516814/status/829927730401595392
p408
I1
sVhttps://twitter.com/800978195692617728/status/829927636428152832
p409
I1
sVhttps://twitter.com/2382497420/status/829927710289907713
p410
I1
sVhttps://twitter.com/827502554728759298/status/829929237398196224
p411
I1
sVhttps://twitter.com/824792726751309828/status/829929409612128256
p412
I1
sVhttps://twitter.com/46942091/status/829928966291017728
p413
I1
sVhttps://twitter.com/2382497420/status/829927744712560640
p414
I1
sVhttps://twitter.com/2508458348/status/829930886971822082
p415
I1
sVhttps://twitter.com/798659946552365056/status/829932348615454720
p416
I1
sVhttps://twitter.com/51383785/status/829928866600800260
p417
I1
sVhttps://twitter.com/827531851153694720/status/829928516590268417
p418
I1
sVhttps://twitter.com/1862092777/status/829932582200414208
p419
I1
sVhttps://twitter.com/16444840/status/829928340156919809
p420
I1
sVhttps://twitter.com/19429120/status/829930818915045379
p421
I1
sVhttps://twitter.com/2846972179/status/829929491749228546
p422
I1
sVhttps://twitter.com/801224294214733825/status/829928526262382594
p423
I1
ssg18
Vlet liz speak
p424
sg20
I25
sg21
I10
sg22
I2
sa(dp425
g2
(dp426
g4
I48
sg5
I0
ssg6
I48
sg7
g8
((lp427
I1113734528
aI805813022178455552
aI827565231752769540
aI715564494936805376
aI1476366728
aI284377103
aI2324817684
aI344533272
aI2649603359
aI21343878
aI231203880
aI983515056
aI220221106
aI256821428
aI257875637
aI126915510
aI387937591
aI893487674
aI267314748
aI145042229
aI35657152
aI484548546
aI102586819
aI138274117
aI5785672
aI1634042700
aI865354189
aI21280975
aI398329171
aI2203825913
aI2799793242
aI25745999
aI119727330
aI16993251
aI389838823
aI47126140
aI1029956077
aI12768112
aI41306280
aI775610610
aI247619059
aI89344244
aI326157302
aI15237239
aI371164025
aI2201041659
aI244584572
aI78170622
atp428
Rp429
sg12
I5
sg13
g14
(g15
tp430
Rp431
Vhttps://twitter.com/papermagazine/status/829794576663719936
p432
I48
ssg18
Vamal clooney and actor husband  bless you paper magazine bless you
p433
sg20
I26
sg21
I10
sg22
I2
sa(dp434
g2
(dp435
g4
I0
sg5
I47
ssg6
I47
sg7
g8
((lp436
I4824627072
aI4824759553
aI4824718754
aI4824628128
aI4824763045
aI4824699782
aI4824619692
aI4824708938
aI4824754795
aI4824716300
aI4824703826
aI4824617898
aI4824711602
aI4824748285
aI4824719564
aI4824712214
aI4824721460
aI4824611706
aI4824702428
aI4824708266
aI4824716414
atp437
Rp438
sg12
I5
sg13
g14
(g15
tp439
Rp440
Vhttp://bit.ly/29Cydko?8cjhW
p441
I1
sVhttp://bit.ly/29Cybcv?lkRm
p442
I1
sVhttp://bit.ly/29Cybcv?6Jw
p443
I1
sVhttp://bit.ly/29Cybcv?GvWd4
p444
I1
sVhttp://bit.ly/29Cybcv?oKD
p445
I1
sVhttp://bit.ly/29Cybcv?5W4ym
p446
I1
sVhttp://bit.ly/29Cydko?RFWq
p447
I1
sVhttp://bit.ly/29Cybcv?AgtP
p448
I1
sVhttp://bit.ly/29Cybcv?eRe
p449
I1
sVhttp://bit.ly/29Cydko?2VJys
p450
I1
sVhttp://bit.ly/29Cydko?wnl
p451
I1
sVhttp://bit.ly/29Cybcv?ozP1u
p452
I1
sVhttp://bit.ly/29Cybcv?cHW
p453
I1
sVhttp://bit.ly/29Cydko?4X9
p454
I1
sVhttp://bit.ly/29Cydko?0d6
p455
I1
sVhttp://bit.ly/29Cydko?7cO
p456
I1
sVhttp://bit.ly/29Cybcv?PeBe
p457
I1
sVhttp://bit.ly/freessextoysinfo
p458
I5
sVhttp://bit.ly/29Cybcv?Tf0A
p459
I1
sVhttp://bit.ly/29Cydko?R3NQR
p460
I1
sVhttp://bit.ly/29Cybcv?GBSqv
p461
I1
sVhttp://bit.ly/29Cydko?H8c
p462
I1
sVhttp://bit.ly/29Cydko?LlLuv
p463
I1
sVhttp://bit.ly/29Cydko?wpao
p464
I1
sVhttp://bit.ly/29Cybcv?9xbNW
p465
I1
sVhttp://bit.ly/29Cybcv?EPKDK
p466
I1
sVhttp://bit.ly/29Cybcv?MuQVe
p467
I1
sVhttp://bit.ly/29Cydko?yxyC
p468
I1
sVhttp://bit.ly/29Cydko?X6Tp
p469
I1
sVhttp://bit.ly/29Cybcv?waD
p470
I1
sVhttp://bit.ly/29Cybcv?eClH
p471
I1
sVhttp://bit.ly/29Cybcv?0bCvM
p472
I1
sVhttp://bit.ly/29Cybcv?Z9k
p473
I1
sVhttp://bit.ly/29Cybcv?URQp
p474
I1
sVhttp://bit.ly/29Cydko?WZn
p475
I1
sVhttp://bit.ly/29Cybcv?KutRi
p476
I1
sVhttp://bit.ly/29Cydko?cOm
p477
I1
sVhttp://bit.ly/29Cybcv?RL20
p478
I1
sVhttp://bit.ly/29Cybcv?SbdP
p479
I1
sVhttp://bit.ly/29Cydko?7XD
p480
I1
sVhttp://bit.ly/29Cydko?5c1o
p481
I1
sVhttp://bit.ly/29Cybcv?djdaz
p482
I1
sVhttp://bit.ly/29Cydko?Rn5I
p483
I1
ssg18
Vguys free mastrurbator watch this video how to use    porn sex boobs
p484
sg20
I27
sg21
I10
sg22
I2
sa(dp485
g2
(dp486
g4
I0
sg5
I47
ssg6
I47
sg7
g8
((lp487
I711392688998719488
aI748255890319376385
aI730083039439544322
aI2770805637
aI730819084200251392
aI764367687220879361
aI3169360927
aI859284619
aI852356755
aI1852213387
aI805289880616140801
aI534594329
aI332096540
aI955994910
aI1639884799
aI136152609
aI776715427
aI804652045827526657
aI1559412517
aI750930735494733824
aI777386665
aI2171314226
aI791710608735494144
aI252923192
aI1428138554
aI337490619
aI4775048893
aI348327619
aI408095159
aI817960194516758528
aI770331398083338241
aI2222485711
aI2347419344
aI311150546
aI839964510
aI980800735
aI1327849040
aI1268981095
aI760173425239339008
aI2269756140
aI4195289837
aI20874387
aI766831249885323264
aI1330452216
aI819565332906078208
aI716339270324199425
aI793201568455819264
atp488
Rp489
sg12
I5
sg13
g14
(g15
tp490
Rp491
Vhttp://bit.ly/NtcNTsv
p492
I1
sVhttp://bit.ly/AzhyKP
p493
I47
sVhttp://bit.ly/NtcNTs
p494
I45
sVhttp://bit.ly/NtcNTsk
p495
I1
ssg18
Vking of dark fantasy summon today app store   google play   darksummoner
p496
sg20
I28
sg21
I10
sg22
I2
sa(dp497
g2
(dp498
g4
I46
sg5
I0
ssg6
I46
sg7
g8
((lp499
I727434291563646976
aI743472881011564545
aI711619244769673218
aI723433125070565380
aI723438467972108288
aI711622217042243585
aI715149785456451584
aI2997446797
aI736947240736948224
aI2778397471
aI727558048655507457
aI715116958341931008
aI703282742675394560
aI722741678100983808
aI2708998957
aI722713470060347392
aI741702436004319232
aI704020328553406464
aI4764741432
aI719803636595953665
aI741650559338307584
aI747468478840340480
aI2926360128
aI715144932290211840
aI715131292677869568
aI747469621700108288
aI711624524681228288
aI4516441297
aI2936909138
aI723434570721316864
aI2976191958
aI722711754518749184
aI4614447192
aI734336312291921921
aI2895400283
aI2778334940
aI726143092135354368
aI747467632979279872
aI743470523875659776
aI747465845178138624
aI720154540570517504
aI3306602348
aI722719209759895553
aI741650631992086530
aI743457811435184128
aI827353852043108353
atp500
Rp501
sg12
I5
sg13
g14
(g15
tp502
Rp503
Vhttp://bit.ly/2kSD1ZZ
p504
I46
ssg18
Vbreaking new evidence about javis overseas hookup  \U0001f604\U0001f604\U0001f478\U0001f478\U0001f3a5\U0001f3a5\U0001f4fa\U0001f4fa
p505
sg20
I29
sg21
I10
sg22
I2
sa(dp506
g2
(dp507
g4
I46
sg5
I0
ssg6
I46
sg7
g8
((lp508
I790527679942373376
aI815657986760863744
aI3165607171
aI1174167684
aI767596803122425856
aI719723084534693889
aI4781592840
aI135323401
aI4656906252
aI3380892173
aI2893810062
aI2807172240
aI3355592986
aI806883516260548608
aI635301411
aI1454532775
aI1527165992
aI2666593198
aI55500765
aI2350089395
aI166030390
aI3803337792
aI156967233
aI2759120323
aI3084149964
aI2834043469
aI742617673016725504
aI2917153495
aI1409716573
aI1030752752
aI1499337384
aI1349003635
aI4653615736
aI102594681
atp509
Rp510
sg12
I5
sg13
g14
(g15
tp511
Rp512
Vhttp://bit.ly/MakingOfLailaMainLaila
p513
I46
ssg18
Vyou loved her and the song now see how all of it came to life heres the making of laila main laila from raees
p514
sg20
I30
sg21
I10
sg22
I2
sa(dp515
g2
(dp516
g4
I2
sg5
I43
ssg6
I45
sg7
g8
((lp517
I766670763441004544
aI810077192097071104
atp518
Rp519
sg12
I5
sg13
g14
(g15
tp520
Rp521
Vhttps://twitter.com/1370605363/status/829930535380086784
p522
I1
sVhttps://twitter.com/382463247/status/829933703522496517
p523
I1
sVhttps://twitter.com/4810346438/status/829932626240696320
p524
I1
sVhttps://twitter.com/179834385/status/829933262910869504
p525
I1
sVhttps://twitter.com/2919901436/status/829929720724611073
p526
I1
sVhttps://twitter.com/703655442681999361/status/829928613931741185
p527
I1
sVhttps://twitter.com/1470650814/status/829932409525198848
p528
I1
sVhttps://twitter.com/760008140276457472/status/829926067179704322
p529
I1
sVhttps://twitter.com/3068913639/status/829931090173317120
p530
I1
sVhttps://twitter.com/734912345491832833/status/829933127875252225
p531
I1
sVhttps://twitter.com/2872806720/status/829931501231828992
p532
I1
sVhttps://twitter.com/780565408076095488/status/829930268421074944
p533
I1
sVhttps://twitter.com/754523032593526784/status/829932236774338563
p534
I1
sVhttps://twitter.com/2985335882/status/829932299030450177
p535
I1
sVhttps://twitter.com/1116134796/status/829932431893368832
p536
I1
sVhttps://twitter.com/431102563/status/829933387531980801
p537
I1
sVhttps://twitter.com/789224426038398976/status/829933500711133185
p538
I1
sVhttps://twitter.com/93280831/status/829932716023877632
p539
I1
sVhttps://twitter.com/2581862881/status/829931527332995073
p540
I1
sVhttps://twitter.com/4311137013/status/829931064139227138
p541
I1
sVhttps://twitter.com/785316063777087488/status/829929279324516352
p542
I1
sVhttps://twitter.com/3711628096/status/829930096064548864
p543
I1
sVhttps://twitter.com/2860954941/status/829931941625356288
p544
I1
sVhttps://twitter.com/736917193720487936/status/829933522286620678
p545
I1
sVhttps://twitter.com/709030441941114884/status/829931167331733504
p546
I1
sVhttps://twitter.com/396092219/status/829931647340417024
p547
I1
sVhttps://twitter.com/544589549/status/829930077802549248
p548
I1
sVhttps://twitter.com/46006531/status/829928225329475585
p549
I1
sVhttp://bit.ly/CrazyProfessors
p550
I45
sVhttps://twitter.com/1369950385/status/829927831098445825
p551
I1
sVhttps://twitter.com/4759913833/status/829930222212444161
p552
I1
sVhttps://twitter.com/707771806480924672/status/829929747010301952
p553
I1
sVhttps://twitter.com/791658206179328000/status/829930197788954625
p554
I1
sVhttps://twitter.com/827491190341787648/status/829932783443202048
p555
I1
sVhttps://twitter.com/572716982/status/829927509537873922
p556
I1
sVhttps://twitter.com/58416218/status/829933217499148291
p557
I1
sVhttps://twitter.com/602856023/status/829930686425427968
p558
I1
sVhttps://twitter.com/4081892233/status/829927923008147459
p559
I1
sVhttps://twitter.com/1932567914/status/829928735864287232
p560
I1
sVhttps://twitter.com/714908382725996546/status/829928866365874176
p561
I1
sVhttps://twitter.com/105043400/status/829931098113126400
p562
I1
sVhttps://twitter.com/1085120288/status/829930755979567104
p563
I1
sVhttps://twitter.com/141642957/status/829930213144293376
p564
I1
sVhttps://twitter.com/4149878551/status/829928237186768896
p565
I1
sVhttps://twitter.com/761469154813554692/status/829930228042510336
p566
I1
sVhttps://twitter.com/787771717661831168/status/829926120623517698
p567
I1
ssg18
Vguess who pays the
p568
sg20
I31
sg21
I10
sg22
I2
sa(dp569
g2
(dp570
g4
I0
sg5
I45
ssg6
I45
sg7
g8
((lp571
I806195367700234240
aI746323503058563073
aI705449104818774018
aI798305874552954881
aI531524229
aI807840610065514496
aI763534290915168257
aI3283871880
aI1906458636
aI1260686082
aI62838671
aI184421521
aI1542464660
aI16259480
aI20860058
aI4009966575
aI3252787614
aI90006561
aI767000678501720065
aI138836018
aI398492212
aI161696308
aI848266939
aI845720124
aI249419069
aI111394110
aI783697767331803137
aI28034627
aI1270487882
aI3913320653
aI366664660
aI449687511
aI805933446015152128
aI3007277532
aI744597727946776577
aI1542416862
aI43556191
aI1676309737
aI2393708654
aI171603311
aI266167665
aI3066889332
aI14681078
aI813869696575541249
aI224625917
atp572
Rp573
sg12
I5
sg13
g14
(g15
tp574
Rp575
Vhttp://bit.ly/T_PlayWordBrain
p576
I45
ssg18
Vi\u2019m collecting hearts for valentine\u2019s day in wordbrain click here to start collecting too \u2192   wordbrain words
p577
sg20
I32
sg21
I10
sg22
I2
sa(dp578
g2
(dp579
g4
I0
sg5
I44
ssg6
I44
sg7
g8
((lp580
I1864857930
atp581
Rp582
sg12
I5
sg13
g14
(g15
tp583
Rp584
Vhttp://bit.ly/1HqtoCc
p585
I1
sVhttp://bit.ly/1HqtoCa
p586
I1
sVhttp://bit.ly/1Bk8CSs
p587
I1
sVhttp://bit.ly/1As78KS
p588
I1
sVhttp://bit.ly/1As78KW
p589
I1
sVhttp://bit.ly/1Sxh7o9
p590
I1
sVhttp://bit.ly/1HqtABi
p591
I1
sVhttp://bit.ly/1HqtABg
p592
I1
sVhttp://bit.ly/1HquKwJ
p593
I1
sVhttp://bit.ly/1HquKwM
p594
I1
sVhttp://bit.ly/1HqtoC8
p595
I1
sVhttp://bit.ly/1Sxh8IE
p596
I1
sVhttp://bit.ly/1Sxh7o5
p597
I1
sVhttp://bit.ly/1Lu9OrN
p598
I1
sVhttp://bit.ly/1Lu9OrO
p599
I1
sVhttp://bit.ly/1Lu9OrL
p600
I1
sVhttp://bit.ly/1HquKww
p601
I1
sVhttp://bit.ly/1Lu7Mb9
p602
I1
sVhttp://bit.ly/1Lu7Mb7
p603
I1
sVhttp://bit.ly/1HqtyJC
p604
I1
sVhttp://bit.ly/1HqtyJA
p605
I1
sVhttp://bit.ly/1As79hM
p606
I1
sVhttp://bit.ly/1As79hO
p607
I1
sVhttp://bit.ly/1Lu9OrV
p608
I1
sVhttp://bit.ly/1Lu9OrW
p609
I1
sVhttp://bit.ly/1Lu9OrR
p610
I1
sVhttp://bit.ly/1Lu9OrS
p611
I1
sVhttp://bit.ly/1Hqtytj
p612
I1
sVhttp://bit.ly/1GWsihS
p613
I1
sVhttp://bit.ly/1Lu7LUQ
p614
I1
sVhttp://bit.ly/1Lu7LUT
p615
I1
sVhttp://bit.ly/1G0rQ0q
p616
I1
sVhttp://bit.ly/1SxgNG0
p617
I1
sVhttp://bit.ly/1Bk8x1h
p618
I1
sVhttp://bit.ly/1G0rQ0i
p619
I1
sVhttp://bit.ly/1HqtoC1
p620
I1
sVhttp://bit.ly/1HqtoC6
p621
I1
sVhttp://bit.ly/1FIMwhX
p622
I1
sVhttp://bit.ly/1HqtoC5
p623
I1
sVhttp://bit.ly/1FIMwhV
p624
I1
sVhttp://bit.ly/1FIMwhT
p625
I1
sVhttp://bit.ly/1As7bGG
p626
I1
sVhttp://bit.ly/1As7bGD
p627
I1
sVhttp://bit.ly/1SxgP0q
p628
I1
sVhttp://bit.ly/1As7bGx
p629
I1
sVhttp://bit.ly/1SxgP0u
p630
I1
sVhttp://bit.ly/1SxgP0w
p631
I1
sVhttp://bit.ly/1XFB2Uj
p632
I1
sVhttp://bit.ly/1As7bGs
p633
I1
sVhttp://bit.ly/1SxgNFW
p634
I1
sVhttp://bit.ly/1As7bGw
p635
I1
sVhttp://bit.ly/1As7bGu
p636
I1
sVhttp://bit.ly/1SxgP0y
p637
I1
sVhttp://bit.ly/1Sxh8IH
p638
I1
sVhttp://bit.ly/1HqtoBX
p639
I1
sVhttp://bit.ly/1As79yu
p640
I1
sVhttp://bit.ly/1Lu7Mbb
p641
I1
sVhttp://bit.ly/1As7bGq
p642
I1
sVhttp://bit.ly/1Lu9FEZ
p643
I1
sVhttp://bit.ly/1Lu9FEY
p644
I1
sVhttp://bit.ly/1Bk8zpW
p645
I1
sVhttp://bit.ly/1FILhzi
p646
I1
sVhttp://bit.ly/1As79i3
p647
I1
sVhttp://bit.ly/1Bk8zpY
p648
I1
sVhttp://bit.ly/1Lu9FEW
p649
I1
sVhttp://bit.ly/1Lu9FEU
p650
I1
sVhttp://bit.ly/1Bk7LkX
p651
I1
sVhttp://bit.ly/1Lu9zgx
p652
I1
sVhttp://bit.ly/1Lu9zgz
p653
I1
sVhttp://bit.ly/1Lu9zgv
p654
I1
sVhttp://bit.ly/1Lu7XTT
p655
I1
sVhttp://bit.ly/1G0rSFu
p656
I1
sVhttp://bit.ly/1Lu9zgD
p657
I1
sVhttp://bit.ly/1As7bX0
p658
I1
sVhttp://bit.ly/1Lu9zgB
p659
I1
sVhttp://bit.ly/1As79ys
p660
I1
sVhttp://bit.ly/1XFB2nw
p661
I1
sVhttp://bit.ly/1M1g2QJ
p662
I1
sVhttp://bit.ly/1Bk8p1H
p663
I1
sVhttp://bit.ly/1KYx6Ja
p664
I1
sVhttp://bit.ly/1KYx6Jc
p665
I1
sVhttp://bit.ly/1SxgPxs
p666
I1
sVhttp://bit.ly/1M1g2QH
p667
I1
sVhttp://bit.ly/1SxgPxu
p668
I1
sVhttp://bit.ly/1M1g0s7
p669
I1
sVhttp://bit.ly/1KYx4B2
p670
I1
sVhttp://bit.ly/1Bk8rqn
p671
I1
sVhttp://bit.ly/1Bk8B10
p672
I1
sVhttp://bit.ly/1Nnck89
p673
I1
sVhttp://bit.ly/1Bk8B12
p674
I1
sVhttp://bit.ly/1Bk8B15
p675
I1
sVhttp://bit.ly/1Bk8rqd
p676
I1
sVhttp://bit.ly/1Lu7Ojf
p677
I1
sVhttp://bit.ly/1Lu7Ojh
p678
I1
sVhttp://bit.ly/1As791w
p679
I1
sVhttp://bit.ly/1Nncix5
p680
I1
sVhttp://bit.ly/1As78L0
p681
I1
sVhttp://bit.ly/1As791u
p682
I1
sVhttp://bit.ly/1FIMSVQ
p683
I1
sVhttp://bit.ly/1FIMSVS
p684
I1
sVhttp://bit.ly/1FIMwOM
p685
I1
sVhttp://bit.ly/1Bk8r9V
p686
I1
sVhttp://bit.ly/1KDT7fx
p687
I1
sVhttp://bit.ly/1Bk8p1J
p688
I1
sVhttp://bit.ly/1FIMQNJ
p689
I1
sVhttp://bit.ly/1FIMuqn
p690
I1
sVhttp://bit.ly/1As7bpT
p691
I1
sVhttp://bit.ly/1FIMuql
p692
I1
sVhttp://bit.ly/1GWskGt
p693
I1
sVhttp://bit.ly/1KDT7fv
p694
I1
sVhttp://bit.ly/1SxgNpq
p695
I1
sVhttp://bit.ly/1SxgNpo
p696
I1
sVhttp://bit.ly/1SxgNpk
p697
I1
sVhttp://bit.ly/1SxgNpi
p698
I1
sVhttp://bit.ly/1SxgNpg
p699
I1
sVhttp://bit.ly/1SxgNpe
p700
I1
sVhttp://bit.ly/1HquKwI
p701
I1
sVhttp://bit.ly/1HquFJn
p702
I1
sVhttp://bit.ly/1HquFJj
p703
I1
sVhttp://bit.ly/1XFB4vt
p704
I1
sVhttp://bit.ly/1Bk8p1O
p705
I1
sVhttp://bit.ly/1Bk8p1L
p706
I1
sVhttp://bit.ly/1HquFJr
p707
I1
sVhttp://bit.ly/1HquFJp
p708
I1
sVhttp://bit.ly/1Lu9zNA
p709
I1
sVhttp://bit.ly/1M1g2QD
p710
I1
sVhttp://bit.ly/1KYx6sQ
p711
I1
sVhttp://bit.ly/1Bk8Bhi
p712
I1
sVhttp://bit.ly/1As7uRC
p713
I1
sVhttp://bit.ly/1As7uRB
p714
I1
sVhttp://bit.ly/1As7uRA
p715
I1
sVhttp://bit.ly/1Lu9Pw6
p716
I1
sVhttp://bit.ly/1As7bWY
p717
I1
sVhttp://bit.ly/1Bk8x1d
p718
I1
sVhttp://bit.ly/1As7b9m
p719
I1
sVhttp://bit.ly/1As7bWW
p720
I1
sVhttp://bit.ly/1As7bWU
p721
I1
sVhttp://bit.ly/1FIMO8s
p722
I1
sVhttp://bit.ly/1As7aT6
p723
I1
sVhttp://bit.ly/1FIKZZi
p724
I1
sVhttp://bit.ly/1FIKZZg
p725
I1
sVhttp://bit.ly/1Lu80iy
p726
I1
sVhttp://bit.ly/1FIMO8q
p727
I1
sVhttp://bit.ly/1FIKZZc
p728
I1
sVhttp://bit.ly/1As7aT8
p729
I1
sVhttp://bit.ly/1FIKZZa
p730
I1
sVhttp://bit.ly/1Sxh7nX
p731
I1
sVhttp://bit.ly/1As7uRy
p732
I1
sVhttp://bit.ly/1As7b9B
p733
I1
sVhttp://bit.ly/1As7b9D
p734
I1
sVhttp://bit.ly/1As7b9F
p735
I1
sVhttp://bit.ly/1Bk8rGR
p736
I1
sVhttp://bit.ly/1Bk8rGP
p737
I1
sVhttp://bit.ly/1As791g
p738
I1
sVhttp://bit.ly/1HqtpWK
p739
I1
sVhttp://bit.ly/1As791e
p740
I1
sVhttp://bit.ly/1As791i
p741
I1
sVhttp://bit.ly/1XFB2E1
p742
I1
sVhttp://bit.ly/1As791s
p743
I1
sVhttp://bit.ly/1As791q
p744
I1
sVhttp://bit.ly/1HquEFb
p745
I1
sVhttp://bit.ly/1G0rQgE
p746
I1
sVhttp://bit.ly/1Bk8rGJ
p747
I1
sVhttp://bit.ly/1Bk8rGM
p748
I1
sVhttp://bit.ly/1Bk8rGL
p749
I1
sVhttp://bit.ly/1Nnck7Z
p750
I1
sVhttp://bit.ly/1XFB2DX
p751
I1
sVhttp://bit.ly/1HqtoC0
p752
I1
sVhttp://bit.ly/1HqtpWy
p753
I1
sVhttp://bit.ly/1FIL0wb
p754
I1
sVhttp://bit.ly/1Sxh8Z4
p755
I1
sVhttp://bit.ly/1Bk8rqv
p756
I1
sVhttp://bit.ly/1FIMwi1
p757
I1
sVhttp://bit.ly/1FIMwi0
p758
I1
sVhttp://bit.ly/1FIL0we
p759
I1
sVhttp://bit.ly/1Lu9OrZ
p760
I1
ssg18
Vcheck these out         nsfw
p761
sg20
I33
sg21
I10
sg22
I2
sa(dp762
g2
(dp763
g4
I43
sg5
I0
ssg6
I43
sg7
g8
((lp764
I799361322810867712
aI785312144363368449
aI1205882755
aI2286972421
aI826982763374874624
aI242304010
aI1551265016
aI1694006414
aI909271952
aI45692178
aI173629507
aI3152112661
aI230795467
aI214153391
aI735021064577748992
aI2401022833
aI15075885
aI161566255
aI865427900
aI75097667
aI104694474
aI774078667
aI23326668
aI145077073
aI42731860
aI22607317
aI82342265
aI2564602460
aI217099872
aI2203491043
aI21576805
aI805827943
aI2332647145
aI768672332214784000
aI45114987
aI3021929710
aI150546801
aI3191865331
aI2680600821
aI245821688
aI1961853817
aI2567870460
aI1948544893
atp765
Rp766
sg12
I5
sg13
g14
(g15
tp767
Rp768
Vhttp://bit.ly/2lwfSdC
p769
I43
ssg18
Vcentral michigan college republicans sorry for hitlerthemed valentines card
p770
sg20
I34
sg21
I10
sg22
I2
sa(dp771
g2
(dp772
g4
I43
sg5
I0
ssg6
I43
sg7
g8
((lp773
I747465845178138624
aI715131292677869568
aI711619244769673218
aI723433125070565380
aI723438467972108288
aI734336312291921921
aI2997446797
aI2904778896
aI3254464896
aI825803292
aI711622217042243585
aI715149785456451584
aI2897649960
aI715144932290211840
aI2708998957
aI722713470060347392
aI2834485424
aI703282742675394560
aI3494681653
aI704020328553406464
aI741650559338307584
aI4794440894
aI725754953801695232
aI2926360128
aI741697810861461506
aI747469621700108288
aI711624524681228288
aI727434291563646976
aI723434570721316864
aI725751946158571521
aI2976191958
aI722711754518749184
aI4614447192
aI2895400283
aI3007945567
aI743475904655982592
aI743462032079368193
aI733709779714080768
aI715116958341931008
aI722719209759895553
aI2587535550
aI743457811435184128
aI1709099006
atp774
Rp775
sg12
I5
sg13
g14
(g15
tp776
Rp777
Vhttp://bit.ly/2kN6pke
p778
I43
ssg18
V12 celebrities you didnt know were transgender  \U0001f604\U0001f604\U0001f478\U0001f478\U0001f3a5\U0001f3a5\U0001f4fa\U0001f4fa
p779
sg20
I35
sg21
I10
sg22
I2
sa(dp780
g2
(dp781
g4
I42
sg5
I0
ssg6
I42
sg7
g8
((lp782
I795560432547328000
aI747691373676085249
aI790845326575931394
aI1547455494
aI704359866916327425
aI354087052
aI2595080719
aI280213648
aI23365523
aI2240137364
aI32238490
aI447670556
aI2746784803
aI280726820
aI22996742
aI872156070
aI546336583
aI3013092914
aI597405491
aI1027135284
aI395031352
aI378566969
aI563875259
aI2492226366
aI1032031682
aI4085546179
aI2573481156
aI549281095
aI1634042700
aI46232739
aI46142420
aI2287395541
aI241719766
aI347927511
aI305989924
aI18626394
aI348749020
aI3293728992
aI3277283810
aI323849578
aI20722156
aI577657278
atp783
Rp784
sg12
I5
sg13
g14
(g15
tp785
Rp786
Vhttp://bit.ly/2k8VIoe
p787
I42
ssg18
Vamal clooney and actor husband are expecting twins
p788
sg20
I36
sg21
I10
sg22
I2
sa(dp789
g2
(dp790
g4
I37
sg5
I3
ssg6
I40
sg7
g8
((lp791
I756542872233644032
aI3804279553
aI4274697732
aI813513786384596993
aI3356432833
aI813521209900093441
aI3851493132
aI2976822286
aI4261756693
aI1476324379
aI785803176645566465
aI3094525860
aI2975884325
aI3198549169
aI3296033849
aI3069845562
aI4272460992
aI4205052609
aI3168077893
aI2547254087
aI3331852812
aI3069898314
aI4219418315
aI3355774160
aI3069720019
aI3168128852
aI3874250233
aI4218368987
aI3870190885
aI3204473328
aI4260847094
aI3168765780
aI2641974779
aI4205016573
atp792
Rp793
sg12
I5
sg13
g14
(g15
tp794
Rp795
Vhttp://bit.ly/2jpw5Dr
p796
I30
sVhttp://bit.ly/2iq1TE2
p797
I10
ssg18
Vladies and gentlemen we bring to you the girl with the biggest vagina in the world
p798
sg20
I37
sg21
I10
sg22
I2
sa(dp799
g2
(dp800
g4
I40
sg5
I0
ssg6
I40
sg7
g8
((lp801
I733709779714080768
aI741702436004319232
aI741697810861461506
aI728612986110226432
aI720159948345380864
aI722719209759895553
aI711619244769673218
aI2904778896
aI3254464896
aI711622217042243585
aI715116958341931008
aI722741678100983808
aI2708998957
aI2834485424
aI3494681653
aI715129411465404416
aI4764741432
aI741650559338307584
aI704020328553406464
aI747465845178138624
aI741650631992086530
aI723438467972108288
aI741695667723083776
aI723434570721316864
aI715149785456451584
aI727434291563646976
aI727558048655507457
aI2976191958
aI722711754518749184
aI4614447192
aI2778334940
aI743472881011564545
aI743470523875659776
aI747468478840340480
aI720154540570517504
aI726140848199487489
aI278900715
aI3306602348
aI743457811435184128
aI726143092135354368
atp802
Rp803
sg12
I5
sg13
g14
(g15
tp804
Rp805
Vhttp://bit.ly/2kMZuYg
p806
I40
ssg18
V25 beautiful quotes about the ocean that are going to make you want to pack up and go live by the beach \U0001f60d\U0001f604\U0001f4ac\U0001f30a
p807
sg20
I38
sg21
I10
sg22
I2
sa(dp808
g2
(dp809
g4
I1
sg5
I38
ssg6
I39
sg7
g8
((lp810
I727156370055770112
aI4820653634
aI4820683627
aI4820677381
aI4820698699
aI4820630030
aI4820654360
aI4820651252
aI4820566392
aI4820675449
aI4820624762
aI4820683615
aI4820699293
aI4820565012
aI4820677375
atp811
Rp812
sg12
I5
sg13
g14
(g15
tp813
Rp814
Vhttp://bit.ly/trannyhotslut
p815
I39
ssg18
Vi would fuck this killer shemale glamour     shemale shemales tranny
p816
sg20
I39
sg21
I10
sg22
I2
sa(dp817
g2
(dp818
g4
I38
sg5
I0
ssg6
I38
sg7
g8
((lp819
I791441179178971136
aI1173657217
aI2211730434
aI731685533408239620
aI753637634753171456
aI708081714942382081
aI881142920
aI332007945
aI816687431688847360
aI472629659
aI786007659778408449
aI802182058831441920
aI2332608247
aI784870711
aI807989183511818240
aI42925449
aI24064455
aI3496067656
aI38932042
aI155267383
aI250852556
aI169126226
aI15102547
aI178974933
aI28908379
aI38333667
aI220431587
aI547547492
aI16723557
aI898993896
aI12042962
aI3252998768
aI23178353
aI312369523
aI56571252
aI809842109339594752
aI550493057
aI1918922106
atp820
Rp821
sg12
I5
sg13
g14
(g15
tp822
Rp823
Vhttps://twitter.com/fox4/status/829797928139051009
p824
I38
ssg18
Vthe current state of the rebublican party should make any decent person embarrassed to associate themselves with it
p825
sg20
I40
sg21
I10
sg22
I2
sa(dp826
g2
(dp827
g4
I21
sg5
I17
ssg6
I38
sg7
g8
((lp828
I792354800625078273
aI4411080807
aI633517644
aI3301052177
aI257230964
aI1406372184
aI2710592383
atp829
Rp830
sg12
I5
sg13
g14
(g15
tp831
Rp832
Vhttp://bit.ly/iHrAwards
p833
I38
ssg18
Vim voting for cameheretoforget for bestlyrics at the iheartawards rt to vote too
p834
sg20
I41
sg21
I10
sg22
I2
sa(dp835
g2
(dp836
g4
I37
sg5
I0
ssg6
I37
sg7
g8
((lp837
I741702436004319232
aI727434291563646976
aI741697810861461506
aI723433125070565380
aI723438467972108288
aI743472881011564545
aI711619244769673218
aI727558048655507457
aI715116958341931008
aI722741678100983808
aI747467632979279872
aI2708998957
aI722713470060347392
aI2834485424
aI703282742675394560
aI3494681653
aI741650559338307584
aI4764741432
aI704020328553406464
aI2587535550
aI747466888653869056
aI2997446797
aI4516441297
aI723434570721316864
aI725751946158571521
aI2976191958
aI726143092135354368
aI806134680407810055
aI715129411465404416
aI2895400283
aI2778334940
aI3007945567
aI743475904655982592
aI743470523875659776
aI720154540570517504
aI3306602348
aI722719209759895553
atp838
Rp839
sg12
I5
sg13
g14
(g15
tp840
Rp841
Vhttp://bit.ly/2kN1DDr
p842
I37
ssg18
Vomg want to hang out with the teen mom 2 gals amp make some cash   \U0001f61c\U0001f61c\U0001f602\U0001f602\U0001f606\U0001f606\U0001f62e\U0001f62e
p843
sg20
I42
sg21
I10
sg22
I2
sa(dp844
g2
(dp845
g4
I35
sg5
I1
ssg6
I36
sg7
g8
((lp846
I722366837044879360
aI807283692171304961
aI244826242
aI806886825616928772
aI783022021999521798
aI824843395898044417
aI2160605704
aI1538525449
aI817543107889786882
aI176755972
aI816348711282479104
aI750214436560834561
aI820240089414508544
aI3172129394
aI733174699207708672
aI2309871031
aI750374679462965248
aI781747972409270273
aI717352029857800194
aI4823172035
aI800911753882148864
aI3600556752
aI828577303852523520
aI174664671
aI171405409
aI4600557136
aI3529026619
aI722460360607997952
aI791844116103507968
aI4869786791
aI2492180594
aI78583540
aI781378537836208128
aI2890665860
aI803096057005699072
aI805696965887623172
atp847
Rp848
sg12
I5
sg13
g14
(g15
tp849
Rp850
Vhttps://twitter.com/i/web/status/829931666311307265
p851
I36
ssg18
Vits out teredilmein from commando2 feat vidyutjammwal amp adahsharma   music  mannan9  singer \u2026
p852
sg20
I43
sg21
I10
sg22
I2
sa(dp853
g2
(dp854
g4
I36
sg5
I0
ssg6
I36
sg7
g8
((lp855
I826312091640291328
aI828304278884335616
aI3160983812
aI2912915334
aI824503091223334913
aI2853048972
aI814382221322657792
aI3040193294
aI3837287953
aI3119786770
aI3165996308
aI3818273173
aI3124141467
aI828500351246532608
aI3199729307
aI3160990628
aI3167337638
aI3119896234
aI2929203243
aI3119962163
aI3171309878
aI3162007994
aI826316937730748416
aI3120091684
aI2929319363
aI2929297348
aI3063126855
aI3165970381
aI3166001101
aI3171158742
aI3167324761
aI3199827934
aI3199900258
aI3035251056
aI826307263262396416
aI3171309439
atp856
Rp857
sg12
I5
sg13
g14
(g15
tp858
Rp859
Vhttp://bit.ly/2kyDm4g
p860
I29
sVhttp://bit.ly/2kLOGtO
p861
I7
ssg18
V20 great sex positions for guys with a small penis \U0001f632\U0001f632\U0001f603\U0001f603\U0001f44d\U0001f44d\U0001f4ac\U0001f4ac
p862
sg20
I44
sg21
I10
sg22
I2
sa(dp863
g2
(dp864
g4
I36
sg5
I0
ssg6
I36
sg7
g8
((lp865
I741702436004319232
aI703282742675394560
aI741650631992086530
aI720159948345380864
aI743462032079368193
aI2997446797
aI3254464896
aI825803292
aI725751946158571521
aI715149785456451584
aI2897649960
aI715144932290211840
aI747467632979279872
aI2834485424
aI715129411465404416
aI4764741432
aI719803636595953665
aI741650559338307584
aI4794440894
aI725754953801695232
aI715131292677869568
aI741695667723083776
aI733715617837109249
aI711624524681228288
aI4516441297
aI2936909138
aI727558048655507457
aI2976191958
aI734336312291921921
aI2778334940
aI3007945567
aI747468478840340480
aI720154540570517504
aI726140848199487489
aI747465845178138624
aI1709099006
atp866
Rp867
sg12
I5
sg13
g14
(g15
tp868
Rp869
Vhttp://bit.ly/2kMZPKx
p870
I36
ssg18
Vmom thinks dad amp daughter are cooking breakfast  when she sees this shes knocked breathless  \U0001f615\U0001f615\U0001f60a\U0001f60a\U0001f614\U0001f614\U0001f60c\U0001f60c
p871
sg20
I45
sg21
I10
sg22
I2
sa(dp872
g2
(dp873
g4
I2
sg5
I34
ssg6
I36
sg7
g8
((lp874
I827533601919102976
aI806408903256776705
aI827505581434953731
aI1685730710
aI1107325448
aI3385082380
aI912260886
aI2837170081
aI4436676315
aI950654118
aI974647592
aI3395035690
aI410796203
aI2399430061
aI520871214
aI1894943666
aI206060338
aI546385463
aI1913458363
aI313567933
aI1479029910
aI931876416
aI1674286020
aI3035687969
aI474197960
aI3138122825
aI32578511
aI737720533
aI747902678
aI33541723
aI2865673052
aI1521903714
aI248421351
aI209389559
aI2859911289
aI523423997
atp875
Rp876
sg12
I5
sg13
g14
(g15
tp877
Rp878
Vhttp://bit.ly/A9Q3zb
p879
I36
ssg18
Vyour visions may be larger than life but your message is infu more for gemini
p880
sg20
I46
sg21
I10
sg22
I2
sa(dp881
g2
(dp882
g4
I35
sg5
I0
ssg6
I35
sg7
g8
((lp883
I728612986110226432
aI743470523875659776
aI711619244769673218
aI723433125070565380
aI747465845178138624
aI725751946158571521
aI2997446797
aI711622217042243585
aI715116958341931008
aI741702436004319232
aI722713470060347392
aI2834485424
aI703282742675394560
aI704020328553406464
aI741650559338307584
aI715129411465404416
aI2587535550
aI725754953801695232
aI2926360128
aI723438467972108288
aI741695667723083776
aI4516441297
aI722711754518749184
aI734336312291921921
aI726143092135354368
aI3007945567
aI736947240736948224
aI733709779714080768
aI3306602348
aI722719209759895553
aI4794440894
aI743457811435184128
aI747466888653869056
aI187370490
aI1709099006
atp884
Rp885
sg12
I5
sg13
g14
(g15
tp886
Rp887
Vhttp://bit.ly/2kN9pNu
p888
I35
ssg18
Vwhat happens inside the human body during sex  \U0001f61c\U0001f61c\U0001f602\U0001f602\U0001f606\U0001f606\U0001f62e\U0001f62e
p889
sg20
I47
sg21
I10
sg22
I2
sa(dp890
g2
(dp891
g4
I35
sg5
I0
ssg6
I35
sg7
g8
((lp892
I797648379589201920
aI797734922999894016
aI745114513821704195
aI780537959338487812
aI825724499253342208
aI801224294214733825
aI1214753419
aI371552020
aI135359637
aI241241243
aI1116323869
aI88054688
aI825575612177858561
aI761715758527291392
aI3023769257
aI26584448
aI22144947
aI3141847349
aI744970335854919681
aI800033032807673856
aI595245502
aI75941311
aI182317750
aI61571654
aI1077365580
aI547921872
aI723529172
aI4875360599
aI108593828
aI113534319
aI806489225398984704
aI17479538
aI823431491845836800
aI48386238
aI1862356604
atp893
Rp894
sg12
I5
sg13
g14
(g15
tp895
Rp896
Vhttp://bit.ly/2lwDpLt
p897
I35
ssg18
Vi\u2019ll be on the senate floor soon speaking about why reptomprice is the wrong choice for nhs health amp economy
p898
sg20
I48
sg21
I10
sg22
I2
sa(dp899
g2
(dp900
g4
I0
sg5
I35
ssg6
I35
sg7
g8
((lp901
I513752000
aI705851494877106180
aI584044423
aI1012120586
aI953309838
aI260454360
aI139599642
aI95059617
aI1334423202
aI1972927652
aI713103474
aI1314156337
aI2228767068
aI118966315
aI234335405
aI145098545
aI234658483
aI242942773
aI1704542011
aI1147075904
aI2874722369
aI3230147138
aI110387779
aI1970381936
aI238003156
aI1544596494
aI18074840
aI394316252
aI39702237
aI3018683361
aI2201978087
aI144951149
aI304120816
aI373640050
aI155787254
atp902
Rp903
sg12
I5
sg13
g14
(g15
tp904
Rp905
Vhttp://bit.ly/xjQYj7
p906
I35
ssg18
Vit seems like everything you touch turns to gold today howeve more for leo
p907
sg20
I49
sg21
I10
sg22
I2
sa(dp908
g2
(dp909
g4
I33
sg5
I1
ssg6
I34
sg7
g8
((lp910
I822515845062475776
aI728283751487180800
aI17069442
aI801391363
aI14807428
aI735542572332941312
aI33769231
aI466958869
aI7465622
aI19440664
aI2680262042
aI198035744
aI105632930
aI1881055142
aI45589799
aI10125612
aI39702190
aI197483570
aI803926081
aI36403524
aI403086277
aI29817902
aI2172396366
aI4623302232
aI43412697
aI3130549210
aI242807695
aI453490399
aI1932228960
aI59692514
aI14185190
aI3110461544
aI767569768744230912
aI2231675132
atp911
Rp912
sg12
I5
sg13
g14
(g15
tp913
Rp914
Vhttp://bit.ly/2kV8k6J
p915
I34
ssg18
V1 davidcorndc this morning
p916
sg20
I50
sg21
I10
sg22
I2
sa(dp917
g2
(dp918
g4
I34
sg5
I0
ssg6
I34
sg7
g8
((lp919
I822701944313675776
aI267848065
aI2566107011
aI572859265
aI182191788
aI711300880
aI915318932
aI2952531861
aI3265773595
aI2173455450
aI3354183071
aI2268280867
aI170243200
aI968062892
aI2234030749
aI620720945
aI1014543157
aI2205962167
aI3255817532
aI2529016253
aI40480693
aI1005169351
aI349432270
aI1961857490
aI365813715
aI1548596430
aI158700374
aI2921301594
aI2991587038
aI540238945
aI245431399
aI4416646461
aI1383248893
aI184322559
atp920
Rp921
sg12
I5
sg13
g14
(g15
tp922
Rp923
Vhttp://bit.ly/OptionsSpotify
p924
I34
ssg18
Vwhere my spotify homies at options up there too
p925
sg20
I51
sg21
I10
sg22
I2
sa(dp926
g2
(dp927
g4
I33
sg5
I0
ssg6
I33
sg7
g8
((lp928
I742562244081426432
aI291326294
aI1471310983
aI2748332945
aI2664250643
aI608666647
aI570926879
aI548908322
aI2279343523
aI419957542
aI636665002
aI3267076615
aI89915564
aI2347814446
aI2210074033
aI1016366642
aI3019196980
aI3036721207
aI1726560571
aI81840702
aI334020791
aI2324778444
aI2263498321
aI332534614
aI3093429975
aI1360089049
aI180336888
aI276084062
aI187760443
aI358445928
aI2542313848
aI155133561
aI23349373
atp929
Rp930
sg12
I5
sg13
g14
(g15
tp931
Rp932
Vhttps://twitter.com/papermagazine/status/829794576663719936
p933
I33
ssg18
Vi like this headline
p934
sg20
I52
sg21
I10
sg22
I2
sa(dp935
g2
(dp936
g4
I32
sg5
I1
ssg6
I33
sg7
g8
((lp937
I4751120000
aI69730304
aI800013077215408132
aI775141032820289536
aI700396471229804545
aI3329528201
aI15069709
aI2705505173
aI210299799
aI954801054
aI3437589796
aI529700870
aI50801833
aI4761998173
aI2595708091
aI2400901568
aI703806869022875648
aI246002504
aI27731201
aI59010637
aI124968788
aI713566511789694976
aI15667291
aI1522828765
aI321439715
aI440600577
aI6504
aI38702186
aI131056491
aI885601772
aI317912434
aI798300135277154304
aI370955305
atp938
Rp939
sg12
I5
sg13
g14
(g15
tp940
Rp941
Vhttp://bit.ly/2lmk9zp
p942
I33
ssg18
Vthis is an allhandsondeck moment for progressive to organize amp rally to defend amp preserve democratic norms
p943
sg20
I53
sg21
I10
sg22
I2
sa(dp944
g2
(dp945
g4
I31
sg5
I2
ssg6
I33
sg7
g8
((lp946
I807522710100340736
aI709717156527788033
aI244826242
aI749230970549653508
aI811240902978998272
aI827353085827616769
aI1538525449
aI790112580190830596
aI4743611420
aI712525532735340544
aI298917410
aI807283692171304961
aI4869786791
aI819831233517600768
aI806886825616928772
aI789094020131590145
aI3529026619
aI728283620763271168
aI2902984256
aI758600050922565632
aI4823172035
aI793348367090712576
aI800911753882148864
aI761487123883126784
aI3130667989
aI818736430822359040
aI791844116103507968
aI763257156506361856
aI781378537836208128
aI803096057005699072
aI827818458339434496
aI766198702868496384
atp947
Rp948
sg12
I5
sg13
g14
(g15
tp949
Rp950
Vhttp://bit.ly/TereDilMein
p951
I33
sVhttps://twitter.com/i/web/status/829930165266378752
p952
I1
sVhttps://twitter.com/i/web/status/829930618452529152
p953
I1
ssg18
Vvidyutjammwal adahsharma and the soulfulness teredilmein has all the factors to be a r\u2026
p954
sg20
I54
sg21
I10
sg22
I2
sa(dp955
g2
(dp956
g4
I31
sg5
I2
ssg6
I33
sg7
g8
((lp957
I813523060510851072
aI813599543816228865
aI4274697732
aI756542872233644032
aI3804279553
aI3793568906
aI3331852812
aI2976822286
aI4261756693
aI3094525860
aI3870190885
aI3198549169
aI3296033849
aI3069845562
aI4272460992
aI4205052609
aI3168077893
aI2547254087
aI3851493132
aI3069898314
aI4219418315
aI4272004812
aI3355774160
aI3069720019
aI3168128852
aI3874250233
aI4261208413
aI3204473328
aI3356432833
aI3023851859
aI4260847094
aI3168765780
aI4205016573
atp958
Rp959
sg12
I5
sg13
g14
(g15
tp960
Rp961
Vhttp://bit.ly/2iVoKLq
p962
I33
ssg18
V12 people who died after these foolish selfies
p963
sg20
I55
sg21
I10
sg22
I2
sa(dp964
g2
(dp965
g4
I33
sg5
I0
ssg6
I33
sg7
g8
((lp966
I826853068939603968
aI824503091223334913
aI828284837886824450
aI824922157306089476
aI826307263262396416
aI828490357104992257
aI826806880458702848
aI824560594527281153
aI824873617477431297
aI814382221322657792
aI828507026716246016
aI825021191572250625
aI828500351246532608
aI824517349642473472
aI824554807214034945
aI826061301428350977
aI826866647583563776
aI826067493001113600
aI828304278884335616
aI826312091640291328
aI826316937730748416
aI826077595754061824
aI824881677759418370
aI826089429987008512
aI824674140162523137
aI824655711540019200
aI824663641467281410
aI825026081153441793
aI816253931764400128
aI825997593247358976
aI824855784794136578
aI824627600534364160
aI824669003079708672
atp967
Rp968
sg12
I5
sg13
g14
(g15
tp969
Rp970
Vhttp://bit.ly/2kkVN91
p971
I33
ssg18
Vheres to the weekend cheers 36photos
p972
sg20
I56
sg21
I10
sg22
I2
sa(dp973
g2
(dp974
g4
I26
sg5
I6
ssg6
I32
sg7
g8
((lp975
I716812963244421120
aI728924984966414336
aI3160983812
aI2912915334
aI2853048972
aI3040193294
aI3837287953
aI3119786770
aI3818273173
aI3167324761
aI3124141467
aI167563296
aI3199729307
aI3120091684
aI3167337638
aI2929203243
aI3119962163
aI3162007994
aI728705165818101760
aI2929319363
aI2929297348
aI3063126855
aI3171158742
aI728434321980186624
aI3160990628
aI3199827934
aI2797737057
aI3199900258
aI728696605616971776
aI3035251056
aI2580292089
aI3171309439
atp976
Rp977
sg12
I5
sg13
g14
(g15
tp978
Rp979
Vhttp://bit.ly/2kpTa8X
p980
I32
ssg18
Vwhat happens inside the human body during sex \U0001f346\U0001f346\U0001f618\U0001f618\U0001f63d\U0001f63d\U0001f444\U0001f444
p981
sg20
I57
sg21
I10
sg22
I2
sa(dp982
g2
(dp983
g4
I32
sg5
I0
ssg6
I32
sg7
g8
((lp984
I828334344372625408
aI1317677952
aI739287111619088384
aI16742151
aI24028558
aI134942808
aI253846805
aI1714692506
aI2905795611
aI3255111852
aI76938029
aI81247670
aI369185793
aI745041733
aI590608840
aI121219017
aI245628241
aI3835861
aI42178519
aI38253912
aI2398527834
aI44053220
aI1659430501
aI15818343
aI3313931368
aI599858540
aI178159597
aI944774382
aI14539504
aI2257634164
aI3635786363
aI377806332
atp985
Rp986
sg12
I5
sg13
g14
(g15
tp987
Rp988
sg18
Vshouting ill see you in court after losing in court feels like a classic gene wilder bit in a mel brooks movie
p989
sg20
I58
sg21
I10
sg22
I2
sa(dp990
g2
(dp991
g4
I32
sg5
I0
ssg6
I32
sg7
g8
((lp992
I826316937730748416
aI826312091640291328
aI828284837886824450
aI824922157306089476
aI824517349642473472
aI824873617477431297
aI824554807214034945
aI825026081153441793
aI826067493001113600
aI826061301428350977
aI828507026716246016
aI825021191572250625
aI828500351246532608
aI824503091223334913
aI826866647583563776
aI826853068939603968
aI828304278884335616
aI826077595754061824
aI824881677759418370
aI826307263262396416
aI814382221322657792
aI828490357104992257
aI824674140162523137
aI824655711540019200
aI824663641467281410
aI824855784794136578
aI824560594527281153
aI816253931764400128
aI825997593247358976
aI826089429987008512
aI824627600534364160
aI824669003079708672
atp993
Rp994
sg12
I5
sg13
g14
(g15
tp995
Rp996
Vhttp://bit.ly/2kLQy5U
p997
I32
ssg18
V25 of the hottest bikini bodies on instagram that you are definitely going to want to see
p998
sg20
I59
sg21
I10
sg22
I2
sa(dp999
g2
(dp1000
g4
I32
sg5
I0
ssg6
I32
sg7
g8
((lp1001
I826316937730748416
aI824503091223334913
aI828284837886824450
aI824922157306089476
aI826853068939603968
aI826061301428350977
aI826806880458702848
aI825026081153441793
aI824873617477431297
aI814382221322657792
aI828507026716246016
aI828500351246532608
aI824517349642473472
aI824554807214034945
aI826866647583563776
aI824639319973322753
aI826067493001113600
aI828304278884335616
aI826312091640291328
aI826077595754061824
aI824881677759418370
aI826307263262396416
aI826089429987008512
aI828490357104992257
aI824674140162523137
aI824655711540019200
aI824663641467281410
aI824560594527281153
aI825021191572250625
aI816253931764400128
aI825997593247358976
aI824669003079708672
atp1002
Rp1003
sg12
I5
sg13
g14
(g15
tp1004
Rp1005
Vhttp://bit.ly/2kkGr4g
p1006
I32
ssg18
Vkinky wives confess their deepest desires
p1007
sg20
I60
sg21
I10
sg22
I2
sa(dp1008
g2
(dp1009
g4
I32
sg5
I0
ssg6
I32
sg7
g8
((lp1010
I826853068939603968
aI824503091223334913
aI828284837886824450
aI824922157306089476
aI824517349642473472
aI828490357104992257
aI824554807214034945
aI825021191572250625
aI824873617477431297
aI828507026716246016
aI828500351246532608
aI826061301428350977
aI826866647583563776
aI826067493001113600
aI828304278884335616
aI826312091640291328
aI826316937730748416
aI826077595754061824
aI824881677759418370
aI826307263262396416
aI814382221322657792
aI824639319973322753
aI824674140162523137
aI824663641467281410
aI824560594527281153
aI824855784794136578
aI825026081153441793
aI816253931764400128
aI825997593247358976
aI826089429987008512
aI824627600534364160
aI824669003079708672
atp1011
Rp1012
sg12
I5
sg13
g14
(g15
tp1013
Rp1014
Vhttp://bit.ly/2kLGRo4
p1015
I32
ssg18
Vwhen the sun shines through a dress and makes it transparent photos
p1016
sg20
I61
sg21
I10
sg22
I2
sa(dp1017
g2
(dp1018
g4
I0
sg5
I32
ssg6
I32
sg7
g8
((lp1019
I2909468551
aI343526924
aI1288765837
aI2588882712
aI353891484
aI2767200417
aI330788388
aI3154298021
aI2930556841
aI1482303787
aI477416752
aI1686236083
aI1573724726
aI2617118015
aI391586251
aI572230454
aI403888459
aI502070604
aI73931597
aI1637439439
aI302437586
aI1326612691
aI1891424725
aI966207062
aI847934682
aI184870621
aI150401502
aI1682191464
aI166673648
aI1378163827
aI549424119
aI97623893
atp1020
Rp1021
sg12
I5
sg13
g14
(g15
tp1022
Rp1023
Vhttp://bit.ly/yk3b9m
p1024
I32
ssg18
Va new sense of certainty allows you to stride toward your ambi more for cancer
p1025
sg20
I62
sg21
I10
sg22
I2
sa(dp1026
g2
(dp1027
g4
I32
sg5
I0
ssg6
I32
sg7
g8
((lp1028
I715149785456451584
aI722719209759895553
aI741697810861461506
aI743470523875659776
aI719803636595953665
aI711619244769673218
aI734336312291921921
aI2897649960
aI728612986110226432
aI722713470060347392
aI2834485424
aI741702436004319232
aI3494681653
aI715129411465404416
aI4764741432
aI741650559338307584
aI725754953801695232
aI2926360128
aI711622217042243585
aI723438467972108288
aI741695667723083776
aI4516441297
aI2936909138
aI725751946158571521
aI726143092135354368
aI743475904655982592
aI722711754518749184
aI720159948345380864
aI3306602348
aI743457811435184128
aI747466888653869056
aI187370490
atp1029
Rp1030
sg12
I5
sg13
g14
(g15
tp1031
Rp1032
Vhttp://bit.ly/2kBPUVT
p1033
I32
ssg18
Vsht happens sometimes 38photos  \U0001f61c\U0001f61c\U0001f602\U0001f602\U0001f606\U0001f606\U0001f62e\U0001f62e
p1034
sg20
I63
sg21
I10
sg22
I2
sa(dp1035
g2
(dp1036
g4
I32
sg5
I0
ssg6
I32
sg7
g8
((lp1037
I756542872233644032
aI3804279553
aI4274697732
aI3356432833
aI3793568906
aI3851493132
aI2976822286
aI4261756693
aI1476324379
aI3094525860
aI2975884325
aI3198549169
aI3296033849
aI3069845562
aI4272460992
aI4205052609
aI3168077893
aI2547254087
aI3331852812
aI3069898314
aI4219418315
aI4272004812
aI3355774160
aI3023851859
aI3168765780
aI3870190885
aI3204473328
aI3069720019
aI4260847094
aI3874250233
aI2641974779
aI4205016573
atp1038
Rp1039
sg12
I5
sg13
g14
(g15
tp1040
Rp1041
Vhttp://bit.ly/2iVn30p
p1042
I32
ssg18
Vshe gets paid 6 figures a year to film herself doing this if you\u2019re shy do not watch this\u2026
p1043
sg20
I64
sg21
I10
sg22
I2
sa(dp1044
g2
(dp1045
g4
I31
sg5
I0
ssg6
I31
sg7
g8
((lp1046
I756542872233644032
aI3804279553
aI4274697732
aI3356432833
aI3793568906
aI3331852812
aI2976822286
aI4261756693
aI1476324379
aI2975884325
aI3198549169
aI3296033849
aI3069845562
aI4272460992
aI4205052609
aI3168077893
aI2547254087
aI3069898314
aI4272004812
aI3355774160
aI3069720019
aI3168765780
aI284156814
aI3874250233
aI4261208413
aI3204473328
aI3023851859
aI4260847094
aI3168128852
aI2641974779
aI4205016573
atp1047
Rp1048
sg12
I5
sg13
g14
(g15
tp1049
Rp1050
Vhttp://bit.ly/2iR4isB
p1051
I31
ssg18
Vthese students going to high school dressed so naughty that teachers
p1052
sg20
I65
sg21
I10
sg22
I2
sa(dp1053
g2
(dp1054
g4
I31
sg5
I0
ssg6
I31
sg7
g8
((lp1055
I826316937730748416
aI824503091223334913
aI828284837886824450
aI824922157306089476
aI826307263262396416
aI828490357104992257
aI824554807214034945
aI824881677759418370
aI826067493001113600
aI826061301428350977
aI814382221322657792
aI828507026716246016
aI828500351246532608
aI824517349642473472
aI825026081153441793
aI824873617477431297
aI826866647583563776
aI826853068939603968
aI828304278884335616
aI826312091640291328
aI826077595754061824
aI824663641467281410
aI826089429987008512
aI824639319973322753
aI824674140162523137
aI824655711540019200
aI824560594527281153
aI825997593247358976
aI824855784794136578
aI824627600534364160
aI824669003079708672
atp1056
Rp1057
sg12
I5
sg13
g14
(g15
tp1058
Rp1059
Vhttp://bit.ly/2kIM5jX
p1060
I31
ssg18
V5 everyday things youve probably been doing wrong your whole life that you should probably fix now
p1061
sg20
I66
sg21
I10
sg22
I2
sa(dp1062
g2
(dp1063
g4
I2
sg5
I28
ssg6
I30
sg7
g8
((lp1064
I827541807277944832
aI827490190746718209
aI2891406084
aI2471755013
aI825110036137455626
aI347104144
aI582496531
aI388028707
aI372860452
aI3269787559
aI262987307
aI2353780652
aI1654762285
aI1088891822
aI2718744375
aI2266711994
aI321517508
aI2433615559
aI2240439651
aI604754252
aI417588179
aI3013574599
aI3149609827
aI2162080229
aI946990950
aI465846375
aI1427668584
aI499284713
aI2691403004
aI620781694
atp1065
Rp1066
sg12
I5
sg13
g14
(g15
tp1067
Rp1068
Vhttp://bit.ly/xHSyh0
p1069
I30
ssg18
Vwhile others appear to constantly strive toward receiving pers more for pisces
p1070
sg20
I67
sg21
I10
sg22
I2
sa(dp1071
g2
(dp1072
g4
I30
sg5
I0
ssg6
I30
sg7
g8
((lp1073
I756542872233644032
aI3804279553
aI4274697732
aI3793568906
aI3851493132
aI2976822286
aI1476324379
aI3094525860
aI2975884325
aI3198549169
aI3296033849
aI3069845562
aI4205052609
aI3168077893
aI2547254087
aI3331852812
aI4219418315
aI4272004812
aI3355774160
aI3023851859
aI3168128852
aI4218368987
aI4261208413
aI3870190885
aI3204473328
aI3069720019
aI4260847094
aI3168765780
aI2641974779
aI4205016573
atp1074
Rp1075
sg12
I5
sg13
g14
(g15
tp1076
Rp1077
Vhttp://bit.ly/2iVhvDi
p1078
I30
ssg18
Vreal confessions from women after their back doors gets deflowered
p1079
sg20
I68
sg21
I10
sg22
I2
sa(dp1080
g2
(dp1081
g4
I2
sg5
I28
ssg6
I30
sg7
g8
((lp1082
I727156370055770112
aI798763420933754881
aI4820653634
aI4820698699
aI4820677381
aI4820653994
aI4820683627
aI4820651252
aI4820630030
aI4820654360
aI4820565012
aI4820566392
aI4820675449
aI4820624762
aI4820699293
aI4820683615
atp1083
Rp1084
sg12
I5
sg13
g14
(g15
tp1085
Rp1086
Vhttp://bit.ly/trannyhotslut
p1087
I30
ssg18
Vts jessica ketlen rams tranny asshole     shemale shemales tranny
p1088
sg20
I69
sg21
I10
sg22
I2
sa(dp1089
g2
(dp1090
g4
I1
sg5
I29
ssg6
I30
sg7
g8
((lp1091
I2496394368
aI710886857354022912
aI915854468
aI2605345674
aI4880271891
aI1687927574
aI827569041980157956
aI281257249
aI195049379
aI1414144945
aI560590378
aI1111470126
aI108496047
aI1158448688
aI333137713
aI4176214453
aI2331180856
aI410465084
aI101466816
aI2713167811
aI183588036
aI1643108641
aI178616904
aI3418619087
aI521718237
aI920388962
aI606283235
aI3005758571
aI544734068
aI196626807
atp1092
Rp1093
sg12
I5
sg13
g14
(g15
tp1094
Rp1095
Vhttp://bit.ly/xlOqWT
p1096
I30
ssg18
Vyour quiet confidence can be intimidating sometimes but today more for scorpio
p1097
sg20
I70
sg21
I10
sg22
I2
sa(dp1098
g2
(dp1099
g4
I28
sg5
I2
ssg6
I30
sg7
g8
((lp1100
I716823227717160960
aI716816828798881793
aI3160983812
aI2912915334
aI2853048972
aI3040193294
aI3837287953
aI3119786770
aI3165996308
aI3818273173
aI3167324761
aI3199729307
aI3124141467
aI3160990628
aI3167337638
aI3119896234
aI2929203243
aI3119962163
aI3171309878
aI3162007994
aI2929319363
aI2929297348
aI3063126855
aI3166001101
aI3165970381
aI3171158742
aI3120091684
aI3199827934
aI3199900258
aI3171309439
atp1101
Rp1102
sg12
I5
sg13
g14
(g15
tp1103
Rp1104
Vhttp://bit.ly/2k7tu0b
p1105
I30
ssg18
Vtragic oj simpson news were heartbroken to report that at 68 years old the father of 5 has \U0001f604\U0001f604\U0001f478\U0001f478\U0001f3a5\U0001f3a5\U0001f4fa\U0001f4fa
p1106
sg20
I71
sg21
I10
sg22
I2
sa(dp1107
g2
(dp1108
g4
I29
sg5
I0
ssg6
I29
sg7
g8
((lp1109
I609331328
aI2869728513
aI324155533
aI741087247
aI157538844
aI2711867810
aI56575399
aI3294203310
aI3087395508
aI2842931273
aI2191013172
aI928925114
aI535458242
aI637433412
aI386616521
aI758193740
aI160697997
aI382857814
aI1104940760
aI446676192
aI2634310524
aI2232110190
aI2986383983
aI130930417
aI96627187
aI69618939
aI1085184380
aI176903807
atp1110
Rp1111
sg12
I5
sg13
g14
(g15
tp1112
Rp1113
Vhttp://bit.ly/TheAnswersPre
p1114
I29
ssg18
Vmy sophomore album the answers is coming out march 17 preorder available now
p1115
sg20
I72
sg21
I10
sg22
I2
sa(dp1116
g2
(dp1117
g4
I29
sg5
I0
ssg6
I29
sg7
g8
((lp1118
I756542872233644032
aI3804279553
aI799683242190196736
aI4205052609
aI3793568906
aI3851493132
aI2976822286
aI4261756693
aI3094525860
aI3870190885
aI3198549169
aI3296033849
aI3069845562
aI4272460992
aI3356432833
aI3168077893
aI2547254087
aI3331852812
aI4272004812
aI3069720019
aI3168765780
aI3168128852
aI4218368987
aI4261208413
aI3204473328
aI4260847094
aI3874250233
aI2641974779
aI4205016573
atp1119
Rp1120
sg12
I5
sg13
g14
(g15
tp1121
Rp1122
Vhttp://bit.ly/2jgC1e3
p1123
I29
ssg18
Vthis is what the shape of your butt has to say about your health
p1124
sg20
I73
sg21
I10
sg22
I2
sa(dp1125
g2
(dp1126
g4
I29
sg5
I0
ssg6
I29
sg7
g8
((lp1127
I826866647583563776
aI824503091223334913
aI824881677759418370
aI824922157306089476
aI826312091640291328
aI826061301428350977
aI824560594527281153
aI826067493001113600
aI824873617477431297
aI814382221322657792
aI828304278884335616
aI825021191572250625
aI828500351246532608
aI824517349642473472
aI824554807214034945
aI825997593247358976
aI824639319973322753
aI826853068939603968
aI828507026716246016
aI826077595754061824
aI826316937730748416
aI824663641467281410
aI826089429987008512
aI828490357104992257
aI824674140162523137
aI824655711540019200
aI825026081153441793
aI824627600534364160
aI824669003079708672
atp1128
Rp1129
sg12
I5
sg13
g14
(g15
tp1130
Rp1131
Vhttp://bit.ly/2kLu7ve
p1132
I29
ssg18
Vbikinis are a good reason to go on vacation 90photos  \U0001f60a\U0001f60a\U0001f60d\U0001f60d\U0001f61a\U0001f61a\U0001f608\U0001f608
p1133
sg20
I74
sg21
I10
sg22
I2
sa(dp1134
g2
(dp1135
g4
I28
sg5
I0
ssg6
I28
sg7
g8
((lp1136
I826312091640291328
aI824503091223334913
aI824663641467281410
aI824922157306089476
aI826307263262396416
aI825026081153441793
aI825021191572250625
aI826061301428350977
aI828507026716246016
aI828500351246532608
aI824517349642473472
aI824554807214034945
aI824873617477431297
aI826866647583563776
aI824639319973322753
aI826853068939603968
aI828304278884335616
aI826077595754061824
aI826316937730748416
aI828284837886824450
aI814382221322657792
aI828490357104992257
aI824881677759418370
aI826806880458702848
aI824560594527281153
aI825997593247358976
aI826089429987008512
aI824669003079708672
atp1137
Rp1138
sg12
I5
sg13
g14
(g15
tp1139
Rp1140
Vhttp://bit.ly/2kLLHBz
p1141
I28
ssg18
Vmentally prepare for a healthy dose of underboob 54photos
p1142
sg20
I75
sg21
I10
sg22
I2
sa(dp1143
g2
(dp1144
g4
I0
sg5
I28
ssg6
I28
sg7
g8
((lp1145
I4820653634
aI4820698699
aI4820677381
aI4820653994
aI4820683627
aI4820651252
aI4820630030
aI4820566392
aI4820565012
aI4820654360
aI4820675449
aI4820624762
aI4820677375
aI4820699293
aI4820683615
atp1146
Rp1147
sg12
I5
sg13
g14
(g15
tp1148
Rp1149
Vhttp://bit.ly/trannyhotslut
p1150
I28
ssg18
Vguy fucking ultra hot shemale glamour     shemale shemales tranny
p1151
sg20
I76
sg21
I10
sg22
I2
sa(dp1152
g2
(dp1153
g4
I28
sg5
I0
ssg6
I28
sg7
g8
((lp1154
I785688290347278336
aI40462321
aI2638807818
aI563505303
aI1482482582
aI112319127
aI2652594073
aI2251111326
aI2917883299
aI308789927
aI834116522
aI325156655
aI1321775154
aI1496861491
aI3002529732
aI217882817
aI176256324
aI134158415
aI3594239056
aI1099473402
aI209765728
aI2771432039
aI2156414833
aI468780403
aI24134004
aI155133561
aI1330519418
aI118272507
atp1155
Rp1156
sg12
I5
sg13
g14
(g15
tp1157
Rp1158
Vhttps://twitter.com/stereogum/status/829449436409401345
p1159
I28
ssg18
Vthe actual nazis of course remain unsuspended
p1160
sg20
I77
sg21
I10
sg22
I2
sa(dp1161
g2
(dp1162
g4
I27
sg5
I0
ssg6
I27
sg7
g8
((lp1163
I826853068939603968
aI824503091223334913
aI828284837886824450
aI824922157306089476
aI824517349642473472
aI824873617477431297
aI824554807214034945
aI824881677759418370
aI826061301428350977
aI828507026716246016
aI828500351246532608
aI825021191572250625
aI826866647583563776
aI826067493001113600
aI828304278884335616
aI826312091640291328
aI826316937730748416
aI826077595754061824
aI824663641467281410
aI826307263262396416
aI814382221322657792
aI828490357104992257
aI824655711540019200
aI825026081153441793
aI816253931764400128
aI825997593247358976
aI824669003079708672
atp1164
Rp1165
sg12
I5
sg13
g14
(g15
tp1166
Rp1167
Vhttp://bit.ly/2kksBiI
p1168
I27
ssg18
Vthe best things about having a small penis
p1169
sg20
I78
sg21
I10
sg22
I2
sa(dp1170
g2
(dp1171
g4
I27
sg5
I0
ssg6
I27
sg7
g8
((lp1172
I827524372562903040
aI727928133157015553
aI942084355
aI4287877893
aI759435633244897280
aI822625308457267201
aI15795976
aI2696919212
aI154969490
aI46006531
aI2841714842
aI819234119574028289
aI34040742
aI80565292
aI382194049
aI403931954
aI1547474228
aI812668830514286593
aI730692397898825728
aI504389320
aI706148599604731905
aI31075663
aI1441955664
aI3401227875
aI301579240
aI3325865720
aI732326601145393153
atp1173
Rp1174
sg12
I5
sg13
g14
(g15
tp1175
Rp1176
Vhttps://twitter.com/i/web/status/829721019720015872
p1177
I27
ssg18
Vjoin us live in the oval office for the swearing in of our new attorney general senatorsessions live\u2026
p1178
sg20
I79
sg21
I10
sg22
I2
sa(dp1179
g2
(dp1180
g4
I1
sg5
I26
ssg6
I27
sg7
g8
((lp1181
I789641639916609538
aI90872963
aI585733878
aI2259588626
aI129905555
aI516843638
aI1038829987
aI219493416
aI393133610
aI1033633452
aI4037156654
aI4250373317
aI196226761
aI170909903
aI38891478
aI2691936091
aI1632791137
aI2612934626
aI702773736
aI554639593
aI1145368813
aI150466928
aI2979779057
aI4491841394
aI367447030
aI556438649
aI1910907006
atp1182
Rp1183
sg12
I5
sg13
g14
(g15
tp1184
Rp1185
Vhttp://bit.ly/zzEL3G
p1186
I27
ssg18
Vtheres a spring in your step and a song on your lips as the e more for aries
p1187
sg20
I80
sg21
I10
sg22
I2
sa(dp1188
g2
(dp1189
g4
I2
sg5
I25
ssg6
I27
sg7
g8
((lp1190
I727156370055770112
aI4820653634
aI4820677381
aI4820683627
aI4820630030
aI4820566392
aI4820651252
aI4820654360
aI4820565012
aI4820624762
aI4820683615
aI4820699293
aI4820677375
atp1191
Rp1192
sg12
I5
sg13
g14
(g15
tp1193
Rp1194
Vhttp://bit.ly/trannyhotslut
p1195
I27
ssg18
Vjerking the shemale dick and the wank is so awesome     shemale shemales tranny
p1196
sg20
I81
sg21
I10
sg22
I2
sa(dp1197
g2
(dp1198
g4
I27
sg5
I0
ssg6
I27
sg7
g8
((lp1199
I824176091803881472
aI727928133157015553
aI826283862376456194
aI942084355
aI773353278092484612
aI707678685290074112
aI824695790480154625
aI15795976
aI2160747660
aI828347524373213187
aI2178663834
aI154228382
aI796226085998432256
aI706148599604731905
aI782627531627175936
aI436094775
aI259104186
aI715957023888662528
aI708469711411908608
aI57774407
aI769150668
aI733101270517485568
aI426542439
aI2705642732
aI2795038573
aI319432175
aI362857078
atp1200
Rp1201
sg12
I5
sg13
g14
(g15
tp1202
Rp1203
Vhttp://bit.ly/2k4fvqgEUPoll
p1204
I27
ssg18
Vmajority in leading eu nations support trumpstyle travel ban  poll of more than 10000 people in 10 countrieshtt\u2026
p1205
sg20
I82
sg21
I10
sg22
I2
sa(dp1206
g2
(dp1207
g4
I27
sg5
I0
ssg6
I27
sg7
g8
((lp1208
I739691269656477696
aI714801677883191296
aI707705933804269570
aI67526917
aI785289278922301440
aI701259623894921217
aI30979595
aI733467830478245890
aI174747918
aI154969490
aI185224214
aI67883291
aI22856092
aI719012705731014661
aI760914917306273792
aI3341446180
aI3364944171
aI795110748351365120
aI283121356
aI4799346261
aI427591520
aI1426432874
aI1526240240
aI39674993
aI3308029429
aI817576136603561984
aI376456959
atp1209
Rp1210
sg12
I5
sg13
g14
(g15
tp1211
Rp1212
Vhttps://twitter.com/i/web/status/829853055009054723
p1213
I27
ssg18
Vthe 9th circuit court has overstepped i\u2019m with pres trump we need to make america safe again who\u2019s with me   \u2026
p1214
sg20
I83
sg21
I10
sg22
I2
sa(dp1215
g2
(dp1216
g4
I26
sg5
I0
ssg6
I26
sg7
g8
((lp1217
I706991917104570368
aI796735483615264768
aI729054347007496196
aI776124774036574208
aI222436369
aI3453913755
aI56913949
aI2174998820
aI2221870759
aI2292123182
aI2879667890
aI384964662
aI770309725292490752
aI3421451331
aI2440654669
aI75367248
aI746992213
aI701499691138211840
aI220527460
aI2398537436
aI784502901263765504
aI60336996
aI3410083072
aI2892865140
aI793311806836137984
aI584198137
atp1218
Rp1219
sg12
I5
sg13
g14
(g15
tp1220
Rp1221
Vhttp://bit.ly/Polished-Gold
p1222
I26
ssg18
Vgrab a pair of our 1 selling 10 polished gold earbuds \U0001f525  read the reviews for yourself \U0001f64c\U0001f3fb
p1223
sg20
I84
sg21
I10
sg22
I2
sa(dp1224
g2
(dp1225
g4
I0
sg5
I26
ssg6
I26
sg7
g8
((lp1226
I194430208
aI194369798
aI197447816
aI204667402
aI194896144
aI99695128
aI192740886
aI137304856
aI174194223
aI195656988
aI193662378
aI157554477
aI198046895
aI192521019
aI144915260
aI192818623
aI207394241
aI192987975
aI194861029
aI198396899
aI192139749
aI194099687
aI192149993
aI171174261
aI174212585
aI192080253
atp1227
Rp1228
sg12
I5
sg13
g14
(g15
tp1229
Rp1230
Vhttp://bit.ly/2kctMDb
p1231
I26
ssg18
Vthe enigma of capturing light
p1232
sg20
I85
sg21
I10
sg22
I2
sa(dp1233
g2
(dp1234
g4
I25
sg5
I1
ssg6
I26
sg7
g8
((lp1235
I818667774063116288
aI18082945
aI215026562
aI824075448950722560
aI825926906340077569
aI824039179634036737
aI3222286221
aI89379605
aI236752793
aI825683145345396737
aI970252327
aI30606087
aI4925943992
aI138899772
aI811093269073526784
aI829768053911076865
aI3885916873
aI3720217034
aI2283022292
aI818417262591807488
aI20263787
aI31251948
aI17372783
aI234705799
aI574166517
aI829922452100702208
atp1236
Rp1237
sg12
I5
sg13
g14
(g15
tp1238
Rp1239
Vhttp://bit.ly/2ltvrSD
p1240
I26
sVhttps://twitter.com/i/web/status/829929654496555008
p1241
I1
ssg18
V12 days and counting shamed gop quietly miss deadline to start obamacare repeal   peeotus\u2026
p1242
sg20
I86
sg21
I10
sg22
I2
sa(dp1243
g2
(dp1244
g4
I25
sg5
I0
ssg6
I25
sg7
g8
((lp1245
I827511786588995584
aI461116644
aI747832358
aI1496783047
aI2225106546
aI150264312
atp1246
Rp1247
sg12
I5
sg13
g14
(g15
tp1248
Rp1249
Vhttp://bit.ly/2j466lf
p1250
I25
ssg18
Von live beautiful girls and women   click
p1251
sg20
I87
sg21
I10
sg22
I2
sa(dp1252
g2
(dp1253
g4
I2
sg5
I23
ssg6
I25
sg7
g8
((lp1254
I827524202060079104
aI827573147994091521
aI184649991
aI1733543689
aI2770360083
aI2321653525
aI1060780572
aI249516604
aI1353371180
aI319107252
aI771432506
aI2546246459
aI279266108
aI252521149
aI2452804548
aI272541770
aI4831417308
aI370896991
aI2747146984
aI549368681
aI362964074
aI565241326
aI1027730678
aI2712033658
aI135149898
atp1255
Rp1256
sg12
I5
sg13
g14
(g15
tp1257
Rp1258
Vhttp://bit.ly/wvRgyF
p1259
I25
ssg18
Vyoure glowing with an alluring brilliance today and no one c more for libra
p1260
sg20
I88
sg21
I10
sg22
I2
sa(dp1261
g2
(dp1262
g4
I25
sg5
I0
ssg6
I25
sg7
g8
((lp1263
I3804279553
aI4274697732
aI3793568906
aI3851493132
aI2976822286
aI4261756693
aI1476324379
aI3094525860
aI3198549169
aI3069845562
aI4272460992
aI3356432833
aI3168077893
aI2547254087
aI3355774160
aI3069720019
aI3168128852
aI3874250233
aI4261208413
aI3204473328
aI3023851859
aI4260847094
aI3168765780
aI2641974779
aI4205016573
atp1264
Rp1265
sg12
I5
sg13
g14
(g15
tp1266
Rp1267
Vhttp://bit.ly/2i5WHYl
p1268
I25
ssg18
Vthis man wants to know what really his housekeeper doing when shes alone
p1269
sg20
I89
sg21
I10
sg22
I2
sa(dp1270
g2
(dp1271
g4
I25
sg5
I0
ssg6
I25
sg7
g8
((lp1272
I756542872233644032
aI3804279553
aI3793568906
aI3331852812
aI3168765780
aI1476324379
aI3094525860
aI3198549169
aI3296033849
aI3069845562
aI4272460992
aI3356432833
aI3168077893
aI2547254087
aI3069898314
aI4219418315
aI4272004812
aI3355774160
aI3069720019
aI3168128852
aI4218368987
aI3204473328
aI4260847094
aI3874250233
aI4205016573
atp1273
Rp1274
sg12
I5
sg13
g14
(g15
tp1275
Rp1276
Vhttp://bit.ly/2i3Mngq
p1277
I25
ssg18
Vpractice these sex positions to make your woman scream of pleasure
p1278
sg20
I90
sg21
I10
sg22
I2
sa(dp1279
g2
(dp1280
g4
I24
sg5
I1
ssg6
I25
sg7
g8
((lp1281
I756542872233644032
aI813511275384807425
aI4274697732
aI3793568906
aI3851493132
aI2976822286
aI1476324379
aI3094525860
aI2975884325
aI3198549169
aI3296033849
aI3069845562
aI4272460992
aI3168077893
aI4219418315
aI4272004812
aI3355774160
aI3023851859
aI3168128852
aI4218368987
aI4261208413
aI3204473328
aI3069720019
aI4260847094
aI3168765780
atp1282
Rp1283
sg12
I5
sg13
g14
(g15
tp1284
Rp1285
Vhttp://bit.ly/2j4rjrU
p1286
I25
ssg18
Vhunters thought the giant snake ate a calf but when they cut it open they see the truth
p1287
sg20
I91
sg21
I10
sg22
I2
sa(dp1288
g2
(dp1289
g4
I24
sg5
I0
ssg6
I24
sg7
g8
((lp1290
I826726167340277760
aI712283931941318656
aI2656904197
aI811415362562498560
aI233425416
aI199968139
aI748262174
aI65284530
aI284442291
aI2737177016
aI83044921
aI150578619
aI1879572030
aI174590917
aI290187468
aI241800275
aI614007767
aI534992735
aI2920808294
aI50256746
aI548168812
aI2995369586
aI242362869
aI215184760
atp1291
Rp1292
sg12
I5
sg13
g14
(g15
tp1293
Rp1294
Vhttp://bit.ly/2kOhkIx
p1295
I24
ssg18
Vshinkai makoto your name movie director i met jonghyun last time when i came to kr i want to work with shinee
p1296
sg20
I92
sg21
I10
sg22
I2
sa(dp1297
g2
(dp1298
g4
I0
sg5
I24
ssg6
I24
sg7
g8
((lp1299
I480387589
aI41068481
aI1672375050
aI2263872269
aI331338515
aI2388591390
aI1077727537
aI563685684
aI284212281
aI233523777
aI776740423
aI2789802448
aI47469009
aI2247297880
aI1276847066
aI4806513631
aI574715109
aI363479654
aI1027612399
aI337049201
aI2894496883
aI507557243
aI825104636
aI3232216447
atp1300
Rp1301
sg12
I5
sg13
g14
(g15
tp1302
Rp1303
Vhttp://bit.ly/A5KmeJ
p1304
I24
ssg18
Vyou may prefer to keep yourself safely locked in a stone castl more for capricorn
p1305
sg20
I93
sg21
I10
sg22
I2
sa(dp1306
g2
(dp1307
g4
I24
sg5
I0
ssg6
I24
sg7
g8
((lp1308
I745848427142078464
aI743727953628930048
aI736818926470889474
aI817756978520985600
aI817753990473674753
aI4695342986
aI4832235022
aI4036647313
aI4699680390
aI4676935975
aI710342272710094848
aI820097406851235840
aI4644082098
aI710338149893820416
aI750610950600949760
aI743724367125712896
aI815252737789046784
aI4694194382
aI817652484063817728
aI798156256632569856
aI4700533358
aI817759472319918080
aI710340426448801792
aI823458866843316224
atp1309
Rp1310
sg12
I5
sg13
g14
(g15
tp1311
Rp1312
Vhttp://bit.ly/2luzYUL
p1313
I24
ssg18
Vconfessions from wives for doggystyle
p1314
sg20
I94
sg21
I10
sg22
I2
sa(dp1315
g2
(dp1316
g4
I24
sg5
I0
ssg6
I24
sg7
g8
((lp1317
I1063663872
aI2389195010
aI25334659
aI1063700869
aI1188170762
aI2476145041
aI128473630
aI2927275141
aI548006311
aI2927214504
aI1272979380
aI341658039
aI1589459768
aI1436935226
aI2927245646
aI1273301071
aI52122195
aI2422987092
aI619602908
aI3227151674
aI971050080
aI3087851107
aI1188192379
atp1318
Rp1319
sg12
I5
sg13
g14
(g15
tp1320
Rp1321
Vhttp://bit.ly/2ldw2IM
p1322
I24
ssg18
Vcan we guess your age by the words you use
p1323
sg20
I95
sg21
I10
sg22
I2
sa(dp1324
g2
(dp1325
g4
I0
sg5
I24
ssg6
I24
sg7
g8
((lp1326
I4820653634
aI4820698699
aI4820677381
aI4820653994
aI4820683627
aI4820630030
aI4820654360
aI4820565012
aI4820566392
aI4820675449
aI4820624762
aI4820677375
aI4820699293
aI4820683615
atp1327
Rp1328
sg12
I5
sg13
g14
(g15
tp1329
Rp1330
Vhttp://bit.ly/trannyhotslut
p1331
I24
ssg18
Vsexy tranny babe jerking off her cock hd     shemale shemales tranny
p1332
sg20
I96
sg21
I10
sg22
I2
sa(dp1333
g2
(dp1334
g4
I24
sg5
I0
ssg6
I24
sg7
g8
((lp1335
I828304278884335616
aI824503091223334913
aI824881677759418370
aI826307263262396416
aI824873617477431297
aI826806880458702848
aI824560594527281153
aI828500351246532608
aI828490357104992257
aI826866647583563776
aI826853068939603968
aI828507026716246016
aI826312091640291328
aI826316937730748416
aI828284837886824450
aI814382221322657792
aI824639319973322753
aI824674140162523137
aI824655711540019200
aI824663641467281410
aI825997593247358976
aI824855784794136578
aI824627600534364160
aI824669003079708672
atp1336
Rp1337
sg12
I5
sg13
g14
(g15
tp1338
Rp1339
Vhttp://bit.ly/2kJ1Siz
p1340
I24
ssg18
Vomg javi has had enough threatens kail via social media
p1341
sg20
I97
sg21
I10
sg22
I2
sa(dp1342
g2
(dp1343
g4
I2
sg5
I22
ssg6
I24
sg7
g8
((lp1344
I718332836076503040
aI799140560766255104
aI3096552965
aI1654080906
aI3824188570
aI309637918
aI296736289
aI2420028964
aI541502762
aI2980942533
aI2971554502
aI2340760993
aI2271551701
aI174224477
aI2880928223
aI2413049058
aI2787717220
aI986343662
aI3435595119
aI2170372721
aI404166131
aI2401184117
aI292785272
aI4641563129
atp1345
Rp1346
sg12
I5
sg13
g14
(g15
tp1347
Rp1348
Vhttp://bit.ly/EnjoyLagosCouponBook
p1349
I24
ssg18
Vif you love me  denjoylagoscouponbook enjoylagos nexxtlevelent
p1350
sg20
I98
sg21
I10
sg22
I2
sa(dp1351
g2
(dp1352
g4
I1
sg5
I22
ssg6
I23
sg7
g8
((lp1353
I740201192689668096
aI2936631680
aI827543493144895492
aI195315605
aI2300657114
aI308319392
aI2197133347
aI2389206445
aI926853049
aI32676000
aI388374498
aI26327887
aI383265235
aI200330581
aI2214986328
aI326431065
aI476024026
aI299050716
aI471564898
aI2396896106
aI97018603
aI2171144304
aI2717520762
atp1354
Rp1355
sg12
I5
sg13
g14
(g15
tp1356
Rp1357
Vhttp://bit.ly/yibOac
p1358
I23
ssg18
Vtime flies by and youre flying with it soaring above the dou more for sagittarius
p1359
sg20
I99
sg21
I10
sg22
I2
sa(dp1360
g2
(dp1361
g4
I0
sg5
I23
ssg6
I23
sg7
g8
((lp1362
I4820653634
aI4820677381
aI4820653994
aI4820698699
aI4820651252
aI4820630030
aI4820654360
aI4820565012
aI4820566392
aI4820675449
aI4820624762
aI4820677375
aI4820699293
aI4820683615
atp1363
Rp1364
sg12
I5
sg13
g14
(g15
tp1365
Rp1366
Vhttp://bit.ly/trannyhotslut
p1367
I23
ssg18
Vhorny tranny gets rimmed     shemale shemales tranny
p1368
sg20
I100
sg21
I10
sg22
I2
sa(dp1369
g2
(dp1370
g4
I23
sg5
I0
ssg6
I23
sg7
g8
((lp1371
I745848427142078464
aI750610950600949760
aI736818926470889474
aI743724367125712896
aI817753990473674753
aI4832235022
aI4036647313
aI4699680390
aI708137380419477504
aI820097406851235840
aI710338149893820416
aI710340426448801792
aI743727953628930048
aI815252737789046784
aI4694194382
aI817759472319918080
aI798156256632569856
aI817756978520985600
aI708124591877595136
aI4700533358
aI573459961
aI823458866843316224
atp1372
Rp1373
sg12
I5
sg13
g14
(g15
tp1374
Rp1375
Vhttp://bit.ly/2jITdMO
p1376
I1
sVhttp://bit.ly/2iPOMjU
p1377
I1
sVhttp://bit.ly/2kUOjwU
p1378
I21
ssg18
Vbreaking tm2s kail brutally raped amp hospitalized
p1379
sg20
I101
sg21
I10
sg22
I2
sa(dp1380
g2
(dp1381
g4
I23
sg5
I0
ssg6
I23
sg7
g8
((lp1382
I826316937730748416
aI824639319973322753
aI828284837886824450
aI824517349642473472
aI824503091223334913
aI824554807214034945
aI824855784794136578
aI824873617477431297
aI828507026716246016
aI828500351246532608
aI825021191572250625
aI826866647583563776
aI826853068939603968
aI828304278884335616
aI826312091640291328
aI824881677759418370
aI826089429987008512
aI824674140162523137
aI824655711540019200
aI824663641467281410
aI824560594527281153
aI824627600534364160
aI824669003079708672
atp1383
Rp1384
sg12
I5
sg13
g14
(g15
tp1385
Rp1386
Vhttp://bit.ly/2jLlykV
p1387
I23
ssg18
Vsexy selfies of pornstar ariana marie  \U0001f604\U0001f604\U0001f478\U0001f478\U0001f3a5\U0001f3a5\U0001f4fa\U0001f4fa
p1388
sg20
I102
sg21
I10
sg22
I2
sa(dp1389
g2
(dp1390
g4
I23
sg5
I0
ssg6
I23
sg7
g8
((lp1391
I821694205982625792
aI792347291864539136
aI814147558373265408
aI828970429578674177
aI799585433151799296
aI787697477319266304
aI820941924152606721
aI2983441832
aI798852075840880640
aI2856939379
aI2903784373
aI3285686839
aI788706135922450433
aI3308439362
aI2981876684
aI2853195476
aI3304400221
aI810814722266300416
aI817657039484817408
aI573323621
aI791932300728541184
aI826772183204712448
aI810441612539162624
atp1392
Rp1393
sg12
I5
sg13
g14
(g15
tp1394
Rp1395
Vhttp://bit.ly/YouTubeMyTV
p1396
I23
ssg18
Vlive with gurmeetramrahim amp insanhoney for hknkj subscribe here   for the full featu\u2026 htt\u2026
p1397
sg20
I103
sg21
I10
sg22
I2
sa(dp1398
g2
(dp1399
g4
I0
sg5
I23
ssg6
I23
sg7
g8
((lp1400
I4820653634
aI4820683627
aI4820677381
aI4820653994
aI4820698699
aI4820630030
aI4820654360
aI4820651252
aI4820566392
aI4820565012
aI4820624762
aI4820683615
aI4820699293
aI4820677375
atp1401
Rp1402
sg12
I5
sg13
g14
(g15
tp1403
Rp1404
Vhttp://bit.ly/trannyhotslut
p1405
I23
ssg18
Vglamour shemale camily victoria enjoyed by hard man meat     shemale shemales tranny
p1406
sg20
I104
sg21
I10
sg22
I2
sa(dp1407
g2
(dp1408
g4
I0
sg5
I23
ssg6
I23
sg7
g8
((lp1409
I768755400422334464
atp1410
Rp1411
sg12
I5
sg13
g14
(g15
tp1412
Rp1413
Vhttp://bit.ly/2iMKicC
p1414
I23
sVhttps://ladyindia.com/collections/salwar-suits/products/urban-naari-22263-kurti-tunic-pink-designer-digital-print-semi-stitched-salwar-suit
p1415
I2
sVhttps://ladyindia.com/collections/salwar-suits/products/urban-naari-22262-fashionable-kurtis-designer-embroidered-digital-print-semi-stitched-salwar-suit
p1416
I7
sVhttps://ladyindia.com/collections/salwar-suits/products/urban-naari-21448-cream-designer-georgette-embroidered-semi-stitched-salwar-suit
p1417
I14
ssg18
Vny shop these pretty evening wear anarkali suit here\u2026visit \u2026
p1418
sg20
I105
sg21
I10
sg22
I2
sa(dp1419
g2
(dp1420
g4
I22
sg5
I0
ssg6
I22
sg7
g8
((lp1421
I826307263262396416
aI825026081153441793
aI824881677759418370
aI824922157306089476
aI828507026716246016
aI825021191572250625
aI824663641467281410
aI826061301428350977
aI814382221322657792
aI828500351246532608
aI824517349642473472
aI824560594527281153
aI824873617477431297
aI825997593247358976
aI826067493001113600
aI826077595754061824
aI824855784794136578
aI826089429987008512
aI824639319973322753
aI824655711540019200
aI816253931764400128
aI824627600534364160
atp1422
Rp1423
sg12
I5
sg13
g14
(g15
tp1424
Rp1425
Vhttp://bit.ly/2kWvBoA
p1426
I22
ssg18
Vthe workweek can be daunting so let flbp take your mind of things 38photos  \U0001f60a\U0001f60a\U0001f60d\U0001f60d\U0001f61a\U0001f61a\U0001f608\U0001f608
p1427
sg20
I106
sg21
I10
sg22
I2
sa(dp1428
g2
(dp1429
g4
I22
sg5
I0
ssg6
I22
sg7
g8
((lp1430
I769877959691870208
aI768469139287670784
aI773894521436381186
aI3183770563
aI762680263142932481
aI764741385811406848
aI765096417954177024
aI773899847204208640
aI762001596809031680
aI731692170659274752
aI761500447446212608
aI723139844516388864
aI715449274138382336
aI715547883315994624
aI717759494747348992
aI726295738599268352
aI765191374341672960
aI3251836831
aI715448005415952384
aI769869978526941184
aI763052693883584512
atp1431
Rp1432
sg12
I5
sg13
g14
(g15
tp1433
Rp1434
Vhttps://twitter.com/firstpost/status/829704782327672832
p1435
I22
ssg18
Vaap in news  top story firstpost on twitter bsfjawans video wife moves h\u2026   see more
p1436
sg20
I107
sg21
I10
sg22
I2
sa(dp1437
g2
(dp1438
g4
I0
sg5
I22
ssg6
I22
sg7
g8
((lp1439
I4824628128
aI4824759553
aI4824763045
aI4824619692
aI4824708266
aI4824719564
aI4824617898
aI4824703826
aI4824721460
aI4824712214
aI4824702428
aI4824748285
aI4824716414
atp1440
Rp1441
sg12
I5
sg13
g14
(g15
tp1442
Rp1443
Vhttp://bit.ly/29wfF7t?NTpc9
p1444
I1
sVhttp://bit.ly/29wfF7t?jxvF
p1445
I1
sVhttp://bit.ly/29wfF7t?R9geR
p1446
I1
sVhttp://bit.ly/29wfF7t?d4B
p1447
I1
sVhttp://bit.ly/29wfF7t?gGk
p1448
I1
sVhttp://bit.ly/29wfF7t?4oliR
p1449
I1
sVhttp://bit.ly/29wfF7t?eA7
p1450
I1
sVhttp://bit.ly/29wfF7t?GK7a
p1451
I1
sVhttp://bit.ly/29wfF7t?UTp0w
p1452
I1
sVhttp://bit.ly/29wfF7t?0nw2
p1453
I1
sVhttp://bit.ly/29wfF7t?zqg0
p1454
I1
sVhttp://bit.ly/29wfF7t?7hT4
p1455
I1
sVhttp://bit.ly/29wfF7t?UAz
p1456
I1
sVhttp://bit.ly/29wfF7t?rLZ
p1457
I1
sVhttp://bit.ly/29wfF7t?KhX
p1458
I1
sVhttp://bit.ly/29wfF7t?ksW2I
p1459
I1
sVhttp://bit.ly/29wfF7t?em2t
p1460
I1
sVhttp://bit.ly/29wfF7t?4gXTf
p1461
I1
sVhttp://bit.ly/29wfF7t?Qpo8K
p1462
I1
sVhttp://bit.ly/29wfF7t?9rRkn
p1463
I1
sVhttp://bit.ly/29wfF7t?yGd1V
p1464
I1
sVhttp://bit.ly/29wfF7t?UH8
p1465
I1
ssg18
Vfree masturbator watch this video and get the  for free   porn sex boobs
p1466
sg20
I108
sg21
I10
sg22
I2
sa(dp1467
g2
(dp1468
g4
I21
sg5
I0
ssg6
I21
sg7
g8
((lp1469
I772635685773676544
aI121533249
aI40130018
aI373455900
aI56575399
aI157538844
aI322198172
aI429210541
aI79329262
aI160697997
aI410275536
aI130930417
aI1604340884
aI2993999766
aI137492845
aI434603064
aI2191013172
aI175250074
aI2842931273
aI1715527836
aI176903807
atp1470
Rp1471
sg12
I5
sg13
g14
(g15
tp1472
Rp1473
Vhttp://bit.ly/SoMoJAM
p1474
I21
ssg18
Vmy new song justaman from is now available to stream and download
p1475
sg20
I109
sg21
I10
sg22
I2
sa(dp1476
g2
(dp1477
g4
I21
sg5
I0
ssg6
I21
sg7
g8
((lp1478
I826312091640291328
aI824503091223334913
aI828284837886824450
aI824663641467281410
aI824873617477431297
aI826853068939603968
aI826866647583563776
aI824554807214034945
aI824655711540019200
aI824560594527281153
aI824881677759418370
aI828304278884335616
aI824855784794136578
aI824639319973322753
aI824674140162523137
aI816253931764400128
aI824627600534364160
aI828507026716246016
aI824669003079708672
aI824517349642473472
aI828500351246532608
atp1479
Rp1480
sg12
I5
sg13
g14
(g15
tp1481
Rp1482
Vhttp://bit.ly/2kIShZ0
p1483
I21
ssg18
Vwow teen mom poses nude for cameras
p1484
sg20
I110
sg21
I10
sg22
I2
sa(dp1485
g2
(dp1486
g4
I20
sg5
I1
ssg6
I21
sg7
g8
((lp1487
I360450688
aI7248362
aI499206243
aI54279542
aI20252263
aI253487464
aI2355198828
aI301969834
aI2243454732
aI291070861
aI2997380925
aI445566608
aI38201394
aI41805556
aI92763893
aI360441558
aI276048919
aI3243061852
aI256980765
aI177881630
aI3172766885
atp1488
Rp1489
sg12
I5
sg13
g14
(g15
tp1490
Rp1491
Vhttp://bit.ly/2kZWFTU
p1492
I3
sVhttp://bit.ly/2kZpkZ4
p1493
I5
sVhttp://bit.ly/2kahBDs
p1494
I13
ssg18
Vzuma trump and the absence of shame
p1495
sg20
I111
sg21
I10
sg22
I2
sa(dp1496
g2
(dp1497
g4
I21
sg5
I0
ssg6
I21
sg7
g8
((lp1498
I779330958663290880
aI826638397020200961
aI2894091138
aI333794819
aI16715269
aI178114151
aI401708200
aI3850064233
aI309279562
aI35926074
aI854929602
aI539573373
aI119105681
aI313620531
aI163766133
aI1073541367
aI158963610
aI376480700
aI581233770
aI2439472670
aI276127295
atp1499
Rp1500
sg12
I5
sg13
g14
(g15
tp1501
Rp1502
Vhttp://bit.ly/2k4EQDF
p1503
I21
ssg18
Vobama is now free to dunk all over nba 2k17
p1504
sg20
I112
sg21
I10
sg22
I2
sa(dp1505
g2
(dp1506
g4
I0
sg5
I21
ssg6
I21
sg7
g8
((lp1507
I2600318016
aI2597873665
aI2602281474
aI759741555255091200
aI2600325092
aI2600314848
aI759739044452368384
aI2600340295
aI759563683433512968
aI759737086870065161
aI2602322509
aI2602309838
aI2600281266
aI2600334547
aI2602295796
aI2602327381
aI2600332375
aI2600301120
aI2602313402
aI2600311836
aI2602326661
atp1508
Rp1509
sg12
I5
sg13
g14
(g15
tp1510
Rp1511
Vhttp://bit.ly/1SDYFwY
p1512
I21
ssg18
Vbet now with ladbrokes and get up to gbp50 free bet
p1513
sg20
I113
sg21
I10
sg22
I2
sa(dp1514
g2
(dp1515
g4
I0
sg5
I21
ssg6
I21
sg7
g8
((lp1516
I4820653634
aI4820683627
aI4820677381
aI4820653994
aI4820698699
aI4820630030
aI4820654360
aI4820565012
aI4820566392
aI4820675449
aI4820624762
aI4820677375
aI4820699293
aI4820683615
atp1517
Rp1518
sg12
I5
sg13
g14
(g15
tp1519
Rp1520
Vhttp://bit.ly/trannyhotslut
p1521
I21
ssg18
Vglamour shemale enjoyed by hard man dick     shemale shemales tranny
p1522
sg20
I114
sg21
I10
sg22
I2
sa.