(lp0
(dp1
S'status'
p2
(dp3
S'retweet'
p4
I205
sS'original'
p5
I2
ssS'count'
p6
I207
sS'user_ids'
p7
c__builtin__
set
p8
((lp9
I827673407084847104
aI782891658262216705
aI915967490
aI782917670375219204
aI782957334876291072
aI782898269093400577
aI870700040
aI4777860269
aI870705169
aI871029266
aI870701076
aI4777706253
aI863148036
aI870706202
aI4772878877
aI863202847
aI870685728
aI4772373083
aI744945484012224513
aI952788517
aI870693416
aI870720554
aI4776662194
aI870737455
aI870708794
aI870733237
aI870663236
aI870700470
aI4744350282
aI4744626252
aI870727759
aI871034960
aI4771582037
aI870692442
aI870706267
aI4771587677
aI870712933
aI870682729
aI862809709
aI870714481
aI4745018996
aI745605724311478272
aI1092839545
aI870720637
aI870660222
aI4742355073
aI4744097923
aI774485625420419072
aI870715016
aI4742319980
aI870722186
aI870687883
aI4745047693
aI4777710735
aI4773483203
aI870712784
aI870701719
aI863067679
aI871026330
aI870688416
aI1217474209
aI870709922
aI870729379
aI4471037093
aI870682280
aI4744808107
aI4773419181
aI870704306
aI870689971
aI4775113396
aI870709429
aI870656695
aI863071416
aI4772908217
aI863184571
aI863188675
aI870700740
aI870731041
aI870706376
aI870705866
aI870695628
aI746395899077615617
aI871041745
aI870686424
aI1093143769
aI4475325137
aI870718172
aI4742847200
aI870712033
aI4777351396
aI871036645
aI870736081
aI870719208
aI782929455001972736
aI870683372
aI870705392
aI870709489
aI4776714994
aI870696180
aI870676729
aI870703868
aI4744999220
aI870723331
aI870722821
aI782930488549793792
aI951871242
aI870709003
aI4772250381
aI870701839
aI870719760
aI870690066
aI870703381
aI4771543769
aI871027992
aI870702895
aI870683934
aI870720031
aI4742211876
aI4772363559
aI4475908828
aI4774260375
aI870704431
aI951859508
aI870664502
aI863128375
aI870718260
aI782930965928767488
aI4742776638
aI871038271
aI870729536
aI4773518657
aI870648630
aI1084094792
aI931252046
aI870692179
aI870674773
aI4744901466
aI782925260089913344
aI870731732
aI870682682
aI4771614437
aI870713696
aI871027554
aI2509561699
aI4741899620
aI4772843367
aI4744630632
aI870708074
aI4777877356
aI870695282
aI763694249045061632
aI4777768823
aI744961605234884608
aI870658938
aI4775025983
aI870715261
aI863196542
aI4777335616
aI870673794
aI1094808452
aI782911815269232640
aI863184775
aI4777298825
aI4744631178
aI1092815767
aI870700434
aI870676884
aI870915991
aI870721944
aI863169949
aI4744043936
aI782884051334131713
aI952792405
aI870710695
aI915894696
aI4775915433
aI1229243816
aI870689714
aI4777117107
aI870701492
aI870717877
aI870671798
aI870715322
aI862731198
aI4744921026
aI4773551560
aI870685644
aI871033808
aI870652884
aI870707672
aI870701532
aI745979882035773440
aI870712802
aI746706821436477440
aI870705127
aI4744767464
aI4777844476
aI4741854186
aI870723565
aI4775069679
aI870670248
aI871000050
aI763929643967664128
aI4744476265
aI870713340
aI870714709
atp10
Rp11
sS'hour'
p12
I6
sS'url'
p13
ccollections
defaultdict
p14
(c__builtin__
int
p15
tp16
Rp17
Vhttps://twitter.com/i/web/status/829601881815207936
p18
I141
sVhttps://twitter.com/i/web/status/829653972608806912
p19
I66
ssS'text'
p20
Vuse ubercode  cut travel expenses in half  ubereverywhere uberride uberfree uberfreeride\u2026
p21
sS'id'
p22
I1
sS'day'
p23
I9
sS'month'
p24
I2
sa(dp25
g2
(dp26
g4
I5
sg5
I163
ssg6
I168
sg7
g8
((lp27
I724584963534950400
aI463308992
aI1132568707
aI462210311
aI887267017
aI858586638
aI466442413
aI459520912
aI858475921
aI862218259
aI898193300
aI69485846
aI1615785433
aI472246425
aI542854170
aI863501084
aI813679002
aI399125922
aI459534627
aI887184804
aI465204773
aI875911231
aI139988522
aI3255414343
aI461576749
aI866581567
aI1289927539
aI314676022
aI833795767
aI632388280
aI843608635
aI833669180
aI847642303
aI858449472
aI831420481
aI1027780038
aI541877473
aI463100232
aI867306697
aI834526411
aI843565644
aI459586511
aI856618064
aI1344052178
aI463205843
aI475148760
aI560465444
aI858933979
aI1254607069
aI464871521
aI863436258
aI459557733
aI863472282
aI4206011292
aI263234033
aI713376499
aI872074100
aI861763958
aI856723315
aI811974643
atp28
Rp29
sg12
I6
sg13
g14
(g15
tp30
Rp31
Vhttps://twitter.com/i/web/status/829681821294141441
p32
I1
sVhttps://twitter.com/i/web/status/829576129904308227
p33
I1
sVhttps://twitter.com/i/web/status/829681554372886528
p34
I1
sVhttps://twitter.com/i/web/status/829575896835170304
p35
I1
sVhttps://twitter.com/i/web/status/829575893001580545
p36
I1
sVhttps://twitter.com/i/web/status/829681801258004480
p37
I1
sVhttps://twitter.com/i/web/status/829576008785330177
p38
I1
sVhttps://twitter.com/i/web/status/829575978045284352
p39
I1
sVhttps://twitter.com/i/web/status/829681744139927552
p40
I1
sVhttps://twitter.com/i/web/status/829681713450213376
p41
I1
sVhttps://twitter.com/i/web/status/829681740469907457
p42
I1
sVhttps://twitter.com/i/web/status/829576120907472896
p43
I1
sVhttps://twitter.com/i/web/status/829681756030824448
p44
I1
sVhttps://twitter.com/i/web/status/829575951285641216
p45
I1
sVhttps://twitter.com/i/web/status/829681636086267906
p46
I1
sVhttps://twitter.com/i/web/status/829681816038694913
p47
I1
sVhttps://twitter.com/i/web/status/829575965974093825
p48
I1
sVhttps://twitter.com/i/web/status/829575917819265024
p49
I1
sVhttps://twitter.com/i/web/status/829681631430582272
p50
I1
sVhttps://twitter.com/i/web/status/829575954896912384
p51
I1
sVhttps://twitter.com/i/web/status/829575883077906432
p52
I1
sVhttps://twitter.com/i/web/status/829575949394046976
p53
I1
sVhttps://twitter.com/i/web/status/829576076271685632
p54
I1
sVhttps://twitter.com/i/web/status/829681647180210178
p55
I1
sVhttps://twitter.com/i/web/status/829681666113290240
p56
I1
sVhttps://twitter.com/i/web/status/829575932222566400
p57
I1
sVhttps://twitter.com/i/web/status/829681761726713857
p58
I1
sVhttps://twitter.com/i/web/status/829576029710798848
p59
I1
sVhttps://twitter.com/i/web/status/829681832648077313
p60
I1
sVhttps://twitter.com/i/web/status/829576064456335360
p61
I1
sVhttps://twitter.com/i/web/status/829575993815883777
p62
I1
sVhttps://twitter.com/i/web/status/829681658605477888
p63
I1
sVhttps://twitter.com/i/web/status/829576038241955840
p64
I1
sVhttps://twitter.com/i/web/status/829576035205337088
p65
I1
sVhttps://twitter.com/i/web/status/829575872088793089
p66
I1
sVhttps://twitter.com/i/web/status/829575936517533697
p67
I1
sVhttps://twitter.com/i/web/status/829681587965001728
p68
I1
sVhttps://twitter.com/i/web/status/829681798128996352
p69
I1
sVhttps://twitter.com/i/web/status/829681821873008640
p70
I1
sVhttps://twitter.com/i/web/status/829681738137923586
p71
I1
sVhttps://twitter.com/i/web/status/829681684329222144
p72
I1
sVhttps://twitter.com/i/web/status/829681614330396672
p73
I1
sVhttps://twitter.com/i/web/status/829681784900169728
p74
I1
sVhttps://twitter.com/i/web/status/829681769318346752
p75
I1
sVhttps://twitter.com/i/web/status/829681731997462528
p76
I1
sVhttps://twitter.com/i/web/status/829576105325625344
p77
I1
sVhttps://twitter.com/i/web/status/829681619757887488
p78
I1
sVhttps://twitter.com/i/web/status/829576114280493056
p79
I2
sVhttps://twitter.com/i/web/status/829681845998649345
p80
I1
sVhttps://twitter.com/i/web/status/829575972403965952
p81
I1
sVhttps://twitter.com/i/web/status/829575836198121472
p82
I1
sVhttps://twitter.com/i/web/status/829681676695511041
p83
I1
sVhttps://twitter.com/i/web/status/829681700858912772
p84
I1
sVhttps://twitter.com/i/web/status/829681643883462659
p85
I1
sVhttps://twitter.com/i/web/status/829575982499655680
p86
I1
sVhttps://twitter.com/i/web/status/829575904728850432
p87
I1
sVhttps://twitter.com/i/web/status/829576019174621184
p88
I1
sVhttps://twitter.com/i/web/status/829575915109756928
p89
I1
sVhttps://twitter.com/i/web/status/829681609494388736
p90
I1
sVhttps://twitter.com/i/web/status/829681747751206912
p91
I1
sVhttps://twitter.com/i/web/status/829681803208294400
p92
I1
sVhttps://twitter.com/i/web/status/829575998815555589
p93
I1
sVhttps://twitter.com/i/web/status/829681837354131457
p94
I1
sVhttps://twitter.com/i/web/status/829575909678125057
p95
I1
sVhttps://twitter.com/i/web/status/829681752591446018
p96
I1
sVhttps://twitter.com/i/web/status/829681734887292929
p97
I1
sVhttps://twitter.com/i/web/status/829575910567337984
p98
I1
sVhttps://twitter.com/i/web/status/829575993610354688
p99
I1
sVhttps://twitter.com/i/web/status/829681695972532224
p100
I1
sVhttps://twitter.com/i/web/status/829576088405831680
p101
I1
sVhttps://twitter.com/i/web/status/829575887888723968
p102
I1
sVhttps://twitter.com/i/web/status/829681861567848448
p103
I1
sVhttps://twitter.com/i/web/status/829681574920744961
p104
I1
sVhttps://twitter.com/i/web/status/829681708081541120
p105
I1
sVhttps://twitter.com/i/web/status/829575977160364032
p106
I1
sVhttps://twitter.com/i/web/status/829576014271496193
p107
I1
sVhttps://twitter.com/i/web/status/829681682039111681
p108
I1
sVhttps://twitter.com/i/web/status/829681688108204032
p109
I1
sVhttps://twitter.com/i/web/status/829681794438090753
p110
I1
sVhttps://twitter.com/i/web/status/829576049503719424
p111
I1
sVhttps://twitter.com/i/web/status/829681724443471872
p112
I1
sVhttps://twitter.com/i/web/status/829575942595047424
p113
I1
sVhttps://twitter.com/i/web/status/829576070533890049
p114
I1
sVhttps://twitter.com/i/web/status/829681853011546112
p115
I1
sVhttps://twitter.com/i/web/status/829576030327275521
p116
I1
sVhttps://twitter.com/i/web/status/829681664720777216
p117
I1
sVhttps://twitter.com/i/web/status/829681568851644416
p118
I1
sVhttps://twitter.com/i/web/status/829575921040576513
p119
I2
sVhttps://twitter.com/i/web/status/829681757578522624
p120
I1
sVhttps://twitter.com/i/web/status/829681768005566466
p121
I1
sVhttps://twitter.com/i/web/status/829575926421790720
p122
I1
sVhttps://twitter.com/i/web/status/829681516569563136
p123
I1
sVhttps://twitter.com/i/web/status/829681763274391553
p124
I1
sVhttps://twitter.com/i/web/status/829681778403180545
p125
I1
sVhttps://twitter.com/i/web/status/829575849963843585
p126
I1
sVhttps://twitter.com/i/web/status/829575983661535232
p127
I1
sVhttps://twitter.com/i/web/status/829681660635541505
p128
I1
sVhttps://twitter.com/i/web/status/829681670806704128
p129
I1
sVhttps://twitter.com/i/web/status/829575891223199745
p130
I1
sVhttps://twitter.com/i/web/status/829576048102821889
p131
I1
sVhttps://twitter.com/i/web/status/829681580859912192
p132
I1
sVhttps://twitter.com/i/web/status/829681529651601408
p133
I1
sVhttps://twitter.com/i/web/status/829681808795168768
p134
I1
sVhttps://twitter.com/i/web/status/829681815262752768
p135
I1
sVhttps://twitter.com/i/web/status/829575937465397248
p136
I1
sVhttps://twitter.com/i/web/status/829576065970532352
p137
I1
sVhttps://twitter.com/i/web/status/829681719049601024
p138
I2
sVhttps://twitter.com/i/web/status/829575878308945921
p139
I1
sVhttps://twitter.com/i/web/status/829575930905559040
p140
I1
sVhttps://twitter.com/i/web/status/829681604750667777
p141
I2
sVhttps://twitter.com/i/web/status/829576053647691777
p142
I1
sVhttps://twitter.com/i/web/status/829681651047395328
p143
I1
sVhttps://twitter.com/i/web/status/829681749911359488
p144
I1
sVhttps://twitter.com/i/web/status/829681597939085313
p145
I1
sVhttps://twitter.com/i/web/status/829576059699990535
p146
I1
sVhttps://twitter.com/i/web/status/829575829281726464
p147
I1
sVhttps://twitter.com/i/web/status/829575843299078144
p148
I1
sVhttps://twitter.com/i/web/status/829681698866601984
p149
I1
sVhttps://twitter.com/i/web/status/829681809852084225
p150
I1
sVhttps://twitter.com/i/web/status/829576138351599616
p151
I1
sVhttps://twitter.com/i/web/status/829575898546462720
p152
I1
sVhttps://twitter.com/i/web/status/829576075629953024
p153
I2
sVhttps://twitter.com/i/web/status/829576040670433284
p154
I1
sVhttps://twitter.com/i/web/status/829681672148938752
p155
I1
sVhttps://twitter.com/i/web/status/829575820041658369
p156
I1
sVhttps://twitter.com/i/web/status/829575944973189120
p157
I1
sVhttps://twitter.com/i/web/status/829576023981309952
p158
I1
sVhttps://twitter.com/i/web/status/829681690603819009
p159
I1
sVhttps://twitter.com/i/web/status/829681522777137152
p160
I1
sVhttps://twitter.com/i/web/status/829575902216462337
p161
I1
sVhttps://twitter.com/i/web/status/829681535494275073
p162
I1
sVhttps://twitter.com/i/web/status/829681827443068928
p163
I1
sVhttps://twitter.com/i/web/status/829681638162440192
p164
I1
sVhttps://twitter.com/i/web/status/829575971892236289
p165
I1
sVhttps://twitter.com/i/web/status/829681542100312065
p166
I1
sVhttps://twitter.com/i/web/status/829575965638549504
p167
I1
sVhttps://twitter.com/i/web/status/829681714632994816
p168
I1
sVhttps://twitter.com/i/web/status/829576006528798720
p169
I1
sVhttps://twitter.com/i/web/status/829576020663603202
p170
I1
sVhttps://twitter.com/i/web/status/829576014049198081
p171
I1
sVhttps://twitter.com/i/web/status/829575864694108161
p172
I1
sVhttps://twitter.com/i/web/status/829576055199514625
p173
I1
sVhttps://twitter.com/i/web/status/829681625990569984
p174
I1
sVhttps://twitter.com/i/web/status/829575926715383808
p175
I1
sVhttps://twitter.com/i/web/status/829681653303877633
p176
I1
sVhttps://twitter.com/i/web/status/829575857014452225
p177
I1
sVhttps://twitter.com/i/web/status/829681693942480898
p178
I1
sVhttps://twitter.com/i/web/status/829575999121678336
p179
I1
sVhttps://twitter.com/i/web/status/829576097993887748
p180
I1
sVhttps://twitter.com/i/web/status/829681593166024707
p181
I1
sVhttps://twitter.com/i/web/status/829575960152399872
p182
I1
sVhttps://twitter.com/i/web/status/829681827501703168
p183
I1
sVhttps://twitter.com/i/web/status/829681547854880770
p184
I1
sVhttps://twitter.com/i/web/status/829575957757427713
p185
I1
sVhttps://twitter.com/i/web/status/829681677546975232
p186
I1
sVhttps://twitter.com/i/web/status/829681719846588418
p187
I1
sVhttps://twitter.com/i/web/status/829681784841461760
p188
I1
sVhttps://twitter.com/i/web/status/829681642109358081
p189
I1
sVhttps://twitter.com/i/web/status/829681725970272256
p190
I1
sVhttps://twitter.com/i/web/status/829575885569327104
p191
I1
sVhttps://twitter.com/i/web/status/829575988854026241
p192
I1
sVhttps://twitter.com/i/web/status/829681706793852928
p193
I1
sVhttps://twitter.com/i/web/status/829681778931671042
p194
I1
ssg20
Vkeeping kids heart safe with the atsheartcheck setting the standard in youth heart screening\u2026
p195
sg22
I2
sg23
I9
sg24
I2
sa(dp196
g2
(dp197
g4
I146
sg5
I1
ssg6
I147
sg7
g8
((lp198
I827673407084847104
aI782884051334131713
aI915967490
aI782917670375219204
aI782957334876291072
aI782898269093400577
aI870700040
aI870705169
aI871029266
aI870701076
aI863148036
aI870706202
aI863202847
aI870685728
aI782891658262216705
aI952788517
aI870693416
aI870720554
aI870689970
aI870737455
aI870708794
aI870733237
aI870663236
aI870700470
aI870727759
aI871034960
aI870692442
aI870706267
aI870682212
aI870712933
aI870682729
aI862809709
aI870714481
aI1092839545
aI870681212
aI870720637
aI870660222
aI774485625420419072
aI870715016
aI870722186
aI870687883
aI870712784
aI870701719
aI863067679
aI871026330
aI870688416
aI870709922
aI870729379
aI870682280
aI782911815269232640
aI870704306
aI870689971
aI870709429
aI870656695
aI863071416
aI863184571
aI863188675
aI870700740
aI870731041
aI870706376
aI870705866
aI870695628
aI871041745
aI870686424
aI1093143769
aI870718172
aI870734047
aI870712033
aI871036645
aI870736081
aI870719208
aI782929455001972736
aI870683372
aI870705392
aI870709489
aI870696180
aI870676729
aI870703868
aI870723331
aI870722821
aI782930488549793792
aI951871242
aI870709003
aI870701839
aI870719760
aI870690066
aI870703381
aI871027992
aI870702895
aI870683934
aI870720031
aI870704431
aI951859508
aI870664502
aI863128375
aI870718260
aI782930965928767488
aI871038271
aI870729536
aI870648630
aI1084094792
aI931252046
aI870692179
aI870674773
aI870731732
aI870682682
aI870713696
aI871027554
aI870708074
aI870695282
aI870658938
aI870715261
aI863196542
aI870673794
aI1094808452
aI782925260089913344
aI863184775
aI1092815767
aI870700434
aI870676884
aI870915991
aI870721944
aI863169949
aI870700454
aI870710695
aI915894696
aI870689714
aI870701492
aI870717877
aI870671798
aI870715322
aI862731198
aI870673344
aI870685644
aI871033808
aI870652884
aI870707672
aI870701532
aI952792405
aI870712802
aI870705127
aI870723565
aI870670248
aI871000050
aI870713340
aI870714709
atp199
Rp200
sg12
I6
sg13
g14
(g15
tp201
Rp202
Vhttp://dld.bz/fs7SD
p203
I147
ssg20
Vinstall the lyft app amp enter exclusive 50 lyftpromocode discountjim from pinterest
p204
sg22
I3
sg23
I9
sg24
I2
sa(dp205
g2
(dp206
g4
I144
sg5
I2
ssg6
I146
sg7
g8
((lp207
I827673407084847104
aI774485625420419072
aI915967490
aI782917670375219204
aI782957334876291072
aI782884051334131713
aI870700040
aI870705169
aI871029266
aI870701076
aI863148036
aI870706202
aI863202847
aI870685728
aI782891658262216705
aI952788517
aI870693416
aI870720554
aI870689970
aI870737455
aI870708794
aI870733237
aI870663236
aI870700470
aI870727759
aI871034960
aI870692442
aI870706267
aI870682212
aI870712933
aI870682729
aI862809709
aI870714481
aI1092839545
aI870720637
aI870660222
aI870715016
aI870722186
aI870687883
aI870712784
aI870701719
aI863067679
aI871026330
aI870688416
aI870709922
aI870729379
aI782898269093400577
aI870682280
aI870704306
aI870689971
aI870709429
aI870656695
aI863071416
aI863184571
aI863188675
aI870700740
aI870731041
aI870706376
aI870705866
aI870695628
aI871041745
aI870686424
aI1093143769
aI870718172
aI870734047
aI870712033
aI871036645
aI870736081
aI870719208
aI782929455001972736
aI870683372
aI870705392
aI870709489
aI870696180
aI870676729
aI870703868
aI870723331
aI870722821
aI782930488549793792
aI951871242
aI870709003
aI870701839
aI870719760
aI870690066
aI870703381
aI871027992
aI870702895
aI870683934
aI870720031
aI870704431
aI951859508
aI870664502
aI863128375
aI870718260
aI782930965928767488
aI871038271
aI870729536
aI870648630
aI1084094792
aI931252046
aI870692179
aI870674773
aI782925260089913344
aI870731732
aI870682682
aI870713696
aI871027554
aI2509561699
aI870708074
aI870695282
aI870658938
aI870715261
aI863196542
aI870673794
aI1094808452
aI782911815269232640
aI863184775
aI1092815767
aI870700434
aI870676884
aI870915991
aI870721944
aI863169949
aI870700454
aI870710695
aI915894696
aI870689714
aI870701492
aI870717877
aI870671798
aI870715322
aI862731198
aI870673344
aI870685644
aI871033808
aI870652884
aI870707672
aI870701532
aI952792405
aI870712802
aI870705127
aI870723565
aI870670248
aI871000050
aI870713340
aI870714709
atp208
Rp209
sg12
I6
sg13
g14
(g15
tp210
Rp211
Vhttp://dld.bz/eYzg9
p212
I146
ssg20
Vhey uber is offering new drivers up to 1000 to get started sign up amp learn more here
p213
sg22
I4
sg23
I9
sg24
I2
sa(dp214
g2
(dp215
g4
I146
sg5
I0
ssg6
I146
sg7
g8
((lp216
I774485625420419072
aI782898269093400577
aI915967490
aI782917670375219204
aI782957334876291072
aI782891658262216705
aI870700040
aI870705169
aI871029266
aI870701076
aI863148036
aI870706202
aI863202847
aI870685728
aI952788517
aI870693416
aI870720554
aI870689970
aI870737455
aI870708794
aI1219737354
aI870733237
aI870663236
aI870700470
aI870727759
aI871034960
aI870692442
aI870706267
aI870682212
aI870712933
aI870682729
aI862809709
aI870714481
aI1092839545
aI870681212
aI870720637
aI870660222
aI870715016
aI870722186
aI870687883
aI870712784
aI870701719
aI863067679
aI871026330
aI870688416
aI870709922
aI870729379
aI870682280
aI870704306
aI870689971
aI870709429
aI870656695
aI863071416
aI863184571
aI863188675
aI870700740
aI870731041
aI870706376
aI870705866
aI870695628
aI871041745
aI870686424
aI1093143769
aI870718172
aI870734047
aI870712033
aI871036645
aI870736081
aI870719208
aI782929455001972736
aI870683372
aI870705392
aI870709489
aI870696180
aI870676729
aI870703868
aI870723331
aI870722821
aI782930488549793792
aI951871242
aI870709003
aI870701839
aI870719760
aI870690066
aI870703381
aI871027992
aI870702895
aI870683934
aI870720031
aI870704431
aI951859508
aI870664502
aI863128375
aI870718260
aI782930965928767488
aI871038271
aI870729536
aI870648630
aI1084094792
aI931252046
aI870692179
aI870674773
aI782925260089913344
aI870731732
aI870682682
aI870713696
aI871027554
aI870708074
aI870695282
aI870658938
aI870715261
aI863196542
aI870673794
aI1094808452
aI782911815269232640
aI863184775
aI1092815767
aI870700434
aI870676884
aI870915991
aI870721944
aI863169949
aI782884051334131713
aI870700454
aI870710695
aI915894696
aI870689714
aI870701492
aI870717877
aI870671798
aI870715322
aI862731198
aI870673344
aI870685644
aI871033808
aI870652884
aI870707672
aI870701532
aI952792405
aI870712802
aI870705127
aI870723565
aI870670248
aI871000050
aI870713340
aI870714709
atp217
Rp218
sg12
I6
sg13
g14
(g15
tp219
Rp220
Vhttp://dld.bz/fvHFR
p221
I146
ssg20
Vlooking for lyft discounts use lyft promo code gyftrides to get 15 off of your first ride   ht\u2026
p222
sg22
I5
sg23
I9
sg24
I2
sa(dp223
g2
(dp224
g4
I145
sg5
I1
ssg6
I146
sg7
g8
((lp225
I827673407084847104
aI782911815269232640
aI915967490
aI782917670375219204
aI782957334876291072
aI782884051334131713
aI870700040
aI870705169
aI871029266
aI870701076
aI863148036
aI870706202
aI863202847
aI870685728
aI782891658262216705
aI952788517
aI870693416
aI870720554
aI870689970
aI870737455
aI870708794
aI951871242
aI870733237
aI870663236
aI870700470
aI870727759
aI871034960
aI870692442
aI870706267
aI870682212
aI870712933
aI870682729
aI862809709
aI870714481
aI1092839545
aI870720637
aI870660222
aI774485625420419072
aI870715016
aI870722186
aI870687883
aI870712784
aI870701719
aI863067679
aI871026330
aI870688416
aI870709922
aI870729379
aI782898269093400577
aI870682280
aI870704306
aI870689971
aI870709429
aI870656695
aI863071416
aI863184571
aI863188675
aI870700740
aI870731041
aI870706376
aI870705866
aI870695628
aI871041745
aI870686424
aI1093143769
aI870718172
aI870734047
aI870712033
aI871036645
aI870736081
aI870719208
aI782929455001972736
aI870683372
aI870705392
aI870709489
aI870696180
aI870676729
aI870703868
aI870723331
aI870722821
aI782930488549793792
aI1219737354
aI870709003
aI870701839
aI870719760
aI870690066
aI870703381
aI871027992
aI870702895
aI870683934
aI870720031
aI870704431
aI951859508
aI870664502
aI863128375
aI870718260
aI871038271
aI870729536
aI870648630
aI1084094792
aI931252046
aI870692179
aI870674773
aI782925260089913344
aI870731732
aI870682682
aI870713696
aI871027554
aI870708074
aI870695282
aI870658938
aI870715261
aI863196542
aI870673794
aI1094808452
aI782930965928767488
aI863184775
aI1092815767
aI870700434
aI870676884
aI870915991
aI870721944
aI863169949
aI870700454
aI870710695
aI915894696
aI870689714
aI870701492
aI870717877
aI870671798
aI870715322
aI862731198
aI870673344
aI870685644
aI871033808
aI870652884
aI870707672
aI870701532
aI952792405
aI870712802
aI870705127
aI870723565
aI870670248
aI871000050
aI870713340
aI870714709
atp226
Rp227
sg12
I6
sg13
g14
(g15
tp228
Rp229
Vhttps://twitter.com/i/web/status/829669724921413632
p230
I146
ssg20
V28 lyftuber experts share 3 favorite driver tips a must read for every uber amp lyft driver\u2026
p231
sg22
I6
sg23
I9
sg24
I2
sa(dp232
g2
(dp233
g4
I144
sg5
I1
ssg6
I145
sg7
g8
((lp234
I827673407084847104
aI782898269093400577
aI915967490
aI782917670375219204
aI782957334876291072
aI782891658262216705
aI870700040
aI870705169
aI871029266
aI870701076
aI863148036
aI870706202
aI863202847
aI870685728
aI952788517
aI870693416
aI870720554
aI870689970
aI870737455
aI870708794
aI870733237
aI870663236
aI870700470
aI870727759
aI871034960
aI870692442
aI870706267
aI870682212
aI870712933
aI870682729
aI862809709
aI870714481
aI1092839545
aI870720637
aI870660222
aI774485625420419072
aI870715016
aI870722186
aI870687883
aI870712784
aI870701719
aI863067679
aI871026330
aI870688416
aI870709922
aI870729379
aI870682280
aI870704306
aI870689971
aI870709429
aI870656695
aI863071416
aI863184571
aI863188675
aI870700740
aI870731041
aI870706376
aI870705866
aI870695628
aI871041745
aI870686424
aI1093143769
aI870718172
aI870734047
aI870712033
aI871036645
aI870736081
aI870719208
aI782929455001972736
aI870683372
aI870705392
aI870709489
aI870696180
aI870676729
aI870703868
aI870723331
aI870722821
aI782930488549793792
aI951871242
aI870709003
aI870701839
aI870719760
aI870690066
aI870703381
aI871027992
aI870702895
aI870683934
aI870720031
aI870704431
aI951859508
aI870664502
aI863128375
aI870718260
aI782930965928767488
aI871038271
aI870729536
aI870648630
aI1084094792
aI931252046
aI870692179
aI870674773
aI782925260089913344
aI870731732
aI870682682
aI870713696
aI871027554
aI870708074
aI870695282
aI870658938
aI870715261
aI863196542
aI870673794
aI1094808452
aI782911815269232640
aI863184775
aI1092815767
aI870700434
aI870676884
aI870915991
aI870721944
aI863169949
aI782884051334131713
aI870700454
aI870710695
aI915894696
aI870689714
aI870701492
aI870717877
aI870671798
aI870715322
aI862731198
aI870673344
aI870685644
aI871033808
aI870652884
aI870707672
aI870701532
aI952792405
aI870712802
aI870705127
aI870723565
aI870670248
aI871000050
aI870713340
aI870714709
atp235
Rp236
sg12
I6
sg13
g14
(g15
tp237
Rp238
Vhttps://twitter.com/i/web/status/829606352091828228
p239
I145
ssg20
Vinstall the lyft app amp enter exclusive lyftcode discountjim to get 50 worth of free rides\u2026
p240
sg22
I7
sg23
I9
sg24
I2
sa(dp241
g2
(dp242
g4
I144
sg5
I1
ssg6
I145
sg7
g8
((lp243
I827673407084847104
aI782891658262216705
aI915967490
aI782917670375219204
aI782957334876291072
aI782884051334131713
aI870700040
aI870705169
aI871029266
aI870701076
aI863148036
aI870706202
aI863202847
aI870685728
aI952788517
aI870693416
aI870720554
aI870689970
aI870737455
aI870708794
aI870733237
aI870663236
aI870700470
aI870727759
aI871034960
aI870692442
aI870706267
aI870682212
aI870712933
aI870682729
aI862809709
aI870714481
aI1092839545
aI870720637
aI870660222
aI774485625420419072
aI870715016
aI870722186
aI870687883
aI870712784
aI870701719
aI863067679
aI871026330
aI870688416
aI870709922
aI870729379
aI782898269093400577
aI870682280
aI870704306
aI870689971
aI870709429
aI870656695
aI863071416
aI863184571
aI863188675
aI870700740
aI870731041
aI870706376
aI870705866
aI870695628
aI871041745
aI870686424
aI1093143769
aI870718172
aI870734047
aI870712033
aI871036645
aI870736081
aI870719208
aI782929455001972736
aI870683372
aI870705392
aI870709489
aI870696180
aI870676729
aI870703868
aI870723331
aI870722821
aI782930488549793792
aI951871242
aI870709003
aI870701839
aI870719760
aI870690066
aI870703381
aI871027992
aI870702895
aI870683934
aI870720031
aI870704431
aI951859508
aI870664502
aI863128375
aI870718260
aI782930965928767488
aI871038271
aI870729536
aI870648630
aI1084094792
aI931252046
aI870692179
aI870674773
aI782925260089913344
aI870731732
aI870682682
aI870713696
aI871027554
aI870708074
aI870695282
aI870658938
aI870715261
aI863196542
aI870673794
aI1094808452
aI782911815269232640
aI863184775
aI1092815767
aI870700434
aI870676884
aI870915991
aI870721944
aI863169949
aI870700454
aI870710695
aI915894696
aI870689714
aI870701492
aI870717877
aI870671798
aI870715322
aI862731198
aI870673344
aI870685644
aI871033808
aI870652884
aI870707672
aI870701532
aI952792405
aI870712802
aI870705127
aI870723565
aI870670248
aI871000050
aI870713340
aI870714709
atp244
Rp245
sg12
I6
sg13
g14
(g15
tp246
Rp247
Vhttp://dld.bz/eYzg9
p248
I145
ssg20
Vuber is offering new drivers up to 1000 to get started sign up amp learn more here
p249
sg22
I8
sg23
I9
sg24
I2
sa(dp250
g2
(dp251
g4
I142
sg5
I0
ssg6
I142
sg7
g8
((lp252
I782911815269232640
aI782957334876291072
aI915967490
aI782917670375219204
aI782891658262216705
aI870700040
aI870705169
aI871029266
aI870701076
aI863148036
aI870706202
aI863202847
aI870685728
aI952788517
aI870693416
aI870720554
aI870689970
aI870737455
aI870708794
aI870733237
aI870663236
aI870700470
aI870727759
aI871034960
aI870692442
aI870706267
aI870682212
aI870712933
aI870682729
aI862809709
aI870714481
aI1092839545
aI870720637
aI870660222
aI774485625420419072
aI870715016
aI870722186
aI870687883
aI870712784
aI870701719
aI863067679
aI871026330
aI870688416
aI870709922
aI870729379
aI782898269093400577
aI870682280
aI870704306
aI870689971
aI870709429
aI870656695
aI863071416
aI863184571
aI863188675
aI870700740
aI870731041
aI870706376
aI870705866
aI870695628
aI871041745
aI870686424
aI1093143769
aI870718172
aI870734047
aI870712033
aI871036645
aI870736081
aI870719208
aI782929455001972736
aI870683372
aI870705392
aI870709489
aI870696180
aI870676729
aI870703868
aI870723331
aI870722821
aI782930488549793792
aI951871242
aI870701839
aI870719760
aI870690066
aI870703381
aI871027992
aI870702895
aI870683934
aI870720031
aI870704431
aI951859508
aI870664502
aI863128375
aI870718260
aI871038271
aI870729536
aI870648630
aI1084094792
aI931252046
aI870692179
aI870674773
aI782925260089913344
aI870731732
aI870682682
aI870713696
aI871027554
aI870708074
aI870695282
aI870658938
aI870715261
aI863196542
aI870673794
aI1094808452
aI782930965928767488
aI863184775
aI1092815767
aI870700434
aI870676884
aI870915991
aI870721944
aI863169949
aI782884051334131713
aI870700454
aI870710695
aI915894696
aI870689714
aI870717877
aI870671798
aI870715322
aI862731198
aI870673344
aI870685644
aI871033808
aI870652884
aI870707672
aI870701532
aI952792405
aI870712802
aI870705127
aI870723565
aI870670248
aI871000050
aI870713340
aI870714709
atp253
Rp254
sg12
I6
sg13
g14
(g15
tp255
Rp256
Vhttp://dld.bz/fs7Y4
p257
I142
ssg20
Vuse lyftcode ridesharebuzz for a free ride must put in payment section before first ride   ht\u2026
p258
sg22
I9
sg23
I9
sg24
I2
sa(dp259
g2
(dp260
g4
I2
sg5
I84
ssg6
I86
sg7
g8
((lp261
I463308992
aI1132568707
aI462210311
aI887267017
aI858586638
aI466442413
aI459520912
aI858475921
aI862218259
aI898193300
aI69485846
aI472246425
aI542854170
aI863501084
aI813679002
aI399125922
aI459534627
aI887184804
aI465204773
aI875911231
aI139988522
aI195259564
aI461576749
aI1289927539
aI833795767
aI843608635
aI833669180
aI847642303
aI858449472
aI831420481
aI1027780038
aI464871521
aI463100232
aI866581567
aI834526411
aI843565644
aI459586511
aI856618064
aI1344052178
aI463205843
aI475148760
aI858933979
aI1254607069
aI541877473
aI459557733
aI863472282
aI1684524144
aI263234033
aI713376499
aI872074100
aI861763958
aI867306697
aI856723315
aI811974643
atp262
Rp263
sg12
I6
sg13
g14
(g15
tp264
Rp265
Vhttp://dld.bz/fu6uu
p266
I86
ssg20
Vzinc copper amp brass growing trend in countertops dm me today for dealer info   miometals
p267
sg22
I10
sg23
I9
sg24
I2
sa(dp268
g2
(dp269
g4
I69
sg5
I1
ssg6
I70
sg7
g8
((lp270
I744961605234884608
aI744945484012224513
aI4744097923
aI4777289860
aI4777351396
aI746706821436477440
aI746395899077615617
aI4777298825
aI4744631178
aI4777706253
aI4777710735
aI4774260375
aI4775915433
aI4772878877
aI4744043936
aI1217474209
aI4742211876
aI4471037093
aI4772363559
aI4777877356
aI4744808107
aI4776737068
aI4773419181
aI4742355073
aI4777860269
aI4776662194
aI4777117107
aI4775113396
aI4744999220
aI4744154228
aI4742776638
aI4775025983
aI4777335616
aI4773518657
aI4744921026
aI4773483203
aI4745047693
aI4773551560
aI4744350282
aI4744626252
aI4772250381
aI4475325137
aI4459706979
aI4771582037
aI4772908217
aI4771543769
aI4744901466
aI4772373083
aI4475908828
aI4771587677
aI4771614437
aI4742847200
aI2509561699
aI4741899620
aI745979882035773440
aI4772843367
aI4744630632
aI4744476265
aI4741854186
aI4742319980
aI4775069679
aI4744767464
aI4776714994
aI763929643967664128
aI4745018996
aI4777768823
aI4775023097
aI1237672255
aI4777844476
aI745605724311478272
atp271
Rp272
sg12
I6
sg13
g14
(g15
tp273
Rp274
Vhttp://dld.bz/eUHKj
p275
I70
ssg20
Vget free lyft promo code  enter gyftrides to get up to 20 off of your lyft rides
p276
sg22
I11
sg23
I9
sg24
I2
sa(dp277
g2
(dp278
g4
I69
sg5
I1
ssg6
I70
sg7
g8
((lp279
I746706821436477440
aI745605724311478272
aI4744097923
aI4777289860
aI4777351396
aI745979882035773440
aI746395899077615617
aI4777298825
aI4744631178
aI4745047693
aI4777710735
aI4774260375
aI4775915433
aI4772878877
aI4744043936
aI1217474209
aI4742211876
aI4471037093
aI4772363559
aI1229243816
aI4742319980
aI4744808107
aI4776737068
aI4773419181
aI4742355073
aI4777860269
aI4776662194
aI4777117107
aI4775113396
aI4744999220
aI4744154228
aI4742776638
aI4775025983
aI4777335616
aI4773518657
aI4744921026
aI4773483203
aI4773551560
aI4744350282
aI4744626252
aI4777706253
aI4475325137
aI4771614437
aI744945484012224513
aI4772908217
aI4771543769
aI4744901466
aI4772373083
aI4475908828
aI4771587677
aI4772250381
aI4742847200
aI1223714785
aI2509561699
aI4741899620
aI744961605234884608
aI4772843367
aI4744630632
aI4744476265
aI4741854186
aI4777877356
aI4775069679
aI4499186303
aI4744767464
aI4776714994
aI4745018996
aI4777768823
aI1237672255
aI4777844476
aI4771582037
atp280
Rp281
sg12
I6
sg13
g14
(g15
tp282
Rp283
Vhttp://dld.bz/eMmaS
p284
I70
ssg20
Vlyft promotion codes all in one place youve earned 10 free rides up to 20 with promo code
p285
sg22
I12
sg23
I9
sg24
I2
sa(dp286
g2
(dp287
g4
I68
sg5
I1
ssg6
I69
sg7
g8
((lp288
I744961605234884608
aI745605724311478272
aI4744097923
aI4777289860
aI745979882035773440
aI746395899077615617
aI4742319980
aI4744631178
aI4777706253
aI4777710735
aI4774260375
aI746706821436477440
aI4775915433
aI4772878877
aI4744043936
aI4742211876
aI4471037093
aI4744999220
aI4772363559
aI1229243816
aI4777877356
aI4744808107
aI4773419181
aI4742355073
aI4777860269
aI4776662194
aI4777117107
aI4775113396
aI4741979113
aI4777298825
aI4772908217
aI4742776638
aI4775025983
aI4777335616
aI4773518657
aI4744921026
aI4773483203
aI4773551560
aI4744350282
aI4777768823
aI4744626252
aI4772250381
aI4475325137
aI744945484012224513
aI4771582037
aI4771543769
aI4744901466
aI4772373083
aI4475908828
aI4771587677
aI4742847200
aI1223714785
aI2509561699
aI4777351396
aI4771614437
aI4772843367
aI4744630632
aI4744476265
aI4741854186
aI4745047693
aI4775069679
aI4744767464
aI4776714994
aI4459706979
aI4745018996
aI4741899620
aI763929643967664128
aI4777844476
aI4499186303
atp289
Rp290
sg12
I6
sg13
g14
(g15
tp291
Rp292
Vhttp://dld.bz/fvHYt
p293
I69
ssg20
Vi will add 15000 instagram likes for 20 get your instagram activity up and go viral
p294
sg22
I13
sg23
I9
sg24
I2
sa(dp295
g2
(dp296
g4
I66
sg5
I1
ssg6
I67
sg7
g8
((lp297
I745979882035773440
aI745605724311478272
aI4744097923
aI4777289860
aI744961605234884608
aI744945484012224513
aI4777298825
aI4744631178
aI4777706253
aI4777710735
aI4774260375
aI746706821436477440
aI4741899620
aI4772878877
aI4744043936
aI746395899077615617
aI4471037093
aI4772363559
aI1229243816
aI4775915433
aI4744808107
aI4773419181
aI4742355073
aI4777860269
aI4776662194
aI4777117107
aI4775113396
aI4744999220
aI4742319980
aI4742776638
aI4775025983
aI4777335616
aI4773518657
aI4744921026
aI4773483203
aI4745047693
aI4773551560
aI4744350282
aI4499444299
aI4744626252
aI4742211876
aI4772250381
aI4475325137
aI4771582037
aI4772908217
aI4771543769
aI4744901466
aI4772373083
aI4475908828
aI4771587677
aI4742847200
aI1223714785
aI2509561699
aI4777351396
aI4771614437
aI4772843367
aI4744630632
aI4744476265
aI4741854186
aI4777877356
aI4775069679
aI4744767464
aI4776714994
aI763929643967664128
aI4745018996
aI4777768823
aI4777844476
atp298
Rp299
sg12
I6
sg13
g14
(g15
tp300
Rp301
Vhttp://dld.bz/eDwaV
p302
I67
ssg20
Vwe can manage your soundcloud account to get your plays views downloads and followers
p303
sg22
I14
sg23
I9
sg24
I2
sa(dp304
g2
(dp305
g4
I63
sg5
I1
ssg6
I64
sg7
g8
((lp306
I744961605234884608
aI745979882035773440
aI4744097923
aI745605724311478272
aI746395899077615617
aI4742319980
aI4745047693
aI4777710735
aI4774260375
aI746706821436477440
aI4772878877
aI4744043936
aI744945484012224513
aI4471037093
aI4744999220
aI4772363559
aI4775915433
aI4744808107
aI4777860269
aI4742355073
aI4776662194
aI4741979113
aI4775113396
aI4777298825
aI4772908217
aI4744154228
aI4742211876
aI4775025983
aI4777335616
aI4773518657
aI4744921026
aI4773483203
aI4744630632
aI4773551560
aI4744350282
aI4744626252
aI4777706253
aI4475325137
aI4771582037
aI4777351396
aI4744901466
aI4772373083
aI4475908828
aI4771587677
aI4772250381
aI1223714785
aI2509561699
aI4741899620
aI4771614437
aI4772843367
aI4744767464
aI4744476265
aI4741854186
aI4499206823
aI4777877356
aI4775069679
aI4771543769
aI4776714994
aI763929643967664128
aI4745018996
aI4742776638
aI4777768823
aI1237672255
aI4777844476
atp307
Rp308
sg12
I6
sg13
g14
(g15
tp309
Rp310
Vhttp://dld.bz/eYzg9
p311
I64
ssg20
Vuber is offering new drivers up to 500 to get started get ubered learn more here
p312
sg22
I15
sg23
I9
sg24
I2
sa(dp313
g2
(dp314
g4
I62
sg5
I1
ssg6
I63
sg7
g8
((lp315
I744961605234884608
aI745605724311478272
aI4744097923
aI4777351396
aI745979882035773440
aI744945484012224513
aI4777298825
aI4744631178
aI4777706253
aI4773419181
aI4772843367
aI4774260375
aI746706821436477440
aI4772878877
aI4744043936
aI4777710735
aI746395899077615617
aI4744999220
aI4775915433
aI4744808107
aI4777860269
aI4742355073
aI4776662194
aI4777117107
aI4775113396
aI4772908217
aI4742211876
aI4775025983
aI4777335616
aI4773518657
aI4744921026
aI4773483203
aI4773551560
aI4744350282
aI4744626252
aI4745047693
aI4742319980
aI4771582037
aI4771543769
aI4744901466
aI4772373083
aI4475908828
aI4771587677
aI4771614437
aI4742847200
aI2509561699
aI4741899620
aI4772250381
aI4475325137
aI4744630632
aI4744476265
aI4741854186
aI4772363559
aI4777877356
aI4775069679
aI4744767464
aI4776714994
aI4745018996
aI4742776638
aI4777768823
aI4777844476
aI4499206823
aI4499186303
atp316
Rp317
sg12
I6
sg13
g14
(g15
tp318
Rp319
Vhttp://dld.bz/fwecR
p320
I63
ssg20
Vfree uber ride click here for a free ride up to  20 using the ubercode zte754e2ue
p321
sg22
I16
sg23
I9
sg24
I2
sa(dp322
g2
(dp323
g4
I60
sg5
I1
ssg6
I61
sg7
g8
((lp324
I746706821436477440
aI745605724311478272
aI4744097923
aI744961605234884608
aI746395899077615617
aI4742319980
aI4744631178
aI4772250381
aI4777710735
aI4774260375
aI4741899620
aI4772878877
aI4744043936
aI4742211876
aI4772363559
aI4775915433
aI4744808107
aI4773419181
aI4742355073
aI4777860269
aI4776662194
aI4777117107
aI4775113396
aI4777706253
aI4777298825
aI4744999220
aI4742776638
aI4775025983
aI4777335616
aI4773518657
aI4744921026
aI4773483203
aI4773551560
aI4744350282
aI4744626252
aI4745047693
aI4475325137
aI744945484012224513
aI4771582037
aI4772908217
aI4771543769
aI4744901466
aI4772373083
aI4475908828
aI4771587677
aI745979882035773440
aI4742847200
aI2509561699
aI4777351396
aI4771614437
aI4772843367
aI4744630632
aI4744476265
aI4741854186
aI4777877356
aI4775069679
aI4744767464
aI4776714994
aI4745018996
aI4777768823
aI4777844476
atp325
Rp326
sg12
I6
sg13
g14
(g15
tp327
Rp328
Vhttp://dld.bz/eMD6k
p329
I61
ssg20
Vi will give you over 1000 reverbnation playsviews to boost your reverbnation profile 10
p330
sg22
I17
sg23
I9
sg24
I2
sa(dp331
g2
(dp332
g4
I1
sg5
I48
ssg6
I49
sg7
g8
((lp333
I816291623646674945
aI164573063
aI194775947
aI347568396
aI162413581
aI4888982926
aI162727823
aI162034704
aI163030290
aI193008155
aI452305308
aI162341083
aI162345636
aI512690342
aI162993448
aI4876343473
aI512704181
aI161611407
aI194768189
aI192996619
aI2607786180
aI164577889
aI531163595
aI558061651
aI166142862
aI176760539
aI221059805
aI97391070
aI934684128
aI164566032
aI162985186
aI4218263531
aI237928893
aI531226608
aI23088369
aI575964798
aI193056758
aI571735543
aI163893241
aI360676602
aI164560495
aI725128572
aI4876151294
atp334
Rp335
sg12
I6
sg13
g14
(g15
tp336
Rp337
Vhttp://dld.bz/ezPRp
p338
I49
ssg20
Vinteresting facts about india   india fatcs
p339
sg22
I18
sg23
I9
sg24
I2
sa(dp340
g2
(dp341
g4
I0
sg5
I48
ssg6
I48
sg7
g8
((lp342
I3470483712
aI531226626
aI164573063
aI194775947
aI347568396
aI162413581
aI4888982926
aI162727823
aI162034704
aI163030290
aI193008155
aI452305308
aI162341083
aI162345636
aI512690342
aI162993448
aI334824903
aI4876343473
aI512704181
aI161611407
aI194768189
aI192996619
aI2607786180
aI164577889
aI531163595
aI161612498
aI558061651
aI166142862
aI176760539
aI221059805
aI97391070
aI934684128
aI164566032
aI162985186
aI531249510
aI4218263531
aI237928893
aI23088369
aI575964798
aI193056758
aI571735543
aI163893241
aI360676602
aI164560495
aI725128572
aI4876151294
atp343
Rp344
sg12
I6
sg13
g14
(g15
tp345
Rp346
Vhttp://dld.bz/ezP5j
p347
I48
ssg20
Vhistory of mojang   mojang
p348
sg22
I19
sg23
I9
sg24
I2
sa(dp349
g2
(dp350
g4
I0
sg5
I48
ssg6
I48
sg7
g8
((lp351
I164573063
aI531171209
aI194775947
aI347568396
aI162413581
aI4888982926
aI162727823
aI162034704
aI163030290
aI194768189
aI193008155
aI452305308
aI162341083
aI162345636
aI512690342
aI162993448
aI4876343473
aI512704181
aI161611407
aI237928893
aI192996619
aI2607786180
aI164577889
aI531163595
aI558061651
aI166142862
aI176760539
aI221059805
aI97391070
aI934684128
aI164566032
aI162985186
aI4218263531
aI531165935
aI23088369
aI4876151294
aI193056758
aI571735543
aI163893241
aI360676602
aI164560495
aI725128572
aI575964798
atp352
Rp353
sg12
I6
sg13
g14
(g15
tp354
Rp355
Vhttp://dld.bz/ezPRM
p356
I48
ssg20
Vthe walking dead popup book   book walkingdead
p357
sg22
I20
sg23
I9
sg24
I2
sa(dp358
g2
(dp359
g4
I2
sg5
I44
ssg6
I46
sg7
g8
((lp360
I164573063
aI194775947
aI347568396
aI162413581
aI4888982926
aI162727823
aI164566032
aI163030290
aI512652820
aI193008155
aI452305308
aI162341083
aI162345636
aI512690342
aI162993448
aI2427744425
aI4876343473
aI512704181
aI161611407
aI194768189
aI347591349
aI192996619
aI2607786180
aI164577889
aI319870025
aI531163595
aI558061651
aI166142862
aI176760539
aI221059805
aI97391070
aI934684128
aI162034704
aI162985186
aI4218263531
aI237928893
aI23088369
aI575964798
aI193056758
aI571735543
aI163893241
aI360676602
aI164560495
aI725128572
aI4876151294
atp361
Rp362
sg12
I6
sg13
g14
(g15
tp363
Rp364
Vhttp://dld.bz/ezPF6
p365
I46
ssg20
Vbulletproof shotglass   shotglass bulletproof
p366
sg22
I21
sg23
I9
sg24
I2
sa(dp367
g2
(dp368
g4
I5
sg5
I41
ssg6
I46
sg7
g8
((lp369
I799979402800959488
aI816291623646674945
aI164573063
aI194775947
aI347568396
aI162413581
aI4888982926
aI161611407
aI164566032
aI163030290
aI193008155
aI452305308
aI162341083
aI162345636
aI512690342
aI162993448
aI4876343473
aI512704181
aI194768189
aI1010868926
aI885838273
aI49797442
aI192996619
aI2607786180
aI164577889
aI531163595
aI558061651
aI166142862
aI176760539
aI221059805
aI97391070
aI934684128
aI162034704
aI162985186
aI4218263531
aI237928893
aI23088369
aI575964798
aI193056758
aI571735543
aI163893241
aI360676602
aI164560495
aI725128572
aI4876151294
atp370
Rp371
sg12
I6
sg13
g14
(g15
tp372
Rp373
Vhttp://dld.bz/ezP5b
p374
I46
ssg20
Vone hit wonders of the 70s   70s 1970s classicrock
p375
sg22
I22
sg23
I9
sg24
I2
sa(dp376
g2
(dp377
g4
I0
sg5
I45
ssg6
I45
sg7
g8
((lp378
I531226626
aI531256710
aI164573063
aI194775947
aI347568396
aI162413581
aI4888982926
aI162727823
aI162034704
aI163030290
aI193008155
aI452305308
aI221105822
aI162341083
aI162345636
aI512690342
aI162993448
aI4876343473
aI512704181
aI161611407
aI237928893
aI192996619
aI2607786180
aI164577889
aI531163595
aI162985186
aI558061651
aI166142862
aI176760539
aI221059805
aI97391070
aI934684128
aI164566032
aI531139298
aI4218263531
aI194768189
aI23088369
aI575964798
aI193056758
aI571735543
aI163893241
aI360676602
aI164560495
aI725128572
aI4876151294
atp379
Rp380
sg12
I6
sg13
g14
(g15
tp381
Rp382
Vhttp://dld.bz/ezPRK
p383
I45
ssg20
Velectric shock prank puzzle cube   electric puzzle cube
p384
sg22
I23
sg23
I9
sg24
I2
sa(dp385
g2
(dp386
g4
I3
sg5
I42
ssg6
I45
sg7
g8
((lp387
I719446115465043968
aI164573063
aI194775947
aI347568396
aI162413581
aI4888982926
aI162727823
aI162034704
aI163030290
aI193008155
aI452305308
aI162341083
aI162345636
aI512690342
aI162993448
aI4876343473
aI512704181
aI161611407
aI194768189
aI48526013
aI192996619
aI2607786180
aI164577889
aI531163595
aI161612498
aI558061651
aI166142862
aI2342112420
aI176760539
aI221059805
aI97391070
aI934684128
aI164566032
aI162985186
aI4218263531
aI237928893
aI23088369
aI575964798
aI193056758
aI571735543
aI163893241
aI360676602
aI164560495
aI725128572
aI4876151294
atp388
Rp389
sg12
I6
sg13
g14
(g15
tp390
Rp391
Vhttp://dld.bz/ezPRc
p392
I45
ssg20
Vdeadliest animals on earth   deadliest animals earth
p393
sg22
I24
sg23
I9
sg24
I2
sa(dp394
g2
(dp395
g4
I3
sg5
I42
ssg6
I45
sg7
g8
((lp396
I816291623646674945
aI164573063
aI194775947
aI347568396
aI162413581
aI4888982926
aI162727823
aI164566032
aI163030290
aI193008155
aI452305308
aI162341083
aI162345636
aI512690342
aI162993448
aI4876343473
aI512704181
aI161611407
aI194768189
aI1904774078
aI192996619
aI2607786180
aI356304246
aI164577889
aI531163595
aI558061651
aI166142862
aI176760539
aI221059805
aI97391070
aI934684128
aI162034704
aI162985186
aI4218263531
aI237928893
aI23088369
aI575964798
aI193056758
aI571735543
aI163893241
aI360676602
aI164560495
aI725128572
aI4876151294
atp397
Rp398
sg12
I6
sg13
g14
(g15
tp399
Rp400
Vhttp://dld.bz/ezP74
p401
I45
ssg20
Vthe history of that odd olympic sport \u2013 curling   olympic sport curling
p402
sg22
I25
sg23
I9
sg24
I2
sa(dp403
g2
(dp404
g4
I1
sg5
I42
ssg6
I43
sg7
g8
((lp405
I816291623646674945
aI164573063
aI194775947
aI347568396
aI162413581
aI4888982926
aI162727823
aI164566032
aI163030290
aI193008155
aI452305308
aI162341083
aI162345636
aI512690342
aI162993448
aI4876343473
aI512704181
aI161611407
aI194768189
aI192996619
aI2607786180
aI164577889
aI531163595
aI558061651
aI166142862
aI176760539
aI221059805
aI97391070
aI934684128
aI162034704
aI162985186
aI4218263531
aI237928893
aI23088369
aI575964798
aI193056758
aI571735543
aI163893241
aI360676602
aI164560495
aI725128572
aI4876151294
atp406
Rp407
sg12
I6
sg13
g14
(g15
tp408
Rp409
Vhttp://dld.bz/ezPRX
p410
I43
ssg20
Vfascinating interesting and unusual beer label designs   beer
p411
sg22
I26
sg23
I9
sg24
I2
sa(dp412
g2
(dp413
g4
I1
sg5
I42
ssg6
I43
sg7
g8
((lp414
I783167381711511552
aI762066028859842561
aI1883821189
aI795864428407377920
aI722176719398916097
aI1920686730
aI25666962
aI1402401300
aI805423620747132929
aI4319959702
aI1002883482
aI285569182
aI502187440
aI784559389596323840
aI730532124147748865
aI3300619304
aI2747490695
aI358934576
aI133268864
aI729547699
aI25817909
aI938189623
aI2185219004
aI464321345
aI3071536842
aI829656907
aI1884696271
aI3060760659
aI431040340
aI2982062554
aI772625713715351552
aI2983489245
aI1859603551
aI3215288193
aI789976418
aI758472447838588928
aI2167814886
aI2303954923
aI7391872
aI1865936532
aI1865658362
aI1040690684
atp415
Rp416
sg12
I6
sg13
g14
(g15
tp417
Rp418
Vhttp://dld.bz/fwcxJ
p419
I43
sVhttp://WWW.FLEETDJS.COM
p420
I43
ssg20
Vbuy your tickets to 2017 fleet dj conferences here   or   fdjconference
p421
sg22
I27
sg23
I9
sg24
I2
sa(dp422
g2
(dp423
g4
I1
sg5
I42
ssg6
I43
sg7
g8
((lp424
I801574605601251328
aI162979970
aI164573063
aI194775947
aI347568396
aI162413581
aI4888982926
aI162727823
aI162034704
aI163030290
aI193008155
aI452305308
aI162341083
aI162345636
aI512690342
aI162993448
aI4876343473
aI512704181
aI161611407
aI194768189
aI192996619
aI2607786180
aI164577889
aI531163595
aI558061651
aI166142862
aI176760539
aI221059805
aI97391070
aI934684128
aI164566032
aI162985186
aI4218263531
aI237928893
aI23088369
aI575964798
aI193056758
aI571735543
aI163893241
aI360676602
aI164560495
aI725128572
aI4876151294
atp425
Rp426
sg12
I6
sg13
g14
(g15
tp427
Rp428
Vhttp://dld.bz/ezPR6
p429
I43
ssg20
Vwho were all the disney princesses   disney princesses
p430
sg22
I28
sg23
I9
sg24
I2
sa(dp431
g2
(dp432
g4
I1
sg5
I42
ssg6
I43
sg7
g8
((lp433
I164573063
aI194775947
aI347568396
aI162413581
aI166142862
aI162727823
aI162034704
aI163030290
aI194768189
aI193008155
aI452305308
aI162341083
aI162345636
aI512690342
aI329834151
aI162993448
aI4876343473
aI512704181
aI161611407
aI237928893
aI192996619
aI2607786180
aI164577889
aI531163595
aI558061651
aI4888982926
aI176760539
aI221059805
aI97391070
aI934684128
aI164566032
aI162985186
aI4218263531
aI164560495
aI23088369
aI575964798
aI193056758
aI571735543
aI163893241
aI360676602
aI725128572
aI4876151294
atp434
Rp435
sg12
I6
sg13
g14
(g15
tp436
Rp437
Vhttp://dld.bz/ezP7n
p438
I43
ssg20
Vdifferent types of major league pitches   league pitches
p439
sg22
I29
sg23
I9
sg24
I2
sa(dp440
g2
(dp441
g4
I0
sg5
I42
ssg6
I42
sg7
g8
((lp442
I164573063
aI194775947
aI347568396
aI162413581
aI4888982926
aI162727823
aI162034704
aI163030290
aI193008155
aI452305308
aI162341083
aI162345636
aI512690342
aI162993448
aI4876343473
aI512704181
aI161611407
aI194768189
aI192996619
aI2607786180
aI164577889
aI531163595
aI558061651
aI166142862
aI176760539
aI221059805
aI97391070
aI934684128
aI164566032
aI162985186
aI531146600
aI4218263531
aI237928893
aI23088369
aI575964798
aI193056758
aI571735543
aI163893241
aI360676602
aI164560495
aI725128572
aI4876151294
atp443
Rp444
sg12
I6
sg13
g14
(g15
tp445
Rp446
Vhttp://dld.bz/ezPRt
p447
I42
ssg20
Vinteresting facts about the moon   facts moon
p448
sg22
I30
sg23
I9
sg24
I2
sa(dp449
g2
(dp450
g4
I2
sg5
I40
ssg6
I42
sg7
g8
((lp451
I475169536
aI860100739
aI860851094
aI833996298
aI954220717
aI862218259
aI898193300
aI69485846
aI472246425
aI813679002
aI858977312
aI887184804
aI860211505
aI475156011
aI466442413
aI875799984
aI1652138929
aI1289927539
aI887222582
aI632388280
aI964986038
aI463100232
aI887267017
aI920256847
aI3762924856
aI871870045
aI541877473
aI863436258
aI858707821
aI713376499
atp452
Rp453
sg12
I6
sg13
g14
(g15
tp454
Rp455
Vhttp://dld.bz/d6TDF
p456
I2
sVhttp://dld.bz/e4jmP
p457
I14
sVhttp://dld.bz/dPTgM
p458
I14
sVhttp://dld.bz/e4jtA
p459
I12
ssg20
Vbusiness owner entrepreneur start up blogger reach 1000s of people per day
p460
sg22
I31
sg23
I9
sg24
I2
sa(dp461
g2
(dp462
g4
I1
sg5
I41
ssg6
I42
sg7
g8
((lp463
I637015681
aI1132568707
aI462210311
aI858586638
aI466442413
aI858475921
aI862218259
aI898193300
aI472246425
aI813679002
aI863501084
aI399125922
aI459534627
aI887184804
aI465204773
aI875911231
aI139988522
aI461576749
aI713376499
aI833795767
aI632388280
aI843608635
aI833669180
aI866581567
aI1027780038
aI541877473
aI463100232
aI887267017
aI834526411
aI459586511
aI856618064
aI1344052178
aI475148760
aI1254607069
aI464871521
aI459557733
aI263234033
aI1289927539
aI872074100
aI861763958
aI856723315
aI811974643
atp464
Rp465
sg12
I6
sg13
g14
(g15
tp466
Rp467
Vhttp://dld.bz/fxKQ6
p468
I42
ssg20
Vpdf to dwgdxf pdf to word pdf to    isabell80008
p469
sg22
I32
sg23
I9
sg24
I2
sa(dp470
g2
(dp471
g4
I0
sg5
I39
ssg6
I39
sg7
g8
((lp472
I722631467570823168
aI723419517158756353
aI173886368
aI722959771133865987
aI723013796541820932
aI2251223366
aI2505896390
aI723436919229554689
aI4842863655
aI3020695373
aI714991662829678593
aI4877689007
aI4842439186
aI174743659
aI3662980934
aI1218643861
aI700989391897026560
aI2428304088
aI722962909098188804
aI4842287175
atp473
Rp474
sg12
I6
sg13
g14
(g15
tp475
Rp476
Vhttp://dld.bz/fxMqK
p477
I19
sVhttp://dld.bz/fxMfc
p478
I1
sVhttp://dld.bz/fxKFT
p479
I19
ssg20
Vwashingtons new lows
p480
sg22
I33
sg23
I9
sg24
I2
sa(dp481
g2
(dp482
g4
I1
sg5
I38
ssg6
I39
sg7
g8
((lp483
I1132568707
aI462210311
aI12341132
aI858586638
aI466442413
aI459520912
aI862218259
aI69485846
aI542854170
aI863501084
aI813679002
aI459534627
aI887184804
aI139988522
aI461576749
aI713376499
aI632388280
aI843608635
aI833669180
aI866581567
aI858449472
aI831420481
aI463100232
aI867306697
aI834526411
aI843565644
aI459586511
aI856618064
aI463205843
aI475148760
aI858933979
aI1254607069
aI863436258
aI459557733
aI1289927539
aI872074100
aI861763958
aI856723315
aI811974643
atp484
Rp485
sg12
I6
sg13
g14
(g15
tp486
Rp487
Vhttp://dld.bz/ejXkj
p488
I39
ssg20
Vthis app for ios amp android has 2700 museum listings for 78 us cities   museumgo
p489
sg22
I34
sg23
I9
sg24
I2
sa(dp490
g2
(dp491
g4
I0
sg5
I39
ssg6
I39
sg7
g8
((lp492
I784559389596323840
aI133268864
aI2983489245
aI805423620747132929
aI21088265
aI25666962
aI1402401300
aI3029600661
aI4319959702
aI1002883482
aI285569182
aI502187440
aI78582814
aI636628909
aI145886511
aI358934576
aI729547699
aI25817909
aI938189623
aI998246840
aI23356985
aI2185219004
aI464321345
aI271935813
aI25094967
aI1681788770
aI10786382
aI26412238
aI2982062554
aI136072795
aI1865658362
aI789976418
aI2167814886
aI2303954923
aI26208111
aI2742350842
aI1040690684
atp493
Rp494
sg12
I6
sg13
g14
(g15
tp495
Rp496
Vhttp://dld.bz/fxKev
p497
I39
ssg20
Vrtt new music  alert kdiore rhodes   duanedarock
p498
sg22
I35
sg23
I9
sg24
I2
sa(dp499
g2
(dp500
g4
I0
sg5
I38
ssg6
I38
sg7
g8
((lp501
I784559389596323840
aI133268864
aI153075588
aI805423620747132929
aI21088265
aI285569182
aI883596175
aI25666962
aI1402401300
aI3029600661
aI4319959702
aI1002883482
aI2982062554
aI78582814
aI502187440
aI444844073
aI2747490695
aI636628909
aI145886511
aI358934576
aI729547699
aI25817909
aI25094967
aI998246840
aI23356985
aI2185219004
aI464321345
aI271935813
aI938189623
aI26412238
aI10786382
aI7391872
aI2742350842
aI789976418
aI2303954923
aI26208111
aI1865658362
aI1040690684
atp502
Rp503
sg12
I6
sg13
g14
(g15
tp504
Rp505
Vhttp://dld.bz/fxKev
p506
I38
ssg20
Vrt new music  alert kdiore rhodes   duanedarock
p507
sg22
I36
sg23
I9
sg24
I2
sa(dp508
g2
(dp509
g4
I0
sg5
I37
ssg6
I37
sg7
g8
((lp510
I2270325632
aI745351938
aI2270158088
aI595475596
aI786718734
aI626454930
aI620848025
aI1073739032
aI626463684
aI2270194332
aI133846564
aI833394344
aI626406962
aI2280804528
aI619922354
aI621075252
aI780693943
aI2270235066
aI721967803
aI626388668
aI721956158
aI626367167
aI620817344
aI606282308
aI721964940
aI620975949
aI150628813
aI620827349
aI626529828
aI720538722
aI721959740
aI897054313
aI618204018
aI603722099
aI2270175679
aI2270220925
aI897062142
atp511
Rp512
sg12
I6
sg13
g14
(g15
tp513
Rp514
Vhttp://dld.bz/fxKZy
p515
I37
ssg20
Vthe pretty reckless \u2013 oh my god official music video tprofficial musicnews
p516
sg22
I37
sg23
I9
sg24
I2
sa(dp517
g2
(dp518
g4
I33
sg5
I3
ssg6
I36
sg7
g8
((lp519
I3051672960
aI3065014019
aI3064917129
aI2478132622
aI3065421341
aI3065627422
aI2477058850
aI2486583845
aI3051585703
aI461930439
aI3065826988
aI618513070
aI3048505650
aI3065855753
aI283461432
aI300235964
aI291744574
aI3065342271
aI3045825600
aI3065513481
aI3065835382
aI618600647
aI476196559
aI2476259795
aI618782425
aI465931998
aI286837092
aI288164325
aI291739880
aI451983723
aI617429232
aI2436130035
aI618711542
aI618938879
atp520
Rp521
sg12
I6
sg13
g14
(g15
tp522
Rp523
Vhttp://dld.bz/ek8zA
p524
I36
ssg20
Vlilly peppertree hardback and paperback copy out on lulu  and amazon   also on kindle
p525
sg22
I38
sg23
I9
sg24
I2
sa(dp526
g2
(dp527
g4
I0
sg5
I36
ssg6
I36
sg7
g8
((lp528
I784559389596323840
aI805423620747132929
aI153075588
aI2747490695
aI21088265
aI883596175
aI25666962
aI1402401300
aI3029600661
aI4319959702
aI1002883482
aI285569182
aI502187440
aI78582814
aI145886511
aI358934576
aI133268864
aI729547699
aI25817909
aI998246840
aI2185219004
aI271935813
aI1681788770
aI10786382
aI1865658362
aI26412238
aI2982062554
aI136072795
aI2983489245
aI789976418
aI2167814886
aI2303954923
aI26208111
aI7391872
aI2742350842
aI1040690684
atp529
Rp530
sg12
I6
sg13
g14
(g15
tp531
Rp532
Vhttp://dld.bz/fxKev
p533
I36
ssg20
Vrttt new music  alert kdiore rhodes   duanedarock
p534
sg22
I39
sg23
I9
sg24
I2
sa(dp535
g2
(dp536
g4
I0
sg5
I36
ssg6
I36
sg7
g8
((lp537
I858449472
aI1132568707
aI462210311
aI858586638
aI858475921
aI862218259
aI542854170
aI863501084
aI459534627
aI465204773
aI875911231
aI139988522
aI811974643
aI833795767
aI632388280
aI843608635
aI833669180
aI847642303
aI463308992
aI541877473
aI463100232
aI887267017
aI843565644
aI459586511
aI856618064
aI1344052178
aI858933979
aI1254607069
aI464871521
aI863436258
aI459557733
aI263234033
aI1289927539
aI861763958
aI867306697
aI866581567
atp538
Rp539
sg12
I6
sg13
g14
(g15
tp540
Rp541
Vhttp://dld.bz/ejXkj
p542
I36
ssg20
Vthis app has compiled information for over 2700 museums throughout 78 us cities   museumgo
p543
sg22
I40
sg23
I9
sg24
I2
sa(dp544
g2
(dp545
g4
I0
sg5
I34
ssg6
I34
sg7
g8
((lp546
I475169536
aI2504763266
aI860100739
aI1360931204
aI833996298
aI996430604
aI860851094
aI475128600
aI924612380
aI860121374
aI858977312
aI860879906
aI2896924835
aI475156011
aI954220717
aI875799984
aI860211505
aI887222582
aI964986038
aI920256847
aI2330466386
aI843593173
aI475178200
aI871870045
aI858707821
aI887161710
aI874378994
aI863612276
aI964896504
aI858740989
aI861891199
atp547
Rp548
sg12
I6
sg13
g14
(g15
tp549
Rp550
Vhttp://dld.bz/fwa28
p551
I34
sVhttp://dld.bz/fwa29
p552
I34
ssg20
Vpolice video you dash cam body cam you must recordacop
p553
sg22
I41
sg23
I9
sg24
I2
sa(dp554
g2
(dp555
g4
I1
sg5
I33
ssg6
I34
sg7
g8
((lp556
I463308992
aI1132568707
aI459520912
aI858475921
aI862218259
aI69485846
aI542854170
aI813679002
aI887184804
aI139988522
aI713376499
aI632388280
aI843608635
aI833669180
aI847642303
aI858449472
aI1027780038
aI463100232
aI867306697
aI843565644
aI856618064
aI1344052178
aI475148760
aI858933979
aI1254607069
aI863436258
aI863472282
aI1684524144
aI1289927539
aI861763958
aI875911231
aI811974643
atp557
Rp558
sg12
I6
sg13
g14
(g15
tp559
Rp560
Vhttp://dld.bz/ftH47
p561
I34
ssg20
Vfund raising opportunities for american legions and vfw posts   honorcabinets
p562
sg22
I42
sg23
I9
sg24
I2
sa(dp563
g2
(dp564
g4
I33
sg5
I1
ssg6
I34
sg7
g8
((lp565
I824633893965803520
aI715943366123503617
aI733441134706446338
aI4915855747
aI717337055097790464
aI885838273
aI716987232775614466
aI41883924
aI1272031254
aI1651745263
aI2297883295
aI3151916194
aI716398100378685440
aI424326821
aI482334246
aI2916346925
aI2330134451
aI364224436
aI2574103094
aI409776827
aI175788609
aI1455738998
aI987763657
aI19315409
aI1123215325
aI3072312415
aI1920875617
aI3131551595
aI1569158894
aI456897775
aI3102592241
aI3316408438
atp566
Rp567
sg12
I6
sg13
g14
(g15
tp568
Rp569
Vhttp://dld.bz/faQUx
p570
I34
ssg20
Vget your free penguin romance iartg asmsg instafreebie
p571
sg22
I43
sg23
I9
sg24
I2
sa(dp572
g2
(dp573
g4
I0
sg5
I32
ssg6
I32
sg7
g8
((lp574
I475169536
aI2504763266
aI860100739
aI831420481
aI954220717
aI858475921
aI1570843675
aI924612380
aI858977312
aI399125922
aI887184804
aI465204773
aI475156011
aI466442413
aI887222582
aI632388280
aI833669180
aI165221664
aI964986038
aI1027780038
aI463100232
aI475178200
aI858933979
aI464871521
aI2510444514
aI459557733
aI858707821
aI263234033
aI874378994
aI713376499
aI872074100
aI69468150
atp575
Rp576
sg12
I6
sg13
g14
(g15
tp577
Rp578
Vhttp://dld.bz/ekZ8P
p579
I20
sVhttp://dld.bz/ekZDK
p580
I12
ssg20
Vtoo busy for social media ive heard that before
p581
sg22
I44
sg23
I9
sg24
I2
sa(dp582
g2
(dp583
g4
I0
sg5
I31
ssg6
I31
sg7
g8
((lp584
I463308992
aI1132568707
aI858475921
aI862218259
aI69485846
aI542854170
aI813679002
aI399125922
aI465204773
aI875911231
aI139988522
aI1289927539
aI632388280
aI843608635
aI866581567
aI858449472
aI831420481
aI541877473
aI867306697
aI834526411
aI843565644
aI1344052178
aI463205843
aI858933979
aI1254607069
aI464871521
aI863436258
aI863472282
aI713376499
aI872074100
aI856723315
atp585
Rp586
sg12
I6
sg13
g14
(g15
tp587
Rp588
Vhttp://dld.bz/ftHEX
p589
I31
ssg20
Valmost every one uses electricity or natural gas daily so why pay more   grammygauthier
p590
sg22
I45
sg23
I9
sg24
I2
sa(dp591
g2
(dp592
g4
I2
sg5
I29
ssg6
I31
sg7
g8
((lp593
I2270325632
aI829150329543544832
aI745351938
aI2270158088
aI626454930
aI620848025
aI1073739032
aI626463684
aI2270194332
aI626529828
aI626406962
aI619922354
aI780693943
aI2270235066
aI721967803
aI626388668
aI721956158
aI2270175679
aI620817344
aI204263618
aI606282308
aI620975949
aI150628813
aI620827349
aI720538722
aI721959740
aI897054313
aI618204018
aI603722099
aI2270220925
aI897062142
atp594
Rp595
sg12
I6
sg13
g14
(g15
tp596
Rp597
Vhttp://dld.bz/fxMrJ
p598
I31
ssg20
Vsir \u2013 all in my head inglewoodsir musicnews
p599
sg22
I46
sg23
I9
sg24
I2
sa(dp600
g2
(dp601
g4
I2
sg5
I29
ssg6
I31
sg7
g8
((lp602
I829150329543544832
aI2270325632
aI745351938
aI2270158088
aI626454930
aI620848025
aI1073739032
aI626463684
aI2270194332
aI626529828
aI626406962
aI619922354
aI780693943
aI2270235066
aI721967803
aI626388668
aI721956158
aI2270175679
aI620817344
aI606282308
aI620975949
aI150628813
aI620827349
aI720538722
aI721959740
aI897054313
aI618204018
aI603722099
aI29371127
aI2270220925
aI897062142
atp603
Rp604
sg12
I6
sg13
g14
(g15
tp605
Rp606
Vhttp://dld.bz/fxMrH
p607
I31
ssg20
Vslow club \u2013 champion slowclubhq musicnews
p608
sg22
I47
sg23
I9
sg24
I2
sa(dp609
g2
(dp610
g4
I2
sg5
I28
ssg6
I30
sg7
g8
((lp611
I788324925765451776
aI822051472942788608
aI1360931204
aI833996298
aI858586638
aI466442413
aI459520912
aI862218259
aI69485846
aI713376499
aI2466373656
aI542854170
aI165221664
aI139988522
aI73986605
aI875799984
aI856723315
aI887222582
aI141189815
aI833669180
aI847642303
aI858977312
aI475178200
aI871870045
aI887161710
aI874378994
aI811974643
aI861763958
aI861891199
atp612
Rp613
sg12
I6
sg13
g14
(g15
tp614
Rp615
Vhttp://dld.bz/ekZDg
p616
I11
sVhttp://dld.bz/ekZ8n
p617
I19
ssg20
Vdont get ripped off on a website build
p618
sg22
I48
sg23
I9
sg24
I2
sa(dp619
g2
(dp620
g4
I26
sg5
I3
ssg6
I29
sg7
g8
((lp621
I463503237
aI290486406
aI3065851107
aI3065075464
aI616497680
aI286827418
aI433751451
aI412287522
aI3064982691
aI3065230629
aI290481964
aI3065817647
aI613426868
aI60238008
aI614644675
aI3065465284
aI3064947022
aI2448626641
aI3065776547
aI475386452
aI92460124
aI435295837
aI3054543120
aI2449232738
aI2486924003
aI23172966
aI3065911145
aI2485719413
aI3065686774
atp622
Rp623
sg12
I6
sg13
g14
(g15
tp624
Rp625
Vhttp://dld.bz/dUZbf
p626
I29
ssg20
Vdestiny charge accumulated new planet mission the taken king destiny thetakenking
p627
sg22
I49
sg23
I9
sg24
I2
sa(dp628
g2
(dp629
g4
I1
sg5
I28
ssg6
I29
sg7
g8
((lp630
I1360931204
aI954220717
aI862218259
aI898193300
aI863472282
aI924612380
aI542854170
aI813679002
aI858977312
aI399125922
aI887184804
aI475156011
aI466442413
aI1254607069
aI856723315
aI887222582
aI833795767
aI4297655355
aI847642303
aI964986038
aI463100232
aI463205843
aI475148760
aI1289927539
aI871870045
aI459557733
aI887161710
aI811974643
aI861763958
atp631
Rp632
sg12
I6
sg13
g14
(g15
tp633
Rp634
Vhttp://dld.bz/ekZ8N
p635
I20
sVhttp://dld.bz/ekZDJ
p636
I9
ssg20
Vthe newest business model   or why does a start up need social media
p637
sg22
I50
sg23
I9
sg24
I2
sa(dp638
g2
(dp639
g4
I26
sg5
I2
ssg6
I28
sg7
g8
((lp640
I3065940610
aI3064897539
aI2479400073
aI3065483921
aI2481202966
aI464799767
aI2482828317
aI3054286878
aI2479992351
aI474110624
aI464841634
aI445887269
aI414704316
aI288184003
aI615448136
aI2448423372
aI3064882899
aI3054555733
aI3032227927
aI618786905
aI61565276
aI3064218592
aI23172966
aI404205160
aI608412785
aI2449279730
aI3065445879
aI3045409657
atp641
Rp642
sg12
I6
sg13
g14
(g15
tp643
Rp644
Vhttp://dld.bz/e8MmK
p645
I28
ssg20
Vcome get laughs on my podcast amp daily rant  youtube
p646
sg22
I51
sg23
I9
sg24
I2
sa(dp647
g2
(dp648
g4
I3
sg5
I25
ssg6
I28
sg7
g8
((lp649
I793163569705672704
aI858449472
aI462210311
aI898193300
aI475128600
aI1570843675
aI863501084
aI860879906
aI459534627
aI2550433447
aI475156011
aI141189815
aI150466240
aI1027780038
aI463100232
aI263234033
aI834526411
aI843565644
aI863436258
aI920256847
aI1344052178
aI463205843
aI843593173
aI858933979
aI871870045
aI2510444514
aI338773489
aI604214653
atp650
Rp651
sg12
I6
sg13
g14
(g15
tp652
Rp653
Vhttp://dld.bz/ekZ8B
p654
I22
sVhttp://dld.bz/ekZD8
p655
I6
ssg20
Vusing emotional triggers on social media to compel a response and gain traction
p656
sg22
I52
sg23
I9
sg24
I2
sa(dp657
g2
(dp658
g4
I0
sg5
I28
ssg6
I28
sg7
g8
((lp659
I1132568707
aI1360931204
aI461576749
aI858475921
aI898193300
aI69485846
aI860121374
aI860879906
aI2896924835
aI466442413
aI860211505
aI887222582
aI141189815
aI833669180
aI463308992
aI867306697
aI459586511
aI856618064
aI1344052178
aI463205843
aI475178200
aI464871521
aI858707821
aI811974643
aI863612276
aI964896504
aI604214653
aI861891199
atp660
Rp661
sg12
I6
sg13
g14
(g15
tp662
Rp663
Vhttp://dld.bz/ekZ8C
p664
I17
sVhttp://dld.bz/ekZD9
p665
I11
ssg20
Voh the places youll go   dr seuss last book before he died
p666
sg22
I53
sg23
I9
sg24
I2
sa(dp667
g2
(dp668
g4
I27
sg5
I1
ssg6
I28
sg7
g8
((lp669
I474437379
aI476165511
aI2486010250
aI3064781325
aI3065751657
aI615043992
aI2485900450
aI3051529260
aI3065589549
aI3065780272
aI439714228
aI3065738057
aI615596472
aI3065805369
aI3052172348
aI444875329
aI616414409
aI2487145805
aI3054693456
aI300221136
aI3050589924
aI23172966
aI3065439207
aI613865577
aI437710186
aI2488592495
aI2476674039
aI2437402367
atp670
Rp671
sg12
I6
sg13
g14
(g15
tp672
Rp673
Vhttp://dld.bz/d2X8p
p674
I28
ssg20
Vkingston class 10 uhsi sdhcsdxc micro sd card unboxing review
p675
sg22
I54
sg23
I9
sg24
I2
sa(dp676
g2
(dp677
g4
I26
sg5
I2
ssg6
I28
sg7
g8
((lp678
I614175872
aI3065641217
aI614786243
aI3048675462
aI438097159
aI2483943819
aI439721229
aI2483283856
aI446809539
aI2482785179
aI2475248415
aI472985762
aI275978166
aI3052157754
aI2474883899
aI2487210435
aI461930439
aI3065930320
aI3052180050
aI2477573848
aI2480446947
aI451909481
aI476211434
aI3065953522
aI299794163
aI3065022970
aI614340219
atp679
Rp680
sg12
I6
sg13
g14
(g15
tp681
Rp682
Vhttp://dld.bz/eSrua
p683
I28
ssg20
Vfinding fizz by julie hodgson   via amazonuk romancewithatwist awardwinningnovel
p684
sg22
I55
sg23
I9
sg24
I2
sa(dp685
g2
(dp686
g4
I0
sg5
I28
ssg6
I28
sg7
g8
((lp687
I1132568707
aI459520912
aI475148760
aI813679002
aI924612380
aI860121374
aI165221664
aI399125922
aI2896924835
aI560465444
aI2550433447
aI860211505
aI811974643
aI632388280
aI847642303
aI866581567
aI283560526
aI459586511
aI843593173
aI475178200
aI920256847
aI871870045
aI863436258
aI604214653
aI856723315
aI73995257
aI875911231
aI858740989
atp688
Rp689
sg12
I6
sg13
g14
(g15
tp690
Rp691
Vhttp://dld.bz/ekZ86
p692
I19
sVhttp://dld.bz/ekZD3
p693
I9
ssg20
Vis your twitter count stuck at the infamous 2000 mark   how to avoid and get around it
p694
sg22
I56
sg23
I9
sg24
I2
sa(dp695
g2
(dp696
g4
I1
sg5
I27
ssg6
I28
sg7
g8
((lp697
I766085275789488128
aI1132568707
aI462210311
aI858586638
aI459520912
aI898193300
aI69485846
aI713376499
aI472246425
aI863472282
aI399125922
aI887184804
aI465204773
aI466442413
aI1289927539
aI875911231
aI858449472
aI843565644
aI856618064
aI463205843
aI475148760
aI858933979
aI1254607069
aI541877473
aI856723315
aI861763958
atp698
Rp699
sg12
I6
sg13
g14
(g15
tp700
Rp701
Vhttp://dld.bz/ftGxt
p702
I28
ssg20
Vwant to read romance that makes you shiver amp sigh   lynhornerauthor
p703
sg22
I57
sg23
I9
sg24
I2
sa(dp704
g2
(dp705
g4
I25
sg5
I2
ssg6
I27
sg7
g8
((lp706
I2475142151
aI3053423852
aI2449116444
aI3065008799
aI3064991266
aI2477322915
aI3065897512
aI286823089
aI2437474497
aI2479738054
aI608520402
aI616955987
aI3065791060
aI476207189
aI3065707738
aI2475879131
aI92460124
aI616302694
aI23172966
aI2476608233
aI617183852
aI614798830
aI3065597907
aI613826934
aI614883962
aI2482980731
aI3065877375
atp707
Rp708
sg12
I6
sg13
g14
(g15
tp709
Rp710
Vhttp://dld.bz/eHfEw
p711
I27
ssg20
Vqmadix universal tablet case small amp large adjustable to fit unboxing re
p712
sg22
I58
sg23
I9
sg24
I2
sa(dp713
g2
(dp714
g4
I3
sg5
I24
ssg6
I27
sg7
g8
((lp715
I775345697361190912
aI739474296670720000
aI818852281953173506
aI767756098216554500
aI732538705706094592
aI3212109449
aI3304479251
aI3212799381
aI818823796773818368
aI3046535075
aI793212232205213696
aI3049283884
aI3300234543
aI3401089731
aI3393922246
aI3198761433
aI4829436544
aI818847313116459008
aI3233024092
aI3298911327
aI2816731875
aI2411887724
aI818835460147462144
aI3300897136
aI3306921585
aI3197976827
aI3213136127
atp716
Rp717
sg12
I6
sg13
g14
(g15
tp718
Rp719
Vhttp://dld.bz/fxMqw
p720
I27
ssg20
Vbirmingham city manager gianfranco zola believes premier league money means fa cup is no longer a priority for
p721
sg22
I59
sg23
I9
sg24
I2
sa(dp722
g2
(dp723
g4
I3
sg5
I24
ssg6
I27
sg7
g8
((lp724
I4829436544
aI775345697361190912
aI818852281953173506
aI767756098216554500
aI732538705706094592
aI3212109449
aI3304479251
aI3212799381
aI348007190
aI3198761433
aI818823796773818368
aI3046535075
aI3049283884
aI3300234543
aI1382349145
aI3401089731
aI3393922246
aI4277875161
aI818847313116459008
aI3233024092
aI3298911327
aI739474296670720000
aI818835460147462144
aI3300897136
aI3306921585
aI3197976827
aI3213136127
atp725
Rp726
sg12
I6
sg13
g14
(g15
tp727
Rp728
Vhttp://dld.bz/fxMH7
p729
I27
ssg20
Vjose mourinho has reminded manchester united players of their winning mentality says captain wayne rooney
p730
sg22
I60
sg23
I9
sg24
I2
sa(dp731
g2
(dp732
g4
I3
sg5
I24
ssg6
I27
sg7
g8
((lp733
I462210311
aI466442413
aI858475921
aI862218259
aI69485846
aI2466373656
aI472246425
aI863472282
aI813679002
aI860121374
aI2271688736
aI887184804
aI465204773
aI73986605
aI875799984
aI964986038
aI141189815
aI843608635
aI867306697
aI834526411
aI2510444514
aI15369566
aI863436258
aI475128600
aI713376499
aI964896504
atp734
Rp735
sg12
I6
sg13
g14
(g15
tp736
Rp737
Vhttp://dld.bz/ekZ84
p738
I22
sVhttp://dld.bz/ekZDy
p739
I5
ssg20
Vis hiring a cheap seo company hurting your business
p740
sg22
I61
sg23
I9
sg24
I2
sa(dp741
g2
(dp742
g4
I1
sg5
I25
ssg6
I26
sg7
g8
((lp743
I4829436544
aI775345697361190912
aI818852281953173506
aI767756098216554500
aI732538705706094592
aI3212109449
aI3304479251
aI3212799381
aI739474296670720000
aI3046535075
aI3049283884
aI3300234543
aI3401089731
aI3393922246
aI377631818
aI3198761433
aI818847313116459008
aI3233024092
aI3298911327
aI818823796773818368
aI818835460147462144
aI3300897136
aI3306921585
aI3197976827
aI3213136127
atp744
Rp745
sg12
I6
sg13
g14
(g15
tp746
Rp747
Vhttp://dld.bz/fxMH9
p748
I26
ssg20
Vthe first 100m footballer \u2013 who will it be here are eight contenders to break the transfer fee world record
p749
sg22
I62
sg23
I9
sg24
I2
sa(dp750
g2
(dp751
g4
I0
sg5
I26
ssg6
I26
sg7
g8
((lp752
I1132568707
aI462210311
aI996430604
aI858586638
aI461576749
aI459520912
aI862218259
aI898193300
aI69485846
aI139988522
aI73986605
aI860211505
aI833795767
aI875911231
aI887267017
aI843565644
aI871870045
aI541877473
aI263234033
aI874378994
aI856723315
aI872074100
aI861763958
aI858740989
aI861891199
atp753
Rp754
sg12
I6
sg13
g14
(g15
tp755
Rp756
Vhttp://dld.bz/ekZDr
p757
I7
sVhttp://dld.bz/ekZ8w
p758
I19
ssg20
Vcrafting your narrative
p759
sg22
I63
sg23
I9
sg24
I2
sa(dp760
g2
(dp761
g4
I0
sg5
I26
ssg6
I26
sg7
g8
((lp762
I724814686496133120
aI4240472833
aI470477706
aI2442486667
aI473672642
aI254366865
aI18470293
aI143930390
aI220357400
aI56870561
aI371973035
aI186663729
aI2596663603
aI178925249
aI154266946
aI2442642888
aI181322057
aI4241512394
aI146522578
aI184043347
aI2596308570
aI3009185633
aI3045063267
aI158998654
aI219834366
atp763
Rp764
sg12
I6
sg13
g14
(g15
tp765
Rp766
Vhttps://twitter.com/i/web/status/829611924778319872
p767
I1
sVhttps://twitter.com/i/web/status/829611843035463681
p768
I1
sVhttps://twitter.com/i/web/status/829611910924533761
p769
I1
sVhttps://twitter.com/i/web/status/829611883275677696
p770
I1
sVhttps://twitter.com/i/web/status/829612475817533440
p771
I1
sVhttps://twitter.com/i/web/status/829611890397548545
p772
I1
sVhttps://twitter.com/i/web/status/829611870575292416
p773
I1
sVhttps://twitter.com/i/web/status/829611986048675840
p774
I1
sVhttps://twitter.com/i/web/status/829611863616925696
p775
I1
sVhttps://twitter.com/i/web/status/829612012422455296
p776
I1
sVhttps://twitter.com/i/web/status/829611828099571712
p777
I1
sVhttps://twitter.com/i/web/status/829612000141533185
p778
I1
sVhttps://twitter.com/i/web/status/829611948991983616
p779
I1
sVhttps://twitter.com/i/web/status/829611903706157056
p780
I1
sVhttps://twitter.com/i/web/status/829611851247923200
p781
I1
sVhttps://twitter.com/i/web/status/829612482335498240
p782
I1
sVhttps://twitter.com/i/web/status/829611978146590720
p783
I1
sVhttps://twitter.com/i/web/status/829611896542216192
p784
I1
sVhttps://twitter.com/i/web/status/829611821275426816
p785
I1
sVhttps://twitter.com/i/web/status/829611917383761920
p786
I1
sVhttps://twitter.com/i/web/status/829611836404285440
p787
I1
sVhttps://twitter.com/i/web/status/829611992705019904
p788
I1
sVhttps://twitter.com/i/web/status/829611956264906752
p789
I1
sVhttps://twitter.com/i/web/status/829611936442613761
p790
I1
sVhttps://twitter.com/i/web/status/829611970584252416
p791
I1
sVhttps://twitter.com/i/web/status/829611963617538048
p792
I1
ssg20
Vits industry vendors get global exposure in the connected transportation virtual trade show\u2026
p793
sg22
I64
sg23
I9
sg24
I2
sa(dp794
g2
(dp795
g4
I0
sg5
I26
ssg6
I26
sg7
g8
((lp796
I1360931204
aI898193300
aI475128600
aI1570843675
aI863501084
aI165221664
aI399125922
aI833795767
aI1289927539
aI887222582
aI141189815
aI833669180
aI875911231
aI858977312
aI964986038
aI834526411
aI843565644
aI856618064
aI843593173
aI1254607069
aI887161710
aI874378994
aI713376499
aI863612276
aI856723315
aI604214653
atp797
Rp798
sg12
I6
sg13
g14
(g15
tp799
Rp800
Vhttp://dld.bz/ekZ8Q
p801
I17
sVhttp://dld.bz/ekZDM
p802
I9
ssg20
Vadwords vs organic search which should you use as a business
p803
sg22
I65
sg23
I9
sg24
I2
sa(dp804
g2
(dp805
g4
I23
sg5
I3
ssg6
I26
sg7
g8
((lp806
I2483803653
aI3065651081
aI464331151
aI3065851408
aI61565276
aI434655642
aI3064635808
aI3064508967
aI3065493928
aI2484725212
aI3064985771
aI60238008
aI616139197
aI3065538119
aI437956297
aI451899729
aI3065638108
aI3052148965
aI3052357093
aI23172966
aI435354215
aI2438283368
aI280393073
aI3065335377
aI608518905
aI3065956222
atp807
Rp808
sg12
I6
sg13
g14
(g15
tp809
Rp810
Vhttp://dld.bz/dy6nD
p811
I26
ssg20
Vfollow my cool pictures on instagram
p812
sg22
I66
sg23
I9
sg24
I2
sa(dp813
g2
(dp814
g4
I0
sg5
I26
ssg6
I26
sg7
g8
((lp815
I2504763266
aI1132568707
aI833996298
aI466442413
aI2466373656
aI898193300
aI475128600
aI1570843675
aI461576749
aI858977312
aI860879906
aI73986605
aI811974643
aI887222582
aI887267017
aI920256847
aI1344052178
aI1289927539
aI1254607069
aI2510444514
aI459557733
aI858707821
aI887161710
aI713376499
aI964896504
aI73995257
atp816
Rp817
sg12
I6
sg13
g14
(g15
tp818
Rp819
Vhttp://dld.bz/ekZDN
p820
I10
sVhttp://dld.bz/ekZ8R
p821
I16
ssg20
Vthe juxtaposition of local social media and local search   how do they synergize
p822
sg22
I67
sg23
I9
sg24
I2
sa(dp823
g2
(dp824
g4
I0
sg5
I26
ssg6
I26
sg7
g8
((lp825
I860100739
aI858475921
aI898193300
aI542854170
aI863501084
aI858977312
aI2550433447
aI954220717
aI843608635
aI847642303
aI463308992
aI831420481
aI861763958
aI1344052178
aI475178200
aI871870045
aI541877473
aI863436258
aI475148760
aI858707821
aI874378994
aI872074100
aI69468150
aI964896504
aI858740989
aI861891199
atp826
Rp827
sg12
I6
sg13
g14
(g15
tp828
Rp829
Vhttp://dld.bz/ekZ82
p830
I16
sVhttp://dld.bz/ekZDw
p831
I10
ssg20
Vonline emotional triggers a direct path to human connectivity
p832
sg22
I68
sg23
I9
sg24
I2
sa(dp833
g2
(dp834
g4
I24
sg5
I2
ssg6
I26
sg7
g8
((lp835
I404246401
aI3064904067
aI2436977921
aI2475891467
aI3065706383
aI2475119890
aI3054579486
aI476330992
aI619019556
aI445971015
aI3065826988
aI3064943667
aI401951156
aI3047444917
aI3065792057
aI2483613754
aI2477903933
aI461930439
aI3065765068
aI2484913509
aI3065285866
aI2436302909
aI3065867759
aI3051982448
aI2437271158
atp836
Rp837
sg12
I6
sg13
g14
(g15
tp838
Rp839
Vhttp://dld.bz/etXBJ
p840
I26
ssg20
Vpendlewitches miniwitch youtubeclip see for yourself hereislilly lancashire chavebooks
p841
sg22
I69
sg23
I9
sg24
I2
sa(dp842
g2
(dp843
g4
I0
sg5
I25
ssg6
I25
sg7
g8
((lp844
I475169536
aI1132568707
aI858475921
aI69485846
aI2466373656
aI472246425
aI813679002
aI863501084
aI863472282
aI399125922
aI459534627
aI465204773
aI139988522
aI954220717
aI833795767
aI843608635
aI847642303
aI858449472
aI831420481
aI1027780038
aI463100232
aI2896924835
aI874378994
aI73995257
atp845
Rp846
sg12
I6
sg13
g14
(g15
tp847
Rp848
Vhttp://dld.bz/ekZ88
p849
I21
sVhttp://dld.bz/ekZD5
p850
I4
ssg20
Vthe key to small business success on twitter is local
p851
sg22
I70
sg23
I9
sg24
I2
sa(dp852
g2
(dp853
g4
I1
sg5
I24
ssg6
I25
sg7
g8
((lp854
I702005349327327232
aI860100739
aI461576749
aI858475921
aI862218259
aI475128600
aI924612380
aI465204773
aI475156011
aI73986605
aI875799984
aI632388280
aI847642303
aI867306697
aI843565644
aI283560526
aI2466373656
aI464871521
aI2510444514
aI858707821
aI811974643
aI872074100
aI964896504
aI73995257
aI604214653
atp855
Rp856
sg12
I6
sg13
g14
(g15
tp857
Rp858
Vhttp://dld.bz/ekZ8x
p859
I18
sVhttp://dld.bz/ekZDt
p860
I7
ssg20
Vemotional participatory level   learning from the millennial mindset
p861
sg22
I71
sg23
I9
sg24
I2
sa(dp862
g2
(dp863
g4
I1
sg5
I24
ssg6
I25
sg7
g8
((lp864
I4829436544
aI775345697361190912
aI818852281953173506
aI767756098216554500
aI732538705706094592
aI3212109449
aI3304479251
aI3212799381
aI818823796773818368
aI3046535075
aI3049283884
aI3300234543
aI3401089731
aI3393922246
aI3198761433
aI818847313116459008
aI3233024092
aI3298911327
aI2816731875
aI739474296670720000
aI818835460147462144
aI3300897136
aI3306921585
aI3197976827
aI3213136127
atp865
Rp866
sg12
I6
sg13
g14
(g15
tp867
Rp868
Vhttp://dld.bz/fxMhF
p869
I25
ssg20
Varsenal fc transfer news arsene wenger faces transfer disappointment over andrea belotti as real madrid set f
p870
sg22
I72
sg23
I9
sg24
I2
sa(dp871
g2
(dp872
g4
I0
sg5
I25
ssg6
I25
sg7
g8
((lp873
I775345697361190912
aI739474296670720000
aI818852281953173506
aI767756098216554500
aI818823796773818368
aI3212109449
aI3304479251
aI3212799381
aI732538705706094592
aI3049283884
aI3300234543
aI3401089731
aI3393922246
aI3046535075
aI3198761433
aI4829436544
aI818847313116459008
aI3233024092
aI3298911327
aI818835460147462144
aI3300897136
aI3306921585
aI3197976827
aI3213136127
atp874
Rp875
sg12
I6
sg13
g14
(g15
tp876
Rp877
Vhttp://dld.bz/fxKF4
p878
I25
ssg20
Vliverpool star adam lallana could be dropped for mustwin tottenham clash talksport told
p879
sg22
I73
sg23
I9
sg24
I2
sa(dp880
g2
(dp881
g4
I1
sg5
I24
ssg6
I25
sg7
g8
((lp882
I4829436544
aI775345697361190912
aI818852281953173506
aI767756098216554500
aI732538705706094592
aI3212109449
aI3304479251
aI3212799381
aI818823796773818368
aI3046535075
aI3049283884
aI3300234543
aI3401089731
aI3393922246
aI396920787
aI3198761433
aI818847313116459008
aI3233024092
aI3298911327
aI739474296670720000
aI818835460147462144
aI3300897136
aI3306921585
aI3197976827
aI3213136127
atp883
Rp884
sg12
I6
sg13
g14
(g15
tp885
Rp886
Vhttp://dld.bz/fxKA8
p887
I25
ssg20
Vtransfer rumours and paper review \u2013 thursday february 9 lallanas new liverpool contract indemand van dijk
p888
sg22
I74
sg23
I9
sg24
I2
sa(dp889
g2
(dp890
g4
I0
sg5
I25
ssg6
I25
sg7
g8
((lp891
I860100739
aI69485846
aI833996298
aI996430604
aI459520912
aI860851094
aI863501084
aI2896924835
aI887184804
aI139988522
aI887222582
aI833669180
aI1027780038
aI464871521
aI867306697
aI843565644
aI459586511
aI856618064
aI459534627
aI871870045
aI541877473
aI863436258
aI459557733
aI887161710
aI713376499
atp892
Rp893
sg12
I6
sg13
g14
(g15
tp894
Rp895
Vhttp://dld.bz/ekZ8X
p896
I17
sVhttp://dld.bz/ekZDU
p897
I8
ssg20
Vnew business relocating moving opening a new branch   comprehensive all in one business package
p898
sg22
I75
sg23
I9
sg24
I2
sa(dp899
g2
(dp900
g4
I1
sg5
I24
ssg6
I25
sg7
g8
((lp901
I775345697361190912
aI732538705706094592
aI818852281953173506
aI767756098216554500
aI739474296670720000
aI3212109449
aI3304479251
aI3212799381
aI3046535075
aI3049283884
aI3300234543
aI3401089731
aI3393922246
aI1237542732
aI3198761433
aI4829436544
aI818847313116459008
aI3233024092
aI3298911327
aI818823796773818368
aI818835460147462144
aI3306921585
aI3197976827
aI3213136127
atp902
Rp903
sg12
I6
sg13
g14
(g15
tp904
Rp905
Vhttp://dld.bz/fxMUD
p906
I25
ssg20
Vthis arsenal ace is off the pace when compared to chelsea stars boss claims
p907
sg22
I76
sg23
I9
sg24
I2
sa(dp908
g2
(dp909
g4
I1
sg5
I24
ssg6
I25
sg7
g8
((lp910
I4829436544
aI775345697361190912
aI818852281953173506
aI767756098216554500
aI818847313116459008
aI3212109449
aI3304479251
aI3212799381
aI1382349145
aI739474296670720000
aI3046535075
aI3049283884
aI3300234543
aI3401089731
aI3393922246
aI3198761433
aI3233024092
aI3298911327
aI818823796773818368
aI732538705706094592
aI818835460147462144
aI3300897136
aI3306921585
aI3197976827
aI3213136127
atp911
Rp912
sg12
I6
sg13
g14
(g15
tp913
Rp914
Vhttp://dld.bz/fxMH8
p915
I25
ssg20
Vtottenham fc news mauricio pochettino confirms return of steve hitchen as the premier league clubs chief scout
p916
sg22
I77
sg23
I9
sg24
I2
sa(dp917
g2
(dp918
g4
I1
sg5
I24
ssg6
I25
sg7
g8
((lp919
I775345697361190912
aI732538705706094592
aI818852281953173506
aI767756098216554500
aI739474296670720000
aI3212109449
aI3304479251
aI3212799381
aI3046535075
aI3907840167
aI3049283884
aI3300234543
aI3401089731
aI3393922246
aI3198761433
aI4829436544
aI818847313116459008
aI3233024092
aI3298911327
aI818823796773818368
aI818835460147462144
aI3300897136
aI3306921585
aI3197976827
aI3213136127
atp920
Rp921
sg12
I6
sg13
g14
(g15
tp922
Rp923
Vhttp://dld.bz/fxMq8
p924
I25
ssg20
Vjack wilshere set for arsenal return in the summer as arsene wenger denies permanent bournemouth offer
p925
sg22
I78
sg23
I9
sg24
I2
sa(dp926
g2
(dp927
g4
I1
sg5
I24
ssg6
I25
sg7
g8
((lp928
I4829436544
aI775345697361190912
aI818852281953173506
aI767756098216554500
aI732538705706094592
aI3212109449
aI3304479251
aI3212799381
aI818823796773818368
aI3046535075
aI3049283884
aI3300234543
aI3401089731
aI3393922246
aI3198761433
aI818847313116459008
aI3233024092
aI3298911327
aI2816731875
aI739474296670720000
aI818835460147462144
aI3300897136
aI3306921585
aI3197976827
aI3213136127
atp929
Rp930
sg12
I6
sg13
g14
(g15
tp931
Rp932
Vhttp://dld.bz/fxMhH
p933
I25
ssg20
Vtransfer news andreas samaris in line for new benfica deal after sunderland failed with january move
p934
sg22
I79
sg23
I9
sg24
I2
sa(dp935
g2
(dp936
g4
I3
sg5
I22
ssg6
I25
sg7
g8
((lp937
I732538705706094592
aI739474296670720000
aI818852281953173506
aI818823796773818368
aI3212109449
aI3304479251
aI3212799381
aI3046535075
aI2599000198
aI3049283884
aI3300234543
aI3401089731
aI3393922246
aI315710919
aI2279850705
aI3198761433
aI4829436544
aI818847313116459008
aI3233024092
aI3298911327
aI818835460147462144
aI3300897136
aI3306921585
aI3197976827
aI3213136127
atp938
Rp939
sg12
I6
sg13
g14
(g15
tp940
Rp941
Vhttp://dld.bz/fxMq6
p942
I25
ssg20
Vcameroon fly up fifa ranking after africa cup of nations triumph
p943
sg22
I80
sg23
I9
sg24
I2
sa(dp944
g2
(dp945
g4
I7
sg5
I18
ssg6
I25
sg7
g8
((lp946
I1463111430
aI1392961436
aI1389878540
aI1251825294
aI1206227095
aI764803099
aI1197786908
aI1228490653
aI1381908384
aI1235999401
aI1392985646
aI1206431155
aI1377171380
aI3055026106
aI66126399
aI1146900384
aI103596355
aI3375496901
aI1291412551
aI1275349332
aI918220374
aI2994849902
aI1684524144
aI1449953449
aI2438023636
atp947
Rp948
sg12
I6
sg13
g14
(g15
tp949
Rp950
Vhttp://dld.bz/fjSXg
p951
I25
ssg20
Vnew penis implant will alert your cellphone when your man is cheating
p952
sg22
I81
sg23
I9
sg24
I2
sa(dp953
g2
(dp954
g4
I1
sg5
I24
ssg6
I25
sg7
g8
((lp955
I775345697361190912
aI4829436544
aI818852281953173506
aI767756098216554500
aI732538705706094592
aI3212109449
aI3304479251
aI3212799381
aI739474296670720000
aI3046535075
aI3049283884
aI3300234543
aI3401089731
aI3393922246
aI396920787
aI3198761433
aI818847313116459008
aI3233024092
aI3298911327
aI818823796773818368
aI818835460147462144
aI3300897136
aI3306921585
aI3197976827
aI3213136127
atp956
Rp957
sg12
I6
sg13
g14
(g15
tp958
Rp959
Vhttp://dld.bz/fxKWZ
p960
I25
ssg20
Vcoral daily download would you take this 20001 leicester bet
p961
sg22
I82
sg23
I9
sg24
I2
sa(dp962
g2
(dp963
g4
I0
sg5
I24
ssg6
I24
sg7
g8
((lp964
I775345697361190912
aI4829436544
aI818852281953173506
aI767756098216554500
aI732538705706094592
aI3212109449
aI3304479251
aI3212799381
aI739474296670720000
aI3046535075
aI3049283884
aI3300234543
aI3401089731
aI3393922246
aI3198761433
aI818847313116459008
aI3233024092
aI3298911327
aI818823796773818368
aI818835460147462144
aI3300897136
aI3306921585
aI3197976827
aI3213136127
atp965
Rp966
sg12
I6
sg13
g14
(g15
tp967
Rp968
Vhttp://dld.bz/fxKWF
p969
I24
ssg20
Vyohan cabaye insists he has no regrets over swapping french champions paris saintgermain for premier league s
p970
sg22
I83
sg23
I9
sg24
I2
sa(dp971
g2
(dp972
g4
I2
sg5
I22
ssg6
I24
sg7
g8
((lp973
I818835460147462144
aI732538705706094592
aI818852281953173506
aI739474296670720000
aI3212109449
aI3304479251
aI3212799381
aI3300897136
aI3046535075
aI3049283884
aI3300234543
aI3401089731
aI3393922246
aI3198761433
aI4829436544
aI818847313116459008
aI3233024092
aI3298911327
aI818823796773818368
aI2731429358
aI2213990256
aI3306921585
aI3197976827
aI3213136127
atp974
Rp975
sg12
I6
sg13
g14
(g15
tp976
Rp977
Vhttp://dld.bz/fxMqx
p978
I24
ssg20
Vwenger insists his future is not at stake after calls to leave arsenal
p979
sg22
I84
sg23
I9
sg24
I2
sa(dp980
g2
(dp981
g4
I3
sg5
I21
ssg6
I24
sg7
g8
((lp982
I2270325632
aI829150329543544832
aI2270158088
aI626454930
aI620848025
aI626463684
aI2270194332
aI626529828
aI626406962
aI619922354
aI445976375
aI2270235066
aI721959740
aI721956158
aI2270175679
aI620817344
aI606282308
aI469049419
aI620975949
aI620827349
aI720538722
aI618204018
aI603722099
aI897062142
atp983
Rp984
sg12
I6
sg13
g14
(g15
tp985
Rp986
Vhttp://dld.bz/fxM93
p987
I24
ssg20
Vbibi bourelly \u2013 ballin official music video bibibourelly musicnews
p988
sg22
I85
sg23
I9
sg24
I2
sa(dp989
g2
(dp990
g4
I1
sg5
I23
ssg6
I24
sg7
g8
((lp991
I475169536
aI637015681
aI462210311
aI996430604
aI858586638
aI472246425
aI399125922
aI465204773
aI2550433447
aI461576749
aI875799984
aI860211505
aI833795767
aI866581567
aI463308992
aI69468150
aI283560526
aI459586511
aI475148760
aI858933979
aI858707821
aI887161710
aI861763958
aI847642303
atp992
Rp993
sg12
I6
sg13
g14
(g15
tp994
Rp995
Vhttp://dld.bz/ekZD2
p996
I6
sVhttp://dld.bz/dWa65
p997
I18
ssg20
Vtweets that begin with the  sign can only be seen by mutual followers
p998
sg22
I86
sg23
I9
sg24
I2
sa(dp999
g2
(dp1000
g4
I2
sg5
I22
ssg6
I24
sg7
g8
((lp1001
I1264688389
aI1463111430
aI1404979082
aI1403478031
aI1435527836
aI1318207902
aI1264612003
aI1167548456
aI1392961436
aI1392985646
aI1278571826
aI1266061110
aI1256049085
aI1291412551
aI1197786908
aI1259533651
aI1275349332
aI3104455267
aI1272680167
aI1201429482
aI1652262638
aI1204660975
aI1483385845
aI1400075988
atp1002
Rp1003
sg12
I6
sg13
g14
(g15
tp1004
Rp1005
Vhttp://dld.bz/fjSXf
p1006
I24
ssg20
Vdo you know what your birthstone means
p1007
sg22
I87
sg23
I9
sg24
I2
sa(dp1008
g2
(dp1009
g4
I0
sg5
I24
ssg6
I24
sg7
g8
((lp1010
I4829436544
aI775345697361190912
aI818852281953173506
aI767756098216554500
aI732538705706094592
aI3212109449
aI3304479251
aI3212799381
aI739474296670720000
aI3046535075
aI3049283884
aI3300234543
aI3401089731
aI3393922246
aI3198761433
aI818847313116459008
aI3233024092
aI3298911327
aI818823796773818368
aI818835460147462144
aI3300897136
aI3306921585
aI3197976827
aI3213136127
atp1011
Rp1012
sg12
I6
sg13
g14
(g15
tp1013
Rp1014
Vhttp://dld.bz/fxMza
p1015
I24
ssg20
Varsene wenger calls on everyone at arsenal to be united after wretched run of results dashes title hopes
p1016
sg22
I88
sg23
I9
sg24
I2
sa(dp1017
g2
(dp1018
g4
I2
sg5
I22
ssg6
I24
sg7
g8
((lp1019
I732538705706094592
aI739474296670720000
aI818852281953173506
aI818823796773818368
aI3212109449
aI3304479251
aI3212799381
aI1382349145
aI3300897136
aI3046535075
aI3049283884
aI3300234543
aI3401089731
aI3393922246
aI3198761433
aI4829436544
aI818847313116459008
aI3233024092
aI3298911327
aI818835460147462144
aI2213990256
aI3306921585
aI3197976827
aI3213136127
atp1020
Rp1021
sg12
I6
sg13
g14
(g15
tp1022
Rp1023
Vhttp://dld.bz/fxM8g
p1024
I24
ssg20
Varsenal have three worldclass goalkeepers  wenger dismisses hart rumours
p1025
sg22
I89
sg23
I9
sg24
I2
sa(dp1026
g2
(dp1027
g4
I2
sg5
I22
ssg6
I24
sg7
g8
((lp1028
I732538705706094592
aI739474296670720000
aI818852281953173506
aI818823796773818368
aI3212109449
aI3304479251
aI3212799381
aI3046535075
aI3049283884
aI3300234543
aI309219593
aI3401089731
aI3393922246
aI3198761433
aI4829436544
aI818847313116459008
aI3233024092
aI3298911327
aI816131373362651136
aI818835460147462144
aI3300897136
aI3306921585
aI3197976827
aI3213136127
atp1029
Rp1030
sg12
I6
sg13
g14
(g15
tp1031
Rp1032
Vhttp://dld.bz/fxM8a
p1033
I24
ssg20
Vvan gaal never believed in me  reborn man utd star jones lauds mourinho
p1034
sg22
I90
sg23
I9
sg24
I2
sa(dp1035
g2
(dp1036
g4
I0
sg5
I24
ssg6
I24
sg7
g8
((lp1037
I775345697361190912
aI739474296670720000
aI818852281953173506
aI767756098216554500
aI818823796773818368
aI3212109449
aI3304479251
aI3212799381
aI732538705706094592
aI3049283884
aI3300234543
aI3401089731
aI3393922246
aI3046535075
aI3198761433
aI4829436544
aI818847313116459008
aI3233024092
aI3298911327
aI818835460147462144
aI3300897136
aI3306921585
aI3197976827
aI3213136127
atp1038
Rp1039
sg12
I6
sg13
g14
(g15
tp1040
Rp1041
Vhttp://dld.bz/fxMq7
p1042
I24
ssg20
Vexclusive  romelu lukaku will sign new everton deal and will not leave in the summer agent mino raiola tells
p1043
sg22
I91
sg23
I9
sg24
I2
sa(dp1044
g2
(dp1045
g4
I0
sg5
I24
ssg6
I24
sg7
g8
((lp1046
I1132568707
aI858586638
aI459520912
aI858475921
aI898193300
aI69485846
aI863472282
aI542854170
aI813679002
aI399125922
aI887184804
aI139988522
aI466442413
aI632388280
aI833669180
aI847642303
aI463308992
aI831420481
aI1027780038
aI463100232
aI856618064
aI1344052178
aI863436258
aI856723315
atp1047
Rp1048
sg12
I6
sg13
g14
(g15
tp1049
Rp1050
Vhttp://dld.bz/ftHAw
p1051
I24
ssg20
Vbrand partnership w scientist formulated liposome delivery non gmo vegan   vasayodesiclay
p1052
sg22
I92
sg23
I9
sg24
I2
sa(dp1053
g2
(dp1054
g4
I2
sg5
I22
ssg6
I24
sg7
g8
((lp1055
I732538705706094592
aI739474296670720000
aI818852281953173506
aI818823796773818368
aI3212109449
aI3304479251
aI3212799381
aI3046535075
aI3049283884
aI3300234543
aI758046519094312960
aI3401089731
aI3393922246
aI3198761433
aI4829436544
aI818847313116459008
aI3233024092
aI3298911327
aI177314531
aI818835460147462144
aI3300897136
aI3306921585
aI3197976827
aI3213136127
atp1056
Rp1057
sg12
I6
sg13
g14
(g15
tp1058
Rp1059
Vhttp://dld.bz/fxMq5
p1060
I24
ssg20
Vsturridge can lead liverpool to topfour finish says rush
p1061
sg22
I93
sg23
I9
sg24
I2
sa(dp1062
g2
(dp1063
g4
I1
sg5
I23
ssg6
I24
sg7
g8
((lp1064
I637015681
aI2504763266
aI860100739
aI1360931204
aI833996298
aI858475921
aI1132568707
aI475128600
aI863501084
aI887184804
aI139988522
aI461576749
aI860211505
aI141189815
aI875911231
aI831420481
aI833795767
aI459586511
aI2466373656
aI475178200
aI1254607069
aI464871521
aI263234033
aI861891199
atp1065
Rp1066
sg12
I6
sg13
g14
(g15
tp1067
Rp1068
Vhttp://dld.bz/ekZDz
p1069
I8
sVhttp://dld.bz/ekZ85
p1070
I16
ssg20
Vthe notion that social media is free is so 2009
p1071
sg22
I94
sg23
I9
sg24
I2
sa(dp1072
g2
(dp1073
g4
I22
sg5
I2
ssg6
I24
sg7
g8
((lp1074
I2448274561
aI3052665091
aI2436235407
aI3065873171
aI2437618798
aI277886616
aI2448151963
aI3053767453
aI618484903
aI2486756777
aI456364088
aI3065264062
aI3053613522
aI3053078742
aI451894235
aI61565276
aI2475544797
aI3051797342
aI23172966
aI2446523623
aI433991079
aI3052238190
aI433781492
aI456497145
atp1075
Rp1076
sg12
I6
sg13
g14
(g15
tp1077
Rp1078
Vhttp://dld.bz/dMCjt
p1079
I24
ssg20
Vadata pv110 power bank unboxing review  adatatechnology
p1080
sg22
I95
sg23
I9
sg24
I2
sa(dp1081
g2
(dp1082
g4
I1
sg5
I22
ssg6
I23
sg7
g8
((lp1083
I732538705706094592
aI739474296670720000
aI818852281953173506
aI818823796773818368
aI3212109449
aI3304479251
aI3212799381
aI3046535075
aI3049283884
aI3300234543
aI3401089731
aI3393922246
aI3198761433
aI4829436544
aI818847313116459008
aI3233024092
aI3298911327
aI3944562796
aI818835460147462144
aI3300897136
aI3306921585
aI3197976827
aI3213136127
atp1084
Rp1085
sg12
I6
sg13
g14
(g15
tp1086
Rp1087
Vhttp://dld.bz/fxM8j
p1088
I23
ssg20
Vronaldo picks up his son from school in a scary disguise
p1089
sg22
I96
sg23
I9
sg24
I2
sa(dp1090
g2
(dp1091
g4
I1
sg5
I22
ssg6
I23
sg7
g8
((lp1092
I732538705706094592
aI739474296670720000
aI818852281953173506
aI818823796773818368
aI3212109449
aI3304479251
aI3212799381
aI3046535075
aI3049283884
aI3300234543
aI3401089731
aI3393922246
aI2900646855
aI3198761433
aI4829436544
aI818847313116459008
aI3233024092
aI3298911327
aI818835460147462144
aI3300897136
aI3306921585
aI3197976827
aI3213136127
atp1093
Rp1094
sg12
I6
sg13
g14
(g15
tp1095
Rp1096
Vhttp://dld.bz/fxMU7
p1097
I23
ssg20
Vman utd target lacazette destroyed psychologically by fan booing  aulas
p1098
sg22
I97
sg23
I9
sg24
I2
sa(dp1099
g2
(dp1100
g4
I1
sg5
I22
ssg6
I23
sg7
g8
((lp1101
I732538705706094592
aI739474296670720000
aI818852281953173506
aI818823796773818368
aI2170116744
aI3212109449
aI3304479251
aI3212799381
aI3046535075
aI3049283884
aI3300234543
aI3401089731
aI3393922246
aI3198761433
aI4829436544
aI818847313116459008
aI3233024092
aI3298911327
aI818835460147462144
aI3300897136
aI3306921585
aI3197976827
aI3213136127
atp1102
Rp1103
sg12
I6
sg13
g14
(g15
tp1104
Rp1105
Vhttp://dld.bz/fxK4b
p1106
I23
ssg20
Vliverpool team news injuries suspensions and lineup vs tottenham
p1107
sg22
I98
sg23
I9
sg24
I2
sa(dp1108
g2
(dp1109
g4
I1
sg5
I22
ssg6
I23
sg7
g8
((lp1110
I732538705706094592
aI739474296670720000
aI818852281953173506
aI818823796773818368
aI3212109449
aI3304479251
aI3212799381
aI3046535075
aI3049283884
aI3300234543
aI83650626
aI3401089731
aI3393922246
aI3198761433
aI4829436544
aI818847313116459008
aI3233024092
aI3298911327
aI818835460147462144
aI3300897136
aI3306921585
aI3197976827
aI3213136127
atp1111
Rp1112
sg12
I6
sg13
g14
(g15
tp1113
Rp1114
Vhttp://dld.bz/fxKWR
p1115
I23
ssg20
Vcostas desperate wage bid wont work with bayern says hoeness
p1116
sg22
I99
sg23
I9
sg24
I2
sa(dp1117
g2
(dp1118
g4
I21
sg5
I2
ssg6
I23
sg7
g8
((lp1119
I277902982
aI3054493292
aI404263947
aI3065678861
aI3065954836
aI434057753
aI3065043610
aI305645211
aI288176288
aI3065869745
aI2480644661
aI3054769976
aI3065673785
aI464244419
aI3064927941
aI433991896
aI92460124
aI23172966
aI614741096
aI2477560811
aI414739180
aI3065667183
aI617297022
atp1120
Rp1121
sg12
I6
sg13
g14
(g15
tp1122
Rp1123
Vhttp://dld.bz/dGfAg
p1124
I23
ssg20
Vmaverix urban spirit battery powered skateboard review  maverixusa
p1125
sg22
I100
sg23
I9
sg24
I2
sa(dp1126
g2
(dp1127
g4
I0
sg5
I23
ssg6
I23
sg7
g8
((lp1128
I463308992
aI2504763266
aI1132568707
aI833996298
aI860851094
aI813679002
aI863472282
aI860121374
aI2896924835
aI954220717
aI860211505
aI858449472
aI831420481
aI834526411
aI843565644
aI459586511
aI463205843
aI858933979
aI541877473
aI459557733
aI713376499
aI863612276
aI73995257
atp1129
Rp1130
sg12
I6
sg13
g14
(g15
tp1131
Rp1132
Vhttp://dld.bz/ekZD6
p1133
I8
sVhttp://dld.bz/ekZ89
p1134
I15
ssg20
Vwe shall pay any price   in order to assure the survival and the success of liberty
p1135
sg22
I101
sg23
I9
sg24
I2
sa(dp1136
g2
(dp1137
g4
I22
sg5
I1
ssg6
I23
sg7
g8
((lp1138
I715493763460640770
aI451982474
aI291725451
aI440785168
aI280442263
aI412995096
aI286828071
aI279958324
aI435334198
aI412209081
aI275971259
aI406900286
aI275987007
aI135143872
aI404262211
aI279965898
aI433715028
aI426219353
aI294511200
aI277890547
aI303082580
aI3288020730
aI272407675
atp1139
Rp1140
sg12
I6
sg13
g14
(g15
tp1141
Rp1142
Vhttp://dld.bz/fn4ZA
p1143
I23
ssg20
Vhammock swing chair  price 5995    rt follow love giftspiration
p1144
sg22
I102
sg23
I9
sg24
I2
sa(dp1145
g2
(dp1146
g4
I3
sg5
I20
ssg6
I23
sg7
g8
((lp1147
I781446547003277312
aI973717639
aI973516176
aI973688472
aI973711004
aI973551138
aI973716391
aI2687981096
aI973528242
aI81332021
aI973688886
aI973704901
aI973696710
aI973688010
aI973705435
aI973698530
aI973704955
aI973698278
aI973698920
aI973526522
aI3226951291
aI973714687
atp1148
Rp1149
sg12
I6
sg13
g14
(g15
tp1150
Rp1151
Vhttp://dld.bz/dBzrE
p1152
I23
ssg20
Vwatch heaven 2 hell
p1153
sg22
I103
sg23
I9
sg24
I2
sa(dp1154
g2
(dp1155
g4
I1
sg5
I22
ssg6
I23
sg7
g8
((lp1156
I996430604
aI954220717
aI542854170
aI924612380
aI858977312
aI860879906
aI863501084
aI139988522
aI466442413
aI871870045
aI860211505
aI833795767
aI843608635
aI463308992
aI1027780038
aI867306697
aI834526411
aI3810104655
aI856618064
aI858933979
aI1254607069
aI863436258
aI856723315
atp1157
Rp1158
sg12
I6
sg13
g14
(g15
tp1159
Rp1160
Vhttp://dld.bz/ekZDF
p1161
I7
sVhttp://dld.bz/ekZ8J
p1162
I16
ssg20
Vpossibly the single most important power we have the power of choice
p1163
sg22
I104
sg23
I9
sg24
I2
sa(dp1164
g2
(dp1165
g4
I20
sg5
I3
ssg6
I23
sg7
g8
((lp1166
I755588092497580032
aI757764801871302656
aI748886306785206272
aI1380816649
aI1646999972
aI2213133199
aI14125848
aI1922469668
aI20113542
aI1391237671
aI2865837481
aI826856717715648512
aI2802939564
aI4081106480
aI4855679932
aI18460100
aI488803791
aI2167133348
aI154650715
aI469947749
aI361637477
aI2540882036
aI804109814
atp1167
Rp1168
sg12
I6
sg13
g14
(g15
tp1169
Rp1170
Vhttp://dld.bz/fxK5m
p1171
I23
ssg20
Vhypocrite corey booker votes against devos two years after praising her to the skies
p1172
sg22
I105
sg23
I9
sg24
I2
sa(dp1173
g2
(dp1174
g4
I22
sg5
I1
ssg6
I23
sg7
g8
((lp1175
I3049870081
aI430900994
aI3065751941
aI291764742
aI616488969
aI3065460123
aI3051773856
aI619185819
aI2436234149
aI464485672
aI3065779113
aI3051538346
aI617168557
aI426186033
aI3065904821
aI464365409
aI23172966
aI616952806
aI3052579303
aI2483188845
aI3065791215
aI3065865203
aI3065686954
atp1176
Rp1177
sg12
I6
sg13
g14
(g15
tp1178
Rp1179
Vhttp://dld.bz/eQppv
p1180
I23
ssg20
Vcome circle us on the google page for the chris voss show  we got great stuff up daily
p1181
sg22
I106
sg23
I9
sg24
I2
sa(dp1182
g2
(dp1183
g4
I1
sg5
I22
ssg6
I23
sg7
g8
((lp1184
I732538705706094592
aI739474296670720000
aI818852281953173506
aI818823796773818368
aI2170116744
aI3212109449
aI3304479251
aI3212799381
aI3046535075
aI3049283884
aI3300234543
aI3401089731
aI3393922246
aI3198761433
aI4829436544
aI818847313116459008
aI3233024092
aI3298911327
aI818835460147462144
aI3300897136
aI3306921585
aI3197976827
aI3213136127
atp1185
Rp1186
sg12
I6
sg13
g14
(g15
tp1187
Rp1188
Vhttp://dld.bz/fxK3Z
p1189
I23
ssg20
Vbetting man utd complete favourities to grab griezmann
p1190
sg22
I107
sg23
I9
sg24
I2
sa(dp1191
g2
(dp1192
g4
I1
sg5
I22
ssg6
I23
sg7
g8
((lp1193
I732538705706094592
aI739474296670720000
aI818852281953173506
aI818823796773818368
aI3212109449
aI3304479251
aI3212799381
aI3046535075
aI3049283884
aI3300234543
aI3401089731
aI3393922246
aI396920787
aI3198761433
aI4829436544
aI818847313116459008
aI3233024092
aI3298911327
aI818835460147462144
aI3300897136
aI3306921585
aI3197976827
aI3213136127
atp1194
Rp1195
sg12
I6
sg13
g14
(g15
tp1196
Rp1197
Vhttp://dld.bz/fxKFC
p1198
I23
ssg20
Vherrera man utd want top four over europa league
p1199
sg22
I108
sg23
I9
sg24
I2
sa(dp1200
g2
(dp1201
g4
I21
sg5
I2
ssg6
I23
sg7
g8
((lp1202
I465984389
aI3065744145
aI2485104921
aI291764253
aI3065230629
aI433754547
aI3065663931
aI2437043260
aI2489808785
aI3035245380
aI3046200782
aI613738199
aI617616728
aI2477572444
aI3064870623
aI275383519
aI2483960417
aI23172966
aI23183591
aI2480949352
aI3065603049
aI2487227375
aI2489633393
atp1203
Rp1204
sg12
I6
sg13
g14
(g15
tp1205
Rp1206
Vhttp://dld.bz/cRtgQ
p1207
I23
ssg20
Vapple iphone 5c vs motorola moto x which is faster better benchmark atampt   via youtube
p1208
sg22
I109
sg23
I9
sg24
I2
sa(dp1209
g2
(dp1210
g4
I1
sg5
I22
ssg6
I23
sg7
g8
((lp1211
I732538705706094592
aI739474296670720000
aI818852281953173506
aI818823796773818368
aI3212109449
aI3304479251
aI3212799381
aI3046535075
aI3049283884
aI3300234543
aI3401089731
aI3393922246
aI3198761433
aI4829436544
aI818847313116459008
aI3233024092
aI3298911327
aI2816731875
aI818835460147462144
aI3300897136
aI3306921585
aI3197976827
aI3213136127
atp1212
Rp1213
sg12
I6
sg13
g14
(g15
tp1214
Rp1215
Vhttp://dld.bz/fxK4c
p1216
I23
ssg20
Vvideo payet nets free kick in marseille victory
p1217
sg22
I110
sg23
I9
sg24
I2
sa(dp1218
g2
(dp1219
g4
I1
sg5
I22
ssg6
I23
sg7
g8
((lp1220
I732538705706094592
aI739474296670720000
aI818852281953173506
aI818823796773818368
aI3212109449
aI3304479251
aI3212799381
aI3300897136
aI3046535075
aI3049283884
aI3300234543
aI3401089731
aI3393922246
aI3198761433
aI4829436544
aI818847313116459008
aI3233024092
aI3298911327
aI818835460147462144
aI2213990256
aI3306921585
aI3197976827
aI3213136127
atp1221
Rp1222
sg12
I6
sg13
g14
(g15
tp1223
Rp1224
Vhttp://dld.bz/fxKFE
p1225
I23
ssg20
Varsenal v hull city betting back a typically open game at the emirates
p1226
sg22
I111
sg23
I9
sg24
I2
sa(dp1227
g2
(dp1228
g4
I3
sg5
I19
ssg6
I22
sg7
g8
((lp1229
I794113611841015808
aI973717639
aI973516176
aI973688472
aI3016004248
aI973711004
aI973551138
aI973716391
aI973528242
aI81332021
aI973688886
aI973704901
aI973696710
aI973688010
aI973705435
aI482226529
aI973698530
aI973698278
aI973698920
aI973526522
aI973704955
aI973714687
atp1230
Rp1231
sg12
I6
sg13
g14
(g15
tp1232
Rp1233
Vhttp://dld.bz/dBzrC
p1234
I22
ssg20
Vthe rising vol 1 available for download
p1235
sg22
I112
sg23
I9
sg24
I2
sa(dp1236
g2
(dp1237
g4
I21
sg5
I1
ssg6
I22
sg7
g8
((lp1238
I3065714693
aI2479357960
aI3065656467
aI3054105109
aI439620246
aI3051577626
aI275384349
aI452731823
aI3065893936
aI3065637814
aI3064395575
aI3064848058
aI3054731202
aI471787591
aI2483436983
aI3065760093
aI2485592289
aI23172966
aI615072745
aI615351918
aI3065832562
aI2436340601
atp1239
Rp1240
sg12
I6
sg13
g14
(g15
tp1241
Rp1242
Vhttp://dld.bz/eQppu
p1243
I22
ssg20
Vmeasure your pinterest pinreach pinterest influence analytics and clout scoring review
p1244
sg22
I113
sg23
I9
sg24
I2
sa(dp1245
g2
(dp1246
g4
I0
sg5
I22
ssg6
I22
sg7
g8
((lp1247
I732538705706094592
aI739474296670720000
aI818852281953173506
aI818823796773818368
aI3212109449
aI3304479251
aI3212799381
aI3046535075
aI3049283884
aI3300234543
aI3401089731
aI3393922246
aI3198761433
aI4829436544
aI818847313116459008
aI3233024092
aI3298911327
aI818835460147462144
aI3300897136
aI3306921585
aI3197976827
aI3213136127
atp1248
Rp1249
sg12
I6
sg13
g14
(g15
tp1250
Rp1251
Vhttp://dld.bz/fxMUg
p1252
I22
ssg20
Vatletico madrid confirm godin injury
p1253
sg22
I114
sg23
I9
sg24
I2
sa(dp1254
g2
(dp1255
g4
I0
sg5
I22
ssg6
I22
sg7
g8
((lp1256
I732538705706094592
aI739474296670720000
aI818852281953173506
aI818823796773818368
aI3212109449
aI3304479251
aI3212799381
aI3046535075
aI3049283884
aI3300234543
aI3401089731
aI3393922246
aI3198761433
aI4829436544
aI818847313116459008
aI3233024092
aI3298911327
aI818835460147462144
aI3300897136
aI3306921585
aI3197976827
aI3213136127
atp1257
Rp1258
sg12
I6
sg13
g14
(g15
tp1259
Rp1260
Vhttp://dld.bz/fxKFB
p1261
I22
ssg20
Vmanchester united v watford betting mourinhos men to march on
p1262
sg22
I115
sg23
I9
sg24
I2
sa(dp1263
g2
(dp1264
g4
I1
sg5
I21
ssg6
I22
sg7
g8
((lp1265
I1132568707
aI862218259
aI860121374
aI165221664
aI475156011
aI632388280
aI833669180
aI463100232
aI834526411
aI283560526
aI920256847
aI856618064
aI843593173
aI475148760
aI871870045
aI464871521
aI863436258
aI459557733
aI2971298278
aI858707821
aI872074100
aI861891199
atp1266
Rp1267
sg12
I6
sg13
g14
(g15
tp1268
Rp1269
Vhttp://dld.bz/ekZ8y
p1270
I14
sVhttp://dld.bz/ekZDu
p1271
I8
ssg20
Vwhy do start ups small business and entrepreneurs need seo
p1272
sg22
I116
sg23
I9
sg24
I2
sa(dp1273
g2
(dp1274
g4
I20
sg5
I2
ssg6
I22
sg7
g8
((lp1275
I404287680
aI3050853728
aI445976707
aI3064039300
aI2479217590
aI427925478
aI461930439
aI411689416
aI2475957483
aI281951884
aI445981262
aI3052397743
aI2938429891
aI2486885206
aI3065850839
aI464353080
aI3065622406
aI272387515
aI433751451
aI433761430
aI412993375
atp1276
Rp1277
sg12
I6
sg13
g14
(g15
tp1278
Rp1279
Vhttp://dld.bz/emyKm
p1280
I22
ssg20
Vlilly peppertree facebook page updates and infort
p1281
sg22
I117
sg23
I9
sg24
I2
sa(dp1282
g2
(dp1283
g4
I0
sg5
I22
ssg6
I22
sg7
g8
((lp1284
I732538705706094592
aI739474296670720000
aI818852281953173506
aI818823796773818368
aI3212109449
aI3304479251
aI3212799381
aI3046535075
aI3049283884
aI3300234543
aI3401089731
aI3393922246
aI3198761433
aI4829436544
aI818847313116459008
aI3233024092
aI3298911327
aI818835460147462144
aI3300897136
aI3306921585
aI3197976827
aI3213136127
atp1285
Rp1286
sg12
I6
sg13
g14
(g15
tp1287
Rp1288
Vhttp://dld.bz/fxKWK
p1289
I22
ssg20
Vespanyol v real sociedad betting hosts to keep up hot scoring form
p1290
sg22
I118
sg23
I9
sg24
I2
sa(dp1291
g2
(dp1292
g4
I0
sg5
I22
ssg6
I22
sg7
g8
((lp1293
I732538705706094592
aI739474296670720000
aI818852281953173506
aI818823796773818368
aI3212109449
aI3304479251
aI3212799381
aI3046535075
aI3049283884
aI3300234543
aI3401089731
aI3393922246
aI3198761433
aI4829436544
aI818847313116459008
aI3233024092
aI3298911327
aI818835460147462144
aI3300897136
aI3306921585
aI3197976827
aI3213136127
atp1294
Rp1295
sg12
I6
sg13
g14
(g15
tp1296
Rp1297
Vhttp://dld.bz/fxK4d
p1298
I22
ssg20
Vronaldo is the most complete player out there says callejon
p1299
sg22
I119
sg23
I9
sg24
I2
sa(dp1300
g2
(dp1301
g4
I21
sg5
I1
ssg6
I22
sg7
g8
((lp1302
I3054241796
aI456336389
aI412934921
aI286837134
aI464361236
aI2483671324
aI277868701
aI398268358
aI2484810665
aI3065892268
aI434035504
aI3065717169
aI2437705906
aI2411554933
aI3036991046
aI2475958859
aI3047490638
aI404199383
aI452652262
aI23172966
aI3065763567
aI619286645
atp1303
Rp1304
sg12
I6
sg13
g14
(g15
tp1305
Rp1306
Vhttp://dld.bz/dtCJY
p1307
I22
ssg20
Vwant to advertise on my channels
p1308
sg22
I120
sg23
I9
sg24
I2
sa(dp1309
g2
(dp1310
g4
I1
sg5
I21
ssg6
I22
sg7
g8
((lp1311
I858586638
aI466442413
aI898193300
aI863472282
aI459534627
aI887184804
aI461576749
aI1289927539
aI833795767
aI833669180
aI866581567
aI843565644
aI459586511
aI856618064
aI463205843
aI858933979
aI1254607069
aI464871521
aI713376499
aI25725812
aI861763958
aI847642303
atp1312
Rp1313
sg12
I6
sg13
g14
(g15
tp1314
Rp1315
Vhttp://dld.bz/fu6un
p1316
I22
ssg20
Vif you are a music lover would love for you to support my pledgemusic campaign   samibamimusic
p1317
sg22
I121
sg23
I9
sg24
I2
sa(dp1318
g2
(dp1319
g4
I0
sg5
I22
ssg6
I22
sg7
g8
((lp1320
I732538705706094592
aI739474296670720000
aI818852281953173506
aI818823796773818368
aI3212109449
aI3304479251
aI3212799381
aI3046535075
aI3049283884
aI3300234543
aI3401089731
aI3393922246
aI3198761433
aI4829436544
aI818847313116459008
aI3233024092
aI3298911327
aI818835460147462144
aI3300897136
aI3306921585
aI3197976827
aI3213136127
atp1321
Rp1322
sg12
I6
sg13
g14
(g15
tp1323
Rp1324
Vhttp://dld.bz/fxKWU
p1325
I22
ssg20
Vlovren speaks out on refugee crisis it could have been me and my family under the gro
p1326
sg22
I122
sg23
I9
sg24
I2
sa(dp1327
g2
(dp1328
g4
I3
sg5
I19
ssg6
I22
sg7
g8
((lp1329
I759054588779503616
aI973717639
aI4825831179
aI973516176
aI973688472
aI973711004
aI973551138
aI973716391
aI973528242
aI81332021
aI973688886
aI973704901
aI973696710
aI973688010
aI501411275
aI973705435
aI973698530
aI973698278
aI973698920
aI973526522
aI973704955
aI973714687
atp1330
Rp1331
sg12
I6
sg13
g14
(g15
tp1332
Rp1333
Vhttp://dld.bz/dBzrD
p1334
I22
ssg20
Vwatch pray
p1335
sg22
I123
sg23
I9
sg24
I2
sa(dp1336
g2
(dp1337
g4
I0
sg5
I22
ssg6
I22
sg7
g8
((lp1338
I732538705706094592
aI739474296670720000
aI818852281953173506
aI818823796773818368
aI3212109449
aI3304479251
aI3212799381
aI3046535075
aI3049283884
aI3300234543
aI3401089731
aI3393922246
aI3198761433
aI4829436544
aI818847313116459008
aI3233024092
aI3298911327
aI818835460147462144
aI3300897136
aI3306921585
aI3197976827
aI3213136127
atp1339
Rp1340
sg12
I6
sg13
g14
(g15
tp1341
Rp1342
Vhttp://dld.bz/fxKWS
p1343
I22
ssg20
Vman utd team news injuries suspensions and lineup vs watford
p1344
sg22
I124
sg23
I9
sg24
I2
sa(dp1345
g2
(dp1346
g4
I0
sg5
I22
ssg6
I22
sg7
g8
((lp1347
I818823796773818368
aI818847313116459008
aI818852281953173506
aI732538705706094592
aI3212109449
aI3304479251
aI3212799381
aI3046535075
aI3049283884
aI3300234543
aI3401089731
aI3393922246
aI3198761433
aI4829436544
aI3233024092
aI3298911327
aI739474296670720000
aI818835460147462144
aI3300897136
aI3306921585
aI3197976827
aI3213136127
atp1348
Rp1349
sg12
I6
sg13
g14
(g15
tp1350
Rp1351
Vhttp://dld.bz/fxKWT
p1352
I22
ssg20
Vcan the soccerway betting guide beat last weeks total of nine winners
p1353
sg22
I125
sg23
I9
sg24
I2
sa(dp1354
g2
(dp1355
g4
I0
sg5
I22
ssg6
I22
sg7
g8
((lp1356
I732538705706094592
aI739474296670720000
aI818852281953173506
aI818823796773818368
aI3212109449
aI3304479251
aI3212799381
aI3046535075
aI3049283884
aI3300234543
aI3401089731
aI3393922246
aI3198761433
aI4829436544
aI818847313116459008
aI3233024092
aI3298911327
aI818835460147462144
aI3300897136
aI3306921585
aI3197976827
aI3213136127
atp1357
Rp1358
sg12
I6
sg13
g14
(g15
tp1359
Rp1360
Vhttp://dld.bz/fxM8h
p1361
I22
ssg20
Vwhy is memphis depays lyon shirt in a museum
p1362
sg22
I126
sg23
I9
sg24
I2
sa(dp1363
g2
(dp1364
g4
I21
sg5
I1
ssg6
I22
sg7
g8
((lp1365
I2436081539
aI3065284235
aI615899283
aI463304606
aI2485916320
aI3064301097
aI476381871
aI2436092727
aI2449916473
aI3065847753
aI270242764
aI3064793170
aI3065337046
aI438092507
aI3052202588
aI23172966
aI608409062
aI3050046439
aI3054106219
aI3064524141
aI282034544
aI2449526515
atp1366
Rp1367
sg12
I6
sg13
g14
(g15
tp1368
Rp1369
Vhttp://dld.bz/d4GW3
p1370
I22
ssg20
Vxshot pro ultimate camera extender pole for gopro amp digital cameras unboxing review  xshot
p1371
sg22
I127
sg23
I9
sg24
I2
sa(dp1372
g2
(dp1373
g4
I0
sg5
I22
ssg6
I22
sg7
g8
((lp1374
I732538705706094592
aI739474296670720000
aI818852281953173506
aI818823796773818368
aI3212109449
aI3304479251
aI3212799381
aI3046535075
aI3049283884
aI3300234543
aI3401089731
aI3393922246
aI3198761433
aI4829436544
aI818847313116459008
aI3233024092
aI3298911327
aI818835460147462144
aI3300897136
aI3306921585
aI3197976827
aI3213136127
atp1375
Rp1376
sg12
I6
sg13
g14
(g15
tp1377
Rp1378
Vhttp://dld.bz/fxMU8
p1379
I22
ssg20
Vthorgan hazard happy at gladbach but admits premier league lure
p1380
sg22
I128
sg23
I9
sg24
I2
sa(dp1381
g2
(dp1382
g4
I0
sg5
I22
ssg6
I22
sg7
g8
((lp1383
I732538705706094592
aI739474296670720000
aI818852281953173506
aI818823796773818368
aI3212109449
aI3304479251
aI3212799381
aI3046535075
aI3049283884
aI3300234543
aI3401089731
aI3393922246
aI3198761433
aI4829436544
aI818847313116459008
aI3233024092
aI3298911327
aI818835460147462144
aI3300897136
aI3306921585
aI3197976827
aI3213136127
atp1384
Rp1385
sg12
I6
sg13
g14
(g15
tp1386
Rp1387
Vhttp://dld.bz/fxKFD
p1388
I22
ssg20
Vexreal madrid star drenthe releases rap single
p1389
sg22
I129
sg23
I9
sg24
I2
sa(dp1390
g2
(dp1391
g4
I1
sg5
I21
ssg6
I22
sg7
g8
((lp1392
I2504763266
aI466442413
aI898193300
aI713376499
aI542854170
aI1570843675
aI165221664
aI459534627
aI1517678892
aI954220717
aI1289927539
aI141189815
aI847642303
aI463308992
aI887267017
aI856618064
aI475178200
aI858933979
aI871870045
aI459557733
aI811974643
aI964896504
atp1393
Rp1394
sg12
I6
sg13
g14
(g15
tp1395
Rp1396
Vhttp://dld.bz/ekZDD
p1397
I5
sVhttp://dld.bz/ekZ8G
p1398
I17
ssg20
Vthree magic words do you tweet   networking sales leads
p1399
sg22
I130
sg23
I9
sg24
I2
sa(dp1400
g2
(dp1401
g4
I21
sg5
I1
ssg6
I22
sg7
g8
((lp1402
I3065061767
aI476374538
aI3065753355
aI3064899729
aI287143709
aI3065654944
aI3065610281
aI474508330
aI2476388523
aI2475889329
aI3065897662
aI302579136
aI2487097691
aI446755548
aI2477556190
aI23172966
aI3052750957
aI3052475119
aI3065163509
aI3065857402
aI2449633662
aI406933503
atp1403
Rp1404
sg12
I6
sg13
g14
(g15
tp1405
Rp1406
Vhttp://dld.bz/dEmJt
p1407
I22
ssg20
Vincipio dualpro shine case for samsung galaxy s6 edge unboxing review  myincipio
p1408
sg22
I131
sg23
I9
sg24
I2
sa(dp1409
g2
(dp1410
g4
I21
sg5
I1
ssg6
I22
sg7
g8
((lp1411
I756875338920013824
aI783126770925047808
aI723339615009034243
aI1428794820
aI796674382374518784
aI802616686352498689
aI751362697
aI824379890732515339
aI4476428301
aI800331414117883904
aI787095096487391233
aI228736760
aI525414994
aI38066483
aI2514475647
aI1400943320
aI3331905027
aI3689630715
aI1027972254
aI2967626975
atp1412
Rp1413
sg12
I6
sg13
g14
(g15
tp1414
Rp1415
Vhttp://dld.bz/JCT127
p1416
I22
ssg20
Vjctarticle open letter from retired military figures supporting trump
p1417
sg22
I132
sg23
I9
sg24
I2
sa(dp1418
g2
(dp1419
g4
I6
sg5
I16
ssg6
I22
sg7
g8
((lp1420
I4829436544
aI3401089731
aI2599000198
aI3393922246
aI3212109449
aI3298911327
aI3049283884
aI3300234543
aI3300897136
aI3306921585
aI3304479251
aI3212799381
aI3198761433
aI3197976827
aI3233024092
aI3046535075
aI3213136127
atp1421
Rp1422
sg12
I6
sg13
g14
(g15
tp1423
Rp1424
Vhttp://dld.bz/fxMUp
p1425
I22
ssg20
Vdietmar hamann slams dire complacent liverpool fc
p1426
sg22
I133
sg23
I9
sg24
I2
sa(dp1427
g2
(dp1428
g4
I0
sg5
I22
ssg6
I22
sg7
g8
((lp1429
I475169536
aI858586638
aI472246425
aI813679002
aI924612380
aI459534627
aI887184804
aI139988522
aI73986605
aI964986038
aI833669180
aI866581567
aI920256847
aI856618064
aI843593173
aI475178200
aI1254607069
aI459557733
aI263234033
aI874378994
aI856723315
aI863612276
atp1430
Rp1431
sg12
I6
sg13
g14
(g15
tp1432
Rp1433
Vhttp://dld.bz/ekZ8p
p1434
I14
sVhttp://dld.bz/ekZDh
p1435
I8
ssg20
Vlaunching a retail or internet business
p1436
sg22
I134
sg23
I9
sg24
I2
sa(dp1437
g2
(dp1438
g4
I17
sg5
I4
ssg6
I21
sg7
g8
((lp1439
I615902877
aI2447807323
aI434936644
aI613499366
aI23172966
aI17805062
aI2477032713
aI23183591
aI613555533
aI2447716494
aI440787631
aI3065032942
aI616954130
aI3065072302
aI3065686102
aI2487233560
aI608484827
aI61565276
aI2477390045
aI2475752926
aI434042463
atp1440
Rp1441
sg12
I6
sg13
g14
(g15
tp1442
Rp1443
Vhttp://dld.bz/dem8J
p1444
I21
ssg20
Vlinkedin users  join open networkers jobs and social media networking     linkedin
p1445
sg22
I135
sg23
I9
sg24
I2
sa(dp1446
g2
(dp1447
g4
I18
sg5
I3
ssg6
I21
sg7
g8
((lp1448
I3064857856
aI3064960385
aI3065283075
aI3065952364
aI3065865029
aI23172966
aI431087145
aI3064520908
aI3065321997
aI3054107724
aI404175768
aI3054064536
aI3064418069
aI433951318
aI2477964663
aI60238008
aI3065205401
aI2475904858
aI617258971
aI61565276
aI3065672031
atp1449
Rp1450
sg12
I6
sg13
g14
(g15
tp1451
Rp1452
Vhttp://dld.bz/dxxpV
p1453
I21
ssg20
Vtop 10 reasons iphone 6 is better than htc one m8
p1454
sg22
I136
sg23
I9
sg24
I2
sa(dp1455
g2
(dp1456
g4
I20
sg5
I1
ssg6
I21
sg7
g8
((lp1457
I3065718261
aI2483788546
aI2437768931
aI23172966
aI300226343
aI2436331785
aI3065714637
aI3065222567
aI471887020
aI3065450733
aI3065733742
aI281971855
aI614306616
aI617286292
aI2481393333
aI617077741
aI426134168
aI3065509095
aI3065959036
aI2481368093
aI2485719413
atp1458
Rp1459
sg12
I6
sg13
g14
(g15
tp1460
Rp1461
Vhttp://dld.bz/dxxpW
p1462
I21
ssg20
Vtop 10 reasons htc one m8 is better than iphone 6
p1463
sg22
I137
sg23
I9
sg24
I2
sa(dp1464
g2
(dp1465
g4
I0
sg5
I21
ssg6
I21
sg7
g8
((lp1466
I785895589301149696
aI785897169895251969
aI3042036763
aI3061835556
aI792240997
aI598414439
aI3073196297
aI3244481371
aI3040618764
aI3244457005
aI785889115007021057
aI3074624225
aI3057750994
aI3074003099
aI3136040437
aI3153375094
aI3060656521
aI3069048377
aI503687451
aI449634684
aI3073277981
atp1467
Rp1468
sg12
I6
sg13
g14
(g15
tp1469
Rp1470
Vhttp://dld.bz/fwyXa
p1471
I21
ssg20
Vdbmg da gang lee  chuck norris freestyle
p1472
sg22
I138
sg23
I9
sg24
I2
sa(dp1473
g2
(dp1474
g4
I19
sg5
I2
ssg6
I21
sg7
g8
((lp1475
I2485437952
aI2480808723
aI303081922
aI2447807323
aI23172966
aI3054351816
aI2480042313
aI430898666
aI3064883883
aI279977198
aI2483039133
aI434034803
aI444173812
aI3065744110
aI476336919
aI60238008
aI2449082869
aI270253819
aI2481708700
aI2448202314
aI2483002079
atp1476
Rp1477
sg12
I6
sg13
g14
(g15
tp1478
Rp1479
Vhttp://dld.bz/fj3mj
p1480
I21
ssg20
Vyou can follow me on snapchat under
p1481
sg22
I139
sg23
I9
sg24
I2
sa(dp1482
g2
(dp1483
g4
I2
sg5
I19
ssg6
I21
sg7
g8
((lp1484
I831420481
aI399125922
aI459534627
aI860100739
aI2931814049
aI141189815
aI996430604
aI461576749
aI858707821
aI964896504
aI1132568707
aI898193300
aI843608635
aI833795767
aI632388280
aI872074100
aI863472282
aI1289927539
aI464871521
aI604214653
aI637015681
atp1485
Rp1486
sg12
I6
sg13
g14
(g15
tp1487
Rp1488
Vhttp://dld.bz/ekZ8H
p1489
I17
sVhttp://dld.bz/ekZDE
p1490
I4
ssg20
Vstop negative thoughts now    inspiration spiritual growth
p1491
sg22
I140
sg23
I9
sg24
I2
sa(dp1492
g2
(dp1493
g4
I20
sg5
I1
ssg6
I21
sg7
g8
((lp1494
I2449429856
aI3065784321
aI438087421
aI3065583353
aI23172966
aI2477004166
aI3065439377
aI272384372
aI2476644970
aI2479984774
aI3065693074
aI3065905775
aI2438229520
aI3065786129
aI3050692244
aI3065877460
aI2437406487
aI613437337
aI456347899
aI2490104783
aI2449486622
atp1495
Rp1496
sg12
I6
sg13
g14
(g15
tp1497
Rp1498
Vhttp://dld.bz/dGf9W
p1499
I21
ssg20
Vtrident kraken ams case for samsung galaxy s6 edge unboxing review  tridentcase
p1500
sg22
I141
sg23
I9
sg24
I2
sa(dp1501
g2
(dp1502
g4
I20
sg5
I1
ssg6
I21
sg7
g8
((lp1503
I287123424
aI2476421217
aI437647586
aI2484609155
aI23172966
aI435331174
aI2476599105
aI613799144
aI2436625707
aI3065853659
aI3051674210
aI2446193166
aI3065158479
aI2436936975
aI2448630438
aI3054551030
aI2475142151
aI2477112879
aI2485339791
aI474410507
aI3053959919
atp1504
Rp1505
sg12
I6
sg13
g14
(g15
tp1506
Rp1507
Vhttp://dld.bz/dBvns
p1508
I21
ssg20
Vits time for bloggers and influencers to demand their worth amp quit selling out
p1509
sg22
I142
sg23
I9
sg24
I2
sa(dp1510
g2
(dp1511
g4
I20
sg5
I1
ssg6
I21
sg7
g8
((lp1512
I3052202588
aI23172966
aI3052727238
aI3052553928
aI3065286941
aI3065729573
aI2476435437
aI614562959
aI3054775992
aI3053821714
aI3065398899
aI3065927476
aI2437704597
aI3053007606
aI3052595832
aI3064443449
aI2446036154
aI3064945679
aI3053175452
aI271892381
aI2447713429
atp1513
Rp1514
sg12
I6
sg13
g14
(g15
tp1515
Rp1516
Vhttp://dld.bz/dMCjM
p1517
I21
ssg20
Vqmadix sl series holster shell combo samsung galaxy s6 unboxing review  qmadix
p1518
sg22
I143
sg23
I9
sg24
I2
sa(dp1519
g2
(dp1520
g4
I19
sg5
I2
ssg6
I21
sg7
g8
((lp1521
I3065839169
aI3054803755
aI23172966
aI3053888678
aI2446523623
aI614557640
aI2446060028
aI431009067
aI444865991
aI2446576136
aI617831826
aI2482953059
aI476382773
aI404168289
aI2481804983
aI3049870081
aI2486790873
aI3065702121
aI3054109051
aI92460124
aI412215935
atp1522
Rp1523
sg12
I6
sg13
g14
(g15
tp1524
Rp1525
Vhttp://dld.bz/dUZbk
p1526
I21
ssg20
Vhow to fastest exotic engram farm three of coins in destiny the taken king destiny thetakenking
p1527
sg22
I144
sg23
I9
sg24
I2
sa(dp1528
g2
(dp1529
g4
I20
sg5
I1
ssg6
I21
sg7
g8
((lp1530
I824597410307604480
aI812211301128794112
aI710231503213563904
aI724522084391620609
aI786498737019363328
aI807299977466744833
aI768573935495426048
aI208447500
aI2198026734
aI353552976
aI2809272408
aI89084118
aI2492932058
aI1545674234
aI2183193085
aI3121815230
aI363944895
atp1531
Rp1532
sg12
I6
sg13
g14
(g15
tp1533
Rp1534
Vhttps://twitter.com/i/web/status/829508246603984896
p1535
I1
sVhttps://twitter.com/i/web/status/829669079019560960
p1536
I6
sVhttps://twitter.com/i/web/status/829508246125821957
p1537
I10
sVhttps://twitter.com/i/web/status/829508247346372609
p1538
I1
sVhttps://twitter.com/i/web/status/829475982750973953
p1539
I3
ssg20
Vassad has killed over 50000 children in syria help send him to the hague sign our petition \u2026
p1540
sg22
I145
sg23
I9
sg24
I2
sa.