(lp0
(dp1
S'status'
p2
(dp3
S'retweet'
p4
I0
sS'original'
p5
I370
ssS'count'
p6
I370
sS'user_ids'
p7
c__builtin__
set
p8
((lp9
I2567306240
aI550210056
aI1583817644
aI1624649227
aI557601809
aI2567308818
aI511898798
aI278370845
aI2212972574
aI967472671
aI539685410
aI494975012
aI727642152
aI520230960
aI557594974
aI557431867
aI1316708413
aI755831359
aI2825172035
aI1867362378
aI956324941
aI45869648
aI2497726904
aI376410894
aI2370429877
aI2242439771
aI557428834
aI1004424294
aI2261479020
aI511939693
aI217208433
aI620713076
aI2877872245
aI561159286
aI2773517432
aI2446899326
aI1606064910
aI1727895685
aI146692746
aI1629892242
aI515525269
aI224151703
aI2393298072
aI1105557152
aI956311722
aI1489796270
aI304861372
aI2566956234
aI20541636
aI381652598
aI131172550
aI818202823
aI2331664586
aI549086924
aI352550098
aI1640973012
aI489195223
aI323685593
aI2567353050
aI169527526
aI229238001
aI2369907793
aI1544805674
aI2566769406
aI2391758079
aI2792170752
aI2422121857
aI504002826
aI139332366
aI599740181
aI472958230
aI2566910743
aI453533469
aI36964638
aI80327968
aI515550497
aI774128420
aI252640038
aI32916265
aI1329516842
aI438014765
aI464461104
aI2768062344
aI1148475186
aI515544393
aI1235965759
aI1592214848
aI2332504897
aI2660491081
aI16816972
aI2725952336
aI2566724436
aI975774038
aI511953244
aI2566815582
aI160930875
aI86142824
aI841623403
aI2722832755
aI2566762878
aI464450433
aI489276802
aI1681725830
aI549093082
aI2566996873
aI1016733578
aI227344783
aI1556118416
aI2684369809
aI104403350
aI353724312
aI787546010
aI552363428
aI1104938408
aI18270633
aI557422508
aI954782642
aI2566752181
aI2332507063
aI836175288
aI121446843
aI2159638466
aI584748487
aI869933516
aI345517008
aI2824657361
aI1273848278
aI185745880
aI2566708704
aI724445520
aI404680674
aI2446717923
aI1326560743
aI12376572
aI153876973
aI940000238
aI2228605939
aI159352308
aI813064693
aI1308079098
aI2538090492
aI635831295
atp10
Rp11
sS'hour'
p12
I5
sS'url'
p13
ccollections
defaultdict
p14
(c__builtin__
int
p15
tp16
Rp17
Vhttp://goo.gl/fb/iFEaiq
p18
I2
sVhttp://dlvr.it/7P64v3
p19
I2
sVhttp://dlvr.it/7P9WBj
p20
I2
sVhttp://dlvr.it/7P6Ccy
p21
I2
sVhttp://dlvr.it/7P694P
p22
I2
sVhttp://dlvr.it/7P6CLP
p23
I2
sVhttp://dlvr.it/7P69Ht
p24
I2
sVhttp://dlvr.it/7P5xHV
p25
I2
sVhttp://dlvr.it/7P5vTv
p26
I2
sVhttp://dlvr.it/7P67LV
p27
I2
sVhttp://dlvr.it/7P5vSy
p28
I2
sVhttp://dlvr.it/7P698P
p29
I2
sVhttp://dlvr.it/7P5sp8
p30
I2
sVhttp://dlvr.it/7P5vk5
p31
I2
sVhttp://dlvr.it/7P66zq
p32
I2
sVhttp://dlvr.it/7P5jMC
p33
I2
sVhttp://dlvr.it/7P64L5
p34
I2
sVhttp://dlvr.it/7P5gPd
p35
I2
sVhttp://dlvr.it/7P5hHy
p36
I2
sVhttp://dlvr.it/7P68cx
p37
I2
sVhttp://dlvr.it/7P66d8
p38
I2
sVhttp://dlvr.it/7P64qt
p39
I4
sVhttp://dlvr.it/7P681n
p40
I2
sVhttp://watchallchannels.com
p41
I4
sVhttp://dlvr.it/7P8DmG
p42
I2
sVhttp://dlvr.it/7P6BzS
p43
I2
sVhttp://dlvr.it/7P6Cc2
p44
I2
sVhttp://dlvr.it/7P6CHJ
p45
I2
sVhttp://dlvr.it/7P61WF
p46
I2
sVhttp://dlvr.it/7P6ldT
p47
I2
sVhttp://dlvr.it/7P5p5V
p48
I2
sVhttp://dlvr.it/7P6558
p49
I2
sVhttp://dlvr.it/7P5t0N
p50
I2
sVhttp://dlvr.it/7P6Cbc
p51
I2
sVhttp://dlvr.it/7P5fkw
p52
I2
sVhttp://dlvr.it/7P5qJh
p53
I2
sVhttp://dlvr.it/7P67mw
p54
I2
sVhttp://goo.gl/fb/imRkxq
p55
I2
sVhttp://dlvr.it/7P68sf
p56
I2
sVhttp://dlvr.it/7P5tSD
p57
I2
sVhttp://dlvr.it/7P65CF
p58
I2
sVhttp://dlvr.it/7P5r1x
p59
I2
sVhttp://dlvr.it/7P69XD
p60
I2
sVhttp://dlvr.it/7P5qd1
p61
I2
sVhttp://dlvr.it/7P6B7K
p62
I2
sVhttp://dlvr.it/7P5xH1
p63
I2
sVhttp://dlvr.it/7P5rks
p64
I2
sVhttp://dlvr.it/7P5m9Q
p65
I2
sVhttp://dlvr.it/7P5kKq
p66
I2
sVhttp://dlvr.it/7P5w5q
p67
I2
sVhttp://dlvr.it/7P5kjz
p68
I2
sVhttp://dlvr.it/7P5mZN
p69
I2
sVhttp://dlvr.it/7P6Cc4
p70
I2
sVhttp://dlvr.it/7P5pVv
p71
I2
sVhttp://dlvr.it/7P5wmh
p72
I2
sVhttp://dlvr.it/7P5sVv
p73
I2
sVhttp://dlvr.it/7P5t7G
p74
I2
sVhttp://dlvr.it/7P5qGx
p75
I2
sVhttp://dlvr.it/7P67VC
p76
I2
sVhttp://dlvr.it/7P6Bz9
p77
I2
sVhttp://dlvr.it/7P6CNq
p78
I2
sVhttp://dlvr.it/7P67hJ
p79
I2
sVhttp://ift.tt/10KfPQh
p80
I2
sVhttp://dlvr.it/7P8fv4
p81
I2
sVhttp://dlvr.it/7P60Rt
p82
I2
sVhttp://dlvr.it/7P62t2
p83
I2
sVhttp://bakmoda.com
p84
I48
sVhttp://dlvr.it/7P6TV2
p85
I2
sVhttp://dlvr.it/7P5rLb
p86
I2
sVhttp://dlvr.it/7P5kGD
p87
I2
sVhttp://dlvr.it/7P6D1T
p88
I2
sVhttp://goo.gl/fb/BJHD7Z
p89
I2
sVhttp://dlvr.it/7P6BxS
p90
I2
sVhttp://dlvr.it/7P5sWw
p91
I2
sVhttp://dlvr.it/7P680J
p92
I2
sVhttp://dlvr.it/7P68d4
p93
I2
sVhttp://dlvr.it/7P63b3
p94
I2
sVhttp://dlvr.it/7P6CMD
p95
I2
sVhttp://dlvr.it/7P5thv
p96
I2
sVhttp://dlvr.it/7P68J6
p97
I2
sVhttp://dlvr.it/7P5pg9
p98
I2
sVhttp://bit.ly/1zYSppN
p99
I2
sVhttp://goo.gl/fb/VpVz6E
p100
I2
sVhttp://dlvr.it/7P69Yz
p101
I2
sVhttp://dlvr.it/7P5mTQ
p102
I2
sVhttp://bit.ly/1pfYp9s
p103
I2
sVhttp://goo.gl/fb/Wgvn3z
p104
I2
sVhttp://goo.gl/fb/cBd7KE
p105
I2
sVhttp://goo.gl/MIfxOd
p106
I2
sVhttp://dlvr.it/7P5vWW
p107
I2
sVhttp://dlvr.it/7P5qkf
p108
I2
sVhttp://ift.tt/1xNVzau
p109
I56
sVhttp://dlvr.it/7P5rqQ
p110
I2
sVhttp://dlvr.it/7P5q4x
p111
I2
sVhttp://dlvr.it/7P5rhV
p112
I2
sVhttp://dlvr.it/7P5w12
p113
I2
sVhttp://ift.tt/1G9Ldb0
p114
I2
sVhttp://dlvr.it/7P5sdJ
p115
I2
sVhttp://bit.ly/TyK1sP
p116
I2
sVhttp://dlvr.it/7P6BLd
p117
I2
sVhttp://goo.gl/lqHHXa
p118
I2
sVhttp://dlvr.it/7P68ym
p119
I2
sVhttp://dlvr.it/7P5xDg
p120
I2
sVhttp://dlvr.it/7P6Cf5
p121
I2
sVhttp://dlvr.it/7P67Hr
p122
I2
sVhttp://dlvr.it/7P5wkR
p123
I2
sVhttp://dlvr.it/7PB3ky
p124
I2
sVhttp://goo.gl/kQQNrc
p125
I4
sVhttp://dlvr.it/7P682C
p126
I2
sVhttp://dlvr.it/7P6992
p127
I2
sVhttp://dlvr.it/7P6Bm4
p128
I2
sVhttp://dlvr.it/7P5sc5
p129
I2
sVhttp://goo.gl/fb/FH7dXk
p130
I2
sVhttp://dlvr.it/7P9d4y
p131
I2
sVhttp://dlvr.it/7P68Tc
p132
I2
sVhttp://dlvr.it/7P6D2j
p133
I2
sVhttp://dlvr.it/7P5yD1
p134
I2
sVhttp://dlvr.it/7P674P
p135
I2
sVhttp://dlvr.it/7P69r7
p136
I2
sVhttp://dlvr.it/7P5lG6
p137
I2
sVhttp://dlvr.it/7P5vxr
p138
I2
sVhttp://dlvr.it/7P5qFD
p139
I2
sVhttp://dlvr.it/7P65z4
p140
I2
sVhttp://dlvr.it/7P5vNs
p141
I2
sVhttp://anythingrelated.com
p142
I2
sVhttp://dlvr.it/7P617X
p143
I2
sVhttp://dlvr.it/7P5qVg
p144
I2
sVhttp://dlvr.it/7P60Yk
p145
I2
sVhttp://dlvr.it/7P68Qs
p146
I2
sVhttp://dlvr.it/7P6Cq7
p147
I2
sVhttp://dlvr.it/7P5wqq
p148
I2
sVhttp://dlvr.it/7P68Qv
p149
I2
sVhttp://dlvr.it/7P5qbV
p150
I2
sVhttp://dlvr.it/7P5vjD
p151
I2
sVhttp://dlvr.it/7P65fs
p152
I2
sVhttp://dlvr.it/7P6B7b
p153
I2
sVhttp://dlvr.it/7P69Jd
p154
I2
sVhttp://dlvr.it/7P64VL
p155
I2
sVhttp://dlvr.it/7P5gZ4
p156
I2
sVhttp://dlvr.it/7P66W6
p157
I2
sVhttp://dlvr.it/7P6D7H
p158
I2
sVhttp://dlvr.it/7P5fZf
p159
I2
sVhttp://dlvr.it/7P68NR
p160
I2
sVhttp://dlvr.it/7P66DM
p161
I2
sVhttp://dlvr.it/7P5jR5
p162
I2
sVhttp://BAKMODA.COM
p163
I120
sVhttp://dlvr.it/7P64WV
p164
I2
sVhttp://dlvr.it/7P5qC9
p165
I2
sVhttp://dlvr.it/7P5tTT
p166
I2
sVhttp://goo.gl/wtHQt2
p167
I2
sVhttp://dlvr.it/7P62FB
p168
I2
sVhttp://dlvr.it/7P6CRR
p169
I2
sVhttp://dlvr.it/7P5gdN
p170
I2
sVhttp://dlvr.it/7P6B9D
p171
I2
sVhttp://dlvr.it/7P5p7J
p172
I2
sVhttp://dlvr.it/7P5ljr
p173
I2
sVhttp://j.mp/izea23
p174
I4
sVhttp://dlvr.it/7P6B9b
p175
I2
sVhttp://dlvr.it/7P5qSX
p176
I2
sVhttp://dlvr.it/7P6CJ9
p177
I2
sVhttp://dlvr.it/7P67ZN
p178
I2
ssS'text'
p179
Vhong kong police question briton
p180
sS'id'
p181
I1
sS'day'
p182
I2
sS'month'
p183
I11
sa(dp184
g2
(dp185
g4
I2
sg5
I320
ssg6
I322
sg7
g8
((lp186
I2416769408
aI2354312706
aI538646787
aI529557381
aI470848138
aI610817035
aI357019706
aI357014798
aI454944655
aI456088336
aI611796626
aI454871017
aI468343710
aI307335257
aI609348120
aI607388207
aI623133615
aI2835333278
aI2822007199
aI527844923
aI357719330
aI571825883
aI414139300
aI2876438952
aI571771945
aI357707562
aI2866989882
aI466304813
aI307330351
aI265826248
aI2601125810
aI455136308
aI500982430
aI865861687
aI2860154810
aI2274175675
aI2868655166
aI356350527
aI571550017
aI520520466
aI452405827
aI355661893
aI315198463
aI457664840
aI458131682
aI453353036
aI571560853
aI2430244561
aI2884496467
aI457777876
aI455855573
aI468421718
aI2606726359
aI2846246744
aI2833784430
aI2597946458
aI2391137167
aI627790556
aI2323614813
aI1399588832
aI475582817
aI2416720866
aI305646587
aI356341990
aI2411955814
aI602359657
aI315259154
aI2876707435
aI610948077
aI2544978158
aI465304872
aI2401107667
aI1949295732
aI2292569719
aI1350843896
aI606615720
aI527844435
aI1967696149
atp187
Rp188
sg12
I5
sg13
g14
(g15
tp189
Rp190
Vhttp://dlvr.it/7P0Cqh
p191
I2
sVhttp://dlvr.it/7NzsJS
p192
I2
sVhttp://dlvr.it/7Nzr7f
p193
I2
sVhttp://dlvr.it/7P07Gv
p194
I2
sVhttp://dlvr.it/7P06sL
p195
I2
sVhttp://dlvr.it/7NzqKd
p196
I2
sVhttp://dlvr.it/7P0Cf1
p197
I2
sVhttp://dlvr.it/7Nzwmx
p198
I2
sVhttp://dlvr.it/7NzxGj
p199
I2
sVhttp://dlvr.it/7P08k8
p200
I2
sVhttp://dlvr.it/7NzxB9
p201
I2
sVhttp://dlvr.it/7Nzvcb
p202
I2
sVhttp://dlvr.it/7NzpBx
p203
I2
sVhttp://dlvr.it/7P07td
p204
I2
sVhttp://dlvr.it/7Nzvcg
p205
I2
sVhttp://dlvr.it/7NzrKB
p206
I2
sVhttp://dlvr.it/7Nzt86
p207
I2
sVhttp://dlvr.it/7Nzrr3
p208
I2
sVhttp://dlvr.it/7P07BY
p209
I2
sVhttp://dlvr.it/7NzpBd
p210
I2
sVhttp://dlvr.it/7P0Bly
p211
I2
sVhttp://dlvr.it/7NzvBh
p212
I2
sVhttp://dlvr.it/7NzrKQ
p213
I2
sVhttp://dlvr.it/7NztlG
p214
I2
sVhttp://dlvr.it/7P079n
p215
I2
sVhttp://dlvr.it/7Nzvxc
p216
I2
sVhttp://dlvr.it/7NzvM1
p217
I2
sVhttp://dlvr.it/7P099w
p218
I2
sVhttp://dlvr.it/7NzttZ
p219
I2
sVhttp://dlvr.it/7P07mP
p220
I2
sVhttp://dlvr.it/7NzqK2
p221
I2
sVhttp://dlvr.it/7NzwBj
p222
I2
sVhttp://dlvr.it/7P0564
p223
I2
sVhttp://dlvr.it/7NzvZW
p224
I2
sVhttp://dlvr.it/7NzrZD
p225
I2
sVhttp://dlvr.it/7P09pp
p226
I2
sVhttp://dlvr.it/7P07cn
p227
I2
sVhttp://dlvr.it/7Nzvly
p228
I2
sVhttp://dlvr.it/7NzvD7
p229
I2
sVhttp://dlvr.it/7P0BHY
p230
I2
sVhttp://dlvr.it/7NzsbF
p231
I2
sVhttp://dlvr.it/7NzscP
p232
I2
sVhttp://dlvr.it/7P074v
p233
I2
sVhttp://dlvr.it/7Nzws2
p234
I2
sVhttp://dlvr.it/7Nzs5C
p235
I2
sVhttp://dlvr.it/7P09jf
p236
I2
sVhttp://dlvr.it/7P08Q2
p237
I2
sVhttp://dlvr.it/7NzpSr
p238
I2
sVhttp://dlvr.it/7Nzqcm
p239
I2
sVhttp://dlvr.it/7NztHt
p240
I2
sVhttp://dlvr.it/7NzqLV
p241
I2
sVhttp://dlvr.it/7P0C3f
p242
I2
sVhttp://dlvr.it/7NzsXL
p243
I2
sVhttp://dlvr.it/7P07zK
p244
I2
sVhttp://dlvr.it/7P07cx
p245
I2
sVhttp://dlvr.it/7P07kk
p246
I2
sVhttp://dlvr.it/7P07rc
p247
I4
sVhttp://dlvr.it/7NzsPq
p248
I2
sVhttp://dlvr.it/7NzrKt
p249
I2
sVhttp://dlvr.it/7P07Sz
p250
I2
sVhttp://dlvr.it/7P08wN
p251
I2
sVhttp://dlvr.it/7NzrjD
p252
I2
sVhttp://dlvr.it/7P09P3
p253
I2
sVhttp://dlvr.it/7NztHL
p254
I2
sVhttp://dlvr.it/7P0D6b
p255
I2
sVhttp://dlvr.it/7P07F5
p256
I2
sVhttp://dlvr.it/7P05Wj
p257
I2
sVhttp://dlvr.it/7NzwGs
p258
I2
sVhttp://dlvr.it/7P0BJl
p259
I2
sVhttp://dlvr.it/7NzwnB
p260
I2
sVhttp://dlvr.it/7NzqnF
p261
I2
sVhttp://dlvr.it/7NzsvB
p262
I2
sVhttp://dlvr.it/7P0CjD
p263
I2
sVhttp://dlvr.it/7Nzsqs
p264
I2
sVhttp://dlvr.it/7Nzp40
p265
I2
sVhttp://dlvr.it/7Nzwn4
p266
I2
sVhttp://dlvr.it/7Nzwy3
p267
I2
sVhttp://dlvr.it/7P09kh
p268
I2
sVhttp://dlvr.it/7P05ms
p269
I2
sVhttp://dlvr.it/7P07pd
p270
I2
sVhttp://dlvr.it/7NzwVG
p271
I2
sVhttp://dlvr.it/7P07Np
p272
I2
sVhttp://dlvr.it/7P0CJr
p273
I2
sVhttp://dlvr.it/7NzshV
p274
I2
sVhttp://dlvr.it/7Nzr0J
p275
I2
sVhttp://dlvr.it/7Nzq1Q
p276
I2
sVhttp://dlvr.it/7Nzw5y
p277
I2
sVhttp://dlvr.it/7NztND
p278
I2
sVhttp://dlvr.it/7Nztw5
p279
I2
sVhttp://dlvr.it/7NzpgP
p280
I2
sVhttp://dlvr.it/7Nzthj
p281
I2
sVhttp://dlvr.it/7P03Yg
p282
I2
sVhttp://dlvr.it/7Nzqhv
p283
I2
sVhttp://dlvr.it/7Nzrn4
p284
I2
sVhttp://dlvr.it/7P08Cd
p285
I2
sVhttp://dlvr.it/7NztSq
p286
I2
sVhttp://dlvr.it/7NzryF
p287
I2
sVhttp://dlvr.it/7P09jV
p288
I2
sVhttp://dlvr.it/7P0635
p289
I2
sVhttp://dlvr.it/7NzvX8
p290
I2
sVhttp://dlvr.it/7NzsLP
p291
I2
sVhttp://dlvr.it/7P0BWd
p292
I2
sVhttp://dlvr.it/7NzvPy
p293
I2
sVhttp://dlvr.it/7P070R
p294
I2
sVhttp://dlvr.it/7Nzs1S
p295
I2
sVhttp://dlvr.it/7P091T
p296
I2
sVhttp://dlvr.it/7P08Tn
p297
I2
sVhttp://dlvr.it/7P06Q9
p298
I2
sVhttp://dlvr.it/7Nzr5K
p299
I2
sVhttp://bit.ly/1sZKgrn
p300
I2
sVhttp://dlvr.it/7NzqR4
p301
I2
sVhttp://dlvr.it/7P08MV
p302
I2
sVhttp://dlvr.it/7Nzsnm
p303
I2
sVhttp://dlvr.it/7Nzst6
p304
I2
sVhttp://dlvr.it/7Nzt3Q
p305
I2
sVhttp://dlvr.it/7P08K4
p306
I2
sVhttp://dlvr.it/7P06QZ
p307
I2
sVhttp://dlvr.it/7P05Hm
p308
I2
sVhttp://dlvr.it/7Nzs8t
p309
I2
sVhttp://dlvr.it/7P063M
p310
I2
sVhttp://dlvr.it/7NzrXV
p311
I2
sVhttp://dlvr.it/7P08Mx
p312
I2
sVhttp://bit.ly/1sZKgrB
p313
I66
sVhttp://dlvr.it/7NzvQp
p314
I2
sVhttp://dlvr.it/7Nzrwl
p315
I2
sVhttp://dlvr.it/7P09T0
p316
I2
sVhttp://dlvr.it/7P086W
p317
I2
sVhttp://dlvr.it/7Nzq3V
p318
I2
ssg179
Vabout the students from hong kong who darent voice open support for occupy
p319
sg181
I2
sg182
I2
sg183
I11
sa(dp320
g2
(dp321
g4
I0
sg5
I178
ssg6
I178
sg7
g8
((lp322
I2786075652
aI2290234374
aI2290694664
aI2787825163
aI2289425431
aI2793954848
aI2781830690
aI501517863
aI2781894697
aI2785460778
aI1597829640
aI2784600115
aI2799555642
aI2289809468
aI2797462598
aI501528141
aI2781889627
aI2289524316
aI2281776226
aI501531236
aI2781828714
aI2289400950
aI2780430973
aI501581961
aI1384605834
aI2290466960
aI2290651285
aI2785899174
aI2780235948
aI2279678125
aI2783619758
aI2781825714
aI2290230451
aI2781891265
aI2783604854
aI2780233416
aI501585105
aI501526238
aI501523173
aI2290949366
aI2780439799
aI2787480824
aI2781858044
aI2289550082
aI2787617540
aI2780478216
aI501520139
aI2289373458
aI2785913646
aI2787601688
aI2290627866
aI2780377884
aI2785749277
aI2291095854
aI146739934
aI2290103095
aI2781964602
aI2256974142
aI2418931519
aI2799846727
aI2787510601
aI2795571020
aI2783595878
aI2780474216
aI2781857132
aI232769907
aI2596006777
aI2785917830
aI2290377098
aI501529997
aI2787804050
aI2754656149
aI501587868
aI2781893540
aI2795721133
aI1597875644
aI2780492738
aI2799379909
aI2418943434
aI2772020695
aI2781854628
aI2752155098
aI2418990055
aI2278469100
aI2289667568
aI2784654836
aI501514746
aI2780312575
atp323
Rp324
sg12
I5
sg13
g14
(g15
tp325
Rp326
Vhttp://bit.ly/1wqM2rQ
p327
I92
sVhttp://bit.ly/1ufwVlz
p328
I4
sVhttp://bit.ly/1t4O9eE
p329
I42
sVhttp://bit.ly/1ufwXtB
p330
I40
ssg179
Vbriton arrested in hong kong for double murder a british banker will appear in a hong kong court monday to fa
p331
sg181
I3
sg182
I2
sg183
I11
sa(dp332
g2
(dp333
g4
I0
sg5
I176
ssg6
I176
sg7
g8
((lp334
I2567306240
aI464450433
aI1606064910
aI557428834
aI2422121857
aI550210056
aI2566996873
aI1624649227
aI376410894
aI511898798
aI2567308818
aI599740181
aI2566910743
aI2393298072
aI787546010
aI453533469
aI2212972574
aI967472671
aI80327968
aI2566769406
aI539685410
aI552363428
aI727642152
aI1544805674
aI1489796270
aI278370845
aI464461104
aI2768062344
aI2566752181
aI2370429877
aI515544393
aI2497726904
aI160930875
aI2566956234
aI755831359
aI2159638466
aI2825172035
aI584748487
aI549093082
aI2660491081
aI1867362378
aI2792170752
aI16816972
aI956324941
aI549086924
aI352550098
aI2566724436
aI139332366
aI774128420
aI185745880
aI323685593
aI2567353050
aI2242439771
aI511953244
aI2566815582
aI2566708704
aI404680674
aI1104938408
aI1004424294
aI169527526
aI86142824
aI841623403
aI2261479020
aI1629892242
aI229238001
aI2722832755
aI813064693
aI381652598
aI635831295
aI12376572
aI2566762878
aI2391758079
atp335
Rp336
sg12
I5
sg13
g14
(g15
tp337
Rp338
Vhttp://BAKMODA.COM
p339
I60
sVhttp://dlvr.it/7PL2XL
p340
I2
sVhttp://dlvr.it/7PL1vt
p341
I2
sVhttp://dlvr.it/7PKyT9
p342
I2
sVhttp://dlvr.it/7PL1QP
p343
I2
sVhttp://dlvr.it/7PL41l
p344
I2
sVhttp://dlvr.it/7PL0QK
p345
I2
sVhttp://dlvr.it/7PL3gz
p346
I2
sVhttp://dlvr.it/7PKrn7
p347
I2
sVhttp://dlvr.it/7PKyqp
p348
I2
sVhttp://dlvr.it/7PKnPW
p349
I2
sVhttp://dlvr.it/7PKxp0
p350
I2
sVhttp://dlvr.it/7PKp6h
p351
I2
sVhttp://dlvr.it/7PKz1H
p352
I2
sVhttp://goo.gl/fb/Tec5Hb
p353
I2
sVhttp://goo.gl/NKaBNq
p354
I2
sVhttp://dlvr.it/7PKy9F
p355
I2
sVhttp://dlvr.it/7PKk5q
p356
I2
sVhttp://dlvr.it/7PKnTV
p357
I2
sVhttp://dlvr.it/7PL07W
p358
I2
sVhttp://dlvr.it/7PL3wv
p359
I2
sVhttp://dlvr.it/7PKyxb
p360
I2
sVhttp://dlvr.it/7PKzxf
p361
I2
sVhttp://dlvr.it/7PL2Yr
p362
I2
sVhttp://ift.tt/1txdzag
p363
I2
sVhttp://dlvr.it/7PL0pF
p364
I2
sVhttp://dlvr.it/7PL1pW
p365
I2
sVhttp://dlvr.it/7PL0Gx
p366
I2
sVhttp://dlvr.it/7PL2Dl
p367
I2
sVhttp://dlvr.it/7PKv1W
p368
I2
sVhttp://dlvr.it/7PL2n8
p369
I2
sVhttp://dlvr.it/7PL3gT
p370
I4
sVhttp://dlvr.it/7PKzYS
p371
I2
sVhttp://dlvr.it/7PL48p
p372
I2
sVhttp://dlvr.it/7PKvfl
p373
I2
sVhttp://dlvr.it/7PKz81
p374
I2
sVhttp://bakmoda.com
p375
I36
sVhttp://dlvr.it/7PL1kH
p376
I2
sVhttp://ift.tt/1DNz33v
p377
I32
sVhttp://goo.gl/fb/al9hDj
p378
I2
sVhttp://dlvr.it/7PKppD
p379
I2
sVhttp://dlvr.it/7PL2Hf
p380
I2
sVhttp://dlvr.it/7PL3PF
p381
I2
sVhttp://dlvr.it/7PL1by
p382
I2
sVhttp://dlvr.it/7PL2ZQ
p383
I2
sVhttp://dlvr.it/7PKzqB
p384
I2
sVhttp://dlvr.it/7PL3Z9
p385
I2
sVhttp://dlvr.it/7PL2nX
p386
I2
sVhttp://dlvr.it/7PKqG7
p387
I2
sVhttp://dlvr.it/7PL0nG
p388
I2
sVhttp://dlvr.it/7PKxjR
p389
I2
sVhttp://dlvr.it/7PKxHK
p390
I2
sVhttp://dlvr.it/7PL35G
p391
I2
sVhttp://dlvr.it/7PL0hH
p392
I2
sVhttp://dlvr.it/7PKy6x
p393
I2
sVhttp://dlvr.it/7PL47Z
p394
I2
sVhttp://dlvr.it/7PKxGD
p395
I2
sVhttp://dlvr.it/7PL2jV
p396
I2
sVhttp://dlvr.it/7PKwZv
p397
I2
sVhttp://dlvr.it/7PKsCt
p398
I2
sVhttp://goo.gl/fb/T6qI6C
p399
I2
sVhttp://dlvr.it/7PKxz2
p400
I2
sVhttp://dlvr.it/7PKY0f
p401
I2
sVhttp://goo.gl/fb/Kn19cF
p402
I2
sVhttp://dlvr.it/7PKhP9
p403
I2
sVhttp://dlvr.it/7PKpHh
p404
I2
sVhttp://j.mp/izea23
p405
I4
sVhttp://dlvr.it/7PKyP1
p406
I2
sVhttp://dlvr.it/7PKzLx
p407
I2
sVhttp://dlvr.it/7PKyTD
p408
I2
sVhttp://anythingrelated.com
p409
I2
sVhttp://goo.gl/bfNioa
p410
I2
sVhttp://dlvr.it/7PL0Tf
p411
I2
sVhttp://dlvr.it/7PKWLM
p412
I2
sVhttp://dlvr.it/7PKyZl
p413
I2
sVhttp://dlvr.it/7PKt2J
p414
I2
ssg179
Vmerkels rebuff and the hong kong murders
p415
sg181
I4
sg182
I2
sg183
I11
sa(dp416
g2
(dp417
g4
I0
sg5
I176
ssg6
I176
sg7
g8
((lp418
I787014662
aI1214295559
aI363030025
aI607283292
aI395132433
aI1278597655
aI1214277151
aI2882437664
aI269889569
aI2492075561
aI1214304811
aI1214301228
aI230673965
aI1214276658
aI1214331451
aI1214310980
aI810755659
aI1214301776
aI126600280
aI1214303324
aI1214251110
aI1214330474
aI2279052907
aI1214292589
aI1214273143
aI1214296190
aI1214293124
aI1214348935
aI46088331
aI1214307996
aI590312609
aI1214309538
aI16922792
aI1214199985
aI1214312310
aI1214296609
aI1303136983
aI1214344933
aI1594949365
aI1214307066
aI1692965118
aI1214272770
aI1214292234
aI1214273803
aI1214307090
aI1214326039
aI1214184738
aI1214281808
aI475006262
aI1214315659
aI1214295368
aI1214308681
aI1214299981
aI2459920208
aI851815249
aI1214286308
aI1214310236
aI232769907
aI1214309238
aI336041336
aI1214324089
aI1668066686
aI1214304649
aI1214318479
aI1214280594
aI1214311316
aI1214285718
aI1214282652
aI1214258088
aI297443753
aI1214160810
aI1473829813
aI1214303671
aI1213908925
aI1214336959
aI1214341057
aI1214337475
aI1214337476
aI2609660358
aI2718352844
aI1214306779
aI985584720
aI1214240226
aI390920164
aI1214297582
aI817074512
aI2839828467
aI1214308861
atp419
Rp420
sg12
I5
sg13
g14
(g15
tp421
Rp422
Vhttp://bit.ly/1tOoqfR
p423
I138
sVhttp://bit.ly/1wVbrbX
p424
I2
sVhttp://bit.ly/1wVoFFF
p425
I2
sVhttp://bit.ly/1wVbrZB
p426
I20
sVhttp://bit.ly/1wVbtAE
p427
I2
sVhttp://bit.ly/1woRZW8
p428
I2
sVhttp://goo.gl/nuo0Yd
p429
I2
sVhttp://bit.ly/1tOozQr
p430
I6
sVhttp://bit.ly/1tOoEDt
p431
I2
ssg179
Vforeign bofa merrill lynch banker linked to hong kong murders source hong kong reuters  a bank of america
p432
sg181
I5
sg182
I2
sg183
I11
sa(dp433
g2
(dp434
g4
I0
sg5
I162
ssg6
I162
sg7
g8
((lp435
I1214272770
aI1214293124
aI1214295559
aI1214304649
aI1214292234
aI1214273803
aI297443753
aI1214318479
aI607283292
aI395132433
aI1214280594
aI1214337475
aI1214311316
aI1214285718
aI1214326039
aI1214337476
aI1214282652
aI1214277151
aI2459920208
aI1214296609
aI1214184738
aI1214309538
aI1214258088
aI1214310236
aI1214160810
aI1214304811
aI1214301228
aI230673965
aI2492075561
aI2175612079
aI1214199985
aI1214276658
aI1473829813
aI1668066686
aI475006262
aI1214303671
aI1214331451
aI1213908925
aI2718352844
aI1214336959
aI1214341057
aI1214307996
aI1214315659
aI1214310980
aI1214309238
aI2609660358
aI269889569
aI1214295368
aI1214308681
aI1214348935
aI1214299981
aI1214281808
aI2882437664
aI1303136983
aI390920164
aI1214306779
aI1214303324
aI1214307066
aI1214301776
aI1214240226
aI590312609
aI1214286308
aI1214344933
aI1214251110
aI1214330474
aI2279052907
aI1214292589
aI1214297582
aI817074512
aI2839828467
aI1594949365
aI1214312310
aI1214273143
aI336041336
aI1214324089
aI1214307090
aI1692965118
aI1214308861
aI1214296190
atp436
Rp437
sg12
I5
sg13
g14
(g15
tp438
Rp439
Vhttp://bit.ly/1ufUgmZ
p440
I4
sVhttp://bit.ly/1wYYGx9
p441
I2
sVhttp://bit.ly/1wYYvSp
p442
I128
sVhttp://bit.ly/1ufUgn9
p443
I2
sVhttp://bit.ly/1wZcoAf
p444
I4
sVhttp://bit.ly/1wZcnfz
p445
I2
sVhttp://bit.ly/1ufUgDH
p446
I2
sVhttp://bit.ly/1wYYEW1
p447
I18
ssg179
Vbritish banker charged with murder of two women in hong kong hong kong reuters  a 29yearold british bank
p448
sg181
I6
sg182
I2
sg183
I11
sa(dp449
g2
(dp450
g4
I6
sg5
I148
ssg6
I154
sg7
g8
((lp451
I208617216
aI2422121857
aI91334917
aI363494152
aI1214289673
aI198507274
aI88889613
aI301696398
aI1291677200
aI2840426004
aI1252119193
aI787546010
aI41170844
aI2524463646
aI2466580130
aI94247971
aI1104938408
aI1177420700
aI337602704
aI2744537131
aI877319342
aI418100019
aI1163510196
aI2370429877
aI2716028982
aI41508279
aI1197991488
aI18990144
aI113352252
aI296493118
aI1592214848
aI2337544130
aI2452856503
aI1451808590
aI2675396563
aI196110680
aI2690538074
aI224560091
aI1493233116
aI2749832413
aI37659742
aI259501153
aI590366563
aI2351971177
aI42957036
aI2528532205
aI940000238
aI2690281202
aI2228605939
aI813064693
aI270909046
aI2363740794
aI1291717885
aI1195087230
aI293415807
atp452
Rp453
sg12
I5
sg13
g14
(g15
tp454
Rp455
Vhttp://dlvr.it/7PJxhW
p456
I2
sVhttp://dlvr.it/7PNVGj
p457
I4
sVhttp://goo.gl/fb/ejA5ms
p458
I2
sVhttp://goo.gl/fb/G5yJNN
p459
I2
sVhttp://ift.tt/1xQUzSZ
p460
I2
sVhttp://goo.gl/fb/Bu9KBO
p461
I2
sVhttp://bit.ly/1Ec5HOz
p462
I2
sVhttp://dlvr.it/7PPdwS
p463
I2
sVhttp://ift.tt/1wXpUmU
p464
I2
sVhttp://bit.ly/1GdldeT
p465
I2
sVhttp://dlvr.it/7PJqpj
p466
I2
sVhttp://goo.gl/fb/FWAAi6
p467
I2
sVhttp://dlvr.it/7PPFCw
p468
I2
sVhttp://bit.ly/1wZcnfz
p469
I2
sVhttp://dlvr.it/7PNN5P
p470
I2
sVhttp://ow.ly/2Q3cbi
p471
I2
sVhttp://dlvr.it/7PJs5R
p472
I2
sVhttp://bit.ly/1vC4PfG
p473
I2
sVhttp://dlvr.it/7PK0zq
p474
I2
sVhttp://dlvr.it/7PNpgh
p475
I2
sVhttp://ift.tt/1wXdCLr
p476
I2
sVhttp://ift.tt/1rPMZ6y
p477
I2
sVhttp://tmblr.co/ZS_jnm1Uh256p
p478
I2
sVhttp://bit.ly/WWDDbf
p479
I2
sVhttp://dlvr.it/7PKF9R
p480
I2
sVhttp://dlvr.it/7PJxfW
p481
I4
sVhttp://ift.tt/1ukKuk6
p482
I2
sVhttp://dlvr.it/7PJvww
p483
I2
sVhttp://bit.ly/13xyyzE
p484
I2
sVhttp://ow.ly/2Q3cqy
p485
I2
sVhttp://ift.tt/1s6sYd3
p486
I2
sVhttp://ift.tt/1DOYnWR
p487
I4
sVhttp://dlvr.it/7PKWv8
p488
I2
sVhttp://dlvr.it/7PNY5r
p489
I2
sVhttp://dlvr.it/7PP1HZ
p490
I2
sVhttp://dlvr.it/7PNX02
p491
I2
sVhttp://ow.ly/2Q3cpG
p492
I2
sVhttp://goo.gl/fb/Z5Tsqe
p493
I2
sVhttp://bit.ly/1EbJtw4
p494
I2
sVhttp://bit.ly/1vC4zgv
p495
I8
sVhttp://dlvr.it/7PKBrg
p496
I2
sVhttp://bit.ly/1ufUgmZ
p497
I2
sVhttp://dlvr.it/7PK4K2
p498
I2
sVhttp://bit.ly/1pgnp06
p499
I6
sVhttp://bit.ly/1wYYvSp
p500
I2
sVhttp://bit.ly/1ugb2m7
p501
I2
sVhttp://dlvr.it/7PK663
p502
I2
sVhttp://dlvr.it/7PNsLP
p503
I2
sVhttp://dlvr.it/7PNTg9
p504
I2
sVhttp://goo.gl/fb/tMT9GK
p505
I2
sVhttp://ow.ly/2Q3cHh
p506
I2
sVhttp://dlvr.it/7PPcg0
p507
I2
sVhttp://bit.ly/VakEyl
p508
I14
sVhttp://goo.gl/fb/6js9rJ
p509
I2
sVhttp://dlvr.it/7PNTF3
p510
I2
sVhttp://dlvr.it/7PNrJl
p511
I2
sVhttp://dlvr.it/7PNwkb
p512
I2
sVhttp://twitter.com/antiinertia/status/529059906515906561/photo/1
p513
I2
sVhttp://ow.ly/2Q3cHF
p514
I2
sVhttp://ift.tt/1rPLhCn
p515
I2
sVhttp://j.mp/izea23
p516
I8
sVhttp://ift.tt/1wW0sjz
p517
I2
sVhttp://dlvr.it/7PNcK0
p518
I2
sVhttp://ift.tt/1wWFOQc
p519
I2
sVhttp://bit.ly/1tx6Z3s
p520
I8
sVhttp://ow.ly/2Q3crw
p521
I2
sVhttp://bit.ly/1ufUieC
p522
I2
sVhttp://goo.gl/gGIM7e
p523
I2
sVhttp://dlvr.it/7PK0ZN
p524
I2
sVhttp://ow.ly/2Q3cyl
p525
I2
ssg179
Vbritish banker charged with murder of two women in hong kong
p526
sg181
I7
sg182
I2
sg183
I11
sa(dp527
g2
(dp528
g4
I0
sg5
I144
ssg6
I144
sg7
g8
((lp529
I2792170752
aI2422121857
aI1727895685
aI550210056
aI2566996873
aI1016733578
aI1624649227
aI1556118416
aI2567308818
aI599740181
aI104403350
aI323685593
aI787546010
aI549093082
aI36964638
aI2566769406
aI539685410
aI975774038
aI229238001
aI32916265
aI278370845
aI2768062344
aI2370429877
aI160930875
aI1316708413
aI1235965759
aI1592214848
aI2212972574
aI515544393
aI1867362378
aI956324941
aI2566910743
aI2369907793
aI352550098
aI1640973012
aI2566762878
aI1273848278
aI489195223
aI2566956234
aI552363428
aI2567353050
aI2242439771
aI511953244
aI2566815582
aI404680674
aI1004424294
aI1326560743
aI86142824
aI1629892242
aI217208433
aI620713076
aI813064693
aI381652598
aI1308079098
aI2567306240
aI635831295
atp530
Rp531
sg12
I5
sg13
g14
(g15
tp532
Rp533
Vhttp://dlvr.it/7P2pM8
p534
I2
sVhttp://dlvr.it/7P32xL
p535
I2
sVhttp://BAKMODA.COM
p536
I48
sVhttp://dlvr.it/7P2jcC
p537
I2
sVhttp://dlvr.it/7P32xF
p538
I2
sVhttp://dlvr.it/7P32zL
p539
I2
sVhttp://dlvr.it/7P34tS
p540
I2
sVhttp://dlvr.it/7P32H2
p541
I2
sVhttp://dlvr.it/7P32WT
p542
I2
sVhttp://dlvr.it/7P2fF0
p543
I2
sVhttp://dlvr.it/7P2lgN
p544
I2
sVhttp://goo.gl/fb/B1uOyo
p545
I2
sVhttp://dlvr.it/7P2x5H
p546
I2
sVhttp://dlvr.it/7P2n3F
p547
I2
sVhttp://dlvr.it/7P3xcd
p548
I2
sVhttp://dlvr.it/7P322J
p549
I2
sVhttp://goo.gl/fb/Nefbyc
p550
I2
sVhttp://dlvr.it/7P2x4V
p551
I2
sVhttp://dlvr.it/7P2j37
p552
I2
sVhttp://dlvr.it/7P34kk
p553
I2
sVhttp://dlvr.it/7P2llJ
p554
I2
sVhttp://dlvr.it/7P2jsp
p555
I2
sVhttp://dlvr.it/7P2dXL
p556
I2
sVhttp://dlvr.it/7P305v
p557
I2
sVhttp://goo.gl/kQQNrc
p558
I2
sVhttp://goo.gl/VQsrYF
p559
I2
sVhttp://dlvr.it/7P2p21
p560
I2
sVhttp://dlvr.it/7P2lvB
p561
I2
sVhttp://dlvr.it/7P2dXZ
p562
I2
sVhttp://dlvr.it/7P33Z5
p563
I2
sVhttp://dlvr.it/7P2twL
p564
I2
sVhttp://dlvr.it/7P2zFh
p565
I2
sVhttp://dlvr.it/7P2hWY
p566
I2
sVhttp://goo.gl/zL4XZ6
p567
I2
sVhttp://bakmoda.com
p568
I36
sVhttp://goo.gl/fb/1Jodgd
p569
I2
sVhttp://dlvr.it/7P32jG
p570
I2
sVhttp://dlvr.it/7P2drV
p571
I2
sVhttp://dlvr.it/7P34Tz
p572
I2
sVhttp://dlvr.it/7P2zTM
p573
I2
sVhttp://dlvr.it/7P2gxs
p574
I2
sVhttp://dlvr.it/7P2z7z
p575
I2
sVhttp://dlvr.it/7P2mbP
p576
I2
sVhttp://dlvr.it/7P2p0P
p577
I2
sVhttp://dlvr.it/7P31zp
p578
I2
sVhttp://ift.tt/1qhGwBQ
p579
I12
sVhttp://dlvr.it/7P2trx
p580
I2
sVhttp://dlvr.it/7P2hW5
p581
I2
sVhttp://goo.gl/fb/bj9GoP
p582
I2
sVhttp://dlvr.it/7P2cHS
p583
I2
sVhttp://dlvr.it/7P3002
p584
I2
sVhttp://dlvr.it/7P2wD7
p585
I2
sVhttp://dlvr.it/7P31cl
p586
I2
sVhttp://dlvr.it/7P2nyc
p587
I2
sVhttp://dlvr.it/7P33Df
p588
I2
sVhttp://dlvr.it/7P2hjd
p589
I2
sVhttp://dlvr.it/7P2dgp
p590
I2
sVhttp://dlvr.it/7P2kBG
p591
I2
sVhttp://dlvr.it/7P32c7
p592
I2
sVhttp://j.mp/izea23
p593
I4
sVhttp://goo.gl/fb/KBsMWZ
p594
I2
sVhttp://dlvr.it/7P2lKD
p595
I2
sVhttp://dlvr.it/7P34wp
p596
I2
sVhttp://dlvr.it/7P2xqs
p597
I2
sVhttp://dlvr.it/7P32Jf
p598
I2
sVhttp://dlvr.it/7P2ncQ
p599
I4
sVhttp://dlvr.it/7P2qWy
p600
I2
sVhttp://dlvr.it/7P2n8F
p601
I2
sVhttp://dlvr.it/7P2jvW
p602
I2
ssg179
Vvideo briton held over hong kong murders
p603
sg181
I8
sg182
I2
sg183
I11
sa(dp604
g2
(dp605
g4
I2
sg5
I108
ssg6
I110
sg7
g8
((lp606
I2737066232
aI2737118202
aI2737167931
aI2844435669
atp607
Rp608
sg12
I5
sg13
g14
(g15
tp609
Rp610
Vhttp://dlvr.it/7P02VP
p611
I2
sVhttp://dlvr.it/7NzyrV
p612
I2
sVhttp://dlvr.it/7P00tn
p613
I2
sVhttp://dlvr.it/7P03JN
p614
I2
sVhttp://dlvr.it/7Nzxmr
p615
I2
sVhttp://dlvr.it/7NzyQD
p616
I2
sVhttp://dlvr.it/7NzxgD
p617
I2
sVhttp://dlvr.it/7P02g4
p618
I2
sVhttp://dlvr.it/7P04kD
p619
I2
sVhttp://dlvr.it/7NzyBq
p620
I2
sVhttp://dlvr.it/7P03lz
p621
I2
sVhttp://dlvr.it/7P03tP
p622
I2
sVhttp://dlvr.it/7NzyDB
p623
I2
sVhttp://dlvr.it/7Nzxmk
p624
I2
sVhttp://dlvr.it/7Nzztz
p625
I2
sVhttp://dlvr.it/7NzyLJ
p626
I2
sVhttp://dlvr.it/7P02c4
p627
I2
sVhttp://dlvr.it/7Nzz7H
p628
I2
sVhttp://dlvr.it/7NzxwH
p629
I2
sVhttp://dlvr.it/7P0477
p630
I2
sVhttp://dlvr.it/7P03b2
p631
I2
sVhttp://dlvr.it/7Nzzzd
p632
I2
sVhttp://dlvr.it/7Nzzbf
p633
I2
sVhttp://dlvr.it/7P01tF
p634
I2
sVhttp://dlvr.it/7P0237
p635
I4
sVhttp://dlvr.it/7P00JP
p636
I2
sVhttp://dlvr.it/7NzyyB
p637
I2
sVhttp://dlvr.it/7P04j2
p638
I2
sVhttp://dlvr.it/7P04f4
p639
I2
sVhttp://dlvr.it/7P01Gc
p640
I2
sVhttp://dlvr.it/7P02jQ
p641
I2
sVhttp://dlvr.it/7P02M7
p642
I2
sVhttp://dlvr.it/7P023D
p643
I2
sVhttp://dlvr.it/7P012B
p644
I2
sVhttp://bit.ly/VPGg4P
p645
I110
sVhttp://dlvr.it/7P021J
p646
I2
sVhttp://dlvr.it/7P03QH
p647
I2
sVhttp://dlvr.it/7Nzxlb
p648
I2
sVhttp://dlvr.it/7NzzS8
p649
I2
sVhttp://dlvr.it/7P00VC
p650
I2
sVhttp://dlvr.it/7NzxyQ
p651
I2
sVhttp://dlvr.it/7P03W1
p652
I2
sVhttp://dlvr.it/7P045b
p653
I2
sVhttp://dlvr.it/7P02rh
p654
I2
sVhttp://dlvr.it/7NzxTj
p655
I2
sVhttp://dlvr.it/7P04bk
p656
I2
sVhttp://dlvr.it/7P021l
p657
I2
sVhttp://dlvr.it/7P00fn
p658
I2
sVhttp://dlvr.it/7P03GQ
p659
I2
sVhttp://dlvr.it/7P03hf
p660
I2
sVhttp://dlvr.it/7NzzTL
p661
I2
sVhttp://dlvr.it/7P02Z7
p662
I2
sVhttp://dlvr.it/7P00sw
p663
I2
sVhttp://dlvr.it/7P01r0
p664
I2
sVhttp://dlvr.it/7P03Kt
p665
I2
ssg179
Vrt ipad iphone british man held over hong kong murders  bbc news   app
p666
sg181
I9
sg182
I2
sg183
I11
sa(dp667
g2
(dp668
g4
I100
sg5
I2
ssg6
I102
sg7
g8
((lp669
I14173315
aI22905734
aI2178611209
aI17217548
aI20715279
aI1131016494
aI341546135
aI751231514
aI326892463
aI500028700
aI2359567133
aI1664059166
aI2830028959
aI866788843
aI600226083
aI2887706407
aI18696875
aI1113983916
aI1944915506
aI261353006
aI2199392815
aI2719770929
aI2444984626
aI145053494
aI93078329
aI135315903
aI505848389
aI2855109957
aI2653602888
aI2187220087
aI1290235596
aI1450591184
aI80855252
aI218789497
aI2599883864
aI553105423
aI615992186
aI402937312
aI2346189283
aI2485718628
aI363492967
aI2575194728
aI155661547
aI1062791150
aI50799216
aI2463919220
aI332604535
aI2232691961
aI64673274
aI1669934971
aI923037565
atp670
Rp671
sg12
I5
sg13
g14
(g15
tp672
Rp673
Vhttp://bit.ly/1ubxahw
p674
I102
ssg179
Vbank of america merrill lynch employee held over hong kong womens murders
p675
sg181
I10
sg182
I2
sg183
I11
sa(dp676
g2
(dp677
g4
I0
sg5
I100
ssg6
I100
sg7
g8
((lp678
I912087812
aI466015878
aI2688572791
aI983395976
aI46088331
aI96410636
aI1719386893
aI1154596363
aI296190489
aI1570258970
aI601468701
aI821331486
aI1416828066
aI176191523
aI417299066
aI2615379878
aI292000814
aI893691019
aI2768062344
aI2464708274
aI246953395
aI1658958260
aI2733115294
aI389770680
aI861876666
aI2656346300
aI190810047
aI525606336
aI37502019
aI504731972
aI603333573
aI475744070
aI357438536
aI538774987
aI1384144730
aI2229021782
aI1032104024
aI211866330
aI961355101
aI330551755
aI313983586
aI246944099
aI2191793006
aI410025332
aI906326647
aI263136632
aI443733140
aI1557821946
aI499828799
atp679
Rp680
sg12
I5
sg13
g14
(g15
tp681
Rp682
Vhttp://bit.ly/1tP0Y22
p683
I2
sVhttp://bit.ly/1wSTvPs
p684
I2
sVhttp://bit.ly/1ubJi1P
p685
I50
sVhttp://bit.ly/1u8evmB
p686
I2
sVhttp://bit.ly/1wnHxOz
p687
I6
sVhttp://bit.ly/1vygpIF
p688
I18
sVhttp://bit.ly/1u8mvEi
p689
I12
sVhttp://bit.ly/1vulkKE
p690
I6
sVhttp://bit.ly/1ubHE0n
p691
I2
ssg179
Vbriton held over hong kong murders after bodies of two women found hong kong police arrest hold 29yearold m
p692
sg181
I11
sg182
I2
sg183
I11
sa(dp693
g2
(dp694
g4
I2
sg5
I92
ssg6
I94
sg7
g8
((lp695
I208617216
aI2422121857
aI567522948
aI86241025
aI217323400
aI1214289673
aI198507274
aI150363019
aI153876973
aI892167936
aI2840426004
aI787546010
aI94247971
aI1104938408
aI388495274
aI2793168046
aI2370429877
aI41508279
aI2290002361
aI1720434954
aI296493118
aI2256191935
aI1592214848
aI2337544130
aI381718723
aI516508323
aI2690538074
aI37659742
aI590366563
aI2351971177
aI2528532205
aI940000238
aI2326481905
aI2690281202
aI2228605939
aI2260008948
aI813064693
aI99170281
aI2773517432
aI1195087230
atp696
Rp697
sg12
I5
sg13
g14
(g15
tp698
Rp699
Vhttp://bit.ly/1wVeaSY
p700
I2
sVhttp://ift.tt/1vxnFV7
p701
I2
sVhttp://bit.ly/1tOoqfR
p702
I8
sVhttp://dlvr.it/7NzwXJ
p703
I2
sVhttp://dlvr.it/7Nzpv8
p704
I2
sVhttp://dlvr.it/7NzvgW
p705
I2
sVhttp://dlvr.it/7P2xLx
p706
I2
sVhttp://dld.bz/dz72b
p707
I2
sVhttp://ift.tt/1tOzU2M
p708
I4
sVhttp://ift.tt/1uiWumi
p709
I2
sVhttp://dlvr.it/7P2nZh
p710
I2
sVhttp://dlvr.it/7P262T
p711
I2
sVhttp://ift.tt/1vxTi0O
p712
I2
sVhttp://bit.ly/1woQ2sL
p713
I8
sVhttp://bit.ly/1rM0xQx
p714
I10
sVhttp://bit.ly/1tOozQr
p715
I2
sVhttp://bit.ly/WWDDbf
p716
I2
sVhttp://dlvr.it/7P01hW
p717
I2
sVhttp://dlvr.it/7P096m
p718
I2
sVhttp://ift.tt/10dJgJF
p719
I4
sVhttp://ift.tt/1wVKZyU
p720
I2
sVhttp://dlvr.it/7P0436
p721
I4
sVhttp://bit.ly/1ub8Z2x
p722
I2
sVhttp://goo.gl/fb/92hwO4
p723
I2
sVhttp://dlvr.it/7P0h5b
p724
I2
sVhttp://ift.tt/1wVGepg
p725
I2
sVhttp://dlvr.it/7P01mg
p726
I2
sVhttp://dlvr.it/7P2pTq
p727
I2
sVhttp://dlvr.it/7P0gCj
p728
I2
sVhttp://dlvr.it/7Nzyq7
p729
I2
sVhttp://bit.ly/1wVbtAE
p730
I2
sVhttp://dlvr.it/7P02Hm
p731
I2
sVhttp://j.mp/izea23
p732
I4
sVhttp://dlvr.it/7P2vll
p733
I2
sVhttp://ift.tt/1qjCDwj
p734
I2
sVhttp://twitter.com/antiinertia/status/528790748037398528/photo/1
p735
I2
ssg179
Vforeign bofa merrill lynch banker linked to hong kong murders source
p736
sg181
I12
sg182
I2
sg183
I11
sa(dp737
g2
(dp738
g4
I22
sg5
I70
ssg6
I92
sg7
g8
((lp739
I309843971
aI124841220
aI37091078
aI24803082
aI458621197
aI48874510
aI2727226645
aI438310807
aI17573918
aI178873889
aI1935265058
aI18758312
aI991599836
aI1096955179
aI2793168046
aI21352370
aI2572916660
aI26163517
aI562680382
aI125549631
aI273595457
aI1134496706
aI2714952908
aI1246177122
aI2385383630
aI2358350928
aI21542359
aI1906665176
aI2330112218
aI137552604
aI49664349
aI2878411998
aI130934111
aI244459746
aI295330659
aI724889701
aI264004582
aI1410774122
aI760315758
aI574630639
aI731956597
aI1306186106
aI169443326
atp740
Rp741
sg12
I5
sg13
g14
(g15
tp742
Rp743
Vhttp://dlvr.it/7P9sXz
p744
I2
sVhttp://bit.ly/1tPBXUj
p745
I2
sVhttp://www.blacklistednews.com/BofA_Banker_Arrested_In_Hong_Kong_For_Double_Murder_Of_Two_Prostitutes%2C_One_Victim_Was_Stuffed_In_A_Suitcase/38919/0/38/38/Y/M.html?utm_source=dlvr.it&utm_medium=twitter#.VFZ7OAXMzV8.twitter
p746
I2
sVhttp://ift.tt/1ucy8tU
p747
I2
sVhttp://bit.ly/1tPBXUa
p748
I2
sVhttp://dlvr.it/7PGw9C
p749
I2
sVhttp://www.blacklistednews.com/BofA_Banker_Arrested_In_Hong_Kong_For_Double_Murder_Of_Two_Prostitutes%2C_One_Victim_Was_Stuffed_In_A_Suitcase/38919/0/38/38/Y/M.html?utm_source=dlvr.it&utm_medium=twitter
p750
I2
sVhttp://bit.ly/1tPBUYt
p751
I4
sVhttp://ift.tt/1rN7Xmu
p752
I4
sVhttp://bit.ly/10d6P58
p753
I2
sVhttp://ift.tt/10eqcuM
p754
I8
sVhttp://dlvr.it/7PGv2z
p755
I2
sVhttp://dlvr.it/7P8sQm
p756
I2
sVhttp://dlvr.it/7PBRDq
p757
I2
sVhttp://dlvr.it/7P7gZb
p758
I2
sVhttp://bit.ly/1wWSVjI
p759
I2
sVhttp://dlvr.it/7P9XNB
p760
I4
sVhttp://bit.ly/1vBQMXo
p761
I2
sVhttp://bit.ly/1s5cnq4
p762
I2
sVhttp://bit.ly/1zZj2uI
p763
I2
sVhttp://bit.ly/1tPBUIe
p764
I2
sVhttp://dlvr.it/7P9m1Y
p765
I4
sVhttp://ift.tt/1DLi1De
p766
I2
sVhttp://dlvr.it/7P7ljV
p767
I2
sVhttp://bit.ly/1GaaYbj
p768
I12
sVhttp://ift.tt/1o4Rn6o
p769
I4
sVhttp://dlvr.it/7P9qkM
p770
I14
ssg179
Vbofa banker arrested in hong kong for double murder of two prostitutes one victim was stuffed in a suitcase
p771
sg181
I13
sg182
I2
sg183
I11
sa(dp772
g2
(dp773
g4
I0
sg5
I86
ssg6
I86
sg7
g8
((lp774
I371350788
aI363218060
aI245693197
aI301696398
aI545057297
aI428603155
aI2840426004
aI368266647
aI434518947
aI405680932
aI2858558377
aI2744537131
aI76432684
aI548224685
aI542120124
aI566790205
aI813064693
aI1592214848
aI529138369
aI2611346546
aI367299401
aI326212431
aI2675396563
aI370922582
aI473415257
aI405739098
aI2242439771
aI555385436
aI365513189
aI543032936
aI464762477
aI940000238
aI416337647
aI545891441
aI2690281202
aI428747509
aI558262010
aI545964285
aI1195087230
atp775
Rp776
sg12
I5
sg13
g14
(g15
tp777
Rp778
Vhttp://dlvr.it/7P4MRk
p779
I2
sVhttp://bit.ly/1uj6vzK
p780
I6
sVhttp://dlvr.it/7P3xFm
p781
I2
sVhttp://dlvr.it/7P5VP8
p782
I2
sVhttp://dlvr.it/7P4BPp
p783
I2
sVhttp://dlvr.it/7PCWbl
p784
I2
sVhttp://ift.tt/1tuScX7
p785
I2
sVhttp://bit.ly/WWDDbf
p786
I2
sVhttp://ift.tt/1tOzU2M
p787
I2
sVhttp://dlvr.it/7P45b1
p788
I2
sVhttp://dlvr.it/7P4LfV
p789
I2
sVhttp://dlvr.it/7P48S4
p790
I2
sVhttp://dlvr.it/7P4LdP
p791
I2
sVhttp://dlvr.it/7P4QXC
p792
I2
sVhttp://dlvr.it/7P5f23
p793
I2
sVhttp://dlvr.it/7P5GXZ
p794
I2
sVhttp://dlvr.it/7P45t4
p795
I2
sVhttp://dlvr.it/7P49lS
p796
I2
sVhttp://dlvr.it/7P4FYs
p797
I2
sVhttp://dlvr.it/7P5Tcn
p798
I2
sVhttp://dlvr.it/7P49yf
p799
I2
sVhttp://dlvr.it/7P4KkL
p800
I2
sVhttp://dlvr.it/7P46p5
p801
I2
sVhttp://goo.gl/k57Hww
p802
I2
sVhttp://bit.ly/1rMvhRB
p803
I4
sVhttp://dlvr.it/7P45rR
p804
I2
sVhttp://ift.tt/1qkCdWB
p805
I2
sVhttp://dlvr.it/7PCcmp
p806
I2
sVhttp://goo.gl/dxFZSt
p807
I2
sVhttp://dlvr.it/7P463W
p808
I2
sVhttp://dlvr.it/7P4CLN
p809
I2
sVhttp://dlvr.it/7P4KJ0
p810
I2
sVhttp://goo.gl/fb/sW42RR
p811
I2
sVhttp://dlvr.it/7P471n
p812
I2
sVhttp://goo.gl/fb/pkYPRf
p813
I2
sVhttp://dlvr.it/7P46xb
p814
I2
sVhttp://dlvr.it/7P47j4
p815
I2
sVhttp://goo.gl/fb/VzoapN
p816
I2
sVhttp://dlvr.it/7P45w8
p817
I2
sVhttp://dlvr.it/7P44y6
p818
I2
ssg179
Vbritish banker arrested in hong kong double murder case
p819
sg181
I14
sg182
I2
sg183
I11
sa(dp820
g2
(dp821
g4
I0
sg5
I84
ssg6
I84
sg7
g8
((lp822
I498007937
aI498012169
aI2593165068
aI88889613
aI370442398
aI577811727
aI1462799250
aI115981166
aI787546010
aI319402270
aI1583817644
aI2857570290
aI2793168046
aI436844799
aI87995697
aI497993118
aI604051910
aI312430861
aI2280325974
aI36050009
aI2242439771
aI15690973
aI2583673568
aI975062882
aI295093243
aI2236222567
aI2214054761
aI153876973
aI2194541678
aI194499826
aI2260008948
aI731956597
aI2773517432
aI498015739
aI83791997
aI1195087230
aI1364013439
atp823
Rp824
sg12
I5
sg13
g14
(g15
tp825
Rp826
Vhttp://dlvr.it/7PLTtL
p827
I2
sVhttp://goo.gl/fb/mmN25I
p828
I2
sVhttp://dlvr.it/7PLY5f
p829
I2
sVhttp://dlvr.it/7PLNVd
p830
I2
sVhttp://dlvr.it/7PMKMP
p831
I2
sVhttp://dlvr.it/7PLDmN
p832
I2
sVhttp://bit.ly/1wqJPN7
p833
I4
sVhttp://bit.ly/1A1U26f
p834
I2
sVhttp://ift.tt/1o7ra7e
p835
I2
sVhttp://dlvr.it/7PLSsW
p836
I2
sVhttp://ift.tt/13xjC4L
p837
I2
sVhttp://dlvr.it/7PLTkJ
p838
I2
sVhttp://ift.tt/1xQpaQE
p839
I14
sVhttp://ift.tt/10gBdMi
p840
I6
sVhttp://dlvr.it/7PLLPc
p841
I2
sVhttp://dlvr.it/7PL7YQ
p842
I2
sVhttp://ift.tt/1wWj5E6
p843
I12
sVhttp://goo.gl/fb/jBZcTM
p844
I2
sVhttp://ift.tt/1tRrveQ
p845
I2
sVhttp://dlvr.it/7PLRRB
p846
I2
sVhttp://dlvr.it/7PLJjm
p847
I2
sVhttp://dlvr.it/7PLbGL
p848
I2
sVhttp://goo.gl/fb/JZnNdV
p849
I2
sVhttp://dlvr.it/7PL4Yq
p850
I2
sVhttp://dlvr.it/7PLP24
p851
I2
sVhttp://dlvr.it/7PLMYQ
p852
I2
sVhttp://goo.gl/QZA2sv
p853
I2
sVhttp://bit.ly/1ufsLdp
p854
I2
ssg179
Vbritish banker to appear in hong kong court charged with double murder
p855
sg181
I15
sg182
I2
sg183
I11
sa(dp856
g2
(dp857
g4
I0
sg5
I82
ssg6
I82
sg7
g8
((lp858
I498007937
aI869916290
aI498012169
aI2593165068
aI312430861
aI577811727
aI115981166
aI787546010
aI497993118
aI1089342374
aI1583817644
aI194499826
aI2793168046
aI87995697
aI319402270
aI381718723
aI2305374110
aI88889613
aI2280325974
aI36050009
aI2242439771
aI2583673568
aI295093243
aI2236222567
aI2214054761
aI153876973
aI2194541678
aI2857570290
aI1364013439
aI2260008948
aI731956597
aI2820209142
aI2773517432
aI498015739
aI83791997
aI1195087230
aI436844799
atp859
Rp860
sg12
I5
sg13
g14
(g15
tp861
Rp862
Vhttp://dlvr.it/7P05RW
p863
I2
sVhttp://dlvr.it/7P0QHg
p864
I2
sVhttp://goo.gl/fb/300LI6
p865
I2
sVhttp://dlvr.it/7P08LJ
p866
I2
sVhttp://dlvr.it/7P11GP
p867
I2
sVhttp://ift.tt/1G8PNGp
p868
I14
sVhttp://goo.gl/SahV2m
p869
I2
sVhttp://goo.gl/fb/BstpSM
p870
I2
sVhttp://bit.ly/1o3K7I6
p871
I2
sVhttp://ift.tt/1qjJGF9
p872
I2
sVhttp://dlvr.it/7P0HDC
p873
I2
sVhttp://bit.ly/1yO9bns
p874
I2
sVhttp://ift.tt/1DJjsSN
p875
I2
sVhttp://ift.tt/1DJiB4v
p876
I2
sVhttp://dlvr.it/7P0g0F
p877
I2
sVhttp://dlvr.it/7P05xn
p878
I2
sVhttp://dlvr.it/7P06tl
p879
I2
sVhttp://dlvr.it/7P05ct
p880
I2
sVhttp://dlvr.it/7P0C9j
p881
I2
sVhttp://ift.tt/1vxpr8B
p882
I6
sVhttp://ift.tt/1tOu41g
p883
I10
sVhttp://dlvr.it/7P0MWr
p884
I2
sVhttp://dlvr.it/7P0MTD
p885
I2
sVhttp://dlvr.it/7P0BTp
p886
I2
sVhttp://dlvr.it/7P0fg5
p887
I2
sVhttp://dlvr.it/7P0j0P
p888
I2
sVhttp://dlvr.it/7P05X7
p889
I2
sVhttp://dlvr.it/7P0KsN
p890
I2
sVhttp://dlvr.it/7P0gyg
p891
I2
ssg179
Vhong kong police grill british trader over double murder
p892
sg181
I16
sg182
I2
sg183
I11
sa(dp893
g2
(dp894
g4
I0
sg5
I80
ssg6
I80
sg7
g8
((lp895
I2816846208
aI2817010471
atp896
Rp897
sg12
I5
sg13
g14
(g15
tp898
Rp899
Vhttp://dlvr.it/7P00rD
p900
I2
sVhttp://dlvr.it/7NzzQm
p901
I2
sVhttp://dlvr.it/7Nzzb7
p902
I2
sVhttp://dlvr.it/7NzxxX
p903
I2
sVhttp://dlvr.it/7NzycQ
p904
I2
sVhttp://dlvr.it/7NzzpP
p905
I2
sVhttp://dlvr.it/7NzzQr
p906
I2
sVhttp://dlvr.it/7NzzvR
p907
I2
sVhttp://bit.ly/1wzgE7U
p908
I80
sVhttp://dlvr.it/7Nzz4n
p909
I2
sVhttp://dlvr.it/7Nzzmw
p910
I2
sVhttp://dlvr.it/7P007V
p911
I2
sVhttp://dlvr.it/7P02B6
p912
I2
sVhttp://dlvr.it/7P037b
p913
I2
sVhttp://dlvr.it/7P00rc
p914
I2
sVhttp://dlvr.it/7Nzz02
p915
I2
sVhttp://dlvr.it/7P015C
p916
I2
sVhttp://dlvr.it/7NzyKl
p917
I2
sVhttp://dlvr.it/7P00SW
p918
I2
sVhttp://dlvr.it/7Nzxy4
p919
I2
sVhttp://dlvr.it/7P04Pn
p920
I2
sVhttp://dlvr.it/7P04nQ
p921
I2
sVhttp://dlvr.it/7P02Ny
p922
I2
sVhttp://dlvr.it/7P04Th
p923
I2
sVhttp://dlvr.it/7P03lB
p924
I2
sVhttp://dlvr.it/7P00v8
p925
I2
sVhttp://dlvr.it/7P025D
p926
I2
sVhttp://dlvr.it/7P045M
p927
I2
sVhttp://dlvr.it/7P04pb
p928
I2
sVhttp://dlvr.it/7P036V
p929
I2
sVhttp://dlvr.it/7Nzyty
p930
I2
sVhttp://dlvr.it/7NzyBJ
p931
I2
sVhttp://dlvr.it/7P02Dx
p932
I2
sVhttp://dlvr.it/7P01Sp
p933
I2
sVhttp://dlvr.it/7P02rf
p934
I2
sVhttp://dlvr.it/7NzyK5
p935
I2
sVhttp://dlvr.it/7Nzxff
p936
I2
sVhttp://dlvr.it/7P040c
p937
I2
sVhttp://dlvr.it/7P02q2
p938
I2
sVhttp://dlvr.it/7P03sJ
p939
I2
sVhttp://dlvr.it/7P002r
p940
I2
ssg179
Vforex money british man held over hong kong murders  bbc news
p941
sg181
I17
sg182
I2
sg183
I11
sa(dp942
g2
(dp943
g4
I0
sg5
I62
ssg6
I62
sg7
g8
((lp944
I498007937
aI498012169
aI2593165068
aI88889613
aI370442398
aI577811727
aI1462799250
aI2194541678
aI497993118
aI1089342374
aI1583817644
aI2857570290
aI2793168046
aI319402270
aI604051910
aI2242439771
aI295093243
aI2236222567
aI2214054761
aI153876973
aI115981166
aI194499826
aI2260008948
aI731956597
aI2773517432
aI498015739
aI83791997
aI436844799
atp945
Rp946
sg12
I5
sg13
g14
(g15
tp947
Rp948
Vhttp://ift.tt/1DOyRRG
p949
I2
sVhttp://ift.tt/1GcZVxS
p950
I2
sVhttp://dlvr.it/7PNN0l
p951
I2
sVhttp://bit.ly/1wXdfjL
p952
I2
sVhttp://bit.ly/1o7NpKb
p953
I2
sVhttp://dlvr.it/7PNCsh
p954
I2
sVhttp://dlvr.it/7PNjDZ
p955
I2
sVhttp://goo.gl/wbaLrt
p956
I2
sVhttp://dlvr.it/7PNKZb
p957
I2
sVhttp://ift.tt/1uleRHf
p958
I2
sVhttp://ift.tt/13xF49K
p959
I10
sVhttp://dlvr.it/7PPxZg
p960
I2
sVhttp://dlvr.it/7PNfwt
p961
I2
sVhttp://dlvr.it/7PNG2b
p962
I2
sVhttp://goo.gl/fb/mcVMXT
p963
I2
sVhttp://dlvr.it/7PNdmz
p964
I2
sVhttp://bit.ly/1Ec3XVA
p965
I2
sVhttp://goo.gl/fb/dhwBDj
p966
I2
sVhttp://ift.tt/13xFlcI
p967
I10
sVhttp://dlvr.it/7PNHNt
p968
I2
sVhttp://goo.gl/fb/anOa4E
p969
I2
sVhttp://dlvr.it/7PNDQN
p970
I2
sVhttp://dlvr.it/7PP1R6
p971
I2
ssg179
Vbritish banker appears in hong kong court charged with double murder
p972
sg181
I18
sg182
I2
sg183
I11
sa(dp973
g2
(dp974
g4
I10
sg5
I42
ssg6
I52
sg7
g8
((lp975
I2353079736
aI57455785
aI40173650
aI46583723
atp976
Rp977
sg12
I5
sg13
g14
(g15
tp978
Rp979
Vhttp://ift.tt/1o5ncMm
p980
I2
sVhttp://ift.tt/1DKSCcM
p981
I2
sVhttp://ift.tt/1udKtxL
p982
I2
sVhttp://ift.tt/1G8XOet
p983
I2
sVhttp://ift.tt/1wUfULg
p984
I2
sVhttp://ift.tt/1wYI0WK
p985
I4
sVhttp://ift.tt/1G8OeIH
p986
I4
sVhttp://ift.tt/1o474L7
p987
I2
sVhttp://ift.tt/1wV70z0
p988
I2
sVhttp://ift.tt/1A1Op84
p989
I4
sVhttp://ift.tt/10dkadZ
p990
I2
sVhttp://ift.tt/1wUjPuP
p991
I2
sVhttp://ift.tt/10g1WZo
p992
I2
sVhttp://ift.tt/1ue4Hr7
p993
I2
sVhttp://ift.tt/1tvVXvt
p994
I2
sVhttp://ift.tt/1wU4GpY
p995
I2
sVhttp://ift.tt/1rMgIgQ
p996
I2
sVhttp://ift.tt/1qkRTZY
p997
I2
sVhttp://ift.tt/1t0w5Co
p998
I2
sVhttp://ift.tt/1rOtlYB
p999
I6
sVhttp://ift.tt/10gefoB
p1000
I2
ssg179
Vlessig what hong kong protests should teach us  cnn blog   hongkong
p1001
sg181
I19
sg182
I2
sg183
I11
sa(dp1002
g2
(dp1003
g4
I0
sg5
I48
ssg6
I48
sg7
g8
((lp1004
I2655064370
aI2655042708
atp1005
Rp1006
sg12
I5
sg13
g14
(g15
tp1007
Rp1008
Vhttp://dlvr.it/7P04PT
p1009
I2
sVhttp://dlvr.it/7P0168
p1010
I2
sVhttp://dlvr.it/7Nzy9K
p1011
I2
sVhttp://dlvr.it/7NzzDd
p1012
I2
sVhttp://dlvr.it/7P02fk
p1013
I2
sVhttp://dlvr.it/7P00TT
p1014
I2
sVhttp://goo.gl/Lrwyrh
p1015
I48
sVhttp://dlvr.it/7NzzP6
p1016
I2
sVhttp://dlvr.it/7P00Qt
p1017
I2
sVhttp://dlvr.it/7P019s
p1018
I2
sVhttp://dlvr.it/7Nzy9d
p1019
I2
sVhttp://dlvr.it/7P04YR
p1020
I2
sVhttp://dlvr.it/7P00Nx
p1021
I2
sVhttp://dlvr.it/7NzzDq
p1022
I2
sVhttp://dlvr.it/7NzzrB
p1023
I2
sVhttp://dlvr.it/7NzzwZ
p1024
I2
sVhttp://dlvr.it/7P002H
p1025
I2
sVhttp://dlvr.it/7P023M
p1026
I2
sVhttp://dlvr.it/7NzyRl
p1027
I2
sVhttp://dlvr.it/7NzxbG
p1028
I2
sVhttp://dlvr.it/7P00sm
p1029
I2
sVhttp://dlvr.it/7Nzz9B
p1030
I2
sVhttp://dlvr.it/7P04Qx
p1031
I2
sVhttp://dlvr.it/7NzxjC
p1032
I2
sVhttp://dlvr.it/7NzzTG
p1033
I2
ssg179
Vandroid lg british man held over hong kong murders  bbc news
p1034
sg181
I20
sg182
I2
sg183
I11
sa(dp1035
g2
(dp1036
g4
I0
sg5
I42
ssg6
I42
sg7
g8
((lp1037
I616851006
atp1038
Rp1039
sg12
I5
sg13
g14
(g15
tp1040
Rp1041
Vhttp://ift.tt/1uaXGrk
p1042
I42
sVhttp://wp.me/p4vvyk-slY
p1043
I2
sVhttp://wp.me/p4vvyk-snS
p1044
I2
sVhttp://wp.me/p4vvyk-spE
p1045
I2
sVhttp://wp.me/p4vvyk-srs
p1046
I2
sVhttp://wp.me/p4vvyk-sne
p1047
I2
sVhttp://wp.me/p4vvyk-su2
p1048
I2
sVhttp://wp.me/p4vvyk-ss6
p1049
I2
sVhttp://wp.me/p4vvyk-slk
p1050
I2
sVhttp://ift.tt/1DJILUz
p1051
I4
sVhttp://wp.me/p4vvyk-sjs
p1052
I2
sVhttp://wp.me/p4vvyk-sk4
p1053
I2
sVhttp://ift.tt/1wTHYlm
p1054
I4
sVhttp://wp.me/p4vvyk-sto
p1055
I2
sVhttp://wp.me/p4vvyk-sqS
p1056
I2
sVhttp://ift.tt/1wTnl5n
p1057
I4
sVhttp://wp.me/p4vvyk-smC
p1058
I2
sVhttp://wp.me/p4vvyk-skG
p1059
I2
sVhttp://ift.tt/1wWi4uE
p1060
I4
sVhttp://ift.tt/1o3SzHg
p1061
I4
sVhttp://wp.me/p4vvyk-ssK
p1062
I2
sVhttp://wp.me/p4vvyk-sim
p1063
I2
sVhttp://wp.me/p4vvyk-siS
p1064
I2
sVhttp://ift.tt/1xNxHUw
p1065
I4
sVhttp://wp.me/p4vvyk-sp8
p1066
I2
sVhttp://wp.me/p4vvyk-shI
p1067
I8
sVhttp://ift.tt/1EaMoFj
p1068
I4
sVhttp://wp.me/p4vvyk-sou
p1069
I2
sVhttp://ift.tt/1xNKgiI
p1070
I4
sVhttp://ift.tt/13uRUpl
p1071
I2
sVhttp://wp.me/p4vvyk-sqe
p1072
I2
ssg179
Vbritish man held over hong kong murders u2013 bbc news
p1073
sg181
I21
sg182
I2
sg183
I11
sa(dp1074
g2
(dp1075
g4
I8
sg5
I34
ssg6
I42
sg7
g8
((lp1076
I17770816
aI2311861956
aI37874853
aI2236222567
aI464762477
aI2236217323
aI1583817644
aI312430861
aI2194541678
aI88889613
aI2489597540
aI2857570290
aI124731823
aI2280325974
aI21196759
aI36050009
aI295093243
aI1195087230
aI1364013439
atp1077
Rp1078
sg12
I5
sg13
g14
(g15
tp1079
Rp1080
Vhttp://dlvr.it/7PFZzJ
p1081
I2
sVhttp://goo.gl/J7drkK
p1082
I2
sVhttp://ift.tt/1wWrDZO
p1083
I2
sVhttp://dlvr.it/7PFbK9
p1084
I2
sVhttp://ift.tt/13wII3K
p1085
I2
sVhttp://goo.gl/7SKonm
p1086
I10
sVhttp://dlvr.it/7PFTkv
p1087
I2
sVhttp://dlvr.it/7PFGGx
p1088
I2
sVhttp://dlvr.it/7PHFRr
p1089
I2
sVhttp://dlvr.it/7PFQ0X
p1090
I2
sVhttp://ift.tt/1G8PNGp
p1091
I2
sVhttp://goo.gl/fb/XU2AXY
p1092
I2
sVhttp://ift.tt/1t2Ptip
p1093
I6
sVhttp://goo.gl/kiQ7MX
p1094
I2
sVhttp://dlvr.it/7PFTQJ
p1095
I2
ssg179
Vhong kong police charge british banker with double murder
p1096
sg181
I22
sg182
I2
sg183
I11
sa(dp1097
g2
(dp1098
g4
I2
sg5
I38
ssg6
I40
sg7
g8
((lp1099
I1282825729
aI43582755
aI15936294
aI2613891942
aI1285958504
aI1016733578
aI191025836
aI570722541
aI2202375985
aI1352913667
aI2337999540
aI616851006
aI1281506071
aI2335960920
aI2288735515
aI2213896412
aI39954846
atp1100
Rp1101
sg12
I5
sg13
g14
(g15
tp1102
Rp1103
Vhttp://dlvr.it/7NzrZX
p1104
I2
sVhttp://ift.tt/1tuavf1
p1105
I2
sVhttp://dlvr.it/7P950t
p1106
I2
sVhttp://zpzp.eu/c.php?url=http://dlvr.it/7Nzv83
p1107
I2
sVhttp://bit.ly/1sZElmc
p1108
I2
sVhttp://dlvr.it/7NztnX
p1109
I2
sVhttp://goo.gl/fb/fWfODv
p1110
I4
sVhttp://goo.gl/fb/GkXEj0
p1111
I2
sVhttp://bit.ly/1DJdelF
p1112
I2
sVhttp://bit.ly/1woP7IY
p1113
I2
sVhttp://goo.gl/fb/EuVgQj
p1114
I2
sVhttp://goo.gl/fb/4XDapj
p1115
I2
sVhttp://bit.ly/1sZGn5U
p1116
I2
sVhttp://ift.tt/1uiDC72
p1117
I2
sVhttp://bit.ly/1o3wXKY
p1118
I2
sVhttp://ift.tt/13u7hOy
p1119
I2
sVhttp://bit.ly/1uaVmjV
p1120
I2
sVhttp://ift.tt/1uaXGrk
p1121
I2
sVhttp://bit.ly/1s48nGj
p1122
I2
ssg179
Vbritish man held over hong kong murders  bbc news
p1123
sg181
I23
sg182
I2
sg183
I11
sa(dp1124
g2
(dp1125
g4
I0
sg5
I40
ssg6
I40
sg7
g8
((lp1126
I515550497
aI309843971
aI233156917
aI1681725830
aI520230960
aI956311722
aI2359318093
aI153876973
aI2725952336
aI212741202
aI2260008948
aI813064693
aI1637233782
aI2773517432
aI2729681561
aI2242439771
aI1224154813
aI219421471
atp1127
Rp1128
sg12
I5
sg13
g14
(g15
tp1129
Rp1130
Vhttp://goo.gl/fb/ddUTT8
p1131
I2
sVhttp://ift.tt/1DOHT19
p1132
I10
sVhttp://bit.ly/10hfJPp
p1133
I2
sVhttp://dlvr.it/7PNtPd
p1134
I2
sVhttp://dlvr.it/7PNw5g
p1135
I2
sVhttp://goo.gl/fb/5LP1rI
p1136
I2
sVhttp://dlvr.it/7PP8r4
p1137
I2
sVhttp://dlvr.it/7PP2Dp
p1138
I2
sVhttp://dlvr.it/7PNtD4
p1139
I2
sVhttp://bit.ly/1wqWwYe
p1140
I2
sVhttp://ift.tt/1t5r63r
p1141
I4
sVhttp://dlvr.it/7PNrCx
p1142
I2
sVhttp://goo.gl/fb/O5RTSa
p1143
I2
sVhttp://bit.ly/10dPoRY
p1144
I2
sVhttp://dlvr.it/7PPP7N
p1145
I2
ssg179
Vbritish banker rurik jutting appears in hong kong court charged with murders
p1146
sg181
I24
sg182
I2
sg183
I11
sa(dp1147
g2
(dp1148
g4
I2
sg5
I38
ssg6
I40
sg7
g8
((lp1149
I379760672
aI2384818352
aI2384864515
aI2384771365
aI16273831
aI182405906
aI2384801516
aI2376716618
aI21543628
aI2384806386
aI2384735694
aI2384781392
aI2384750642
aI949382515
aI2384863694
aI312105497
aI2384813786
aI2384876533
aI41170844
aI2371421413
atp1150
Rp1151
sg12
I5
sg13
g14
(g15
tp1152
Rp1153
Vhttp://bit.ly/1A1J9Bk
p1154
I2
sVhttp://ift.tt/1rQ0EdW
p1155
I30
sVhttp://bit.ly/1xQffdL
p1156
I4
sVhttp://dlvr.it/7PL9TH
p1157
I2
sVhttp://dlvr.it/7PLHPD
p1158
I2
ssg179
Vbritish banker charged with murder of 2 women in hong kong
p1159
sg181
I25
sg182
I2
sg183
I11
sa(dp1160
g2
(dp1161
g4
I0
sg5
I38
ssg6
I38
sg7
g8
((lp1162
I520230960
aI309843971
aI233156917
aI1681725830
aI515550497
aI1202463272
aI956311722
aI21295180
aI2359318093
aI153876973
aI2725952336
aI2260008948
aI813064693
aI2773517432
aI2242439771
aI1224154813
aI219421471
atp1163
Rp1164
sg12
I5
sg13
g14
(g15
tp1165
Rp1166
Vhttp://dlvr.it/7P7XRJ
p1167
I2
sVhttp://dlvr.it/7P7Wrj
p1168
I2
sVhttp://dlvr.it/7P7NnS
p1169
I2
sVhttp://dlvr.it/7P7Nvz
p1170
I2
sVhttp://dlvr.it/7P7Q7t
p1171
I2
sVhttp://goo.gl/fb/qKQQp9
p1172
I2
sVhttp://goo.gl/fb/cj0U9D
p1173
I2
sVhttp://ift.tt/1tvg8tk
p1174
I10
sVhttp://goo.gl/fb/mzp9Rh
p1175
I2
sVhttp://bit.ly/1wUmcfK
p1176
I2
sVhttp://dlvr.it/7P8fD9
p1177
I2
sVhttp://ift.tt/1rMXp6X
p1178
I4
sVhttp://bit.ly/1ucDyFf
p1179
I2
sVhttp://dlvr.it/7P7YBL
p1180
I2
ssg179
Vbriton being held over hong kong double murder  video report
p1181
sg181
I26
sg182
I2
sg183
I11
sa(dp1182
g2
(dp1183
g4
I0
sg5
I36
ssg6
I36
sg7
g8
((lp1184
I590366563
aI2363029988
aI23294757
aI2326481905
aI2281524776
aI2664603404
aI1963389709
aI217323400
aI516508323
aI813064693
aI2290002361
aI2773517432
aI567522948
aI2778935071
aI296493118
aI459842591
atp1185
Rp1186
sg12
I5
sg13
g14
(g15
tp1187
Rp1188
Vhttp://intelweb.biz
p1189
I2
sVhttp://dlvr.it/7P8QSn
p1190
I2
sVhttp://ift.tt/1wUiV1v
p1191
I2
sVhttp://dlvr.it/7P8FvJ
p1192
I2
sVhttp://ift.tt/10eABH6
p1193
I2
sVhttp://ift.tt/1GakbjM
p1194
I2
sVhttp://dlvr.it/7P8c8H
p1195
I2
sVhttp://bit.ly/1wV8tDy
p1196
I2
sVhttp://dlvr.it/7P8d7C
p1197
I2
sVhttp://dlvr.it/7P8f6c
p1198
I2
sVhttp://dlvr.it/7P8Q04
p1199
I2
sVhttp://dlvr.it/7P8f93
p1200
I2
sVhttp://ift.tt/1s4MYNc
p1201
I2
sVhttp://dlvr.it/7P8ZRR
p1202
I2
sVhttp://ift.tt/1vziwfg
p1203
I2
sVhttp://ift.tt/1wWXcn8
p1204
I2
sVhttp://dlvr.it/7P8LHv
p1205
I2
sVhttp://ift.tt/1tvqEkn
p1206
I4
ssg179
Vhong kong police arrest briton after womenu2019s bodies are found in apartment
p1207
sg181
I27
sg182
I2
sg183
I11
sa(dp1208
g2
(dp1209
g4
I0
sg5
I34
ssg6
I34
sg7
g8
((lp1210
I628394139
aI600883812
aI628271141
aI600614567
aI604123081
aI624931276
aI626220974
aI629793299
aI600894228
aI631356277
aI219915030
aI627529646
aI624953882
aI600814751
aI224421052
aI627658109
aI600799231
atp1211
Rp1212
sg12
I5
sg13
g14
(g15
tp1213
Rp1214
Vhttp://bit.ly/1d5qTtO
p1215
I34
ssg179
Vtopstories update 1foreign bofa merrill lynch banker linked to hong kong murders   reuters
p1216
sg181
I28
sg182
I2
sg183
I11
sa(dp1217
g2
(dp1218
g4
I0
sg5
I34
ssg6
I34
sg7
g8
((lp1219
I2459920208
aI269889569
aI2609660358
aI590312609
aI985584720
aI2279052907
aI230673965
aI1303136983
aI817074512
aI851815249
aI232769907
aI2882437664
aI1473829813
aI475006262
aI1278597655
aI126600280
aI607283292
atp1220
Rp1221
sg12
I5
sg13
g14
(g15
tp1222
Rp1223
Vhttp://bit.ly/1vC4PfG
p1224
I2
sVhttp://bit.ly/1vC4Os9
p1225
I16
sVhttp://bit.ly/1vC4XLW
p1226
I2
sVhttp://bit.ly/1vC4zgv
p1227
I12
sVhttp://bit.ly/1ueWWkN
p1228
I2
ssg179
Vbritish banker charged with murder of two women in hong kong hong kong reuters  hong kong police have char
p1229
sg181
I29
sg182
I2
sg183
I11
sa(dp1230
g2
(dp1231
g4
I0
sg5
I32
ssg6
I32
sg7
g8
((lp1232
I2882437664
aI1490390305
aI810755659
aI188703588
aI2609660358
aI2492075561
aI1281457867
aI1470703406
aI851815249
aI1487785651
aI227440917
aI1303136983
aI23459643
aI2882441630
atp1233
Rp1234
sg12
I5
sg13
g14
(g15
tp1235
Rp1236
Vhttp://goo.gl/YCb50D
p1237
I2
sVhttp://bit.ly/1o3BL2V
p1238
I2
sVhttp://bit.ly/1vxBfrE
p1239
I2
sVhttp://bit.ly/1uaXQ1G
p1240
I4
sVhttp://bit.ly/1o3BJrV
p1241
I2
sVhttp://bit.ly/1vxojSo
p1242
I2
sVhttp://goo.gl/3Ai3bU
p1243
I2
sVhttp://goo.gl/TFqouN
p1244
I2
sVhttp://bit.ly/1uaXQ1V
p1245
I2
sVhttp://bit.ly/1wVcNDI
p1246
I2
sVhttp://bit.ly/1wVcNU9
p1247
I10
ssg179
Vupdate 1foreign bofa merrill lynch banker linked to hong kong murderssource  two women found dead in apart
p1248
sg181
I30
sg182
I2
sg183
I11
sa(dp1249
g2
(dp1250
g4
I28
sg5
I4
ssg6
I32
sg7
g8
((lp1251
I197050061
aI2603267395
aI146799429
aI211757224
aI334120841
aI140144781
aI307869614
aI14569869
aI42123026
aI148937332
aI2191984092
aI408333245
aI63528313
aI2853222556
aI2842243485
aI249075294
atp1252
Rp1253
sg12
I5
sg13
g14
(g15
tp1254
Rp1255
Vhttp://bit.ly/1G9Z2Gy
p1256
I32
ssg179
Vbritish banker arrested over hong kong murders named as rurick jutting    c4news
p1257
sg181
I31
sg182
I2
sg183
I11
sa(dp1258
g2
(dp1259
g4
I0
sg5
I32
ssg6
I32
sg7
g8
((lp1260
I515550497
aI309843971
aI233156917
aI2270888775
aI956311722
aI2359318093
aI153876973
aI2725952336
aI2260008948
aI813064693
aI1637233782
aI2773517432
aI1224154813
aI219421471
atp1261
Rp1262
sg12
I5
sg13
g14
(g15
tp1263
Rp1264
Vhttp://bit.ly/1tQsZpM
p1265
I2
sVhttp://dlvr.it/7PF39T
p1266
I2
sVhttp://dlvr.it/7PFTNn
p1267
I2
sVhttp://dlvr.it/7PFBH7
p1268
I2
sVhttp://dlvr.it/7PF2Q5
p1269
I2
sVhttp://goo.gl/fb/lJgjtG
p1270
I2
sVhttp://ift.tt/1GbeuCg
p1271
I6
sVhttp://dlvr.it/7PF5cd
p1272
I2
sVhttp://dlvr.it/7PF7Qg
p1273
I2
sVhttp://dlvr.it/7PFBY5
p1274
I2
sVhttp://ift.tt/1GbeuCi
p1275
I8
ssg179
Vbritish banker charged with two counts of murder in hong kong
p1276
sg181
I32
sg182
I2
sg183
I11
sa(dp1277
g2
(dp1278
g4
I0
sg5
I32
ssg6
I32
sg7
g8
((lp1279
I413010560
aI2575163360
aI109491412
aI154588808
aI24210409
aI1154596363
aI2834391724
aI82181453
aI73287695
aI2796884552
aI31330515
aI2334087828
aI1303136983
aI15866233
aI123936058
aI78906843
atp1280
Rp1281
sg12
I5
sg13
g14
(g15
tp1282
Rp1283
Vhttp://bit.ly/1wqJPN7
p1284
I20
sVhttp://bit.ly/1t4Dscj
p1285
I12
ssg179
Vbritish banker to appear in hong kong court charged with double murder hong kong afp  a british banker wil
p1286
sg181
I33
sg182
I2
sg183
I11
sa(dp1287
g2
(dp1288
g4
I2
sg5
I28
ssg6
I30
sg7
g8
((lp1289
I2858478134
aI131172550
aI1641898669
aI940000238
aI1556118416
aI2213156977
aI2675396563
aI381652598
aI569284568
aI541528090
aI2277635130
atp1290
Rp1291
sg12
I5
sg13
g14
(g15
tp1292
Rp1293
Vhttp://dlvr.it/7P5PB6
p1294
I2
sVhttp://bit.ly/TyK1sP
p1295
I2
sVhttp://goo.gl/cle5zW
p1296
I2
sVhttp://bit.ly/1vxy9E6
p1297
I2
sVhttp://zipzp.eu/?url=http://dlvr.it/7PBVHk
p1298
I2
sVhttp://dlvr.it/7P5v77
p1299
I2
sVhttp://goo.gl/nOodXJ
p1300
I2
sVhttp://ift.tt/10HU8QY
p1301
I14
sVhttp://goo.gl/kQQNrc
p1302
I2
ssg179
Vbriton held over hong kong murders
p1303
sg181
I34
sg182
I2
sg183
I11
sa(dp1304
g2
(dp1305
g4
I4
sg5
I26
ssg6
I30
sg7
g8
((lp1306
I388495274
aI134800845
aI940000238
aI245693197
aI86935409
aI256495314
aI2840426004
aI2271482222
aI2773517432
aI2690281202
aI2242439771
aI1195087230
atp1307
Rp1308
sg12
I5
sg13
g14
(g15
tp1309
Rp1310
Vhttp://bit.ly/1vwjb0Y
p1311
I2
sVhttp://bit.ly/1wTc9pn
p1312
I2
sVhttp://dlvr.it/7Nz9s4
p1313
I6
sVhttp://ift.tt/1wp7xt6
p1314
I2
sVhttp://bit.ly/1vwkfSq
p1315
I2
sVhttp://bit.ly/WWDDbf
p1316
I4
sVhttp://goo.gl/fb/Bt96c8
p1317
I2
sVhttp://ift.tt/1o2S1kT
p1318
I6
sVhttp://ift.tt/1zXHmgB
p1319
I2
sVhttp://bit.ly/1EainVX
p1320
I2
ssg179
Vpolice reputation and morale at stake in hong kong protests
p1321
sg181
I35
sg182
I2
sg183
I11
sa(dp1322
g2
(dp1323
g4
I0
sg5
I28
ssg6
I28
sg7
g8
((lp1324
I2385945248
aI2385555074
aI2385944899
aI2818027783
aI150146062
aI2814556046
aI2796054162
aI988125518
aI2814649526
aI2814840025
aI2816555738
aI2794077595
aI2816765084
aI2817049525
atp1325
Rp1326
sg12
I5
sg13
g14
(g15
tp1327
Rp1328
Vhttp://dlvr.it/7PNrR0
p1329
I2
sVhttp://dlvr.it/7PNs77
p1330
I2
sVhttp://dlvr.it/7PNs3P
p1331
I2
sVhttp://dlvr.it/7PNtHm
p1332
I2
sVhttp://dlvr.it/7PNnhG
p1333
I2
sVhttp://dlvr.it/7PNwfx
p1334
I2
sVhttp://dlvr.it/7PNq3v
p1335
I2
sVhttp://dlvr.it/7PNrDg
p1336
I2
sVhttp://dlvr.it/7PNs2j
p1337
I2
sVhttp://dlvr.it/7PNrV8
p1338
I2
sVhttp://dlvr.it/7PN6zW
p1339
I2
sVhttp://dlvr.it/7PNvRY
p1340
I2
sVhttp://dlvr.it/7PNs41
p1341
I2
sVhttp://dlvr.it/7PNs0n
p1342
I2
ssg179
Vbriton in court over hong kong deaths a 29yearold british banker accused of murdering two women in hong kongu2026
p1343
sg181
I36
sg182
I2
sg183
I11
sa(dp1344
g2
(dp1345
g4
I0
sg5
I28
ssg6
I28
sg7
g8
((lp1346
I465420422
aI2613891942
aI2344657290
aI622750318
aI463907759
aI464461104
aI2344780945
aI2343966386
aI463891190
aI2344721209
aI1727627353
aI2344555866
aI2343496862
aI2343890678
atp1347
Rp1348
sg12
I5
sg13
g14
(g15
tp1349
Rp1350
Vhttp://dlvr.it/7P0BJH
p1351
I2
sVhttp://dlvr.it/7P06M2
p1352
I2
sVhttp://dlvr.it/7P0B4R
p1353
I2
sVhttp://dlvr.it/7P04rC
p1354
I2
sVhttp://dlvr.it/7P0B4p
p1355
I2
sVhttp://dlvr.it/7P05CG
p1356
I2
sVhttp://bit.ly/1d5qTtO
p1357
I4
sVhttp://dlvr.it/7P06nQ
p1358
I2
sVhttp://dlvr.it/7P06cW
p1359
I2
sVhttp://dlvr.it/7P0C7L
p1360
I2
sVhttp://bit.ly/1vxozAV
p1361
I2
sVhttp://dlvr.it/7P0CHN
p1362
I2
sVhttp://dlvr.it/7P08yW
p1363
I2
ssg179
Vupdate 1foreign bofa merrill lynch banker linked to hong kong murders   reuters
p1364
sg181
I37
sg182
I2
sg183
I11
sa(dp1365
g2
(dp1366
g4
I0
sg5
I28
ssg6
I28
sg7
g8
((lp1367
I2567698261
aI2567696054
atp1368
Rp1369
sg12
I5
sg13
g14
(g15
tp1370
Rp1371
Vhttp://BAKMODA.COM
p1372
I40
sVhttp://bakmoda.com
p1373
I16
sVhttp://dlvr.it/7P5vy8
p1374
I2
sVhttp://dlvr.it/7P69zn
p1375
I2
sVhttp://dlvr.it/7P5wWK
p1376
I2
sVhttp://dlvr.it/7P5vXp
p1377
I2
sVhttp://dlvr.it/7P5rHV
p1378
I2
sVhttp://dlvr.it/7P65pm
p1379
I2
sVhttp://dlvr.it/7P6B6b
p1380
I2
sVhttp://dlvr.it/7P5xFX
p1381
I2
sVhttp://dlvr.it/7P5pBq
p1382
I2
sVhttp://dlvr.it/7P69gs
p1383
I2
sVhttp://dlvr.it/7P5q7D
p1384
I2
sVhttp://dlvr.it/7P5rYr
p1385
I2
sVhttp://dlvr.it/7P5ttJ
p1386
I2
sVhttp://dlvr.it/7P5t1r
p1387
I2
ssg179
Vusa      hong kong police question briton   usa
p1388
sg181
I38
sg182
I2
sg183
I11
sa(dp1389
g2
(dp1390
g4
I0
sg5
I26
ssg6
I26
sg7
g8
((lp1391
I2353079736
atp1392
Rp1393
sg12
I5
sg13
g14
(g15
tp1394
Rp1395
Vhttp://ift.tt/1vAsSvp
p1396
I2
sVhttp://ift.tt/1DKzFHn
p1397
I2
sVhttp://ift.tt/1wUfUuN
p1398
I2
sVhttp://ift.tt/1rMgGW3
p1399
I2
sVhttp://ift.tt/1zZAlvY
p1400
I2
sVhttp://ift.tt/1t0w5Cx
p1401
I2
sVhttp://ift.tt/1qkRTZO
p1402
I2
sVhttp://ift.tt/1tvVVna
p1403
I2
sVhttp://ift.tt/1o5ncw0
p1404
I2
sVhttp://ift.tt/1wU4IhN
p1405
I2
sVhttp://ift.tt/1wTmH7T
p1406
I2
sVhttp://ift.tt/1rMoQhk
p1407
I2
sVhttp://ift.tt/10dk8mk
p1408
I2
ssg179
Vhong kongs occupy generation  new york times   hongkong
p1409
sg181
I39
sg182
I2
sg183
I11
sa(dp1410
g2
(dp1411
g4
I0
sg5
I26
ssg6
I26
sg7
g8
((lp1412
I2353079736
atp1413
Rp1414
sg12
I5
sg13
g14
(g15
tp1415
Rp1416
Vhttp://ift.tt/1vA8J8C
p1417
I2
sVhttp://ift.tt/1ue4Hrh
p1418
I2
sVhttp://ift.tt/10gEtqV
p1419
I2
sVhttp://ift.tt/1wWUvTm
p1420
I2
sVhttp://ift.tt/1o7wXK1
p1421
I2
sVhttp://ift.tt/13wutff
p1422
I2
sVhttp://ift.tt/13x4AMb
p1423
I2
sVhttp://ift.tt/10fsMkc
p1424
I2
sVhttp://ift.tt/10gei3M
p1425
I2
sVhttp://ift.tt/1wXkw3c
p1426
I2
sVhttp://ift.tt/1DOrz0c
p1427
I2
sVhttp://ift.tt/1vAsSLL
p1428
I2
sVhttp://ift.tt/1uezN27
p1429
I2
ssg179
Vhong kong official dismisses calls for referendum amid protests  wall street journal   hongkong
p1430
sg181
I40
sg182
I2
sg183
I11
sa(dp1431
g2
(dp1432
g4
I24
sg5
I2
ssg6
I26
sg7
g8
((lp1433
I336717052
aI1031262283
aI220811021
aI111247502
aI821921425
aI1352559571
aI267219188
aI2761412183
aI2574640506
aI619374235
aI725553660
aI2299216254
atp1434
Rp1435
sg12
I5
sg13
g14
(g15
tp1436
Rp1437
Vhttp://bit.ly/NiumeRighthere
p1438
I26
ssg179
Va series of shocking pictures of the huge protests in hong kong   hongkong occupy
p1439
sg181
I41
sg182
I2
sg183
I11
sa(dp1440
g2
(dp1441
g4
I2
sg5
I24
ssg6
I26
sg7
g8
((lp1442
I1131237216
aI43210945
aI1908536514
aI33344003
aI194658150
aI378899265
aI49233000
aI924096906
aI389981483
aI1949130576
aI97736826
aI1961038364
aI22797771
atp1443
Rp1444
sg12
I5
sg13
g14
(g15
tp1445
Rp1446
Vhttp://ift.tt/1s4MYNc
p1447
I26
ssg179
Vhong kong police arrest briton after womenu2019s bodies are found in apartment by michael forsythe via nyt the new
p1448
sg181
I42
sg182
I2
sg183
I11
sa(dp1449
g2
(dp1450
g4
I0
sg5
I24
ssg6
I24
sg7
g8
((lp1451
I2829399136
aI545983571
aI2252437764
aI179912967
aI79570663
aI190289004
aI176320546
aI2293327250
aI1708260019
aI38075838
aI1239118980
aI1002312702
atp1452
Rp1453
sg12
I5
sg13
g14
(g15
tp1454
Rp1455
Vhttp://ift.tt/1s4MYNc
p1456
I24
ssg179
Vhong kong police arrest briton after womenu2019s bodies are found in apartment by michael forsythe via nyt
p1457
sg181
I43
sg182
I2
sg183
I11
sa(dp1458
g2
(dp1459
g4
I0
sg5
I22
ssg6
I22
sg7
g8
((lp1460
I2336875844
aI2334141415
aI546521838
aI2334825008
aI2350675700
aI2350726069
aI2316634550
aI713034329
aI2626128637
atp1461
Rp1462
sg12
I5
sg13
g14
(g15
tp1463
Rp1464
Vhttp://ift.tt/1A1nZDn
p1465
I2
sVhttp://ift.tt/1wVrTKu
p1466
I2
sVhttp://ift.tt/1DNiQLK
p1467
I2
sVhttp://ift.tt/1DM5cbV
p1468
I2
sVhttp://dlvr.it/7PF3mg
p1469
I2
sVhttp://ift.tt/1twinMQ
p1470
I12
ssg179
Vbanker charged after hong kong murders
p1471
sg181
I44
sg182
I2
sg183
I11
sa(dp1472
g2
(dp1473
g4
I0
sg5
I22
ssg6
I22
sg7
g8
((lp1474
I2751674628
aI25958760
aI2606083159
aI2459920208
aI2334738643
aI107484181
aI633248951
aI962165785
atp1475
Rp1476
sg12
I5
sg13
g14
(g15
tp1477
Rp1478
Vhttp://bit.ly/1sZElmc
p1479
I4
sVhttp://bit.ly/1sZQ6ZY
p1480
I2
sVhttp://bit.ly/1uaLO8F
p1481
I2
sVhttp://bit.ly/1vxeT9E
p1482
I6
sVhttp://bit.ly/1vxjXe9
p1483
I2
sVhttp://bit.ly/1sZYUyW
p1484
I2
sVhttp://bit.ly/1o3yxN2
p1485
I2
sVhttp://bit.ly/1vxzwCD
p1486
I2
ssg179
Vbritish man held over hong kong murders  bbc news bbc newsbritish man held over hong kong murdersbbc newsa 2
p1487
sg181
I45
sg182
I2
sg183
I11
sa(dp1488
g2
(dp1489
g4
I0
sg5
I22
ssg6
I22
sg7
g8
((lp1490
I2882437664
aI1490390305
aI2609660358
aI2492075561
aI1281457867
aI1470703406
aI851815249
aI227440917
aI1303136983
aI2882441630
atp1491
Rp1492
sg12
I5
sg13
g14
(g15
tp1493
Rp1494
Vhttp://goo.gl/YCb50D
p1495
I2
sVhttp://bit.ly/1vC8r17
p1496
I2
sVhttp://goo.gl/3Ai3bU
p1497
I2
sVhttp://bit.ly/1vC8qKH
p1498
I4
sVhttp://bit.ly/1wWn9lW
p1499
I2
sVhttp://bit.ly/13wWZxm
p1500
I8
sVhttp://bit.ly/13wX1VK
p1501
I2
ssg179
Vbritish banker charged with murder of two women in hong kong  boa says exemployee has same name of man medi
p1502
sg181
I46
sg182
I2
sg183
I11
sa.