(lp0
(dp1
S'status'
p2
(dp3
S'retweet'
p4
I400
sS'original'
p5
I13
ssS'count'
p6
I413
sS'user_ids'
p7
c__builtin__
set
p8
((lp9
I833631807346061312
aI833631943912779777
aI833641711482068994
aI833641593534021635
aI833630979210280964
aI833633935565475845
aI833634277116018688
aI833638125620625409
aI833643134466813960
aI833593728627519490
aI833636432493244416
aI833627708106104835
aI833632061692997636
aI833647050231259141
aI833621441635553280
aI833626578068373505
aI833624688488218630
aI833622227987820546
aI833620817497976832
aI833633230733598721
aI833623443257954305
aI833618328006586369
aI833622572193439744
aI833628387386261506
aI833635419535327233
aI833639364697526273
aI833633934692974592
aI833625167528071169
aI833635554097000448
aI833624457692446723
aI833625225346576386
aI833609802068664320
aI833538112122974208
aI833609131311452160
aI833618742479355908
aI833639936695824385
aI833639034517860352
aI833628154434555904
aI833589064511090688
aI833613491357495296
aI833630122288615425
aI833623540641460224
aI833641511959007233
aI833623171488153600
aI833646022337257472
aI833638772768116738
aI833640855298768896
aI833620000539676674
aI833639623268003840
aI833613820090281984
aI833632809478606849
aI833638304474075139
aI1063768302
aI833584170467201024
aI833631983167221761
aI833627376579964928
aI833638938380206080
aI833641118696869892
aI833614343644258304
aI833614990393409536
aI833642578759262209
aI833643147443986432
aI833635478742106112
aI833613207008735232
aI833594010627297281
aI833640103755051009
aI833632209600991232
aI833608549892759552
aI833625157545631748
aI833623233006022656
aI833637523796602880
aI833633200522010624
aI833613831377154052
aI833642617162317824
aI833619306491490305
aI833598106235199489
aI4798040499
aI833631139730423809
aI833618490464428032
aI833615373865857026
aI833633542722682880
aI833616301453086721
aI833635229516566528
aI833620660928671744
aI833647716181897216
aI833642802697351168
aI833639339821244417
aI833638410535497729
aI833616871295377409
aI833510782621011968
aI833637948851679232
aI833641364445290496
aI761278634053304320
aI833616614700445697
aI833608991636860928
aI833637905646108672
aI833640858520059904
aI833632212935286784
aI833639645183361024
aI833616177117134849
aI833588966809026561
aI833618683788419072
aI833636454865715202
aI833613654637416449
aI833625627576111105
aI833632951623700480
aI833611343181803520
aI833637937187266560
aI833611554708926464
aI833639354086150144
aI833590688071688192
aI833624204562092032
aI833640812663734273
aI794631095824289796
aI833632211073069057
aI833626805219241984
aI833647309388992512
aI833627188763119617
aI833631465632104448
aI833626190724419585
aI761278819214958592
aI833628855889952769
aI833627874540212226
aI833600868767367168
aI833627309009563648
aI833623229826600960
aI833621498690732032
aI833614267148537856
aI833641750753374209
aI833642121940856832
aI833623210532958208
aI833634863836254208
aI833602930209071104
aI833630523910139905
aI833641998032662529
aI833625827258556416
aI833631907082620929
aI833625488165740544
aI833621611123142656
aI833620328509227008
aI833636302860013573
aI833644556268793856
aI833640474082566145
aI833624011716321280
aI833620446541131776
aI833634225639206913
aI833585547222327296
aI833633645437001729
aI833620158669217794
aI833637336198021120
aI833613542901370882
aI833624396044652544
aI833616118304477184
aI833614340808962048
aI833632305889570817
aI833604948407439360
aI833635035907575808
aI833633068602761216
aI833617067471466496
aI833620324621049856
aI833557076936847361
aI833614984181542912
aI833641670860083200
aI833625811739623424
aI833613428212264961
aI833617250405986304
aI833632394796220417
aI833626439123492864
aI833641476718424066
aI822088555975446528
aI833628681058844672
aI833625515051200512
aI833642636326076416
aI833637774695731201
aI833642157504360448
aI833624450864029696
aI833647537663987713
aI833625123563380737
aI833471222499405827
aI833643560771604480
aI833613675655159809
aI833628210134994944
aI833620227967610881
aI833642782367547392
aI833639509271027713
aI833621862756151300
aI833610705345589248
aI761280038230720512
aI833616346084737024
aI833628031063203840
aI3225175057
aI833605845581647872
aI833619078887641089
aI833631209448169473
aI3597917236
aI833630747403509760
aI833624509949173760
aI833631728963051520
aI833637260750909441
aI833612732750557184
aI833613883537489920
aI833617773033058304
aI833590741314080769
aI782554488590700544
aI833633665368330240
aI833627475116642304
aI833629167807770624
aI833642170456354817
aI833631510691405824
aI833623665644277760
aI833631548792467457
aI833642107130753024
aI833622815072882688
aI833635538955599872
aI833633037925523456
aI833612927643054081
aI833583108473622528
aI833640539324977153
aI833639575360851968
aI833612239613616128
aI833639310117056512
aI833633922760179713
aI833630458583867392
aI833620061847842817
aI833634043484856320
aI833623063539363840
aI833630156954664961
aI833636335562809345
aI833624351110885376
aI833640770036985856
aI833626821912465411
aI833625743619944448
aI833617571949654016
aI833625841460453376
aI833639202705256449
aI833568828760190976
aI833639793913425920
aI887084280
aI833637927250857984
aI833642799018946560
aI833632889023586304
aI833638967165722628
aI833626876463558656
aI833621942129274880
aI833643251361947648
aI833616965306613760
aI833553079186317313
aI833602934646599680
aI833630335963328512
aI833648213328556032
aI833632905297588227
aI833608657359294464
aI833627717891420160
aI833637659675238401
aI833627828168044544
aI833601828470140929
aI833621692505169922
aI833624808910893056
aI833608206538637312
aI833642572887252993
aI833645030803795968
aI833629107091021824
aI833623803162918912
aI833614663908675584
aI833639750254940160
aI38833520
aI833639864805502977
aI833640797463535616
aI833644501218504705
aI833627682701090820
aI833635833706000385
aI833620394137501697
aI19273104
aI833637905444728832
aI833636674303311872
aI833566963171471360
aI833615051424661504
aI833507511416221698
aI833642120598650880
aI833609345854156801
aI833614984286466049
aI833550631742865409
aI89759989
aI833626275105366016
aI833636563556904961
aI833643485970378752
aI833617692494008320
aI833642971350302720
aI761272234153476096
aI833590083441659904
aI833643044155097088
aI577705442
aI833637837618700290
aI833626452826296321
aI833629105941729280
aI833624617881391104
aI833640697429372929
aI833620136984768512
aI833612580774113280
aI273352189
aI833615227828711424
aI833636611682349056
aI833627627504205824
aI833641053622149120
aI833640551203405824
aI833620859164188672
aI833633113712508928
aI833611226609545217
aI833595716257841153
aI833617368152694784
aI833630877238325249
aI833621024956522496
aI833633458471698432
aI833638225235177472
aI833617165622329345
aI833610565587177472
aI593389151
aI833638111133446144
aI833571325553762305
aI833633944599928832
aI833616595696156673
aI833591854331424770
aI833630578721304576
aI833643392487800833
aI833621274513571840
aI833619828682457088
aI833610189601255424
aI833639027987341313
aI833626564050890753
aI761279179279171585
aI833632804143513600
aI833637266576666624
aI833637824972742656
aI833628840752734208
aI828277974193483776
aI833638932483018753
aI833627397530476544
aI833641320434397184
aI833626454390894592
aI833623958440251392
aI833569041109262337
aI790643031930175492
aI833592865192243200
aI833616968720666625
aI833605063146868737
aI833636168159916032
aI833580501340295168
aI833608848774623232
aI833629316940443648
aI833626579762835456
aI833627489067008000
aI833578585143156736
aI833571797694038016
aI833570982799368192
aI833635795126718464
aI833612829890523137
aI833621567703744513
aI833630068593291264
aI833635653111930880
aI833629768000102400
aI2345738054
aI833637416158232576
aI833642474086211584
aI833629367477497856
aI833643655546040321
aI833610257939197952
aI247084887
aI833634720982241280
aI833618956162387969
aI833579005844529153
aI833625489826680833
aI833616320709087232
aI833627687411343361
aI833630676347998208
aI833633236878237696
aI833618096921391105
aI89524085
aI833638317270765568
aI833614468064043008
aI833622228088532996
aI833639089807175680
aI833629425988202496
aI833615179493605376
aI833625679317004288
aI833632847533535233
aI833633667373219840
aI833625377356578819
aI833595742467919872
aI833628438854561793
aI833618849002045440
aI747728417953546240
aI833642893101260800
aI833579894604853248
aI833589637662662656
aI833620824271773696
aI833641467939844098
aI833628964069441536
aI833622996485017601
aI833613064003989504
aI833610718838681601
aI833641377837744129
aI833631675095584768
aI833625489675788289
aI833624553561714691
aI833635390334472193
aI833642266073845760
aI833583653468962816
aI833614899863572480
aI833625391050924032
aI833613397325443072
aI833586157980090372
aI833598473392029697
aI780505637478395908
atp10
Rp11
sS'hour'
p12
I14
sS'url'
p13
ccollections
defaultdict
p14
(c__builtin__
int
p15
tp16
Rp17
Vhttp://ow.ly/nNnY509GacQ
p18
I1
sVhttp://ow.ly/zJj6509GcH9
p19
I1
sVhttp://ow.ly/kKak509GcD2
p20
I1
sVhttp://ow.ly/RJky509GbbH
p21
I1
sVhttp://ow.ly/IG90509Gbwj
p22
I1
sVhttp://ow.ly/TKaq509GdWd
p23
I1
sVhttp://ow.ly/1oVS509Gb9p
p24
I1
sVhttp://ow.ly/pPVE509GbcN
p25
I1
sVhttp://ow.ly/uVHP509GaRR
p26
I399
sVhttp://ow.ly/8zcc509Gbjl
p27
I1
sVhttp://ow.ly/bPW6509G9Q6
p28
I1
sVhttp://ow.ly/RnPR509GbRh
p29
I3
sVhttp://ow.ly/ZJt4509GbnF
p30
I1
ssS'text'
p31
Von snapchat\u2019s ad performance in comparison to industry benchmarks
p32
sS'id'
p33
I1
sS'day'
p34
I20
sS'month'
p35
I2
sa(dp36
g2
(dp37
g4
I197
sg5
I2
ssg6
I199
sg7
g8
((lp38
I736277624159227904
aI718458272433373185
aI701908237394845698
aI3227935238
aI3226046472
aI3225922572
aI3226040845
aI467376655
aI467414034
aI364316185
aI458414619
aI464439857
aI453752882
aI452737089
aI3226905667
aI3226008132
aI459979847
aI370724877
aI3849955034
aI3301591635
aI2372813396
aI3227904097
aI3226021476
aI718468053265096704
aI3225986154
aI3226898539
aI3225827948
aI809626741
aI3223972987
aI3225971820
aI459940569
aI3226002576
aI372327571
aI4361928854
aI2343496862
aI454008999
aI364129964
aI366446253
aI468148913
aI2390512309
aI2390407867
aI3226052803
aI366053576
aI3227951317
aI2390693593
aI2390536410
aI467197666
aI3226014948
aI854819048
aI3226014194
aI463891190
aI3226085629
aI2389014229
aI2168189696
aI728134256187219968
aI3227793672
aI467216174
aI366649622
aI3225914647
aI467473177
aI452782875
aI381560093
aI3226026277
aI3223939633
aI2389076270
aI460193586
aI3227906870
aI460108091
aI728159501166108674
aI467240774
aI362986824
aI3223933772
aI367029069
aI2390622560
aI558600336
aI458486628
aI3223914860
aI454662513
aI464655735
aI2620511102
aI2344657290
aI2390457745
aI468117909
aI854974020
aI3227962225
aI365336390
aI367209383
aI3222032810
aI3225884587
aI467444722
aI463907759
aI1703963568
aI365885768
aI3225981372
aI3226000831
aI363717060
aI325325046
aI3226026450
aI3225975774
aI3226089956
aI3225900517
aI3223952359
aI3226029036
aI2390579695
aI3227917298
aI463869941
atp39
Rp40
sg12
I14
sg13
g14
(g15
tp41
Rp42
Vhttp://ow.ly/m7sG309aUlj
p43
I199
ssg31
Vfolding proteins
p44
sg33
I2
sg34
I20
sg35
I2
sa(dp45
g2
(dp46
g4
I145
sg5
I2
ssg6
I147
sg7
g8
((lp47
I829395566522224640
aI798564373547589632
aI819148739151417348
aI832335939015999488
aI2370975752
aI127635465
aI626298891
aI235325453
aI258423314
aI173220885
aI2457091909
aI762753709172482052
aI68859418
aI413285915
aI708477469
aI1123628580
aI33456168
aI127537708
aI2706460680
aI3347849781
aI76977206
aI1123575864
aI289052217
aI36552764
aI30020158
aI614908991
aI19201093
aI2156099144
aI428746315
aI872652386
aI198327794
aI33519886
aI311087710
aI2877403743
aI59293792
aI1104930914
aI106494051
aI2591946860
aI531444334
aI221957565
aI1561465969
aI46875251
aI744562274
aI30913151
aI312986241
aI211294851
aI824110809022402560
aI213459090
aI294649454
aI16207512
aI149685915
aI38038172
aI136635556
aI60749681
aI112257705
aI3179207340
aI127685218
aI3133488306
aI144314540
aI4784638646
aI26313912
aI23528121
aI813243583
aI463977154
aI476119242
aI190012108
aI1637466829
aI175613135
aI488889042
aI3069974743
aI130936537
aI33101007
aI90777310
aI1467470564
aI739175600414466048
aI58397932
aI16674029
aI21210758
aI279269615
aI1898602746
aI90667259
aI364453120
aI1609537794
aI770686255193612288
aI502094090
aI1253920526
aI2598033680
aI594278161
aI2397703447
aI819733272
aI24555704
aI30233889
aI162550703
aI116938536
aI2149885232
aI16672561
aI37343034
aI343816508
aI1811257152
aI45976899
aI398997829
aI402262856
aI277666122
aI328370507
aI14058842
aI2393248094
aI219404648
aI22728561
aI61352306
aI135007582
aI38536061
aI711604259914063876
aI2193756544
aI18357123
aI749635441347981312
aI1596331399
aI3153120137
aI1496971
aI64241038
aI2506421648
aI66271639
aI249947208
aI1339674523
aI117052830
aI3347278751
aI1228127138
aI1629324198
aI27863981
aI273097647
aI19320241
aI803887549
aI53108670
aI41163204
aI1625592774
aI14181832
aI2349456331
aI63344076
aI188617176
aI577493977
aI1600140762
aI84400094
aI348880869
aI27575782
aI92677101
aI492629490
aI47677431
aI2162654805
atp48
Rp49
sg12
I14
sg13
g14
(g15
tp50
Rp51
Vhttp://ow.ly/ljMv309aJ3g
p52
I146
sVhttps://twitter.com/GlobalGrind/status/833693998925635584
p53
I1
ssg31
Vwere honoring our favorite president on presidentsday
p54
sg33
I3
sg34
I20
sg35
I2
sa(dp55
g2
(dp56
g4
I120
sg5
I1
ssg6
I121
sg7
g8
((lp57
I722746098230693888
aI730170565269585921
aI727219838326808578
aI722390619470106627
aI732703001916407812
aI864376326
aI732788522533408769
aI725511848423002114
aI171131928
aI726672855073705988
aI725384753571106816
aI730142306666487809
aI128632867
aI730121111191601153
aI731458860381286406
aI126588456
aI86044720
aI725395440838004736
aI722884937934704641
aI722718371444310018
aI725774845313716224
aI342648901
aI215578701
aI373209170
aI725637743217397760
aI297615959
aI150214748
aI722677296012861441
aI726272817839411200
aI725455762479300609
aI722882446111350784
aI726767526005342208
aI240710759
aI526756981
aI730104885664985090
aI260545148
aI725654549776748544
aI439122061
aI2248646803
aI726078691529375744
aI112765091
aI726469653770440705
aI725360741084176384
aI733174077314191360
aI726996070597812224
aI722055221875183617
aI722468586737025024
aI727314555462914050
aI242833607
aI722739783190110208
aI730176479800233985
aI1500803803
aI732543192172797952
aI154411754
aI414473965
aI722740805325221888
aI888636372
aI722496765509943298
aI2549576444
aI1565510400
aI318942307
aI722505287396155392
aI127152395
aI431575308
aI722596729934233600
aI317237524
aI466461883
aI524585245
aI1598546719
aI1908794928
aI448162596
aI99897130
aI726309318849605632
aI1259931950
aI722543274871930880
aI108622136
aI727649636962451456
aI722587544593002496
aI725803775991095297
aI727491493427044352
aI109584194
aI722501469589647360
aI730085449226702848
aI423725910
aI722884616843956224
aI722659611145334784
aI725340260603977728
aI730102507310096385
aI2283696517
aI722509448628039680
aI296250762
aI732082937005522946
aI372278167
aI291965340
aI722427837513404416
aI172686242
aI722835779504836608
aI730095035488808961
aI722605909034319872
aI63220136
aI726641435009765376
aI232452017
aI722853889704218624
aI2237844404
aI559566264
aI722652271079780352
aI726343193244106752
aI726160663924596736
aI183944129
aI722482664779968514
aI463608773
aI725669816598708224
aI722061454984245249
aI222781396
aI255393243
aI722659758516383745
aI234714085
aI1196055804
aI733011010928414721
aI463803475
aI235376126
atp58
Rp59
sg12
I14
sg13
g14
(g15
tp60
Rp61
Vhttp://ow.ly/xxAJ309aWbB
p62
I121
ssg31
V6 things to look for when choosing a gym   fitness lifestyle
p63
sg33
I4
sg34
I20
sg35
I2
sa(dp64
g2
(dp65
g4
I95
sg5
I1
ssg6
I96
sg7
g8
((lp66
I726169655002411008
aI726787281911209984
aI725655552840355842
aI725709660225949699
aI727251975222513668
aI722511693667049477
aI722616362187800576
aI725498831908048897
aI722706135237660672
aI732200688462266370
aI171131928
aI722603551260872708
aI1656058398
aI722523239596036096
aI727162312524726273
aI730125941238841350
aI1456287782
aI726279017721122816
aI435899956
aI448423478
aI363396664
aI597967417
aI260284988
aI733257389449842688
aI336504392
aI2287205047
aI261748237
aI725329930666561536
aI331081305
aI722512016473198592
aI566477411
aI722659097573769217
aI1275773544
aI725399183281258496
aI410023534
aI733185422315130880
aI722878303808262144
aI2468102799
aI775512217
aI194709155
aI730078819621670913
aI722403715286704128
aI725482672190021632
aI466461883
aI722752620385804289
aI722563647638212610
aI727445111869689857
aI340292817
aI544895699
aI730107377257713665
aI725525421773754369
aI2549576444
aI722580916791545860
aI722509185271865344
aI2233142545
aI524585245
aI83400993
aI727193984364384256
aI934443060
aI722687719076425728
aI83244865
aI46799683
aI267863885
aI363583829
aI725509683444912132
aI179764057
aI726467941580062720
aI227637087
aI725365732238852096
aI474380668
aI1958811007
aI722388786575994880
aI730151214277611522
aI797856145
aI725775002717589504
aI722835779504836608
aI722514211591614465
aI722602984039923712
aI332380081
aI232267195
aI732885871708504064
aI725506626283778049
aI203686856
aI722772664398561280
aI97673168
aI722562633073848321
aI214034396
aI722440764840652801
aI282265571
aI726724465195909120
aI184797167
aI722612680050274305
aI446353906
aI733184513782714368
atp67
Rp68
sg12
I14
sg13
g14
(g15
tp69
Rp70
Vhttp://ow.ly/nLlk309aXjA
p71
I96
ssg31
Vwherever you are gear up for success with our organic coconutwater flavor energydrink
p72
sg33
I5
sg34
I20
sg35
I2
sa(dp73
g2
(dp74
g4
I93
sg5
I2
ssg6
I95
sg7
g8
((lp75
I2168189696
aI467473177
aI701908237394845698
aI4361928854
aI3227935238
aI3226046472
aI366053576
aI2344657290
aI3225922572
aI370724877
aI366446253
aI2390457745
aI467414034
aI468117909
aI366649622
aI3225914647
aI2390536410
aI854974020
aI452782875
aI381560093
aI3227962225
aI458414619
aI364316185
aI467240774
aI454008999
aI3222032810
aI3225884587
aI364129964
aI460193586
aI467216174
aI463907759
aI3223939633
aI453752882
aI736277624159227904
aI463496629
aI3227906870
aI460108091
aI3225981372
aI468148913
aI3226000831
aI452737089
aI3226905667
aI363717060
aI463891190
aI365336390
aI362986824
aI367029069
aI3226040845
aI2390512309
aI2372813396
aI3227951317
aI459940569
aI3849955034
aI3225975774
aI2390622560
aI3227904097
aI3225900517
aI718468053265096704
aI3225986154
aI367209383
aI3225971820
aI463869941
aI2390579695
aI454662513
aI3227917298
aI809626741
aI325325046
aI3223952359
aI3223972987
aI3226085629
atp76
Rp77
sg12
I14
sg13
g14
(g15
tp78
Rp79
Vhttp://ow.ly/hHuM309aVjW
p80
I95
ssg31
Vmachine learning top 10 articles for the past year v2017
p81
sg33
I6
sg34
I20
sg35
I2
sa(dp82
g2
(dp83
g4
I0
sg5
I93
ssg6
I93
sg7
g8
((lp84
I4841799168
aI829576156282122240
aI824477448922206211
aI827112975060209668
aI3930096133
aI803872474400112640
aI826217424756170753
aI3909607944
aI832926666720546816
aI769305565642104836
aI822362733924364288
aI4155479074
aI823210467648684033
aI789393591965589504
aI4559793672
aI4664098357
aI3623389758
aI736048264059854848
aI4880149578
aI4853720654
aI4887788113
aI1302718034
aI4624178774
aI3307215978
aI829280967164645376
aI4425441913
aI816068699882782724
aI3863769733
aI826681177998102528
aI4786449558
aI1024784023
aI4568704153
aI824034508634656769
aI4818190512
aI832111281490391040
aI4029403332
aI761477121227141120
aI4794625232
aI4711849681
aI4072931538
aI4738010354
aI827315844657016832
aI3797344518
aI51339537
aI4155542295
aI4685172505
aI3976421664
aI4835177250
aI826051279801573377
aI4764606247
aI4774880040
aI4008979753
aI4265236273
aI4414023733
aI4870275912
aI4367641935
aI4022601553
aI4651941716
aI825853223017648128
aI4804636507
aI819097635575345153
aI4408650089
aI4648140263
aI811002055993147392
aI4393354099
aI4809723252
aI819998278901075968
aI3695762298
aI4848081788
aI4836966274
aI825533293290418176
aI3608918413
aI828116199401590784
aI828588538945957889
aI4743138732
aI820329437795188737
aI4244137406
aI831083134955327488
aI4087006153
aI4637732299
aI4105575372
aI4826788813
aI695700582246563840
aI3762831313
aI736412855449198592
aI4286283733
aI824944579975581696
aI820537586003283968
aI4695676903
aI4798649835
aI4125181932
aI757673763580235776
aI807002186030804996
atp85
Rp86
sg12
I14
sg13
g14
(g15
tp87
Rp88
Vhttp://ow.ly/kp59509GcNy
p89
I1
sVhttp://ow.ly/KoOF509GcXf
p90
I1
sVhttp://ow.ly/Hghw509GamT
p91
I1
sVhttp://ow.ly/1jEw509Ga5r
p92
I1
sVhttp://ow.ly/U0hZ509Ge63
p93
I1
sVhttp://ow.ly/a9RH509GdMj
p94
I1
sVhttp://ow.ly/4OLd509G9Oi
p95
I1
sVhttp://ow.ly/G7fR509GcUP
p96
I1
sVhttp://ow.ly/d3US509GbWK
p97
I1
sVhttp://ow.ly/R96N509Gcuf
p98
I1
sVhttp://ow.ly/M8TB509GcWa
p99
I1
sVhttp://ow.ly/NXai509GaM1
p100
I1
sVhttp://ow.ly/K4sA509Gexx
p101
I1
sVhttp://ow.ly/ysVO509Ged2
p102
I1
sVhttp://ow.ly/NJJD509Ge0N
p103
I1
sVhttp://ow.ly/llWE509GdT8
p104
I1
sVhttp://ow.ly/4vf9509Gawt
p105
I1
sVhttp://ow.ly/utDz509Ge61
p106
I1
sVhttp://ow.ly/VaK7509GbQr
p107
I1
sVhttp://ow.ly/nZan509GbpQ
p108
I1
sVhttp://ow.ly/Ux6M509Gcmo
p109
I1
sVhttp://ow.ly/xqU6509GaLG
p110
I1
sVhttp://ow.ly/WWLG509Gdb4
p111
I1
sVhttp://ow.ly/NZU8509Gceb
p112
I1
sVhttp://ow.ly/ba9H509Gex2
p113
I1
sVhttp://ow.ly/Qca7509Gd5l
p114
I1
sVhttp://ow.ly/wz98509Gc4N
p115
I1
sVhttp://ow.ly/71ym509Gae4
p116
I1
sVhttp://ow.ly/R21p509GcWP
p117
I1
sVhttp://ow.ly/aYy9509Gbix
p118
I1
sVhttp://ow.ly/5231509GaED
p119
I1
sVhttp://ow.ly/yVbp509G9Ni
p120
I1
sVhttp://ow.ly/XEUu509Gekg
p121
I1
sVhttp://ow.ly/MAQo509GcM3
p122
I1
sVhttp://ow.ly/DUL1509GahM
p123
I1
sVhttp://ow.ly/Oozn509Gbyz
p124
I1
sVhttp://ow.ly/GPiB509Ge4k
p125
I1
sVhttp://ow.ly/gR5o509GbTn
p126
I1
sVhttp://ow.ly/I3WP509Gd4k
p127
I2
sVhttp://ow.ly/jGlF509GcVS
p128
I1
sVhttp://ow.ly/N2Cs509Gax2
p129
I1
sVhttp://ow.ly/OC2Z509Ge58
p130
I1
sVhttp://ow.ly/adYN509Gahv
p131
I1
sVhttp://ow.ly/IyNo509Gc4M
p132
I1
sVhttp://ow.ly/z2u1509GcJF
p133
I1
sVhttp://ow.ly/xMf3509GamJ
p134
I1
sVhttp://ow.ly/iUaU509Ga5i
p135
I1
sVhttp://ow.ly/f9Uo509Gc5k
p136
I1
sVhttp://ow.ly/vZta509GbTj
p137
I1
sVhttp://ow.ly/1N7g509Gadu
p138
I1
sVhttp://ow.ly/xQdl509GetW
p139
I1
sVhttp://ow.ly/vAlm509GdDq
p140
I1
sVhttp://ow.ly/qnZL509Gbzw
p141
I1
sVhttp://ow.ly/C0Di509GbLv
p142
I1
sVhttp://ow.ly/1Mb5509GdC6
p143
I1
sVhttp://ow.ly/e5Ow509GcTO
p144
I1
sVhttp://ow.ly/Q4Ex509GdHf
p145
I1
sVhttp://ow.ly/Sa3M509GcbG
p146
I1
sVhttp://ow.ly/facX509GaeA
p147
I1
sVhttp://ow.ly/Du12509GbRx
p148
I1
sVhttp://ow.ly/PMsI509Geix
p149
I1
sVhttp://ow.ly/3xk9509GeAq
p150
I1
sVhttp://ow.ly/VtbW509GasO
p151
I1
sVhttp://ow.ly/EvcS509GbNs
p152
I1
sVhttp://ow.ly/pccb509Gd3q
p153
I1
sVhttp://ow.ly/5L0k509GbL3
p154
I1
sVhttp://ow.ly/7Vt4509Gb2F
p155
I1
sVhttp://ow.ly/W3kQ509GeE1
p156
I1
sVhttp://ow.ly/rAb2509Gc8v
p157
I1
sVhttp://ow.ly/hsMz509GbKV
p158
I1
sVhttp://ow.ly/53tl509GbtX
p159
I1
sVhttp://ow.ly/Aybv509GatM
p160
I1
sVhttp://ow.ly/ShDv509Gbrz
p161
I1
sVhttp://ow.ly/i5eJ509GesF
p162
I1
sVhttp://ow.ly/QCYs509Gban
p163
I1
sVhttp://ow.ly/VxsL509GcK2
p164
I1
sVhttp://ow.ly/o2sR509GdCz
p165
I1
sVhttp://ow.ly/mW8S509Gaes
p166
I1
sVhttp://ow.ly/11LS509Galm
p167
I1
sVhttp://ow.ly/1eRv509Ge8n
p168
I1
sVhttp://ow.ly/yG7h509Gdyr
p169
I1
sVhttp://ow.ly/d0Qd509GcWb
p170
I1
sVhttp://ow.ly/4PD2509GaMq
p171
I1
sVhttp://ow.ly/MI0R509GamW
p172
I1
sVhttp://ow.ly/5Pps509Gd7H
p173
I1
sVhttp://ow.ly/5xty509Gbf9
p174
I1
sVhttp://ow.ly/EsYs509GclX
p175
I1
sVhttp://ow.ly/Obfx509GaIZ
p176
I1
sVhttp://ow.ly/V3nR509Gb6a
p177
I1
sVhttp://ow.ly/itVv509GbNr
p178
I1
sVhttp://ow.ly/TlNB509GaiA
p179
I1
sVhttp://ow.ly/JQQx509Gajw
p180
I1
ssg31
Vhow do the major platforms differ  some real estate investments are structured using llcs where the platform
p181
sg33
I7
sg34
I20
sg35
I2
sa(dp182
g2
(dp183
g4
I84
sg5
I0
ssg6
I84
sg7
g8
((lp184
I743942096608886784
aI825266760479805440
aI756688029146722306
aI3455573893
aI367547270
aI3598884737
aI1684256520
aI1905642889
aI24868874
aI1612994946
aI2874699571
aI14815503
aI1596731024
aI497539667
aI2964348099
aI348146452
aI341589397
aI94113177
aI4872535749
aI174319150
aI24949179
aI758330220176867328
aI790143008
aI2823935547
aI826234743351959553
aI1315498405
aI144772904
aI26756394
aI541336455
aI1445354930
aI528683182
aI508329777
aI864048050
aI500975879
aI828979011321790464
aI104216885
aI238870838
aI739647109696217088
aI2491786680
aI25334202
aI826838520337690624
aI353732668
aI216574346
aI192058043
aI18709184
aI82516256
aI826294257132580864
aI788460002428096512
aI49334853
aI907408454
aI826896505558663168
aI154960841
aI285391307
aI66210764
aI1031952397
aI796970290081198080
aI25586769
aI240827987
aI187639767
aI18800513
aI210893401
aI501405711
aI583433190
aI576961530
aI1602462559
aI327403747
aI71955429
aI524249574
aI2214376935
aI21272060
aI22748523
aI3010353900
aI47780717
aI4604401
aI46495091
aI19035124
aI450783203
aI4831350134
aI14503033
aI19469818
aI2391432955
aI90700284
aI3321457450
aI463589248
atp185
Rp186
sg12
I14
sg13
g14
(g15
tp187
Rp188
Vhttps://twitter.com/i/web/status/833405873800302592
p189
I84
ssg31
Vfollow amp rt for a chance to win a new 3ds xl pikachu yellow edition ends  feb 25th at 9pm et\u2026
p190
sg33
I8
sg34
I20
sg35
I2
sa(dp191
g2
(dp192
g4
I76
sg5
I0
ssg6
I76
sg7
g8
((lp193
I162204416
aI4476228737
aI628638850
aI2305879171
aI1621356932
aI277186565
aI794243254556491776
aI35474695
aI1938005023
aI1486104457
aI441063307
aI237308940
aI741747997286014978
aI3162594446
aI751286534385524736
aI377083503
aI3178138770
aI145838102
aI30939927
aI2417844248
aI748151297212289028
aI334389274
aI365744667
aI3829170972
aI3458917277
aI791350179844788224
aI627850271
aI1713653154
aI705367459
aI806665496196169729
aI348680229
aI529548712
aI137051694
aI339849392
aI808014258
aI132722100
aI151945857
aI531564729
aI885033439
aI49470271
aI3364450600
aI466110688
aI3025408450
aI74644440
aI2363464903
aI848255816
aI908064396
aI2895077452
aI823677081422688256
aI48965027
aI4330019413
aI16655702
aI722420172124852224
aI21042779
aI979228381
aI790279015827464192
aI4594897829
aI301623008
aI262497363
aI265710819
aI3315630181
aI1372711014
aI711294198977318913
aI99819883
aI33102081
aI168673204
aI265011368
aI47166195
aI706172170301407233
aI68815093
aI139211767
aI351289849
aI558294779
aI815989209949343744
aI16335102
aI4646744832
atp194
Rp195
sg12
I14
sg13
g14
(g15
tp196
Rp197
Vhttp://ow.ly/wesk3099JHh
p198
I76
ssg31
Vfor those who cant quit figure out whats happening in sweden the answer is rape
p199
sg33
I9
sg34
I20
sg35
I2
sa(dp200
g2
(dp201
g4
I61
sg5
I1
ssg6
I62
sg7
g8
((lp202
I752761409033924608
aI1969759874
aI1970030851
aI1969362949
aI1969791366
aI1970119404
aI3065870476
aI2448112400
aI1969602066
aI3062342933
aI2436680854
aI2487565593
aI3061267995
aI1969781916
aI1969619930
aI425439650
aI2437631387
aI1969611354
aI1969767409
aI3037932456
aI2437518249
aI1969696686
aI617056816
aI2475560242
aI2483132854
aI618661817
aI1970271290
aI1969453628
aI1969981770
aI619361343
aI2483051841
aI3039812036
aI2446633206
aI1970052553
aI2476141642
aI1969928012
aI1969671308
aI1970013007
aI2481003856
aI1969360722
aI3041433552
aI1969333718
aI3061346266
aI2484404189
aI3054631262
aI1969582224
aI1969290212
aI3037737812
aI614643942
aI2436856937
aI36773483
aI1969335020
aI1969830894
aI1970012528
aI617681137
aI3063456371
aI618669684
aI3036916982
aI2480654968
aI2445883129
aI283015548
aI1969750909
atp203
Rp204
sg12
I14
sg13
g14
(g15
tp205
Rp206
Vhttp://ow.ly/LKJo509GbFS
p207
I62
ssg31
Viot devops hadoop hadoopsql sparksql stormpath launches client api to simplfy mobile and frontend authenti
p208
sg33
I10
sg34
I20
sg35
I2
sa(dp209
g2
(dp210
g4
I57
sg5
I4
ssg6
I61
sg7
g8
((lp211
I795057996187467776
aI763734934620082176
aI825043499598888962
aI2313056515
aI10245892
aI720228997
aI815894627077136384
aI832057742949044225
aI2271100374
aI68610860
aI2698556173
aI479240208
aI156807569
aI235551875
aI870600342
aI4910959599
aI132237340
aI1295811290
aI71189921
aI3187288098
aI282860069
aI2796284072
aI4091880617
aI828326821556924416
aI1549283372
aI3346301230
aI830751993744474112
aI3078562100
aI93448378
aI27621566
aI762685109090811904
aI940534752
aI15841735
aI130303126
aI3082157129
aI424195149
aI36360821
aI232954960
aI3086142930
aI283711318
aI547197784
aI2745623001
aI59514202
aI843397339
aI621185765
aI117186656
aI29317601
aI180667771
aI1587173989
aI1728784615
aI18298094
aI522731503
aI634920177
aI2884305906
aI787774580
aI12441022
aI42648566
aI750100340595449856
aI38719608
aI829884180423077888
aI19402238
atp212
Rp213
sg12
I14
sg13
g14
(g15
tp214
Rp215
Vhttp://ow.ly/YOTT3096Qz7
p216
I61
ssg31
Vantarctic sea ice reaches its lowest extent on record
p217
sg33
I11
sg34
I20
sg35
I2
sa(dp218
g2
(dp219
g4
I60
sg5
I0
ssg6
I60
sg7
g8
((lp220
I781197927612047360
aI821728988636782592
aI829102887313760258
aI221992964
aI831660566762622976
aI769544373738627073
aI483007499
aI110504590
aI4861869790
aI566778387
aI811353438068031489
aI3137848213
aI1132871959
aI448294169
aI3562670235
aI1920598429
aI746004210899091456
aI16475168
aI388356129
aI75064739
aI822890383122305025
aI515883022
aI24059693
aI3123458095
aI44059824
aI273873589
aI371920950
aI767658752
aI117861308
aI1115736266
aI14759359
aI297542981
aI575411233
aI14736356
aI474409162
aI543298254
aI15534499
aI949199443
aI1892114388
aI2558571093
aI832485240471908356
aI4756515676
aI1908347870
aI288638432
aI605420129
aI712380909576720384
aI2816528228
aI865589096
aI244417596
aI3138100460
aI3127973741
aI1594388053
aI3472218867
aI2620960500
aI93223785
aI3387449532
aI494624633
aI107629181
aI267421182
aI797997226048061440
atp221
Rp222
sg12
I14
sg13
g14
(g15
tp223
Rp224
Vhttps://twitter.com/i/web/status/833632882828668928
p225
I60
ssg31
Vfamine has hit parts of southsudan nearly 5m people urgently need food agriculture amp nutrition assistance \u2192\u2026
p226
sg33
I12
sg34
I20
sg35
I2
sa(dp227
g2
(dp228
g4
I55
sg5
I1
ssg6
I56
sg7
g8
((lp229
I708536047030775808
aI712210908341075968
aI756847787086532610
aI3225979268
aI374579973
aI338448134
aI372667787
aI3227786766
aI452113680
aI3069722388
aI3067892322
aI364900378
aI380791456
aI3226918561
aI3067932806
aI466616870
aI2687168168
aI458390571
aI464632500
aI373425844
aI2965257911
aI3223176930
aI3223230782
aI3227833920
aI3069760706
aI3226139587
aI2167974980
aI3225950900
aI364917959
aI3225915080
aI3226108747
aI2689611084
aI3225808098
aI3225832398
aI3225882829
aI3068121296
aI3225941203
aI364930004
aI3225937358
aI3227860568
aI1030087898
aI365931229
aI711126662117601280
aI2179990879
aI3225900944
aI3227902178
aI3223832934
aI1030037232
aI16997715
aI1032059892
aI1049456630
aI366030841
aI2280308299
aI3225844220
aI3226864766
aI371647743
atp230
Rp231
sg12
I14
sg13
g14
(g15
tp232
Rp233
Vhttp://ow.ly/NHii509GaPT
p234
I56
ssg31
Vbitcoin news 3 smart contract misconceptions explored  the smart contracts hype is creating new operational c
p235
sg33
I13
sg34
I20
sg35
I2
sa(dp236
g2
(dp237
g4
I55
sg5
I1
ssg6
I56
sg7
g8
((lp238
I707213716295655424
aI793212232205213696
aI15921339
aI2232177665
aI570653706
aI777770768
aI2240704658
aI2229722131
aI605351322
aI2656499169
aI2172707487
aI2261630598
aI340185510
aI298644519
aI1080207836
aI445753471
aI270955821
aI34262833
aI225009970
aI2431059831
aI2454737758
aI59205814
aI1606261051
aI945961274
aI1435104187
aI2996380839
aI42719424
aI45194562
aI4472605763
aI3012480327
aI359904971
aI2411205837
aI360173263
aI15713489
aI143974363
aI138101468
aI62818910
aI425338847
aI1524362209
aI414740194
aI2936179683
aI543567716
aI1543359590
aI3884620905
aI485661419
aI24150252
aI1655931282
aI228039151
aI2615317490
aI42660725
aI2561285865
aI263164152
aI187201018
aI2283693435
aI98355836
aI3298457087
atp239
Rp240
sg12
I14
sg13
g14
(g15
tp241
Rp242
Vhttps://twitter.com/i/web/status/833692837657075720
p243
I56
ssg31
Vpl rt findchristinewalker15missing from erdington birmingham since 172 seen her call 116 000\u2026
p244
sg33
I14
sg34
I20
sg35
I2
sa(dp245
g2
(dp246
g4
I52
sg5
I2
ssg6
I54
sg7
g8
((lp247
I753992079814987776
aI707719801783713792
aI2843146539
aI824780955223281664
aI165978888
aI62290907
aI329707279
aI2872513298
aI1067674555
aI14861719
aI115992984
aI3263174555
aI816840408814784512
aI404127685
aI14901281
aI1456464674
aI19631395
aI833373769578192902
aI2530601126
aI318805852
aI97290667
aI143148589
aI18610096
aI94517683
aI477974971
aI890319259
aI42421438
aI1025513407
aI328252737
aI1012364354
aI2669096004
aI33990597
aI1450279496
aI2812520823
aI107179298
aI420717649
aI60158930
aI92191587
aI60898339
aI2786710963
aI366377561
aI3689783055
aI14269660
aI2191707487
aI439515710
aI43824995
aI2216412262
aI40389230
aI283442293
aI3306215721
aI88330616
aI304489122
aI2713682431
atp248
Rp249
sg12
I14
sg13
g14
(g15
tp250
Rp251
Vhttp://ow.ly/tGhN309aWvx
p252
I54
ssg31
Vnews a king\u2019s tale final fantasy xv ps4x1 will be free march 1st
p253
sg33
I15
sg34
I20
sg35
I2
sa(dp254
g2
(dp255
g4
I47
sg5
I0
ssg6
I47
sg7
g8
((lp256
I822892106775597056
aI732920638474588160
aI748220366330396676
aI826251280070766592
aI165734664
aI3171040368
aI3952094602
aI23909902
aI69712655
aI17264528
aI186318353
aI40015598
aI3610429572
aI19041822
aI25203361
aI83705507
aI37377065
aI752625295870468096
aI17793032
aI788915123012395008
aI800183011505369088
aI391541821
aI263315520
aI25014465
aI745806936382279680
aI132981153
aI3077707084
aI2278230090
aI286680780
aI1860727694
aI2676529774
aI806053589810606080
aI1609553502
aI2179089168
aI3197853026
aI21407972
aI18661991
aI17495913
aI3157853550
aI70795632
aI24447473
aI18697586
aI388028777
aI457985912
aI16157689
aI817893288787275776
aI2978800383
atp257
Rp258
sg12
I14
sg13
g14
(g15
tp259
Rp260
Vhttp://ow.ly/zo3X309aG6Y
p261
I47
ssg31
Vwhat happened to japanese americans 75 years ago is newly relevant
p262
sg33
I16
sg34
I20
sg35
I2
sa(dp263
g2
(dp264
g4
I46
sg5
I0
ssg6
I46
sg7
g8
((lp265
I717357239066083328
aI716708370598731777
aI4004631683
aI1565366660
aI733757641667792896
aI831235630319407105
aI804095143737511937
aI19371817
aI990609295
aI2282700048
aI1194807534
aI168611225
aI95627930
aI56223647
aI31171108
aI2357223077
aI3222622633
aI1190765102
aI88441783
aI788867477967081473
aI363764410
aI2853663040
aI197429319
aI1262706120
aI2296618062
aI353898192
aI2925894994
aI715645097438797824
aI2832344793
aI2724410978
aI799363263461003264
aI210839780
aI889435627
aI1915211244
aI403344466
aI2434246382
aI379187197
aI798643759231725569
aI597697138
aI1124967283
aI126743413
aI196588526
aI750066315088584704
aI809402364
aI615115773
aI45854079
atp266
Rp267
sg12
I14
sg13
g14
(g15
tp268
Rp269
Vhttps://twitter.com/i/web/status/833678564205666304
p270
I46
ssg31
Vwin 1 of 5 jute bags full of exceptional confectionery from buttermilk rt follow amp see more here \u2026
p271
sg33
I17
sg34
I20
sg35
I2
sa(dp272
g2
(dp273
g4
I40
sg5
I2
ssg6
I42
sg7
g8
((lp274
I23830016
aI806956495933964289
aI169375490
aI155998467
aI831268044051726336
aI831692930129752065
aI28586762
aI17698060
aI3033288590
aI4631566097
aI760727334458630144
aI328063384
aI16678298
aI49797918
aI797498597302534145
aI153177381
aI185370151
aI31328554
aI89032883
aI279102772
aI279198390
aI841024956
aI21487677
aI768140059497365504
aI48226754
aI15129030
aI22621383
aI28520145
aI16955991
aI177033637
aI35597312
aI21657960
aI54855228
aI35964327
aI28215663
aI2417849328
aI558058097
aI2296973810
aI36771189
aI34636521
aI44267515
aI59621052
atp275
Rp276
sg12
I14
sg13
g14
(g15
tp277
Rp278
Vhttp://ow.ly/oUri309aMVq
p279
I42
ssg31
Vjohn oliver says theres a dangerous pattern when it comes to trumps claims
p280
sg33
I18
sg34
I20
sg35
I2
sa(dp281
g2
(dp282
g4
I39
sg5
I2
ssg6
I41
sg7
g8
((lp283
I703603913384136704
aI3328202240
aI703869995093266432
aI2357207815
aI2476428552
aI3160756750
aI3289232784
aI3316160530
aI2244493332
aI52819606
aI2736096535
aI2244319640
aI1919090971
aI3298342048
aI3332407457
aI2555635368
aI3359026090
aI2820417138
aI2528411443
aI2212098487
aI2593962042
aI1964950716
aI3310689726
aI2588192587
aI2555686340
aI3346622026
aI2942756939
aI4409931725
aI2494998606
aI2361786326
aI2290035800
aI4883729114
aI2813837712
aI3438714981
aI2360012647
aI3310607228
aI1649428242
aI2566050192
aI2262860478
aI1718108028
aI2359318782
atp284
Rp285
sg12
I14
sg13
g14
(g15
tp286
Rp287
Vhttps://twitter.com/i/web/status/833700432400760834
p288
I2
sVhttp://ow.ly/AA5A3095X08
p289
I41
ssg31
Vfacebook hr exec explains why the best managers act like airtraffic controllers   hr\u2026
p290
sg33
I19
sg34
I20
sg35
I2
sa(dp291
g2
(dp292
g4
I2
sg5
I37
ssg6
I39
sg7
g8
((lp293
I122268419
aI123169030
aI57696775
aI122275336
aI123169674
aI122319500
aI139958159
aI3053260184
aI57695171
aI125307737
aI122325784
aI122274073
aI122311580
aI123161503
aI57717924
aI122324773
aI57692842
aI123167047
aI57696304
aI122351672
aI122315705
aI122313275
aI122315068
aI123172030
aI123172419
aI57695557
aI122277959
aI57697232
aI122318776
aI123169369
aI122274652
aI122273373
aI123171259
aI57714921
aI4919832430
aI122325365
aI57719145
aI122313979
aI2916388095
atp294
Rp295
sg12
I14
sg13
g14
(g15
tp296
Rp297
Vhttp://ow.ly/9nbq308aAho
p298
I39
ssg31
Vrecruiters think like a candidate when you write job posting titles  dont use buzzwords
p299
sg33
I20
sg34
I20
sg35
I2
sa(dp300
g2
(dp301
g4
I39
sg5
I0
ssg6
I39
sg7
g8
((lp302
I19530624
aI2232177665
aI15558019
aI2281029895
aI296086792
aI546106166
aI380916739
aI20681749
aI226813337
aI3039577114
aI2774576458
aI320390853
aI796604419
aI3332293287
aI1664741276
aI49609777
aI384776371
aI54621875
aI59205814
aI835973305
aI43557178
aI20862780
aI2996380839
aI1165631808
aI45194562
aI127592389
aI2540414154
aI231166667
aI142838995
aI17836267
aI2936179683
aI1543359590
aI3884620905
aI2173650154
aI298644519
aI455265269
aI2289123319
aI235664382
aI3298457087
atp303
Rp304
sg12
I14
sg13
g14
(g15
tp305
Rp306
Vhttps://twitter.com/i/web/status/833658742025641984
p307
I39
ssg31
Vcan you help findkyraadams 15 missing from miltonkeynes since 112 please rt seen her call 116 000\u2026
p308
sg33
I21
sg34
I20
sg35
I2
sa(dp309
g2
(dp310
g4
I36
sg5
I2
ssg6
I38
sg7
g8
((lp311
I829346941356146688
aI701600171801636865
aI803380548282515458
aI1238529541
aI756138676229328896
aI4610672903
aI613593096
aI3771930255
aI2699600532
aI3303566749
aI990850976
aI109053346
aI334252707
aI309549093
aI2946285225
aI4568128942
aI37917232
aI52586462
aI3031552061
aI48219360
aI99350609
aI69231187
aI14867288
aI821549527249383424
aI344172509
aI18035294
aI3624301408
aI21513572
aI3008829542
aI745430411778662400
aI20252263
aI1320230766
aI3402636532
aI832239649296936960
aI1949641722
aI279196027
aI393706495
atp312
Rp313
sg12
I14
sg13
g14
(g15
tp314
Rp315
Vhttp://ow.ly/kQP1309aSpj
p316
I38
ssg31
Vwe must all work for social justice in intl solidarity to achieve sustainable peace in the world  alfreddezayas
p317
sg33
I22
sg34
I20
sg35
I2
sa(dp318
g2
(dp319
g4
I35
sg5
I1
ssg6
I36
sg7
g8
((lp320
I802029756040495104
aI825056330834644992
aI18702315
aI814611969193996288
aI33588268
aI605909645
aI72623555
aI106665106
aI2284060867
aI48083092
aI2386970396
aI111683613
aI64018976
aI941081893
aI4327367719
aI69379370
aI39008044
aI2608760477
aI74371635
aI68728886
aI119553595
aI2244201148
aI1163323459
aI47062605
aI700443220745043968
aI220483280
aI69561812
aI3101853177
aI465084639
aI2220246115
aI61092581
aI592325865
aI3434465003
aI106778112
aI2148063864
aI14204921
atp321
Rp322
sg12
I14
sg13
g14
(g15
tp323
Rp324
Vhttps://twitter.com/i/web/status/833701516720627713
p325
I36
ssg31
Vhappy birthday sidneypoitier for our bhm series imangelabassett amp blairunderwood speak on this icon\u2026
p326
sg33
I23
sg34
I20
sg35
I2
sa(dp327
g2
(dp328
g4
I36
sg5
I0
ssg6
I36
sg7
g8
((lp329
I19530624
aI781542161317818368
aI17098370
aI82231659
aI296086792
aI816037554776576010
aI3246128525
aI1655931282
aI20681749
aI3039577114
aI4834858912
aI152344098
aI90879779
aI2996380839
aI181583529
aI54500785
aI384776371
aI59083188
aI19443126
aI2196124983
aI835973305
aI231166667
aI320390853
aI1262391883
aI234128589
aI2628826702
aI23458130
aI26335316
aI354357212
aI908367204
aI3884620905
aI17836267
aI455265269
aI565686137
aI3298457087
atp330
Rp331
sg12
I14
sg13
g14
(g15
tp332
Rp333
Vhttps://twitter.com/i/web/status/833647494663921664
p334
I36
ssg31
Vplease help us findkellyobrien25missing from ealing london since 162 seen her call 116 000\u2026
p335
sg33
I24
sg34
I20
sg35
I2
sa(dp336
g2
(dp337
g4
I34
sg5
I1
ssg6
I35
sg7
g8
((lp338
I824455228468649984
aI810277341280669696
aI706533060523782146
aI1152344581
aI797884619593019392
aI757987650460680193
aI403131657
aI15792526
aI701448337
aI3064817812
aI2603918232
aI3354952197
aI762462903093997569
aI32953893
aI216250535
aI723496982485020672
aI3065027248
aI833052788288417792
aI1355730494
aI796958126251479040
aI1099734212
aI42252229
aI800183011505369088
aI25538771
aI817504287555223553
aI52387864
aI827137989658734592
aI16595365
aI248495200
aI2436409186
aI2714378171
aI987642085
aI260106207
aI1149190123
aI771416185
atp339
Rp340
sg12
I14
sg13
g14
(g15
tp341
Rp342
Vhttps://twitter.com/i/web/status/833697747836497920
p343
I35
ssg31
Vveterans are exactly the kind of people we need in public service and politics especially right now lets put cou\u2026
p344
sg33
I25
sg34
I20
sg35
I2
sa(dp345
g2
(dp346
g4
I33
sg5
I0
ssg6
I33
sg7
g8
((lp347
I717113557611974656
aI829711570322223105
aI2534941058
aI738461796730703875
aI3357065092
aI800004352450686976
aI18022791
aI4709158408
aI237118219
aI17909774
aI1111154192
aI2314646299
aI125581859
aI367478820
aI3351385649
aI1462233398
aI37951988
aI833580539441475584
aI3516147262
aI2048581
aI1319519815
aI23671884
aI2908802126
aI346283985
aI1652785243
aI3138026333
aI2812019680
aI2526254690
aI575482341
aI1965866215
aI724184809
aI4833220084
aI4837300329
atp348
Rp349
sg12
I14
sg13
g14
(g15
tp350
Rp351
Vhttps://twitter.com/i/web/status/833412109203447808
p352
I33
ssg31
Vtoday chris wallace put truth before party regardless of your affiliation his loyalty to the truth is something w\u2026
p353
sg33
I26
sg34
I20
sg35
I2
sa(dp354
g2
(dp355
g4
I32
sg5
I0
ssg6
I32
sg7
g8
((lp356
I757229724439576576
aI703560433056272384
aI703246316781101056
aI705875014474559489
aI3338268809
aI2790176785
aI2766600338
aI20463513
aI2789029280
aI770581932862234625
aI2835411974
aI274131880
aI2465465004
aI297396660
aI2304749239
aI2557524810
aI2455698464
aI3257413574
aI2493727560
aI2549201738
aI2412869580
aI2424582991
aI2324934871
aI2367471439
aI3266397919
aI2476405225
aI2500198770
aI14754547
aI3351733481
aI2196266874
aI2409524731
aI2434640126
atp357
Rp358
sg12
I14
sg13
g14
(g15
tp359
Rp360
Vhttp://ow.ly/ONCL305aeuy
p361
I32
ssg31
V15 resources for creating beautiful social media images   socialmedia
p362
sg33
I27
sg34
I20
sg35
I2
sa(dp363
g2
(dp364
g4
I30
sg5
I1
ssg6
I31
sg7
g8
((lp365
I747898469466017792
aI821938936960282625
aI160683778
aI826500923035758592
aI327616391
aI194748040
aI793938768700973058
aI391218066
aI26390560
aI84219043
aI4433675173
aI3395815474
aI4075784777
aI502635450
aI555657531
aI162595518
aI268316617
aI1735468496
aI310470227
aI635975254
aI274901464
aI3909556154
aI3198942814
aI57563171
aI1025697979
aI1668851430
aI834841578
aI600455791
aI1082024275
aI3841465332
aI3994043775
atp366
Rp367
sg12
I14
sg13
g14
(g15
tp368
Rp369
Vhttp://ow.ly/8dpG3090lrD
p370
I30
sVhttp://ow.ly/zhhp308QZGP
p371
I1
ssg31
Vwin 2 tickets to see ladygaga in vancouver via vancitybuzz   rt to enter
p372
sg33
I28
sg34
I20
sg35
I2
sa(dp373
g2
(dp374
g4
I30
sg5
I1
ssg6
I31
sg7
g8
((lp375
I785220297645580288
aI818829424430714881
aI14962437
aI788102773514637312
aI279319442
aI15426458
aI81111450
aI15625377
aI3399822627
aI76168364
aI503484846
aI3078562100
aI25080927
aI105850314
aI959303244
aI3138322130
aI4846398179
aI783330901
aI2600367068
aI314713949
aI2465071326
aI249908069
aI379686115
aI22234724
aI65247461
aI315268586
aI914979439
aI259856497
aI507874515
aI216476151
aI1898353916
atp376
Rp377
sg12
I14
sg13
g14
(g15
tp378
Rp379
Vhttps://twitter.com/i/web/status/833696604133666817
p380
I31
ssg31
V\u201cto photograph truthfully and effectively is to see beneath the surfaces\u201d \u2014 anseladams born onthisday in 1902\u2026
p381
sg33
I29
sg34
I20
sg35
I2
sa(dp382
g2
(dp383
g4
I26
sg5
I3
ssg6
I29
sg7
g8
((lp384
I831268044051726336
aI768140059497365504
aI803728905995550720
aI2515280392
aI559701776
aI1884764821
aI70512796
aI1967730090
aI89032883
aI753011048324689920
aI24525116
aI33377088
aI523982530
aI67778641
aI3182260693
aI16955991
aI826831383062573056
aI726489366571311104
aI1186457310
aI4882372581
aI35597312
aI841024956
aI3460583660
aI821080148086702080
aI618127090
aI286963578
aI3302121211
aI1097370709
atp385
Rp386
sg12
I14
sg13
g14
(g15
tp387
Rp388
Vhttp://ow.ly/Di5S309a273
p389
I29
ssg31
Vtrump didnt remake the electorate \u2014 hillary and the democratic party just blew it
p390
sg33
I30
sg34
I20
sg35
I2
sa(dp391
g2
(dp392
g4
I27
sg5
I1
ssg6
I28
sg7
g8
((lp393
I752131573705736192
aI816348095910973441
aI24036615
aI816037554776576010
aI146531083
aI3064855827
aI24858007
aI194479393
aI1196391842
aI1258010534
aI252266408
aI3367868969
aI2167377962
aI2761134215
aI21303982
aI45328185
aI397737530
aI27843595
aI36698826
aI573550199
aI15713489
aI23458130
aI543567716
aI1543359590
aI2289123319
aI263164152
aI98355836
atp394
Rp395
sg12
I14
sg13
g14
(g15
tp396
Rp397
Vhttps://twitter.com/i/web/status/833704053624406016
p398
I28
ssg31
Vplease share and help us finddemariowilliams15missing from edmonton london since 162 seen him call 116 000\u2026
p399
sg33
I31
sg34
I20
sg35
I2
sa(dp400
g2
(dp401
g4
I26
sg5
I1
ssg6
I27
sg7
g8
((lp402
I745350425751228416
aI28567809
aI16838148
aI824349504749105152
aI708633750175883265
aI2591735305
aI16984207
aI2155448724
aI52387864
aI254539418
aI39499934
aI6015852
aI1315308330
aI72347833
aI487964602
aI2235299774
aI52306752
aI369957825
aI3646231876
aI194713944
aI115182863
aI2345965023
aI3079077730
aI16958565
aI152217065
aI287925612
aI861175488
atp403
Rp404
sg12
I14
sg13
g14
(g15
tp405
Rp406
Vhttps://twitter.com/i/web/status/833649933462958084
p407
I8
sVhttps://twitter.com/i/web/status/833697775040786433
p408
I19
ssg31
Vludwig boltzmann an austrian physicist amp one of the founders of statistical mechanics was born onthisday in 1844\u2026
p409
sg33
I32
sg34
I20
sg35
I2
sa(dp410
g2
(dp411
g4
I24
sg5
I3
ssg6
I27
sg7
g8
((lp412
I828819030836404224
aI703036305861574657
aI2664278533
aI756138676229328896
aI60676109
aI887030672
aI1884764821
aI2732126720
aI49797918
aI1074845988
aI832861190
aI185370151
aI844630190
aI831268044051726336
aI218178999
aI841024956
aI768140059497365504
aI2273728968
aI2222956106
aI67778641
aI16955991
aI2427546968
aI827064734130302976
aI423873762
aI792405537065492480
atp413
Rp414
sg12
I14
sg13
g14
(g15
tp415
Rp416
Vhttp://ow.ly/23CE309a2qf
p417
I27
ssg31
Vthey were brought to america as kids \u2014 then sent back to a country they barely know
p418
sg33
I33
sg34
I20
sg35
I2
sa(dp419
g2
(dp420
g4
I26
sg5
I1
ssg6
I27
sg7
g8
((lp421
I708951402274549760
aI704633393284255744
aI2548986373
aI2267842440
aI2395218186
aI2297990672
aI3358344724
aI2552049302
aI2715849624
aI3361877657
aI2320049570
aI2619340327
aI2474930096
aI2276392891
aI3260530110
aI2525549941
aI2454465612
aI3340017869
aI2397403093
aI2633287003
aI3152309862
aI4167334895
aI2262860478
aI2249422074
aI2690712571
aI2910676988
atp422
Rp423
sg12
I14
sg13
g14
(g15
tp424
Rp425
Vhttp://ow.ly/ltl6305agx4
p426
I27
ssg31
Va quick guide to building a thriving social media community   socialmedia
p427
sg33
I34
sg34
I20
sg35
I2
sa(dp428
g2
(dp429
g4
I25
sg5
I1
ssg6
I26
sg7
g8
((lp430
I1969665920
aI1969467650
aI615015939
aI1970220420
aI2484052493
aI615216399
aI1969457810
aI1969414639
aI323010850
aI615770666
aI1969462706
aI3065780925
aI3051909955
aI613700036
aI2475794189
aI616010191
aI2446650584
aI2485035099
aI1969631580
aI3059227492
aI1969716967
aI2485354090
aI613448943
aI3056081649
aI1970043890
aI1970223487
atp431
Rp432
sg12
I14
sg13
g14
(g15
tp433
Rp434
Vhttps://twitter.com/i/web/status/833703387602440194
p435
I26
ssg31
Vhave you suffered from acne at a regular rate learn more about the ways to treat acne featuring bbl\u2026
p436
sg33
I35
sg34
I20
sg35
I2
sa(dp437
g2
(dp438
g4
I10
sg5
I16
ssg6
I26
sg7
g8
((lp439
I722469678770065408
aI722472745158586369
aI702502809602650114
aI714454434676215808
aI722470550270914561
aI4828322184
aI3954901513
aI701672741817155586
aI3070964886
aI85523608
aI59370652
aI4063839134
aI3955838113
aI743726610931539969
aI827818205682872320
aI559817396
aI721974820989067264
aI717733323317981184
aI3955346774
aI2736460759
aI3954873432
aI4731461849
aI3954945132
aI2863422061
aI3954222074
atp440
Rp441
sg12
I14
sg13
g14
(g15
tp442
Rp443
Vhttps://twitter.com/i/web/status/833692920758800385
p444
I1
sVhttps://twitter.com/i/web/status/833692920213553152
p445
I1
sVhttps://twitter.com/i/web/status/833692920553275392
p446
I1
sVhttps://twitter.com/i/web/status/833692920750415875
p447
I1
sVhttps://twitter.com/i/web/status/833692920523923456
p448
I2
sVhttps://twitter.com/i/web/status/833692921694150656
p449
I1
sVhttps://twitter.com/i/web/status/833692920427511811
p450
I1
sVhttps://twitter.com/i/web/status/833692922285527040
p451
I1
sVhttps://twitter.com/i/web/status/833692921958432770
p452
I1
sVhttps://twitter.com/i/web/status/833692920612024320
p453
I1
sVhttps://twitter.com/i/web/status/833692923124449280
p454
I3
sVhttps://twitter.com/i/web/status/833692921509638145
p455
I1
sVhttps://twitter.com/i/web/status/833692921039839232
p456
I2
sVhttps://twitter.com/i/web/status/833692920003907586
p457
I1
sVhttps://twitter.com/i/web/status/833692919903158272
p458
I1
sVhttps://twitter.com/i/web/status/833692921471844353
p459
I1
sVhttps://twitter.com/i/web/status/833692920792358912
p460
I1
sVhttps://twitter.com/i/web/status/833692921081786372
p461
I1
sVhttps://twitter.com/i/web/status/833692921706774528
p462
I1
sVhttps://twitter.com/i/web/status/833692921325113344
p463
I1
sVhttps://twitter.com/i/web/status/833692921719377921
p464
I1
sVhttps://twitter.com/i/web/status/833692922273005569
p465
I1
ssg31
V5 effective exercises that will build up your glutes improve your posture and burn fat  workout\u2026
p466
sg33
I36
sg34
I20
sg35
I2
sa(dp467
g2
(dp468
g4
I25
sg5
I1
ssg6
I26
sg7
g8
((lp469
I3039944576
aI626478337
aI1969694724
aI1969697670
aI3043287690
aI3050223119
aI1969606424
aI2437496452
aI1969731482
aI3054930886
aI3054252719
aI133845429
aI1969459386
aI1969968060
aI3056794378
aI3040615358
aI3063827782
aI1969967432
aI3039994957
aI618952787
aI283015517
aI3039857508
aI1969630182
aI618540268
aI3063621239
aI1970180347
atp470
Rp471
sg12
I14
sg13
g14
(g15
tp472
Rp473
Vhttp://ow.ly/bjnn308oWyB
p474
I26
ssg31
Vgiraffe manor kenya see more   travel luxury hotel photography photographytips
p475
sg33
I37
sg34
I20
sg35
I2
sa(dp476
g2
(dp477
g4
I24
sg5
I1
ssg6
I25
sg7
g8
((lp478
I108220288
aI161903105
aI812995825710333952
aI18621835
aI3272276492
aI455891854
aI33914769
aI185594130
aI86568866
aI2489892516
aI2350666021
aI40701990
aI39008044
aI3666203053
aI20210866
aI2437297722
aI429123529
aI247413972
aI50479957
aI3169386170
aI20118243
aI3248012772
aI18702315
aI2683326324
aI91281785
atp479
Rp480
sg12
I14
sg13
g14
(g15
tp481
Rp482
Vhttps://twitter.com/i/web/status/833694050536607744
p483
I25
ssg31
Vmeet one of the nations youngest big city mayors andrewgillum amp his redstatebluecity battle\u2026
p484
sg33
I38
sg34
I20
sg35
I2
sa(dp485
g2
(dp486
g4
I23
sg5
I2
ssg6
I25
sg7
g8
((lp487
I708951402274549760
aI752761409033924608
aI2692273286
aI2357207815
aI2486197386
aI2862942987
aI2960753565
aI2551053475
aI706387153589248000
aI2555635368
aI2979274803
aI2395218186
aI3228713026
aI3157876035
aI2619340327
aI2230478545
aI2600561234
aI2210573270
aI1273392986
aI702458728445054976
aI3149874087
aI3347358196
aI2525549941
aI2495447287
aI2910676988
atp488
Rp489
sg12
I14
sg13
g14
(g15
tp490
Rp491
Vhttp://ow.ly/YTFH305ahRg
p492
I25
ssg31
Vhow to improve your social media monitoring and understand influencers   socialmedia
p493
sg33
I39
sg34
I20
sg35
I2
sa(dp494
g2
(dp495
g4
I25
sg5
I0
ssg6
I25
sg7
g8
((lp496
I702758940308807680
aI702502737473306625
aI770581932862234625
aI2354554123
aI3313845518
aI2508165392
aI2766600338
aI2701971476
aI1624948249
aI2395369243
aI2674766366
aI3170859684
aI3352941478
aI2291524016
aI3252043832
aI2420354874
aI3256951615
aI2396211282
aI2251122643
aI3231013006
aI2875586937
aI2488166887
aI1624846056
aI3303261940
aI2205409044
atp497
Rp498
sg12
I14
sg13
g14
(g15
tp499
Rp500
Vhttp://ow.ly/OAKH305ajwx
p501
I25
ssg31
Vthe sales rep s role in the social selling partnership   socialselling
p502
sg33
I40
sg34
I20
sg35
I2
sa(dp503
g2
(dp504
g4
I0
sg5
I25
ssg6
I25
sg7
g8
((lp505
I712456939
aI721441160
aI464009866
aI574229133
aI24817682
aI251719320
aI1413874332
aI560587423
aI167127600
aI16684972
aI1670625200
aI118235146
aI208785716
aI3092779319
aI94868793
aI2321277194
aI25830342
aI80589383
aI457897420
aI221448412
aI702075624
aI21200747
aI2612889618
aI2698073204
aI754369147
atp506
Rp507
sg12
I14
sg13
g14
(g15
tp508
Rp509
Vhttp://www.wheretraveler.com/prizes/1/bonus-entry
p510
I3
sVhttp://ow.ly/BN6N306Z7fW
p511
I25
sVhttp://www.wheretraveler.com/contest/win-trip-nyc-journey-amtrak
p512
I19
ssg31
Venter to win a trip for 2 to nyc via wheretraveler and amtrak
p513
sg33
I41
sg34
I20
sg35
I2
sa(dp514
g2
(dp515
g4
I23
sg5
I1
ssg6
I24
sg7
g8
((lp516
I789112594632151040
aI750905218141913088
aI6782082
aI1468230403
aI2551053828
aI459274384
aI111417492
aI487089958
aI40703912
aI22871978
aI309702832
aI247620145
aI61114291
aI2918001589
aI196303030
aI276688440
aI3377760569
aI2183577155
aI187823558
aI2331407818
aI17366486
aI14726509
aI22321520
aI34404595
atp517
Rp518
sg12
I14
sg13
g14
(g15
tp519
Rp520
Vhttps://twitter.com/i/web/status/833702870415454209
p521
I24
ssg31
Vtoday in 1895 abolitionist frederick douglass dies after returning home from a lecture tour his life work\u2026
p522
sg33
I42
sg34
I20
sg35
I2
sa(dp523
g2
(dp524
g4
I24
sg5
I0
ssg6
I24
sg7
g8
((lp525
I712213221445410816
aI828546294394322944
aI1525764482
aI725440133588226048
aI241708559
aI32886161
aI2800466323
aI4740101911
aI2957418269
aI293935903
aI27021858
aI20514598
aI63202858
aI3123458095
aI429219637
aI2975484989
aI4871735104
aI3362527940
aI389548615
aI335469402
aI831150684
aI11695472
aI3055861239
aI210354218
atp526
Rp527
sg12
I14
sg13
g14
(g15
tp528
Rp529
Vhttps://twitter.com/i/web/status/833599259891138560
p530
I24
ssg31
Vfamine hits parts of southsudan 100000 ppl facing starvation 5 mln ppl need food ag amp nutrition assistance\u2026
p531
sg33
I43
sg34
I20
sg35
I2
sa(dp532
g2
(dp533
g4
I17
sg5
I7
ssg6
I24
sg7
g8
((lp534
I825500546068934656
aI752761409033924608
aI487686275
aI732405027248033795
aI2475259427
aI18185124
aI2483487531
aI15830958
aI27095215
aI55207986
aI3065181622
aI2489943339
aI164680378
aI94607679
aI2437460278
aI2477417673
aI2485132493
aI60166493
aI26735842
aI4781579497
aI3064934769
aI3312608758
aI198741367
atp535
Rp536
sg12
I14
sg13
g14
(g15
tp537
Rp538
Vhttp://ow.ly/Qszy3099CLU
p539
I24
ssg31
Vhow to make your website a powerful marketing machine   digitalmarketing
p540
sg33
I44
sg34
I20
sg35
I2
sa(dp541
g2
(dp542
g4
I20
sg5
I3
ssg6
I23
sg7
g8
((lp543
I802070780037173248
aI97449224
aI49775372
aI32337943
aI787129760
aI14112296
aI1405515950
aI11385992
aI2518535220
aI2292234038
aI3395511
aI34798529
aI24187020
aI575567949
aI1227289680
aI180340566
aI125784541
aI277252830
aI23055056
aI1547881832
aI455979634
aI239400572
aI234268542
atp544
Rp545
sg12
I14
sg13
g14
(g15
tp546
Rp547
Vhttp://ow.ly/jDCx3096n65
p548
I23
ssg31
Vthe differences between print and web design
p549
sg33
I45
sg34
I20
sg35
I2
sa(dp550
g2
(dp551
g4
I22
sg5
I1
ssg6
I23
sg7
g8
((lp552
I820311485851148288
aI313390724
aI216617997
aI745723928
aI18470163
aI63532696
aI3562670235
aI161153697
aI17736612
aI22871978
aI2263370412
aI175506869
aI615251391
aI21320645
aI151713356
aI17366486
aI276235483
aI57223136
aI772234466
aI4844363240
aI80924141
aI312226421
aI4146540159
atp553
Rp554
sg12
I14
sg13
g14
(g15
tp555
Rp556
Vhttp://ow.ly/a29b3099Eu3
p557
I23
sVhttps://twitter.com/i/web/status/833692951423365120
p558
I1
ssg31
Vpewter mold to make your ice cream treat into a portrait of our first president
p559
sg33
I46
sg34
I20
sg35
I2
sa(dp560
g2
(dp561
g4
I1
sg5
I22
ssg6
I23
sg7
g8
((lp562
I728346574716198912
aI326876937
aI2821432587
aI749990028
aI1886607632
aI1558882452
aI21235892
aI67588801
aI134915140
aI158384069
aI3194902610
aI1136473302
aI117503196
aI93683934
aI2600299488
aI932598756
aI3590359528
aI59345516
aI1063768302
aI2829725940
aI28885112
aI104303097
aI3044896893
atp563
Rp564
sg12
I14
sg13
g14
(g15
tp565
Rp566
Vhttp://ow.ly/CaiW509GcmR
p567
I1
sVhttp://ow.ly/Rqfr509GbEI
p568
I1
sVhttp://ow.ly/IEd8509GcQb
p569
I1
sVhttp://ow.ly/QlIN509GdMA
p570
I1
sVhttp://ow.ly/uF1A509GcAf
p571
I1
sVhttp://ow.ly/ertg509Gcww
p572
I1
sVhttp://ow.ly/7mMG509GdG0
p573
I1
sVhttp://ow.ly/SrYn509Gd4d
p574
I1
sVhttp://ow.ly/ZJpy509GdAl
p575
I1
sVhttp://ow.ly/dmLu509GcC6
p576
I1
sVhttp://ow.ly/b6PU509Gdom
p577
I1
sVhttp://ow.ly/Ngoh509Gerz
p578
I1
sVhttp://ow.ly/Af3v509Gdbq
p579
I1
sVhttp://ow.ly/SSdS509Getc
p580
I1
sVhttp://ow.ly/q9Zy509GcBg
p581
I1
sVhttp://ow.ly/DrkX509GdG6
p582
I1
sVhttp://ow.ly/eQnK509GbjM
p583
I2
sVhttp://ow.ly/22mG509GcsM
p584
I1
sVhttp://ow.ly/v5mx509Gd4X
p585
I1
sVhttp://ow.ly/WDkE509GbGA
p586
I1
sVhttp://ow.ly/RW4Z509Gdrz
p587
I1
sVhttp://ow.ly/ugkQ509Genf
p588
I1
ssg31
Vgoogle says no algorithm changes in new deal to demote pirated content in uk search results
p589
sg33
I47
sg34
I20
sg35
I2
sa(dp590
g2
(dp591
g4
I21
sg5
I1
ssg6
I22
sg7
g8
((lp592
I3063680800
aI3061222305
aI1970184738
aI1969404644
aI229597766
aI1969712454
aI3053327655
aI1969303868
aI1969520011
aI1970122700
aI1969580562
aI1969821710
aI3054340593
aI619289220
aI1969631054
aI1969416644
aI3036975578
aI3053533151
aI1970157564
aI3050778334
aI1969976581
atp593
Rp594
sg12
I14
sg13
g14
(g15
tp595
Rp596
Vhttp://ow.ly/8iAB309aPnj
p597
I22
ssg31
Vbeatsx review apple\u2019s neckbuds for the everyday  \u2026
p598
sg33
I48
sg34
I20
sg35
I2
sa(dp599
g2
(dp600
g4
I22
sg5
I0
ssg6
I22
sg7
g8
((lp601
I19530624
aI2232177665
aI3039577114
aI3332293287
aI49609777
aI384776371
aI546106166
aI835973305
aI2996380839
aI1165631808
aI45194562
aI59205814
aI19443126
aI2540414154
aI102005457
aI354357212
aI54500785
aI3884620905
aI17836267
aI455265269
aI235664382
aI3298457087
atp602
Rp603
sg12
I14
sg13
g14
(g15
tp604
Rp605
Vhttps://twitter.com/i/web/status/833670116332167169
p606
I22
ssg31
Vplease share findmarkpeacock41 missing from hackney london since 162 seen him call 116 000\u2026
p607
sg33
I49
sg34
I20
sg35
I2
sa(dp608
g2
(dp609
g4
I19
sg5
I3
ssg6
I22
sg7
g8
((lp610
I235973382
aI173198101
aI65930651
aI124024993
aI16573218
aI2961580711
aI1063148972
aI2835610800
aI18905529
aI2926069050
aI369888700
aI382413245
aI200722244
aI18938704
aI937276633
aI55327326
aI24594278
aI344179050
aI35861490
aI178078195
aI64426357
aI28050807
atp611
Rp612
sg12
I14
sg13
g14
(g15
tp613
Rp614
Vhttps://twitter.com/i/web/status/833690577426378753
p615
I12
sVhttps://twitter.com/i/web/status/833690577719918592
p616
I1
sVhttps://twitter.com/i/web/status/833689698526720000
p617
I4
sVhttps://twitter.com/i/web/status/833690577606672385
p618
I5
ssg31
Vleadership is not about making a big splash its a sustained commitment over time \u2014 ninasimosko of ntti3\u2026
p619
sg33
I50
sg34
I20
sg35
I2
sa(dp620
g2
(dp621
g4
I22
sg5
I0
ssg6
I22
sg7
g8
((lp622
I805148756949827584
aI821427639655264257
aI884821314
aI3230861771
aI392827684
aI2813710982
aI2478744422
aI490528104
aI1713664106
aI40593707
aI1370590274
aI2561236061
aI267253712
aI825626322
aI1242013267
aI2451985273
aI813029562
aI1494796352
aI2809690589
aI4847885662
aI1212570565
atp623
Rp624
sg12
I14
sg13
g14
(g15
tp625
Rp626
Vhttps://twitter.com/bof/status/786627962787467264
p627
I22
ssg31
Vowning an expensive camera does not make you a photographer
p628
sg33
I51
sg34
I20
sg35
I2
sa(dp629
g2
(dp630
g4
I21
sg5
I1
ssg6
I22
sg7
g8
((lp631
I718503919014400000
aI240930432
aI540406534
aI2317141258
aI3562670235
aI1571239068
aI762975339110866944
aI2863979306
aI17455148
aI16672561
aI2926167540
aI820919477374062592
aI2500036429
aI4814732601
aI2389588698
aI25554396
aI744562274
aI824110809022402560
aI703893401071067136
aI570193012
aI613443195
aI720165500
atp632
Rp633
sg12
I14
sg13
g14
(g15
tp634
Rp635
Vhttp://ow.ly/9jsh309aMp5
p636
I22
ssg31
Vdozens of presidential quotes to inspire you presidentsday  ihsnet
p637
sg33
I52
sg34
I20
sg35
I2
sa(dp638
g2
(dp639
g4
I0
sg5
I21
ssg6
I21
sg7
g8
((lp640
I1877847488
aI2853296417
aI2927166203
aI2739972932
aI1253266310
aI514507777
aI1847105953
aI1860295368
aI516336073
aI53668939
aI2956761399
aI2757428814
aI2849307261
aI1854520208
aI2885141287
aI516460619
aI2961811959
aI2960283130
aI516253659
aI2798965376
aI2794401247
atp641
Rp642
sg12
I14
sg13
g14
(g15
tp643
Rp644
Vhttp://ow.ly/MhU73099DC5
p645
I1
sVhttp://ow.ly/WOTs3099F0x
p646
I1
sVhttp://ow.ly/rUH93099EBS
p647
I1
sVhttp://ow.ly/ilIu3099Fg5
p648
I1
sVhttp://ow.ly/DTJ93099ELx
p649
I1
sVhttp://ow.ly/3OBe3099DYL
p650
I1
sVhttp://ow.ly/KIiQ3099DfU
p651
I1
sVhttp://ow.ly/6myq3099DIz
p652
I1
sVhttp://ow.ly/ZmAG3099Evv
p653
I1
sVhttp://ow.ly/gRTC3099F7s
p654
I1
sVhttp://ow.ly/LVmZ3099ESF
p655
I1
sVhttp://ow.ly/JqlH3099Dm2
p656
I1
sVhttp://ow.ly/meij3099FXv
p657
I1
sVhttp://ow.ly/LPDi3099FCl
p658
I1
sVhttp://ow.ly/Pd0w3099DQj
p659
I1
sVhttp://ow.ly/MDbU3099FN3
p660
I1
sVhttp://ow.ly/ADjH3099Eec
p661
I1
sVhttp://ow.ly/jdEP3099Fpu
p662
I1
sVhttp://ow.ly/Lg0k3099E6A
p663
I1
sVhttp://ow.ly/hfnv3099Dsv
p664
I1
sVhttp://ow.ly/RWl03099Emv
p665
I1
ssg31
Vearn immediate guaranteed income on hyip investments todaybitcoin investment trust btc
p666
sg33
I53
sg34
I20
sg35
I2
sa(dp667
g2
(dp668
g4
I0
sg5
I21
ssg6
I21
sg7
g8
((lp669
I1877847488
aI1847105953
aI2927166203
aI2739972932
aI1253266310
aI514507777
aI2853296417
aI1860295368
aI516336073
aI53668939
aI2956761399
aI2757428814
aI2798965376
aI1854520208
aI2885141287
aI516460619
aI2961811959
aI2960283130
aI516253659
aI2849307261
aI2794401247
atp670
Rp671
sg12
I14
sg13
g14
(g15
tp672
Rp673
Vhttp://ow.ly/FJxD3099EKC
p674
I1
sVhttp://ow.ly/Rbcg3099F6x
p675
I1
sVhttp://ow.ly/NNoh3099EZC
p676
I1
sVhttp://ow.ly/Q7ci3099EuA
p677
I1
sVhttp://ow.ly/QFWc3099FM8
p678
I1
sVhttp://ow.ly/Bvd23099Edh
p679
I1
sVhttp://ow.ly/Mvmh3099ERK
p680
I1
sVhttp://ow.ly/nR1T3099Foz
p681
I1
sVhttp://ow.ly/CyHY3099Ffa
p682
I1
sVhttp://ow.ly/ICU83099E5F
p683
I1
sVhttp://ow.ly/A0Ye3099DeZ
p684
I1
sVhttp://ow.ly/W8Io3099DPo
p685
I1
sVhttp://ow.ly/qPlR3099ElA
p686
I1
sVhttp://ow.ly/Lgtl3099DrA
p687
I1
sVhttp://ow.ly/yKSD3099EAX
p688
I1
sVhttp://ow.ly/6BMF3099DHE
p689
I1
sVhttp://ow.ly/5W1m3099FBq
p690
I1
sVhttp://ow.ly/w3ST3099DBa
p691
I1
sVhttp://ow.ly/98SW3099Dl7
p692
I1
sVhttp://ow.ly/g5AA3099DXQ
p693
I1
sVhttp://ow.ly/NslK3099FWA
p694
I1
ssg31
Vbest online investment companies for beginnersbitcoin investment trust btc
p695
sg33
I54
sg34
I20
sg35
I2
sa(dp696
g2
(dp697
g4
I21
sg5
I0
ssg6
I21
sg7
g8
((lp698
I373566752
aI57552736
aI948346434
aI14690245
aI2797822183
aI1571470824
aI2535367145
aI3021630315
aI150735393
aI878459532
aI20783
aI14195872
aI561228467
aI61831956
aI2384618293
aI206401334
aI406665273
aI68728886
aI178434460
aI198692765
aI199463455
atp699
Rp700
sg12
I14
sg13
g14
(g15
tp701
Rp702
Vhttp://ow.ly/S4wu30929TM
p703
I21
ssg31
Vmarley dias 12 has already impressed us with 1000blackgirlbooks now shes publishing an activism guide for kids ht\u2026
p704
sg33
I55
sg34
I20
sg35
I2
sa(dp705
g2
(dp706
g4
I0
sg5
I21
ssg6
I21
sg7
g8
((lp707
I1877847488
aI2853296417
aI516253659
aI2739972932
aI1253266310
aI514507777
aI1860295368
aI516336073
aI53668939
aI2956761399
aI2757428814
aI2798965376
aI1854520208
aI1847105953
aI516460619
aI2885141287
aI2961811959
aI2960283130
aI2927166203
aI2849307261
aI2794401247
atp708
Rp709
sg12
I14
sg13
g14
(g15
tp710
Rp711
Vhttp://ow.ly/kPMQ3099E6E
p712
I1
sVhttp://ow.ly/sywQ3099DC9
p713
I1
sVhttp://ow.ly/uTFO3099Emz
p714
I1
sVhttp://ow.ly/iACp3099ELB
p715
I1
sVhttp://ow.ly/bHaY3099ESJ
p716
I1
sVhttp://ow.ly/cB8b3099EBW
p717
I1
sVhttp://ow.ly/S81p3099FXz
p718
I1
sVhttp://ow.ly/5r3E3099DID
p719
I1
sVhttp://ow.ly/ubCS3099Fg9
p720
I1
sVhttp://ow.ly/4Klr3099DQn
p721
I1
sVhttp://ow.ly/w8mR3099Dsz
p722
I1
sVhttp://ow.ly/ysx63099F7w
p723
I1
sVhttp://ow.ly/sKgA3099DYP
p724
I1
sVhttp://ow.ly/IvVn3099FN7
p725
I1
sVhttp://ow.ly/T78x3099FCp
p726
I1
sVhttp://ow.ly/nmOB3099Evz
p727
I1
sVhttp://ow.ly/pgKo3099F0B
p728
I1
sVhttp://ow.ly/lvjm3099Dm6
p729
I1
sVhttp://ow.ly/vYNM3099Eeg
p730
I1
sVhttp://ow.ly/5YVu3099Fpy
p731
I1
sVhttp://ow.ly/Qczb3099DfY
p732
I1
ssg31
Vinvest 500 get 2000 in one hourbitcoin investment trust btc
p733
sg33
I56
sg34
I20
sg35
I2
sa(dp734
g2
(dp735
g4
I16
sg5
I5
ssg6
I21
sg7
g8
((lp736
I785999388166328321
aI26735842
aI487686275
aI2446495207
aI2483351807
aI2446487228
aI2484420586
aI46080651
aI425402429
aI15830958
aI2411451517
aI615448696
aI2484515069
aI424693524
aI1873032728
aI2437834132
aI2487343355
aI3326065180
aI60166493
aI94607679
atp737
Rp738
sg12
I14
sg13
g14
(g15
tp739
Rp740
Vhttp://ow.ly/utwV306zxp1
p741
I21
ssg31
V6 ways to significantly boost your sales with digital influencers    influencermarketing
p742
sg33
I57
sg34
I20
sg35
I2
sa(dp743
g2
(dp744
g4
I20
sg5
I1
ssg6
I21
sg7
g8
((lp745
I816040622469562368
aI786601714166042625
aI449200675
aI756226536353607680
aI4134198567
aI731124181153124352
aI296596810
aI188320780
aI2581075469
aI348974190
aI1009585008
aI195784064
aI1647634771
aI3094364500
aI2935219918
aI464792665
aI344786265
aI393950969
aI142441468
aI77536925
aI20681749
atp746
Rp747
sg12
I14
sg13
g14
(g15
tp748
Rp749
Vhttps://twitter.com/i/web/status/833694746979794944
p750
I1
sVhttp://ow.ly/VeFy309a9Pw
p751
I21
ssg31
Vhouseoflords kicks off debate on key purpose amp principles of brexitbill watch live now
p752
sg33
I58
sg34
I20
sg35
I2
sa(dp753
g2
(dp754
g4
I21
sg5
I0
ssg6
I21
sg7
g8
((lp755
I19530624
aI502231403
aI598487349
aI429712742
aI54500785
aI354357212
aI235664382
aI1262391883
aI19717356
aI320390853
aI49609777
aI1655931282
aI384776371
aI455265269
aI20126230
aI3039577114
aI1606261051
aI20681749
aI178670909
aI2454737758
aI3298457087
atp756
Rp757
sg12
I14
sg13
g14
(g15
tp758
Rp759
Vhttps://twitter.com/i/web/status/833624810051735553
p760
I21
ssg31
Vplease help us findcandiscoopey25missing from quinton birmingham since 72 seen her call 116 000\u2026
p761
sg33
I59
sg34
I20
sg35
I2
sa.