(lp0
(dp1
S'status'
p2
(dp3
S'retweet'
p4
I100
sS'original'
p5
I1267
ssS'count'
p6
I1367
sS'user_ids'
p7
c__builtin__
set
p8
((lp9
I777688796443840512
aI753308965895827456
aI769765107962253314
aI108275371
aI791042712682332164
aI819210570662551557
aI802543446359539712
aI776932061152182273
aI123983269
aI337453978
aI802440822868189184
aI2459336719
aI2787298591
aI163700753
aI802560384896880640
aI1573795861
aI802202110943055872
aI205602840
aI106262553
aI848201754
aI373476016
aI731786497444155392
aI802432246732816385
aI544516133
aI1387142906
aI18800679
aI803293225
aI2264764458
aI103077936
aI1317678606
aI1507741746
aI370570931
aI3032086580
aI520554549
aI405200838
aI500219962
aI578657267
aI772591803702861824
aI1250113608
aI2686854156
aI24275022
aI556517389
aI286220368
aI69113937
aI19935316
aI2478260239
aI2363867228
aI788605341969817601
aI213515621
aI817443837245329408
aI922736742
aI4580168721
aI552883559
aI66096146
aI548225384
aI1727783028
aI820510675436900353
aI525660283
aI224602237
aI870733950
aI16140417
aI385773698
aI1639221270
aI766615746461831168
aI496779402
aI311328910
aI908739608
aI398101187
aI2217898132
aI338208917
aI71978009
aI276039364
aI802746111966384128
aI112576879
aI192241822
aI1697345696
aI824188444251459585
aI822480201200398338
aI28563626
aI636274860
aI16697517
aI757042730887356416
aI599820464
aI2562973873
aI124256436
aI3212894391
aI819154766689341441
aI919478460
aI1013272266
aI2324013248
aI715510071795519490
aI1404700363
aI615448950
aI170209478
aI480839879
aI2190676168
aI269648074
aI802416687840538624
aI131008719
aI3900381392
aI222703826
aI2422120142
aI2226821335
aI1249618980
aI575221979
aI741786110842507264
aI2511466717
aI2882800644
aI163307743
aI14969063
aI1960636651
aI145830124
aI2171464744
aI240940350
aI2962942197
aI201056504
aI2356173049
aI3031593213
aI2852148949
aI2911604997
aI793273503910797312
aI562157831
aI2198466828
aI3342158093
aI1945301264
aI2522014424
aI1083328788
aI138025237
aI1867731222
aI802752278872526848
aI2921109787
aI600545565
aI157083934
aI1017888168
aI792029212651712512
aI51892515
aI769255056717783041
aI363761958
aI1648214311
aI3004631772
aI172431658
aI304918827
aI250056754
aI512915759
aI3764861232
aI56273971
aI4833016121
aI632213819
aI176652605
aI272382272
aI3222395202
aI179501451
aI128051529
aI2699091510
aI2163052878
aI802745142968872960
aI13778212
aI196882772
aI25334102
aI407888218
aI479664480
aI802437548517666817
aI477038952
aI554931260
aI2218481449
aI14447335
aI216428911
aI1317048362
aI55746933
aI1082050934
aI57784699
aI150186364
aI104431997
aI1358004607
aI1343402371
aI832221601265364992
aI146149768
aI4871133579
aI802755147780628480
aI802543803315826689
aI22010258
aI2746872211
aI88220053
aI734766302120792066
aI367575448
aI2841899418
aI99539355
aI63781276
aI379599264
aI759754966693130241
aI113424805
aI407470502
aI1970469288
aI452331945
aI77205934
aI802541041433726976
aI112421301
aI1383811512
aI339712443
aI1281780156
aI512522686
aI3270099391
aI1668487621
aI2845731271
aI829061140139347969
aI875049420
aI2303504846
aI1704348114
aI2448749011
aI195985876
aI2779933141
aI2769969625
aI323025370
aI93667804
aI2418815453
aI2740883160
aI2237258149
aI1564391118
aI606609891
aI1449656804
aI720673254
aI399616488
aI1038948841
aI2653762026
aI802437208288305152
aI1005382124
aI28740077
aI632109553
aI758435037708636160
aI250012150
aI1597510141
aI1168085502
aI260286208
aI2876584450
aI547886166
aI802439034697957376
aI88439304
aI1038805514
aI826043278587895808
aI83042830
aI1069451791
aI507089424
aI417305107
aI887611928
aI1616628252
aI356811294
aI136692256
aI949115995
aI802560608289767425
aI775151087967805440
aI802740562201694208
aI449614895
aI197550635
aI342553133
aI1013248561
aI705505844
aI420411960
aI4316569695
aI2491535935
aI527290944
aI202705473
aI2963829315
aI67338820
aI211802694
aI763128391
aI4001583689
aI265140811
aI2895901261
aI1053844051
aI822033707905220609
aI4703550038
aI3064670807
aI154542501
aI111532638
aI2242849381
aI47106662
aI802752377346400256
aI16005736
aI77843900
aI1592438887
aI49670764
aI107016813
aI302249405
aI830345840
aI412320872
aI833302255550025728
aI972532340
aI370520852
aI3188388474
aI121025147
aI632427968
aI287761026
aI222828968
aI473373316
aI2492402928
aI817855891802181632
aI1441757832
aI755318457588076545
aI332987551
aI150123149
aI247939727
aI4122686099
aI1151767189
aI65413782
aI524450457
aI27937434
aI1608066606
aI4890935967
aI2772086089
aI792215732129976321
aI2809531046
aI830101314663227392
aI1263581864
aI58182313
aI2378314410
aI1342722733
aI2357514926
aI541825712
aI3040126861
aI465945269
aI475568826
aI264620831
aI123669683
aI911766210
aI2989621955
aI753249350646497280
aI733681801353383937
aI2364893898
aI341691084
aI622297806
aI199518928
aI1061264082
aI722404211443527680
aI68002520
aI972194522
aI2780767042
aI3254041309
aI820500940784422914
aI2477138659
aI1290935078
aI411690449
aI451558121
aI726311930
aI179645167
aI76982525
aI319560489
aI2418864888
aI1161980372
aI902187770
aI1430666863
aI2465170172
aI759032682135232513
aI827696358685626372
aI435469055
aI308154124
aI755070908973277184
aI4489991
aI819650828529258497
aI741112586
aI1307550475
aI982692620
aI1292002063
aI2175925009
aI64004884
aI282983897
aI181236504
aI2689422110
aI2697044767
aI1856407344
aI2826482467
aI749220997996437505
aI2399913139
aI545444766
aI1015016233
aI31605547
aI2675866412
aI2828539698
aI2642608942
aI129895215
aI3947382579
aI527043382
aI821601080
aI4505711417
aI131908410
aI2210933215
aI1860436796
aI1462888586
aI40262463
aI1287576032
aI3115864898
aI2446895941
aI769886032615571456
aI577723213
aI808127311
aI763838378412351490
aI101941390
aI4688509753
aI2439848792
aI19804644
aI3045395290
aI1117932379
aI2468434746
aI78050789
aI634639200
aI4869775846
aI1267361725
aI2246845290
aI1283281772
aI14326930
aI1232073582
aI1458629096
aI2472911731
aI1724289908
aI366148474
aI71480810
aI110916478
aI170611583
aI560661376
aI3872754561
aI2230743938
aI409080708
aI802544379655122944
aI769886546577108992
aI2533261148
aI17887880
aI802426760973295616
aI3342967694
aI441451409
aI15969172
aI101645210
aI2279339503
aI1342249885
aI324582302
aI440497989
aI1266518946
aI802756755713191937
aI254770089
aI1260542893
aI290016175
aI340661168
aI14263217
aI2974286771
aI437733661
aI52714421
aI287466422
aI114777015
aI77761464
aI2978278331
aI349535165
aI804297718394920960
aI737251254087344128
aI3180552812
aI113286082
aI802745529469800448
aI802748810233462785
aI275432391
aI2391275077
aI1623276498
aI363830227
aI169405396
aI3940146134
aI3929887703
aI833312526599196672
aI239012827
aI2728940077
aI2842622942
aI2905482208
aI433726434
aI81137147
aI2422619108
aI1266942949
aI382313446
aI128637927
aI483681082
aI476054247
aI1435043666
aI62786045
aI2546377712
aI697827029295755265
aI325817331
aI172952564
aI514503669
aI3281822714
aI1918628010
aI575515646
aI232169301
aI2269883395
aI164011012
aI760144909437468672
aI124627977
aI3314226188
aI872791554
aI3252116312
aI1585562642
aI821598966408155136
aI954879536
aI1512270872
aI2389189657
aI390657053
aI2359743518
aI2373157923
aI1321006116
aI2813654054
aI354103473
aI802743238788403200
aI2437605212
aI3100650539
aI711093295
aI569332232
aI1167402163
aI1689125940
aI112997429
aI729473429087215616
aI2171567162
aI3315553340
aI1549210464
aI170415171
aI34540615
aI63659081
aI832160501907984385
aI435479628
aI960752718
aI63954104
aI396037202
aI4912985173
aI1214055510
aI478145625
aI482395227
aI35702154
aI54432613
aI31274082
aI47434939
aI138284133
aI626353256
aI15942762
aI755820447392866304
aI37686383
aI1578898544
aI407005471
aI236463220
aI810203044474449920
aI790807081716637696
aI3006981243
aI96662653
aI364113024
aI123651201
aI469521540
aI802545573807034368
aI2747856008
aI802541872212123648
aI747226256
aI541250705
aI21986450
aI23858323
aI4344710292
aI984650606
aI1960975512
aI54680729
aI494843034
aI146243098
aI110714014
aI226303135
aI567585953
aI335412081
aI61287592
aI3068900892
aI766876653637087232
aI3032517804
aI2274131118
aI3331331247
aI4419906737
aI3003870387
aI793437845780324352
aI1032099000
aI430095546
aI132187323
aI69217469
aI85609667
aI1397681348
aI170204875
aI366740683
aI398978253
aI2813013200
aI46767313
aI3192882386
aI112465110
aI525186263
aI418768398
aI2397437149
aI347915685
aI3290147391
aI1013666000
aI177478883
aI89756900
aI279008485
aI4265630952
aI766557970708639744
aI1610872046
aI2702038256
aI108885233
aI1546724594
aI500243326
aI764873082045685760
aI364715266
aI197703131
aI733478184348327936
aI729024039537152001
aI243004681
aI182273292
aI113419138
aI399488270
aI820510979159011329
aI207783185
aI19129331
aI138260014
aI467576087
aI2266295576
aI20469017
aI286930202
aI2650664221
aI802440094908940288
aI2410365290
aI705957520376901632
aI3294063907
aI802742733026664449
aI76334375
aI317913568
aI830071869973868544
aI2610576684
aI26479918
aI28816691
aI387175737
aI238464315
aI17065276
aI599768382
aI2230113600
aI1004664032
aI122598723
aI154436932
aI628651333
aI4706624839
aI90092873
aI75795787
aI20079948
aI2995625293
aI1143072078
aI102942031
aI700864136486387712
aI531086673
aI861009234
aI365294932
aI2385696092
aI713540958
aI3279414623
aI109784416
aI247338338
aI323155299
aI19309925
aI2722159505
aI2382605672
aI149020013
aI989224302
aI471917943
aI772900514333876224
aI177227118
aI2869089664
aI34998938
aI283731331
aI1398650245
aI802429204155379712
aI83242375
aI809221514
aI4465653132
aI2371419535
aI504982929
aI1659044419
aI735141627715428352
aI588752282
aI234872220
aI133432218
aI827441748817346560
aI802754075309682688
aI802557970135429121
aI262182309
aI2289692071
aI1677307304
aI248872362
aI3148742064
aI446587806
aI2974966345
aI1011129247
aI2587293116
aI311418301
aI384179646
aI2462858688
aI802556852630237186
aI802746680940429312
aI1477977673
aI831906320399867905
aI1662702498
aI1453084110
aI139000056
aI3389380515
aI1655197141
aI266757592
aI364122020
aI1624071642
aI3980107343
aI33799645
aI7742942
aI820845193633136640
aI1628949986
aI570631653
aI2986620391
aI165690858
aI324183532
aI2577442285
aI2657281519
aI2616485360
aI1445090808
aI802427732097273856
aI42495483
aI290942461
aI439070206
aI1291236014
aI478934528
aI1465325058
aI382338563
aI702551571113099264
aI517456571
aI802430744979087360
aI22846990
aI343836176
aI422899218
aI794058844418830336
aI2799848708
aI1329702426
aI983553564
aI1382153610
aI2833239583
aI718799923
aI72222243
aI2230562342
aI83467820
aI274378286
aI2177109552
aI282828339
aI362464821
aI1342916150
aI1129530734
aI2885865397
aI85177921
aI49505858
aI246320709
aI802558793766707200
aI432524873
aI1708357195
aI1420316239
aI33232468
aI212059734
aI74141276
aI347123295
aI4706967138
aI264134246
aI620578408
aI474185660
aI62903915
aI492007022
aI2711015023
aI52680304
aI743056943443382272
aI3262561914
aI1083420271
aI1124232828
aI533412153
aI774616344
aI829826688
aI23596992
aI2215175810
aI3195660044
aI14976646
aI2556671624
aI2436948588
aI79279383
aI169045644
aI802436550369779712
aI580868717
aI38415640
aI1446616722
aI587197774
aI965410454
aI373472919
aI304739992
aI192777881
aI3996190092
aI23438959
aI52143386
aI405126815
aI108037794
aI364115619
aI2270306246
aI1276489382
aI20702887
aI294055470
aI2543460295
aI2343238100
aI15338036
aI2825580829
aI65306291
aI1187862198
aI1147518649
aI1895937722
aI802767438584508416
aI799010492
aI304023229
aI788953654246141952
aI4839929535
aI788465935845842944
aI254148289
aI583700163
aI802418115346694144
aI16938694
aI704379723858747392
aI90767554
aI1303099082
aI2358636235
aI362133198
aI3618758355
aI756407879473721344
aI2419642069
aI596631254
aI91023063
aI11685592
aI897787609
aI128499421
aI120839180
aI1001627359
aI211359461
aI374572774
aI3404290697
aI2231250666
aI820500849239568384
aI108012499
aI752871162644983808
aI16109306
aI2576531196
aI1862703402
aI828372654285479936
aI85391104
aI588171009
aI1143742212
aI871480278
aI3009761035
aI2449469196
aI3240541965
aI2341332751
aI1245251348
aI990994201
aI495700998
aI1659078427
aI410355484
aI17710880
aI1491984162
aI224124708
aI2170732326
aI470736679
aI549580764
aI980533034
aI822317381712158720
aI802751488468467712
aI733431600
aI1585667720
aI33410866
aI15246643
aI1462513460
aI47445815
aI2528212794
aI276160315
aI2275024700
aI267507518
aI3391385410
aI1454300996
aI2337683269
aI378979474
aI290340568
aI737259342
aI50380624
aI802744961187737601
aI797146962
aI2216152915
aI3010781012
aI2184503125
aI18437433
aI3024778212
aI2831060826
aI2988060508
aI797764449377591297
aI302747621
aI15470433
aI1715818339
aI493280230
aI356269930
aI3028141934
aI802549896930738176
aI2435495792
aI15550321
aI179967859
aI3191582581
aI2283054967
aI794200405768966144
aI89362048
aI806812118905483264
aI401045372
aI241703573
aI1321465728
aI570400641
aI784960148355870720
aI261793772
aI752103307
aI1210664844
aI31545666
aI391436181
aI57707479
aI3064875673
aI1154147311
aI56561564
aI41040538
aI594074288
aI466683808
aI49903522
aI706899723513237504
aI822447024041816065
aI1570555814
aI52643756
aI2453534639
aI129120177
aI134314995
aI551763893
aI128262473
aI718895255475654657
aI23123897
aI365014869
aI2448965564
aI597467069
aI2647443392
aI1674555330
aI2232923495
aI153161670
aI136771527
aI4840183752
aI2343133129
aI2958354385
aI1948217678
aI2419099542
aI573911002
aI2519201755
aI394573788
aI2692013050
aI157065552
aI2214856674
aI802431140418097152
aI2216755878
aI187174887
aI212105192
aI1244981228
aI19011566
aI4761929712
aI2890526712
aI556653908
aI1690742778
aI729452539
aI412022781
atp10
Rp11
sS'hour'
p12
I1
sS'url'
p13
ccollections
defaultdict
p14
(c__builtin__
int
p15
tp16
Rp17
Vhttp://fb.me/7mvIpntW1
p18
I1
sVhttp://fb.me/JzBPlmBW
p19
I1
sVhttp://fb.me/2NfPFeESU
p20
I1
sVhttp://fb.me/1XQUYKL3n
p21
I1
sVhttp://fb.me/8vle85WhB
p22
I1
sVhttp://fb.me/3TNIUbiws
p23
I1
sVhttp://fb.me/4rOdrQr29
p24
I1
sVhttp://fb.me/2PGR5ekgC
p25
I1
sVhttp://fb.me/6swiHFoYb
p26
I1
sVhttp://fb.me/3LIBkNpVK
p27
I1
sVhttp://fb.me/1vW0ZupZd
p28
I1
sVhttp://fb.me/3dPPBMU1r
p29
I1
sVhttp://fb.me/3fCYmjwkY
p30
I1
sVhttp://fb.me/1I5noL8C5
p31
I1
sVhttp://fb.me/8dQpxEFU4
p32
I1
sVhttp://fb.me/8xYpal0Ok
p33
I1
sVhttp://fb.me/5PK9TwECR
p34
I1
sVhttp://fb.me/1SvaKrS4s
p35
I1
sVhttp://fb.me/Iq0637Xg
p36
I1
sVhttp://fb.me/8r3CkwlvG
p37
I1
sVhttp://fb.me/81SdfyHED
p38
I1
sVhttp://fb.me/8x4jpVEKq
p39
I1
sVhttp://fb.me/3YYjICGv2
p40
I1
sVhttp://fb.me/8hxmTYwIB
p41
I1
sVhttp://fb.me/5RMliW60E
p42
I1
sVhttp://fb.me/4KspdePt1
p43
I1
sVhttp://fb.me/87wnnhB1x
p44
I1
sVhttp://fb.me/TNJTWtai
p45
I1
sVhttp://fb.me/6etMu62Xr
p46
I1
sVhttp://fb.me/4Zu5PrgoZ
p47
I1
sVhttp://fb.me/Nv0IdxiC
p48
I1
sVhttp://fb.me/1RESaMr2e
p49
I1
sVhttp://fb.me/7AP8JsWA2
p50
I1
sVhttp://fb.me/8mzUjozQh
p51
I1
sVhttp://fb.me/taYvMIPZ
p52
I1
sVhttp://fb.me/82vheQcJ1
p53
I1
sVhttp://fb.me/2PQCWTpa9
p54
I1
sVhttp://fb.me/88KlApKFa
p55
I1
sVhttp://fb.me/1QtXIDyQm
p56
I1
sVhttp://fb.me/3xTQ2aEWK
p57
I1
sVhttp://fb.me/7hTtE6OQe
p58
I1
sVhttp://fb.me/1atyOC50T
p59
I1
sVhttp://fb.me/5IxXI6nfe
p60
I1
sVhttp://fb.me/Y2dHuXbW
p61
I1
sVhttp://fb.me/1I6cZzfdC
p62
I1
sVhttp://fb.me/3rt7tnpcY
p63
I1
sVhttp://fb.me/10js0shjS
p64
I1
sVhttp://fb.me/1bwrPku58
p65
I1
sVhttp://fb.me/1LJpAVQKj
p66
I1
sVhttp://fb.me/3h5MvFQXe
p67
I1
sVhttp://fb.me/1Pm84dEU0
p68
I1
sVhttp://fb.me/1T6a7uPiJ
p69
I1
sVhttp://fb.me/18NxgDhmB
p70
I1
sVhttp://fb.me/1Rl8t3tvL
p71
I1
sVhttp://fb.me/5h4bY1EGf
p72
I1
sVhttp://fb.me/8OzqCsSVj
p73
I1
sVhttp://fb.me/8x5GToiqV
p74
I1
sVhttp://fb.me/1h6cwvqzV
p75
I1
sVhttp://fb.me/34bH6STmH
p76
I1
sVhttp://fb.me/O0xqbdxJ
p77
I1
sVhttp://fb.me/1kyDmLFHy
p78
I1
sVhttp://fb.me/2SZoXWh2I
p79
I1
sVhttp://fb.me/1Jy0sL5EN
p80
I1
sVhttp://fb.me/8sFGaeEgj
p81
I1
sVhttp://fb.me/5T03HFgV2
p82
I1
sVhttp://fb.me/6k6MMjqLq
p83
I1
sVhttp://fb.me/5RCyuaJIX
p84
I1
sVhttp://fb.me/6jdBvdsAo
p85
I1
sVhttp://fb.me/1hfbmaF7H
p86
I1
sVhttp://fb.me/5cjKGq3EC
p87
I1
sVhttp://fb.me/6JukWmX5I
p88
I1
sVhttp://fb.me/1gXbpCM5B
p89
I1
sVhttp://fb.me/4kQCpEn42
p90
I1
sVhttp://fb.me/1I5o6irr2
p91
I1
sVhttp://fb.me/1GXJGgd9G
p92
I1
sVhttp://fb.me/3LOb562In
p93
I1
sVhttp://fb.me/1TeUqoDeY
p94
I1
sVhttp://fb.me/8nxd4sbzZ
p95
I1
sVhttp://fb.me/1NcrW4Jg9
p96
I1
sVhttp://fb.me/4fQjGcU14
p97
I1
sVhttp://fb.me/1PsypmxxQ
p98
I1
sVhttp://fb.me/2Mg7WsN0V
p99
I1
sVhttp://fb.me/4HgR0kTtP
p100
I1
sVhttp://fb.me/5HlQFFIus
p101
I1
sVhttp://fb.me/11EFbwEro
p102
I1
sVhttp://fb.me/2Je43dVYh
p103
I1
sVhttp://fb.me/3kyO8nQhL
p104
I1
sVhttp://fb.me/D8xpekXM
p105
I1
sVhttp://fb.me/xeExWoac
p106
I1
sVhttp://fb.me/2U4f3tFzy
p107
I1
sVhttp://fb.me/4FyDhNYDP
p108
I1
sVhttp://fb.me/2Dh7w8JvU
p109
I1
sVhttp://fb.me/613nHGpON
p110
I1
sVhttp://fb.me/69J4FEJE6
p111
I2
sVhttp://fb.me/1dNWmoWMU
p112
I1
sVhttp://fb.me/18adCqQfE
p113
I1
sVhttp://fb.me/4BzQ2slM3
p114
I1
sVhttp://fb.me/80U6GU9JZ
p115
I1
sVhttp://fb.me/1FPWAcLNU
p116
I1
sVhttp://fb.me/80PKmMa4m
p117
I1
sVhttp://fb.me/18Pulep1Q
p118
I1
sVhttp://fb.me/7I06J7wx3
p119
I1
sVhttp://fb.me/1RMi3262h
p120
I1
sVhttp://fb.me/RCODPtbp
p121
I1
sVhttp://fb.me/1aNriegcg
p122
I1
sVhttp://fb.me/ZBAL1Zes
p123
I1
sVhttp://fb.me/BI12J8So
p124
I1
sVhttp://fb.me/39OiSq9N3
p125
I1
sVhttp://fb.me/1OU1nP93c
p126
I1
sVhttp://fb.me/1fIuMy0oP
p127
I1
sVhttp://fb.me/2XAPLsR3t
p128
I1
sVhttp://fb.me/8aPOoiJJ6
p129
I1
sVhttp://fb.me/CY6e2CGM
p130
I1
sVhttp://fb.me/776qVUQBk
p131
I1
sVhttp://fb.me/8qdC0apv1
p132
I1
sVhttp://fb.me/7vV3BajGc
p133
I1
sVhttp://fb.me/1FVrEoTdh
p134
I1
sVhttp://fb.me/ZMGEiIMB
p135
I1
sVhttp://fb.me/1TD5zSpDE
p136
I1
sVhttp://fb.me/7tNwYrFCK
p137
I1
sVhttp://fb.me/41wXfK0D9
p138
I1
sVhttp://fb.me/1cIBgE3xA
p139
I1
sVhttp://fb.me/8tTYDE4jC
p140
I1
sVhttp://fb.me/39aRe9HA0
p141
I1
sVhttp://fb.me/3mWJAUWhA
p142
I1
sVhttp://fb.me/4tU1GqUFq
p143
I1
sVhttp://fb.me/1PiHftuPD
p144
I1
sVhttp://fb.me/11YBKfiRE
p145
I1
sVhttp://fb.me/1c0dVyukl
p146
I1
sVhttp://fb.me/1PY9qDYRb
p147
I1
sVhttp://fb.me/FpijebR0
p148
I1
sVhttp://fb.me/582HVsWZu
p149
I1
sVhttp://fb.me/1J74aQu68
p150
I1
sVhttp://fb.me/7YMIpU7Tr
p151
I1
sVhttp://fb.me/8sEUkGy5d
p152
I1
sVhttp://fb.me/1Ns2GtuVV
p153
I1
sVhttp://fb.me/1MsYVZqrF
p154
I1
sVhttp://fb.me/5z85IUbsO
p155
I1
sVhttp://fb.me/6eRBgFX4f
p156
I1
sVhttp://fb.me/1XqasBVRR
p157
I1
sVhttp://fb.me/3jp5CB1YM
p158
I1
sVhttp://fb.me/1UNh3MhX1
p159
I1
sVhttp://fb.me/1tQAfXCqW
p160
I1
sVhttp://fb.me/84qNJbyRQ
p161
I1
sVhttp://fb.me/6cmN4iWmE
p162
I1
sVhttp://fb.me/1G2iQn0vR
p163
I1
sVhttp://fb.me/1JA1kRKkg
p164
I1
sVhttp://fb.me/1zvP7Q3RQ
p165
I1
sVhttp://fb.me/WlLyW6yV
p166
I1
sVhttp://fb.me/3hguIBw4H
p167
I1
sVhttp://fb.me/1V2Q9jgqw
p168
I1
sVhttp://fb.me/5wAe3OLo1
p169
I1
sVhttp://fb.me/10s0FVUak
p170
I1
sVhttp://fb.me/5ao256gm2
p171
I1
sVhttp://fb.me/1UPvM0ZNG
p172
I1
sVhttp://fb.me/3uuUw9A8x
p173
I1
sVhttp://fb.me/8GNE6GEQd
p174
I1
sVhttp://fb.me/a96gKmU7v
p175
I1
sVhttp://fb.me/1O5huSemc
p176
I1
sVhttp://fb.me/8jtc7RbEW
p177
I1
sVhttp://fb.me/6RyQVG248
p178
I1
sVhttp://fb.me/7D5rC07QR
p179
I1
sVhttp://fb.me/69hxarY76
p180
I1
sVhttp://fb.me/5wOMPY3Kz
p181
I1
sVhttp://fb.me/55hPHb1NS
p182
I1
sVhttp://fb.me/2QGHEaXO8
p183
I1
sVhttp://fb.me/15Ri76RKW
p184
I1
sVhttp://fb.me/7YBv6TgKu
p185
I1
sVhttp://fb.me/1QCRnilfY
p186
I1
sVhttp://fb.me/NQqBAYiv
p187
I1
sVhttp://fb.me/UCP1Dwif
p188
I1
sVhttp://fb.me/1NG6uqXKJ
p189
I1
sVhttp://fb.me/15HXuDu82
p190
I1
sVhttp://fb.me/1dJh700v0
p191
I1
sVhttp://fb.me/1eN3v8f2B
p192
I1
sVhttp://fb.me/8wJnY1xle
p193
I1
sVhttp://fb.me/6n6rdCbNa
p194
I1
sVhttp://fb.me/12Pj6BERh
p195
I1
sVhttp://fb.me/1YedKoTKK
p196
I1
sVhttp://fb.me/sUqEwbMc
p197
I1
sVhttp://fb.me/8w04740Z3
p198
I1
sVhttp://fb.me/1kG1d8Zal
p199
I1
sVhttp://fb.me/QtNlyi6t
p200
I1
sVhttp://fb.me/1Q724OxJC
p201
I1
sVhttp://fb.me/1q0gSjHzR
p202
I1
sVhttp://fb.me/6esPWq5n8
p203
I1
sVhttp://fb.me/8tNfkiH8O
p204
I1
sVhttp://fb.me/4v6JEkGHo
p205
I1
sVhttp://fb.me/43wEak69l
p206
I1
sVhttp://fb.me/1Y3vcIrQD
p207
I1
sVhttp://fb.me/7tV2mFne1
p208
I1
sVhttp://fb.me/7lfrnkwJ1
p209
I1
sVhttp://fb.me/3NZk47sE0
p210
I1
sVhttp://fb.me/5xF42mJqR
p211
I1
sVhttp://fb.me/3QtFkDt85
p212
I1
sVhttp://fb.me/1VlQ4IgBy
p213
I1
sVhttp://fb.me/1RBKfvgXN
p214
I1
sVhttp://fb.me/1JJug7ZH6
p215
I1
sVhttp://fb.me/5FXQ438su
p216
I1
sVhttp://fb.me/1TuhRPl3X
p217
I1
sVhttp://fb.me/1fGC12QL9
p218
I1
sVhttp://fb.me/8thWNdKV3
p219
I1
sVhttp://fb.me/2G5jbGIwm
p220
I1
sVhttp://fb.me/695xRXuHu
p221
I1
sVhttp://fb.me/8Ejr83FYe
p222
I2
sVhttp://fb.me/4Qn5Bqx8R
p223
I1
sVhttp://fb.me/8woKoEvYU
p224
I1
sVhttp://fb.me/8fK4n4p8r
p225
I1
sVhttp://fb.me/3oTqUAueE
p226
I1
sVhttp://fb.me/6yL3Sb43x
p227
I1
sVhttp://fb.me/1aXiJ2jBW
p228
I1
sVhttp://fb.me/1pg5p7npX
p229
I1
sVhttp://fb.me/4Cph6EWjH
p230
I1
sVhttp://fb.me/8ucp6WB00
p231
I1
sVhttp://fb.me/5zBy56bLU
p232
I1
sVhttp://fb.me/3mSUH1l10
p233
I1
sVhttp://fb.me/8dpv715nc
p234
I1
sVhttp://fb.me/3qPUpW0Ic
p235
I1
sVhttp://fb.me/OshMPBRf
p236
I1
sVhttp://fb.me/6oThd0Xf0
p237
I1
sVhttp://fb.me/8drhl8zE9
p238
I1
sVhttp://fb.me/63zSXaXeu
p239
I1
sVhttp://fb.me/4BIigS8rp
p240
I1
sVhttp://fb.me/4MwIchEW3
p241
I1
sVhttp://fb.me/6CgZj8ke9
p242
I1
sVhttp://fb.me/1fL62XUKt
p243
I1
sVhttp://fb.me/5RsbOfTWO
p244
I1
sVhttp://fb.me/1KgOMNm2g
p245
I1
sVhttp://fb.me/66TMLfkOL
p246
I1
sVhttp://fb.me/65yi9aD9Q
p247
I1
sVhttp://fb.me/300iW2bhk
p248
I1
sVhttp://fb.me/80M6DqwAQ
p249
I1
sVhttp://fb.me/8XwtjADUK
p250
I1
sVhttp://fb.me/1jv00LsIb
p251
I1
sVhttp://fb.me/8sYmSZIwd
p252
I1
sVhttp://fb.me/19LOzFpO3
p253
I1
sVhttp://fb.me/19k8CSEwO
p254
I1
sVhttp://fb.me/3oUQBSU78
p255
I1
sVhttp://fb.me/94fgzZFVC
p256
I1
sVhttp://fb.me/3AdsfE5gM
p257
I1
sVhttp://fb.me/8zHYhiDdr
p258
I1
sVhttp://fb.me/7bDhnG0MK
p259
I1
sVhttp://fb.me/2WZyFOsZ5
p260
I1
sVhttp://fb.me/5O8Aqkhgv
p261
I1
sVhttp://fb.me/8r5uoWh9T
p262
I1
sVhttp://fb.me/8vszYaAIN
p263
I1
sVhttp://fb.me/576DhraGC
p264
I1
sVhttp://fb.me/6uHPwvcS2
p265
I1
sVhttp://fb.me/NLl1b1IH
p266
I1
sVhttp://fb.me/6bWLL3TBT
p267
I1
sVhttp://fb.me/8IidFc1Kn
p268
I1
sVhttp://fb.me/8znK0qNyz
p269
I1
sVhttp://fb.me/6EBdv1WwH
p270
I1
sVhttp://fb.me/68zgvLacS
p271
I1
sVhttp://fb.me/8E3et3qC6
p272
I1
sVhttp://fb.me/4zUxQQVAe
p273
I1
sVhttp://fb.me/37tQ5ekNV
p274
I1
sVhttp://fb.me/3eLHzqhgf
p275
I1
sVhttp://fb.me/5ywRSfEhr
p276
I1
sVhttp://fb.me/8sYsyGC1q
p277
I1
sVhttp://fb.me/ZkoWBC0C
p278
I1
sVhttp://fb.me/84c8YaVEp
p279
I1
sVhttp://fb.me/1QueQ1fet
p280
I1
sVhttp://fb.me/GmHNQAqH
p281
I1
sVhttp://fb.me/1994mdMAN
p282
I1
sVhttp://fb.me/65TaFHnWG
p283
I1
sVhttp://fb.me/4SJ713ig8
p284
I1
sVhttp://fb.me/6oq7Txuth
p285
I1
sVhttp://fb.me/27I6zSegi
p286
I1
sVhttp://fb.me/7Av7mXbdy
p287
I1
sVhttp://fb.me/5CaaWW2MB
p288
I1
sVhttp://fb.me/8tmfwtjX2
p289
I1
sVhttp://fb.me/ZtlJWyyn
p290
I1
sVhttp://fb.me/1TxCsmWMY
p291
I1
sVhttp://fb.me/12bWW4fYY
p292
I1
sVhttp://fb.me/21DH72WGY
p293
I1
sVhttp://fb.me/1TTeyAu0c
p294
I1
sVhttp://fb.me/1O1P1Wmmk
p295
I1
sVhttp://fb.me/6F8SzO2eq
p296
I1
sVhttp://fb.me/3mGsldYzE
p297
I1
sVhttp://fb.me/8nxrTIy0b
p298
I1
sVhttp://fb.me/1JOUctqO7
p299
I1
sVhttp://fb.me/5Wi0NHs9b
p300
I1
sVhttp://fb.me/1G1qauqFV
p301
I1
sVhttp://fb.me/1aZ11iMfy
p302
I1
sVhttp://fb.me/8tPTJazPV
p303
I1
sVhttp://fb.me/8Bz1uEhHq
p304
I1
sVhttp://fb.me/1aO97DxWS
p305
I1
sVhttp://fb.me/5V6WcoIWL
p306
I1
sVhttp://fb.me/7cHsKUrjB
p307
I1
sVhttp://fb.me/IErEDmnG
p308
I1
sVhttp://fb.me/8N48wN6EX
p309
I1
sVhttp://fb.me/2DT9Z97H6
p310
I1
sVhttp://fb.me/7vBDsbLOs
p311
I1
sVhttp://fb.me/5Hic4pCuL
p312
I1
sVhttp://fb.me/3soMCX4VC
p313
I1
sVhttp://fb.me/1asyeZqbl
p314
I1
sVhttp://fb.me/8576QR5il
p315
I1
sVhttp://fb.me/14nLQimR7
p316
I1
sVhttp://fb.me/5DKTGWseW
p317
I1
sVhttp://fb.me/1GLM2DEsX
p318
I1
sVhttp://fb.me/3lUVtB8C7
p319
I1
sVhttp://fb.me/6xtWSxjNk
p320
I1
sVhttp://fb.me/102tARym7
p321
I1
sVhttp://fb.me/4oRBQe3wu
p322
I1
sVhttp://fb.me/1i5aeKbu2
p323
I1
sVhttp://fb.me/5LNHc1KVw
p324
I1
sVhttp://fb.me/1Jrd1OZ6m
p325
I1
sVhttp://fb.me/6m59OZaDm
p326
I1
sVhttp://fb.me/6zBN40jF2
p327
I1
sVhttp://fb.me/1J4OHsF5c
p328
I1
sVhttp://fb.me/HEw6DsUw
p329
I1
sVhttp://fb.me/1MUSrxp5X
p330
I1
sVhttp://fb.me/7cfZiksqT
p331
I1
sVhttp://fb.me/8ooQ4jOfg
p332
I1
sVhttp://fb.me/4A5IQQA1A
p333
I1
sVhttp://fb.me/1HcgJ20Vn
p334
I1
sVhttp://fb.me/RJyXrjZg
p335
I1
sVhttp://fb.me/8vB6327sy
p336
I1
sVhttp://fb.me/1JRTvyYGY
p337
I1
sVhttp://fb.me/5sjPBeq86
p338
I1
sVhttp://fb.me/1fnvBEcqy
p339
I1
sVhttp://fb.me/8rTtFsdTW
p340
I1
sVhttp://fb.me/8f8OOBmTr
p341
I1
sVhttp://fb.me/8IFjt4UbW
p342
I1
sVhttp://fb.me/5KqdUjQVo
p343
I1
sVhttp://fb.me/8CZtIr3wj
p344
I1
sVhttp://fb.me/8Q8sthGZF
p345
I1
sVhttp://fb.me/4GaLxgmr7
p346
I1
sVhttp://fb.me/XN8ZnS2m
p347
I1
sVhttp://fb.me/1VlIpR2d9
p348
I1
sVhttp://fb.me/4iilZsck7
p349
I1
sVhttp://fb.me/1b3EdHpVR
p350
I1
sVhttp://fb.me/7gLWnzTDC
p351
I1
sVhttp://fb.me/13L5DFfVj
p352
I1
sVhttp://fb.me/MzGqPyC8
p353
I1
sVhttp://fb.me/8CNHMY23B
p354
I1
sVhttp://fb.me/1GwAHXpYr
p355
I1
sVhttp://fb.me/31cf9lo0O
p356
I1
sVhttp://fb.me/4sm75pSdv
p357
I1
sVhttp://fb.me/6ehA1EXiQ
p358
I1
sVhttp://fb.me/14LVKQzg5
p359
I1
sVhttp://fb.me/ZyvtwU7U
p360
I1
sVhttp://fb.me/5LozjAHii
p361
I1
sVhttp://fb.me/18O4Mhwm5
p362
I1
sVhttp://fb.me/7Tg4KhPRp
p363
I1
sVhttp://fb.me/20jviyeAE
p364
I1
sVhttp://fb.me/7CV0TdsVO
p365
I1
sVhttp://fb.me/1crznolOj
p366
I1
sVhttp://fb.me/7HD4xf5G0
p367
I1
sVhttp://fb.me/5RpHF5gsP
p368
I1
sVhttp://fb.me/1x8HJ8QyZ
p369
I1
sVhttp://fb.me/1iySETRZk
p370
I1
sVhttp://fb.me/7BE1RR4xL
p371
I1
sVhttp://fb.me/1LKRhCIXR
p372
I1
sVhttp://fb.me/32YJp6iUj
p373
I1
sVhttp://fb.me/1yBk2dEf5
p374
I1
sVhttp://fb.me/2PbIp2o7f
p375
I1
sVhttp://fb.me/2W5UolAEh
p376
I1
sVhttp://fb.me/1b92tPb1L
p377
I1
sVhttp://fb.me/CWrdfLVI
p378
I1
sVhttp://fb.me/133XCXcsP
p379
I1
sVhttp://fb.me/6sBhaa7k6
p380
I1
sVhttp://fb.me/4tdzFcDT1
p381
I1
sVhttp://fb.me/5Pq3hvKTE
p382
I1
sVhttp://fb.me/15ekoJzo3
p383
I1
sVhttp://fb.me/6vwOrzyee
p384
I1
sVhttp://fb.me/5AktpnRf5
p385
I1
sVhttp://fb.me/8e4gNzktB
p386
I1
sVhttp://fb.me/1QrmpvPD3
p387
I1
sVhttp://fb.me/1MJEEwqQU
p388
I1
sVhttp://fb.me/8MoVZc4j8
p389
I1
sVhttp://fb.me/7Gf6sb00f
p390
I1
sVhttp://fb.me/7TYtsqi7o
p391
I1
sVhttp://fb.me/10aQ4QXOK
p392
I1
sVhttp://fb.me/3982qMBCE
p393
I1
sVhttp://fb.me/7NZFQ3CFu
p394
I1
sVhttp://fb.me/5zjbzV2xI
p395
I1
sVhttp://fb.me/B3SkSoRm
p396
I1
sVhttp://fb.me/4MPg6e0Mb
p397
I1
sVhttp://fb.me/1hE5pnLwu
p398
I1
sVhttp://fb.me/8iohzYAOc
p399
I1
sVhttp://fb.me/40qrn8JG0
p400
I1
sVhttp://fb.me/5JW79rEi5
p401
I1
sVhttp://fb.me/8f4y2vImc
p402
I1
sVhttp://fb.me/3kQVUonHy
p403
I1
sVhttp://fb.me/84D9m64Ae
p404
I1
sVhttp://fb.me/5TD02ZufP
p405
I1
sVhttp://fb.me/1gInaJIW5
p406
I1
sVhttp://fb.me/3TEN4CKMI
p407
I1
sVhttp://fb.me/59t1iCXPS
p408
I1
sVhttp://fb.me/5wRHKy46R
p409
I1
sVhttp://fb.me/6wojPhWKM
p410
I1
sVhttp://fb.me/5icYvkcH2
p411
I1
sVhttp://fb.me/60nltbiFw
p412
I1
sVhttp://fb.me/8zzHnAxoL
p413
I1
sVhttp://fb.me/1d7DOBdzG
p414
I1
sVhttp://fb.me/8obgSTrYF
p415
I1
sVhttp://fb.me/37udE7Mzo
p416
I1
sVhttp://fb.me/7lV9UhGgo
p417
I1
sVhttp://fb.me/1M4gBCiag
p418
I1
sVhttp://fb.me/I3FMXKer
p419
I1
sVhttp://fb.me/wCG9OQcZ
p420
I1
sVhttp://fb.me/7ENR4fTb3
p421
I1
sVhttp://fb.me/18TKG3044
p422
I1
sVhttp://fb.me/8tTGmwKzp
p423
I1
sVhttp://fb.me/8mqGynmbl
p424
I1
sVhttp://fb.me/1bAXx1rzl
p425
I1
sVhttp://fb.me/5ItF64nxy
p426
I1
sVhttp://fb.me/55cA7KGxS
p427
I1
sVhttp://fb.me/8ac9TWp0q
p428
I1
sVhttp://fb.me/3cecoeC4g
p429
I1
sVhttp://fb.me/8wG5xI26Z
p430
I1
sVhttp://fb.me/55CWzRSCV
p431
I1
sVhttp://fb.me/5aehsOEXC
p432
I1
sVhttp://fb.me/1bhBMks9t
p433
I1
sVhttp://fb.me/tH2xT8m0
p434
I1
sVhttp://fb.me/34aTYNufl
p435
I1
sVhttp://fb.me/OgCH1abg
p436
I1
sVhttp://fb.me/1dV3WRkNy
p437
I1
sVhttp://fb.me/7zVeNKTDZ
p438
I1
sVhttp://fb.me/7Avb5in3z
p439
I1
sVhttp://fb.me/OseAjBJP
p440
I1
sVhttp://fb.me/YQWlYsvh
p441
I1
sVhttp://fb.me/3vNqebs8q
p442
I1
sVhttp://fb.me/5YSUUkuxO
p443
I1
sVhttp://fb.me/6uGSjjV8n
p444
I1
sVhttp://fb.me/O0GwB06T
p445
I1
sVhttp://fb.me/5ACMvqamp
p446
I1
sVhttp://fb.me/20Z4OJiJZ
p447
I1
sVhttp://fb.me/7UuvaBrp8
p448
I1
sVhttp://fb.me/1GJKWxItp
p449
I1
sVhttp://fb.me/7x3Fdg1eq
p450
I1
sVhttp://fb.me/19WJiahiU
p451
I1
sVhttp://fb.me/5uao0Lzso
p452
I1
sVhttp://fb.me/1281MQliM
p453
I1
sVhttp://fb.me/8kW6qUgPJ
p454
I1
sVhttp://fb.me/19h39q4dl
p455
I1
sVhttp://fb.me/8he5zODUo
p456
I1
sVhttp://fb.me/30sLCZRTo
p457
I1
sVhttp://fb.me/5C4JU0M4y
p458
I1
sVhttp://fb.me/1W42Tbtxe
p459
I1
sVhttp://fb.me/CmmzZFsE
p460
I1
sVhttp://fb.me/HoXmLeIr
p461
I1
sVhttp://fb.me/2KoEKd9BB
p462
I1
sVhttp://fb.me/2dAWGRwLt
p463
I2
sVhttp://fb.me/7c7WLG5e8
p464
I1
sVhttp://fb.me/1LXsRXlyu
p465
I1
sVhttp://fb.me/8sgDHHgie
p466
I1
sVhttp://fb.me/7BXF6H7oi
p467
I1
sVhttp://fb.me/1NOxsNzDB
p468
I1
sVhttp://fb.me/TjXg6Glo
p469
I1
sVhttp://fb.me/84oS8CYg0
p470
I1
sVhttp://fb.me/63TiOMmeF
p471
I1
sVhttp://fb.me/69L8iiUuk
p472
I1
sVhttp://fb.me/8MzBQaqCh
p473
I1
sVhttp://fb.me/63YoCJvPT
p474
I1
sVhttp://fb.me/1CQSXnVgv
p475
I1
sVhttp://fb.me/2UUaJxah9
p476
I1
sVhttp://fb.me/5VMjJgJeF
p477
I1
sVhttp://fb.me/2V3sbKssl
p478
I1
sVhttp://fb.me/2WEy20aNJ
p479
I1
sVhttp://fb.me/5IRgNFoG3
p480
I1
sVhttp://fb.me/8tmEGQHEY
p481
I1
sVhttp://fb.me/4r06OK3Wp
p482
I1
sVhttp://fb.me/8ui9NNUdg
p483
I1
sVhttp://fb.me/6BWWOf1iE
p484
I1
sVhttp://fb.me/1SfYRVJ0G
p485
I1
sVhttp://fb.me/1Tw64rFsb
p486
I1
sVhttp://fb.me/1evydP1Bu
p487
I1
sVhttp://fb.me/1a2eRWzM2
p488
I1
sVhttp://fb.me/Za8sbK6W
p489
I1
sVhttp://fb.me/8AX4ls4pf
p490
I1
sVhttp://fb.me/45DyFNZAI
p491
I1
sVhttp://fb.me/1Kjc3BOfA
p492
I1
sVhttp://fb.me/5wA4KLWMb
p493
I2
sVhttp://fb.me/3cs67jX85
p494
I1
sVhttp://fb.me/3vzUAVqVU
p495
I1
sVhttp://fb.me/3BeFbHDLY
p496
I1
sVhttp://fb.me/GqmWgWKj
p497
I1
sVhttp://fb.me/8F3cPSCYQ
p498
I1
sVhttp://fb.me/8egtVhpg0
p499
I1
sVhttp://fb.me/PJdUS4kY
p500
I1
sVhttp://fb.me/5ZZhlx8yZ
p501
I1
sVhttp://fb.me/1RstR9YmJ
p502
I1
sVhttp://fb.me/6j0woHH7o
p503
I1
sVhttp://fb.me/RHI3daJb
p504
I1
sVhttp://fb.me/6FdiVd3rE
p505
I1
sVhttp://fb.me/Pt7I3BBh
p506
I1
sVhttp://fb.me/5WPfIXXJK
p507
I1
sVhttp://fb.me/LTzIbnxc
p508
I1
sVhttp://fb.me/1JF6FgI4M
p509
I1
sVhttp://fb.me/2MuVGFIvK
p510
I1
sVhttp://fb.me/66ewy1OY8
p511
I1
sVhttp://fb.me/HfjjcTfU
p512
I1
sVhttp://fb.me/5ZxmWIzHN
p513
I1
sVhttp://fb.me/3gsUZtv6s
p514
I1
sVhttp://fb.me/18eGInqQJ
p515
I1
sVhttp://fb.me/9in5SUeTf
p516
I1
sVhttp://fb.me/5FqS2bgNY
p517
I1
sVhttp://fb.me/KwkyEtcx
p518
I1
sVhttp://fb.me/8wIMERZKd
p519
I1
sVhttp://fb.me/6oxgTYzXY
p520
I1
sVhttp://fb.me/8Gkxbq445
p521
I1
sVhttp://fb.me/83lP54jSk
p522
I1
sVhttp://fb.me/8xye5btmy
p523
I1
sVhttp://fb.me/5PDdtos4n
p524
I1
sVhttp://fb.me/1djeS0HTL
p525
I1
sVhttp://fb.me/5Rfl9k9d3
p526
I1
sVhttp://fb.me/OhM253UZ
p527
I1
sVhttp://fb.me/Py7xP9Zl
p528
I1
sVhttp://fb.me/61A5iAcvO
p529
I1
sVhttp://fb.me/ZDmDv1WM
p530
I1
sVhttp://fb.me/I5KSiAXr
p531
I1
sVhttp://fb.me/1glyv8qfY
p532
I2
sVhttp://fb.me/YgzKxSGd
p533
I1
sVhttp://fb.me/1P92eAIaf
p534
I1
sVhttp://fb.me/1LsbAHDyi
p535
I1
sVhttp://fb.me/1LVgq25Ua
p536
I1
sVhttp://fb.me/6BPIUQarF
p537
I1
sVhttp://fb.me/1aWb6rW7n
p538
I1
sVhttp://fb.me/661PMGHG7
p539
I1
sVhttp://fb.me/3WJ3lX328
p540
I1
sVhttp://fb.me/5M7bSjfTE
p541
I1
sVhttp://fb.me/2UdPLIwiB
p542
I1
sVhttp://fb.me/26wkezTx6
p543
I1
sVhttp://fb.me/6p1pAbr3v
p544
I1
sVhttp://fb.me/2LVfcaPgf
p545
I1
sVhttp://fb.me/1WP07Sh32
p546
I1
sVhttp://fb.me/z7a4Mli8
p547
I1
sVhttp://fb.me/5YRqKsJoN
p548
I1
sVhttp://fb.me/85eBsB019
p549
I1
sVhttp://fb.me/8sWcYZdQ6
p550
I1
sVhttp://fb.me/57rxok65T
p551
I1
sVhttp://fb.me/8KM5FZMk7
p552
I1
sVhttp://fb.me/7UG8IxFdm
p553
I1
sVhttp://fb.me/1nj36IFS2
p554
I1
sVhttp://fb.me/3kZ3aiZ1h
p555
I1
sVhttp://fb.me/yy3yEj6I
p556
I1
sVhttp://fb.me/2hzihicS8
p557
I1
sVhttp://fb.me/8xEOPh5Ds
p558
I1
sVhttp://fb.me/69FFTUG2E
p559
I1
sVhttp://fb.me/6i2Sy9oZh
p560
I1
sVhttp://fb.me/8qQLIighO
p561
I1
sVhttp://fb.me/5GioEP8ze
p562
I1
sVhttp://fb.me/1eMasfaEG
p563
I1
sVhttp://fb.me/5IpeE7XWc
p564
I1
sVhttp://fb.me/H8sKWuyd
p565
I1
sVhttp://fb.me/36Po6s6zt
p566
I1
sVhttp://fb.me/1jJMAMFWn
p567
I1
sVhttp://fb.me/1GNMwPOKT
p568
I1
sVhttp://fb.me/7BUCfqYeP
p569
I1
sVhttp://fb.me/Cgv0M3Fo
p570
I1
sVhttp://fb.me/6uLb5hdG0
p571
I1
sVhttp://fb.me/8ylCWWcvF
p572
I1
sVhttp://fb.me/8xDdCTUzj
p573
I1
sVhttp://fb.me/6qqBKtzZL
p574
I1
sVhttp://fb.me/6ajHkAVpU
p575
I1
sVhttp://fb.me/1f6ijboyq
p576
I1
sVhttp://fb.me/4JAzESaM2
p577
I1
sVhttp://fb.me/4EuDSKFNh
p578
I1
sVhttp://fb.me/8v4dvln2C
p579
I1
sVhttp://fb.me/3tgXJUvBh
p580
I1
sVhttp://fb.me/8qZdMMF0S
p581
I1
sVhttp://fb.me/UvnzfOJh
p582
I1
sVhttp://fb.me/1ajolxKGF
p583
I1
sVhttp://fb.me/D3SgB0fx
p584
I1
sVhttp://fb.me/2ODTxcXpl
p585
I2
sVhttp://fb.me/3iXmdX1nE
p586
I1
sVhttp://fb.me/Mv5P3cAJ
p587
I1
sVhttp://fb.me/7Xx37bn3w
p588
I1
sVhttp://fb.me/15yqLDDix
p589
I1
sVhttp://fb.me/1gnlMGcan
p590
I1
sVhttp://fb.me/3HfHXnfOg
p591
I1
sVhttp://fb.me/1LAepb1pB
p592
I1
sVhttp://fb.me/5MBUeo78W
p593
I1
sVhttp://fb.me/1Y8UD1PZV
p594
I1
sVhttp://fb.me/6gingKv6F
p595
I1
sVhttp://fb.me/8mExxn3CA
p596
I1
sVhttp://fb.me/6Ev0Rds1k
p597
I1
sVhttp://fb.me/2GKaq26Yi
p598
I1
sVhttp://fb.me/1JwJ2rvji
p599
I1
sVhttp://fb.me/8rROev1wx
p600
I1
sVhttp://fb.me/1LTQwyrYo
p601
I1
sVhttp://fb.me/7Obla52sV
p602
I1
sVhttp://fb.me/1XNyfzb9P
p603
I1
sVhttp://fb.me/7laIfecKs
p604
I1
sVhttp://fb.me/6BrWGCJkA
p605
I1
sVhttp://fb.me/2IS3XIylc
p606
I1
sVhttp://fb.me/8RF86VVHi
p607
I1
sVhttp://fb.me/7tNYfr6OK
p608
I1
sVhttp://fb.me/4vK92vBZK
p609
I1
sVhttp://fb.me/5vuoYyKZH
p610
I1
sVhttp://fb.me/5YQwnUDrk
p611
I1
sVhttp://fb.me/8E9LZJpta
p612
I1
sVhttp://fb.me/4Er4KjzGS
p613
I1
sVhttp://fb.me/6tQKI13Po
p614
I1
sVhttp://fb.me/3nO8Cj9ii
p615
I1
sVhttp://fb.me/NQzBta0a
p616
I1
sVhttp://fb.me/1N4AFad4y
p617
I1
sVhttp://fb.me/2KYeVxGjb
p618
I1
sVhttp://fb.me/Aa6O2Lra
p619
I1
sVhttp://fb.me/8DsRgR7pN
p620
I1
sVhttp://fb.me/7syFAjkUR
p621
I1
sVhttp://fb.me/1JEANOre4
p622
I1
sVhttp://fb.me/8mB5qLzMc
p623
I1
sVhttp://fb.me/84sAxp3Co
p624
I1
sVhttp://fb.me/1mzg3cDub
p625
I1
sVhttp://fb.me/8f7lPCfzn
p626
I1
sVhttp://fb.me/5U5JvUk6x
p627
I1
sVhttp://fb.me/19WcBJ8Wu
p628
I1
sVhttp://fb.me/7SqzYEZkF
p629
I1
sVhttp://fb.me/1GhEyE7ru
p630
I1
sVhttp://fb.me/8h9ODymeE
p631
I1
sVhttp://fb.me/5EMMHrSEL
p632
I1
sVhttp://fb.me/8WyyVK6HN
p633
I1
sVhttp://fb.me/6LcmFn33w
p634
I1
sVhttp://fb.me/37AHUTWAL
p635
I1
sVhttp://fb.me/5BKzpisXb
p636
I1
sVhttp://fb.me/8FAg46Zys
p637
I1
sVhttp://fb.me/6puJjXTyP
p638
I1
sVhttp://fb.me/3wp1DJh0k
p639
I1
sVhttp://fb.me/8RREH5k6m
p640
I1
sVhttp://fb.me/6aCcsDxSC
p641
I1
sVhttp://fb.me/8kAsWilvx
p642
I2
sVhttp://fb.me/1QHonidrU
p643
I1
sVhttp://fb.me/7CHLuKz4y
p644
I1
sVhttp://fb.me/5FOg7bCLu
p645
I1
sVhttp://fb.me/1Mh4KFJL2
p646
I1
sVhttp://fb.me/7Z2maCMZG
p647
I2
sVhttp://fb.me/1O93ctYpQ
p648
I1
sVhttp://fb.me/14wqIQoII
p649
I1
sVhttp://fb.me/3Dy1H6csS
p650
I1
sVhttp://fb.me/PdrgQiOT
p651
I1
sVhttp://fb.me/18nJiaDbm
p652
I1
sVhttp://fb.me/8kwwmbxDD
p653
I1
sVhttp://fb.me/8YFT0RRZM
p654
I1
sVhttp://fb.me/2ZIPlQCxT
p655
I1
sVhttp://fb.me/1dguW1sUE
p656
I2
sVhttp://fb.me/1SFYCoodq
p657
I1
sVhttp://fb.me/10t0vjvNu
p658
I1
sVhttp://fb.me/2Lng99IKt
p659
I1
sVhttp://fb.me/51dpx2MD8
p660
I2
sVhttp://fb.me/3CPwqsfmc
p661
I1
sVhttp://fb.me/1SWN46KGk
p662
I1
sVhttp://fb.me/6EUmULgVN
p663
I1
sVhttp://fb.me/61nxoxT6j
p664
I1
sVhttp://fb.me/3loLrhjUn
p665
I1
sVhttp://fb.me/6AzpzZScy
p666
I1
sVhttp://fb.me/40BWr0Q3o
p667
I1
sVhttp://fb.me/172FBEnHe
p668
I1
sVhttp://fb.me/7SdPrnPfh
p669
I1
sVhttp://fb.me/609tBmU80
p670
I1
sVhttp://fb.me/2O1fh2Ngo
p671
I1
sVhttp://fb.me/5pwLfy17h
p672
I1
sVhttp://fb.me/5SDLZRSZU
p673
I1
sVhttp://fb.me/5zbaTbKd8
p674
I1
sVhttp://fb.me/U5mLnaUV
p675
I1
sVhttp://fb.me/4sh6Lc2VK
p676
I1
sVhttp://fb.me/8hT6JMZ9r
p677
I1
sVhttp://fb.me/1M4iKgiMz
p678
I1
sVhttp://fb.me/7In3MHian
p679
I1
sVhttp://fb.me/5sASF7AuA
p680
I1
sVhttp://fb.me/3dcL4FqLd
p681
I1
sVhttp://fb.me/vWDqpFGo
p682
I1
sVhttp://fb.me/6tTbqeCDl
p683
I1
sVhttp://fb.me/1HNlgDoL3
p684
I1
sVhttp://fb.me/1KLozCvGC
p685
I1
sVhttp://fb.me/5GhM7bPNd
p686
I1
sVhttp://fb.me/6nWWUK5ur
p687
I1
sVhttp://fb.me/3Gql6aRpq
p688
I1
sVhttp://fb.me/8iwmoYabm
p689
I1
sVhttp://fb.me/5RWkR1xIS
p690
I1
sVhttp://fb.me/83xzaBXdK
p691
I1
sVhttp://fb.me/89j5ACnLe
p692
I1
sVhttp://fb.me/1OLqegTt3
p693
I1
sVhttp://fb.me/8wUX6MBaZ
p694
I1
sVhttp://fb.me/1O5UlGhfi
p695
I1
sVhttp://fb.me/43wvB48A3
p696
I1
sVhttp://fb.me/6itNH080d
p697
I1
sVhttp://fb.me/QbmGYHBf
p698
I1
sVhttp://fb.me/1JUfHnvOL
p699
I1
sVhttp://fb.me/NYyizWdj
p700
I1
sVhttp://fb.me/8JAL3dfy7
p701
I1
sVhttp://fb.me/5bVEcOMe0
p702
I1
sVhttp://fb.me/NTGb3oPI
p703
I1
sVhttp://fb.me/8cMTW9iEP
p704
I1
sVhttp://fb.me/8952SkLHn
p705
I1
sVhttp://fb.me/2RkkMolX5
p706
I1
sVhttp://fb.me/6hDv8eHCC
p707
I1
sVhttp://fb.me/1veJrJWd5
p708
I1
sVhttp://fb.me/1IuQ4c3te
p709
I1
sVhttp://fb.me/8bSkhS23B
p710
I1
sVhttp://fb.me/V8YCF1Hv
p711
I1
sVhttp://fb.me/HTnMHxDc
p712
I1
sVhttp://fb.me/G1Um0Ho9
p713
I1
sVhttp://fb.me/4YRO3QxDg
p714
I1
sVhttp://fb.me/1MtSzqfui
p715
I1
sVhttp://fb.me/59Kw1Eg53
p716
I1
sVhttp://fb.me/8DOejBeku
p717
I1
sVhttp://fb.me/8jPSg0v33
p718
I1
sVhttp://fb.me/1aI6ie8Iz
p719
I1
sVhttp://fb.me/8mDeOYrrY
p720
I1
sVhttp://fb.me/50BmHVPQE
p721
I1
sVhttp://fb.me/2dWUgWk1o
p722
I1
sVhttp://fb.me/3ZChbDFE4
p723
I1
sVhttp://fb.me/7yknf9u7t
p724
I1
sVhttp://fb.me/1MG86tLDr
p725
I1
sVhttp://fb.me/1rxQs7FSu
p726
I1
sVhttp://fb.me/3CyJxicOZ
p727
I1
sVhttp://fb.me/5vvcObxFJ
p728
I2
sVhttp://fb.me/1bOBVIoGQ
p729
I1
sVhttp://fb.me/50WDA5bLC
p730
I1
sVhttp://fb.me/1KWKddVag
p731
I1
sVhttp://fb.me/uN3afTDI
p732
I1
sVhttp://fb.me/3fCDrE3ts
p733
I1
sVhttp://fb.me/3ishG1zan
p734
I1
sVhttp://fb.me/7Xpd3o7l5
p735
I1
sVhttp://fb.me/8fRw6Bl6M
p736
I1
sVhttp://fb.me/8L15utgWL
p737
I1
sVhttp://fb.me/18Pi0gOUs
p738
I1
sVhttp://fb.me/1VD2x4aoz
p739
I1
sVhttp://fb.me/5KopL5tTn
p740
I1
sVhttp://fb.me/6pB4jWRFb
p741
I1
sVhttp://fb.me/VNUEyonZ
p742
I1
sVhttp://fb.me/Usml3tDa
p743
I1
sVhttp://fb.me/2RZYjQdbW
p744
I1
sVhttp://fb.me/3prHiiwpt
p745
I1
sVhttp://fb.me/UWygIeYw
p746
I1
sVhttp://fb.me/7Y0quM6ua
p747
I1
sVhttp://fb.me/IdiVTvmA
p748
I1
sVhttp://fb.me/1awlhQ19h
p749
I1
sVhttp://fb.me/4NnVSYFPh
p750
I1
sVhttp://fb.me/12UEaFbb1
p751
I1
sVhttp://fb.me/2Y66pGNsY
p752
I1
sVhttp://fb.me/5szzKxGc0
p753
I1
sVhttp://fb.me/8mOBPCS0H
p754
I1
sVhttp://fb.me/2KWedAk7C
p755
I1
sVhttp://fb.me/8a1NgvE3g
p756
I1
sVhttp://fb.me/8wZ0faLT7
p757
I1
sVhttp://fb.me/1aXo4ccgo
p758
I1
sVhttp://fb.me/1SGqt1F0h
p759
I1
sVhttp://fb.me/6f6iJwgll
p760
I1
sVhttp://fb.me/7nu9P5Haq
p761
I1
sVhttp://fb.me/8xNfDu9Pk
p762
I1
sVhttp://fb.me/5vleW5It5
p763
I1
sVhttp://fb.me/1ubhvQO26
p764
I1
sVhttp://fb.me/O1dayjDZ
p765
I1
sVhttp://fb.me/1bxABEAVR
p766
I1
sVhttp://fb.me/1vJU98jfQ
p767
I1
sVhttp://fb.me/7sNSTu6PM
p768
I1
sVhttp://fb.me/7tVap0ozK
p769
I1
sVhttp://fb.me/5DzA4LlRA
p770
I1
sVhttp://fb.me/2Zo8BLrMz
p771
I1
sVhttp://fb.me/8uWpIZElb
p772
I1
sVhttp://fb.me/1fzpTXq2I
p773
I1
sVhttp://fb.me/5SwC52sLO
p774
I1
sVhttp://fb.me/89MF87qja
p775
I1
sVhttp://fb.me/3GyYOLtXb
p776
I1
sVhttp://fb.me/179jKFDQF
p777
I1
sVhttp://fb.me/7QHA8iOTu
p778
I1
sVhttp://fb.me/4bNZGRm5t
p779
I1
sVhttp://fb.me/5rK7ekxHQ
p780
I1
sVhttp://fb.me/18Q1SeqgU
p781
I1
sVhttp://fb.me/6z4wCGKQR
p782
I1
sVhttp://fb.me/K2rPRwGD
p783
I1
sVhttp://fb.me/ZkrBhDol
p784
I1
sVhttp://fb.me/8tAOTQ7X8
p785
I1
sVhttp://fb.me/WKrzBTQD
p786
I1
sVhttp://fb.me/1IvuVYtjj
p787
I1
sVhttp://fb.me/8zOe1jvOP
p788
I1
sVhttp://fb.me/1auN2bMwu
p789
I1
sVhttp://fb.me/8NKzTpKHA
p790
I1
sVhttp://fb.me/1fufX3SE5
p791
I1
sVhttp://fb.me/1hvySy844
p792
I1
sVhttp://fb.me/4KQqSaa1T
p793
I1
sVhttp://fb.me/1wrKX2h7f
p794
I1
sVhttp://fb.me/5ViPw1HZo
p795
I1
sVhttp://fb.me/6tjnSyqgk
p796
I1
sVhttp://fb.me/8IItJCZY8
p797
I1
sVhttp://fb.me/6xxfmHUB8
p798
I1
sVhttp://fb.me/7GBdARTWU
p799
I1
sVhttp://fb.me/ICFv1lXa
p800
I1
sVhttp://fb.me/11ZmOqa0A
p801
I1
sVhttp://fb.me/1KoNjwN9v
p802
I1
sVhttp://fb.me/3nti9UAWP
p803
I1
sVhttp://fb.me/1cHeCagMm
p804
I1
sVhttp://fb.me/8wqqR098T
p805
I1
sVhttp://fb.me/800s8in3n
p806
I1
sVhttp://fb.me/8ozfGvBJc
p807
I1
sVhttp://fb.me/65b6j2iUY
p808
I1
sVhttp://fb.me/8viC5oPXc
p809
I1
sVhttp://fb.me/5Fb95xteP
p810
I1
sVhttp://fb.me/7bQWeNmCg
p811
I1
sVhttp://fb.me/5E5691ngm
p812
I1
sVhttp://fb.me/1j9oVg8nT
p813
I1
sVhttp://fb.me/8PQ65M1wa
p814
I1
sVhttp://fb.me/38gNH7Dxt
p815
I1
sVhttp://fb.me/3r6mBhSA5
p816
I1
sVhttp://fb.me/2QkDvmNPe
p817
I1
sVhttp://fb.me/3uTrZnvgU
p818
I1
sVhttp://fb.me/1bkWVBRXc
p819
I1
sVhttp://fb.me/58HiMFTvx
p820
I1
sVhttp://fb.me/1VeSA1Wke
p821
I1
sVhttp://fb.me/7Z8UcdxGy
p822
I1
sVhttp://fb.me/5RzmNpEjs
p823
I1
sVhttp://fb.me/69gn9EIbr
p824
I1
sVhttp://fb.me/YzBDZxu2
p825
I1
sVhttp://fb.me/4CtX4h3Nl
p826
I1
sVhttp://fb.me/2X8LRDMaW
p827
I1
sVhttp://fb.me/8F8fRIk1X
p828
I1
sVhttp://fb.me/1beqqkb6g
p829
I1
sVhttp://fb.me/NaYMZ4ts
p830
I1
sVhttp://fb.me/4wJt2GLdh
p831
I1
sVhttp://fb.me/JTtOXbox
p832
I1
sVhttp://fb.me/UjDlmGbk
p833
I1
sVhttp://fb.me/1mvKIXpnX
p834
I1
sVhttp://fb.me/3aVuA8jFw
p835
I1
sVhttp://fb.me/5yZ4JH2ae
p836
I1
sVhttp://fb.me/1U0eOIphT
p837
I1
sVhttp://fb.me/64oCXlgzO
p838
I1
sVhttp://fb.me/7VxKSJilC
p839
I1
sVhttp://fb.me/3SM13xVE2
p840
I1
sVhttp://fb.me/1KSQDrPRs
p841
I1
sVhttp://fb.me/7uUxoQ9aY
p842
I3
sVhttp://fb.me/XNf5eY0w
p843
I1
sVhttp://fb.me/1nakEbSaR
p844
I1
sVhttp://fb.me/1LgMQTOaE
p845
I1
sVhttp://fb.me/1W3hHMQKP
p846
I1
sVhttp://fb.me/1h513Vvyv
p847
I1
sVhttp://fb.me/1SJ5GSMwR
p848
I1
sVhttp://fb.me/UJWTUPdE
p849
I1
sVhttp://fb.me/1eKDLB1Ma
p850
I1
sVhttp://fb.me/1aD5h97CJ
p851
I1
sVhttp://fb.me/1ZZz48ysm
p852
I1
sVhttp://fb.me/5NxmGFxOO
p853
I1
sVhttp://fb.me/I64M1O10
p854
I1
sVhttp://fb.me/1ny3uC1uX
p855
I1
sVhttp://fb.me/119dhyGfx
p856
I1
sVhttp://fb.me/8DQPmVG5B
p857
I1
sVhttp://fb.me/3u7DMBOmz
p858
I1
sVhttp://fb.me/X3TF34Uo
p859
I1
sVhttp://fb.me/5QcAzXVT1
p860
I1
sVhttp://fb.me/7yIVPbc0B
p861
I1
sVhttp://fb.me/3vZoPAsgH
p862
I1
sVhttp://fb.me/N65QVAXy
p863
I1
sVhttp://fb.me/59KdfCTxg
p864
I1
sVhttp://fb.me/44fgFEDsQ
p865
I1
sVhttp://fb.me/19iAtxXul
p866
I1
sVhttp://fb.me/5EcF3bfea
p867
I1
sVhttp://fb.me/CwUB3GEJ
p868
I1
sVhttp://fb.me/1uGkYynou
p869
I1
sVhttp://fb.me/53lQVO39B
p870
I1
sVhttp://fb.me/2K26wg4Oh
p871
I1
sVhttp://fb.me/NVsKBQJl
p872
I1
sVhttp://fb.me/8trv6NH9J
p873
I1
sVhttp://fb.me/1WNm4ROl2
p874
I1
sVhttp://fb.me/5vvxSyiaT
p875
I1
sVhttp://fb.me/1ilh2kpqw
p876
I1
sVhttp://fb.me/1MWRVHiYy
p877
I1
sVhttp://fb.me/5cjjDpI85
p878
I1
sVhttp://fb.me/7GHkANvzF
p879
I1
sVhttp://fb.me/18ppqFeNH
p880
I1
sVhttp://fb.me/7NzgAGR3o
p881
I1
sVhttp://fb.me/4gYMdGHGA
p882
I1
sVhttp://fb.me/1CiT63QK6
p883
I1
sVhttp://fb.me/6pS5Ngdz9
p884
I1
sVhttp://fb.me/85irOtVPu
p885
I1
sVhttp://fb.me/Zc0bQMnY
p886
I1
sVhttp://fb.me/80JlSGdYE
p887
I1
sVhttp://fb.me/3oKC061fr
p888
I1
sVhttp://fb.me/5IlbJWT0X
p889
I1
sVhttp://fb.me/4oC6hvZDd
p890
I1
sVhttp://fb.me/6yc0ik1kr
p891
I1
sVhttp://fb.me/1LLVAHy79
p892
I48
sVhttp://fb.me/8fWEooP2d
p893
I1
sVhttp://fb.me/1hBPyLmor
p894
I1
sVhttp://fb.me/M1rQ6RDO
p895
I1
sVhttp://fb.me/5F0mIxbNh
p896
I1
sVhttp://fb.me/1bTWqOgFV
p897
I1
sVhttp://fb.me/3shOLW1Mm
p898
I1
sVhttp://fb.me/OpPJn398
p899
I1
sVhttp://fb.me/5crkG1Lyj
p900
I1
sVhttp://fb.me/8773NOVT8
p901
I1
sVhttp://fb.me/UI9iihyO
p902
I1
sVhttp://fb.me/3tnucIpwO
p903
I1
sVhttp://fb.me/3gPPt6XSk
p904
I1
sVhttp://fb.me/1MS1KDqwG
p905
I1
sVhttp://fb.me/UCJ9xBF1
p906
I1
sVhttp://fb.me/1KykKhZhD
p907
I1
sVhttp://fb.me/2LJN1pSy3
p908
I1
sVhttp://fb.me/5KPxDIu75
p909
I1
sVhttp://fb.me/153jhqVAG
p910
I1
sVhttp://fb.me/vJejRcra
p911
I1
sVhttp://fb.me/8qjCnwZbp
p912
I1
sVhttp://fb.me/5N9jZFQUh
p913
I1
sVhttp://fb.me/HERGAmNU
p914
I1
sVhttp://fb.me/8HzgTNfq3
p915
I1
sVhttp://fb.me/5RQn0FH9D
p916
I1
sVhttp://fb.me/5Ogbg2O4k
p917
I1
sVhttp://fb.me/1JaHfmzUE
p918
I1
sVhttp://fb.me/5WMjgJz7K
p919
I1
sVhttp://fb.me/7TPoE7vbq
p920
I1
sVhttp://fb.me/1VtMDD10k
p921
I1
sVhttp://fb.me/6u7T52gHq
p922
I1
sVhttp://fb.me/1gIXeifXl
p923
I1
sVhttp://fb.me/Icho2kxG
p924
I1
sVhttp://fb.me/3tKyxeV2N
p925
I1
sVhttp://fb.me/1NvZUhOxI
p926
I1
sVhttp://fb.me/1OOcLkwHd
p927
I1
sVhttp://fb.me/6fFkkqOaO
p928
I1
sVhttp://fb.me/ZgKwoB64
p929
I1
sVhttp://fb.me/3dVc1LvAj
p930
I1
sVhttp://fb.me/8yEifIrrX
p931
I1
sVhttp://fb.me/8ObhmK246
p932
I1
sVhttp://fb.me/8sDvuoQHg
p933
I1
sVhttp://fb.me/7W34rrdQW
p934
I1
sVhttp://fb.me/5NcBphmCf
p935
I1
sVhttp://fb.me/2K8NoUM22
p936
I1
sVhttp://fb.me/1PWInqHZB
p937
I1
sVhttp://fb.me/6GfXyDp0W
p938
I1
sVhttp://fb.me/16CCrmQ8C
p939
I1
sVhttp://fb.me/8rrpvCq1O
p940
I1
sVhttp://fb.me/TIaz8lrq
p941
I1
sVhttp://fb.me/2Xnj1CZzD
p942
I1
sVhttp://fb.me/2aWu9kYGh
p943
I1
sVhttp://fb.me/1KHePN8PT
p944
I1
sVhttp://fb.me/61YKk7wcu
p945
I1
sVhttp://fb.me/1W8BlpWE2
p946
I1
sVhttp://fb.me/73btWBLE3
p947
I1
sVhttp://fb.me/7ztbH6W17
p948
I1
sVhttp://fb.me/6KZDR1CMz
p949
I1
sVhttp://fb.me/5yAjxMFaF
p950
I1
sVhttp://fb.me/2OH3cLGlI
p951
I1
sVhttp://fb.me/6tUuLqXRb
p952
I1
sVhttp://fb.me/5DFJ3bySR
p953
I1
sVhttp://fb.me/HqOzWezp
p954
I1
sVhttp://fb.me/7zfSS8OAW
p955
I1
sVhttp://fb.me/1OMakdIJ9
p956
I1
sVhttp://fb.me/3eFcoVubu
p957
I1
sVhttp://fb.me/21EFCZhns
p958
I1
sVhttp://fb.me/7VqNHH0ds
p959
I1
sVhttp://fb.me/5EpJkfJWV
p960
I1
sVhttp://fb.me/6CpksjyPq
p961
I1
sVhttp://fb.me/16eyQSqZK
p962
I1
sVhttp://fb.me/7GtHLymz3
p963
I1
sVhttp://fb.me/8Bz0JuRED
p964
I1
sVhttp://fb.me/6q939EHsT
p965
I1
sVhttp://fb.me/5K6D4zt4R
p966
I1
sVhttp://fb.me/1cyJyt7MJ
p967
I1
sVhttp://fb.me/1vT0UzLoF
p968
I1
sVhttp://fb.me/1cDsTcDhH
p969
I1
sVhttp://fb.me/3qWRgsLXJ
p970
I1
sVhttp://fb.me/5ZJ7DfV47
p971
I1
sVhttp://fb.me/7wvVbdeC1
p972
I1
sVhttp://fb.me/1xqRPKBck
p973
I1
sVhttp://fb.me/7E7GAn23x
p974
I1
sVhttp://fb.me/2YU2tGTNQ
p975
I1
sVhttp://fb.me/1bktrGCb9
p976
I1
sVhttp://fb.me/7Axae1xCK
p977
I1
sVhttp://fb.me/6AFJHa9Hn
p978
I1
sVhttp://fb.me/5PpB71G5x
p979
I1
sVhttp://fb.me/6yDRidk1T
p980
I1
sVhttp://fb.me/15wJSFMUw
p981
I1
sVhttp://fb.me/30yVywyL4
p982
I1
sVhttp://fb.me/4MtFESpav
p983
I1
sVhttp://fb.me/6jKK2m2RH
p984
I1
sVhttp://fb.me/5665MNXSn
p985
I1
sVhttp://fb.me/3HDAL03xb
p986
I1
sVhttp://fb.me/47xqtrf1E
p987
I1
sVhttp://fb.me/MyGwW9XD
p988
I1
sVhttp://fb.me/5aQRjllV0
p989
I1
sVhttp://fb.me/8vnGbMmr1
p990
I1
sVhttp://fb.me/1Q3QPlMpf
p991
I1
sVhttp://fb.me/2NHPfJSYp
p992
I1
sVhttp://fb.me/30Hi3bYID
p993
I1
sVhttp://fb.me/6q1amTN3W
p994
I1
sVhttp://fb.me/51FTgKzvR
p995
I1
sVhttp://fb.me/K9UnV8iJ
p996
I1
sVhttp://fb.me/1L4mBuBI1
p997
I1
sVhttp://fb.me/19W7RyYku
p998
I1
sVhttp://fb.me/8mxvguKtZ
p999
I1
sVhttp://fb.me/4xtsMB7fz
p1000
I1
sVhttp://fb.me/8rFMS6oDq
p1001
I1
sVhttp://fb.me/7zkHTf3R5
p1002
I1
sVhttp://fb.me/4zTrN2J7O
p1003
I1
sVhttp://fb.me/8td0KXZaP
p1004
I1
sVhttp://fb.me/7A5QRTEw7
p1005
I1
sVhttp://fb.me/12G4bQARA
p1006
I1
sVhttp://fb.me/7AdBZ7vE1
p1007
I1
sVhttp://fb.me/8vp59huZG
p1008
I1
sVhttp://fb.me/8zSRnpDWC
p1009
I1
sVhttp://fb.me/81lxrcgDS
p1010
I1
sVhttp://fb.me/8vmcVDqC5
p1011
I1
sVhttp://fb.me/8nkzIIhO4
p1012
I1
sVhttp://fb.me/1agIbWcod
p1013
I1
sVhttp://fb.me/5McGOnWlL
p1014
I1
sVhttp://fb.me/7hkiXepyj
p1015
I1
sVhttp://fb.me/RRoeJv41
p1016
I1
sVhttp://fb.me/1dvfs8oEH
p1017
I1
sVhttp://fb.me/7uSWkOshB
p1018
I1
sVhttp://fb.me/57PLOPuyw
p1019
I1
sVhttp://fb.me/PAd4sm21
p1020
I1
sVhttp://fb.me/1b1wzMbyz
p1021
I1
sVhttp://fb.me/65Oo75RDa
p1022
I1
sVhttp://fb.me/1Ft4OR7kB
p1023
I1
sVhttp://fb.me/8pFAkX2BO
p1024
I1
sVhttp://fb.me/7BpKriKdF
p1025
I1
sVhttp://fb.me/1wBUh36tu
p1026
I1
sVhttp://fb.me/Oq7myMjo
p1027
I1
sVhttp://fb.me/4oA1rJM4n
p1028
I1
sVhttp://fb.me/5ePKhZsoQ
p1029
I1
sVhttp://fb.me/8sSDnFYVR
p1030
I1
sVhttp://fb.me/2ph9Xt6ZK
p1031
I1
sVhttp://fb.me/19Dh6DuLN
p1032
I1
sVhttp://fb.me/3wD6t4RQ5
p1033
I1
sVhttp://fb.me/1KZJpxV8Q
p1034
I1
sVhttp://fb.me/8vSowhcGq
p1035
I1
sVhttp://fb.me/2o17Aj4nr
p1036
I1
sVhttp://fb.me/8g9NLKt0H
p1037
I1
sVhttp://fb.me/1IgvB38fn
p1038
I1
sVhttp://fb.me/2HSb9mqD7
p1039
I1
sVhttp://fb.me/5ScTRzV3z
p1040
I1
sVhttp://fb.me/8r0FfgxuH
p1041
I1
sVhttp://fb.me/TNYaeRsJ
p1042
I1
sVhttp://fb.me/1IaYNfwbs
p1043
I1
sVhttp://fb.me/1c9BRjnmG
p1044
I1
sVhttp://fb.me/5wrkyDF08
p1045
I1
sVhttp://fb.me/6Mc5YuRZr
p1046
I1
sVhttp://fb.me/3rzZrawu7
p1047
I1
sVhttp://fb.me/5yDS3RWkW
p1048
I1
sVhttp://fb.me/1aXl3DzzF
p1049
I1
sVhttp://fb.me/3AjuOmo2V
p1050
I1
sVhttp://fb.me/3aHFHwJa0
p1051
I1
sVhttp://fb.me/OguosnxC
p1052
I1
sVhttp://fb.me/vm4iK9NG
p1053
I1
sVhttp://fb.me/8Bhxd99QK
p1054
I1
sVhttp://fb.me/1L9oTiTx5
p1055
I1
sVhttp://fb.me/8Gz6ZDvlw
p1056
I1
sVhttp://fb.me/3jrgQWQbu
p1057
I1
sVhttp://fb.me/2GxT4bsSX
p1058
I1
sVhttp://fb.me/6tBfeuCqy
p1059
I1
sVhttp://fb.me/8yBOvOf5z
p1060
I1
sVhttp://fb.me/7VG5CUrZs
p1061
I1
sVhttp://fb.me/3oEkHx04s
p1062
I1
sVhttp://fb.me/4oUR1LW3A
p1063
I1
sVhttp://fb.me/6CoQTEROe
p1064
I1
sVhttp://fb.me/6A0PZq5uK
p1065
I1
sVhttp://fb.me/3z6Edn4GW
p1066
I1
sVhttp://fb.me/8cVOfRihM
p1067
I1
sVhttp://fb.me/57N8bywfY
p1068
I1
sVhttp://fb.me/6mnrEY2A3
p1069
I1
sVhttp://fb.me/3ITjwfI7g
p1070
I1
sVhttp://fb.me/1mvO86Cg0
p1071
I1
sVhttp://fb.me/1WhrSwqXm
p1072
I1
sVhttp://fb.me/3rH1b6U05
p1073
I1
sVhttp://fb.me/1Vsj678xH
p1074
I1
sVhttp://fb.me/1bKyovJyQ
p1075
I1
sVhttp://fb.me/IpNpcOpV
p1076
I1
sVhttp://fb.me/5RvjdvdVN
p1077
I1
sVhttp://fb.me/1fpNpDc3Q
p1078
I1
sVhttp://fb.me/3K6UAEnAB
p1079
I1
sVhttp://fb.me/MH5zhZzw
p1080
I1
sVhttp://fb.me/NXwB1mVy
p1081
I1
sVhttp://fb.me/uAuc7u7u
p1082
I1
sVhttp://fb.me/2HyCUep7s
p1083
I1
sVhttp://fb.me/5X6O83hUh
p1084
I1
sVhttp://fb.me/8l8OzKhau
p1085
I1
sVhttp://fb.me/1TydB9mM1
p1086
I1
sVhttp://fb.me/6gbljuTtH
p1087
I1
sVhttp://fb.me/1LI9gie8z
p1088
I1
sVhttp://fb.me/HyhMnovl
p1089
I1
sVhttp://fb.me/7WSarhsl0
p1090
I1
sVhttp://fb.me/8tmGmauz5
p1091
I1
sVhttp://fb.me/2R77ZrDxq
p1092
I1
sVhttp://fb.me/3DE2j7N3i
p1093
I1
sVhttp://fb.me/sIXW9g2I
p1094
I1
sVhttp://fb.me/P9CHVnxM
p1095
I1
sVhttp://fb.me/8xcSudGMD
p1096
I1
sVhttp://fb.me/1QKNPFr9R
p1097
I1
sVhttp://fb.me/1e1iOviJ3
p1098
I1
sVhttp://fb.me/5Jo3VUl1Y
p1099
I1
sVhttp://fb.me/3qLZFKl0k
p1100
I1
sVhttp://fb.me/8tn3vzqp6
p1101
I1
sVhttp://fb.me/14Rjze0s7
p1102
I1
sVhttp://fb.me/5pl07glFt
p1103
I1
sVhttp://fb.me/3hc3yTHqg
p1104
I1
sVhttp://fb.me/3VN6r4ewD
p1105
I1
sVhttp://fb.me/1LmjlYCHl
p1106
I1
sVhttp://fb.me/7ULxi4jBK
p1107
I1
sVhttp://fb.me/8vWsjuSLe
p1108
I1
sVhttp://fb.me/3bNpl5et8
p1109
I1
sVhttp://fb.me/67pPPNpaY
p1110
I1
sVhttp://fb.me/1b5Gpt5nl
p1111
I1
sVhttp://fb.me/2Bz2BKGae
p1112
I1
sVhttp://fb.me/5zZmrhCMs
p1113
I1
sVhttp://fb.me/1R5UjxNDf
p1114
I1
sVhttp://fb.me/7tlAWl8F3
p1115
I1
sVhttp://fb.me/1blJjrXWN
p1116
I1
sVhttp://fb.me/8tQSIrsYo
p1117
I1
sVhttp://fb.me/6FxWdr1TD
p1118
I1
sVhttp://fb.me/6t7vSOhVr
p1119
I1
sVhttp://fb.me/1lhqwCkKG
p1120
I1
sVhttp://fb.me/8AqzPx2pF
p1121
I1
sVhttp://fb.me/1fstPVMrE
p1122
I1
sVhttp://fb.me/3eNuyH8qG
p1123
I1
sVhttp://fb.me/8B9mZPxqk
p1124
I1
sVhttp://fb.me/1eQcUrOfg
p1125
I1
sVhttp://fb.me/1XLgp6gDY
p1126
I1
sVhttp://fb.me/5VJqNDdrG
p1127
I1
sVhttp://fb.me/5B6ivEvEV
p1128
I1
sVhttp://fb.me/8N5lAb5Uu
p1129
I1
sVhttp://fb.me/6DWBdQkF1
p1130
I1
sVhttp://fb.me/8zONU2wWq
p1131
I1
sVhttp://fb.me/32785G9MA
p1132
I1
sVhttp://fb.me/36iwzfGtr
p1133
I1
sVhttp://fb.me/1cuwDfOjZ
p1134
I1
sVhttp://fb.me/1bUFiJD5F
p1135
I1
sVhttp://fb.me/5C4M7Qp5N
p1136
I1
sVhttp://fb.me/7Fggvz5IU
p1137
I1
sVhttp://fb.me/6qxQjPGR6
p1138
I1
sVhttp://fb.me/1bjPeXNwv
p1139
I1
sVhttp://fb.me/2csnu6LXy
p1140
I1
sVhttp://fb.me/1k4AjLxHB
p1141
I1
sVhttp://fb.me/8MkqG5Aaw
p1142
I1
sVhttp://fb.me/8ppHeHqj2
p1143
I1
sVhttp://fb.me/3rhQLdntF
p1144
I1
sVhttp://fb.me/8EyCbmKSM
p1145
I1
sVhttp://fb.me/abRC7Phg8
p1146
I1
sVhttp://fb.me/5CZkHzqVw
p1147
I1
sVhttp://fb.me/sGufaSCu
p1148
I1
sVhttp://fb.me/5GHzHY3QO
p1149
I1
sVhttp://fb.me/1eugTn8cw
p1150
I1
sVhttp://fb.me/37t4inXtW
p1151
I1
sVhttp://fb.me/PGOSSam3
p1152
I1
sVhttp://fb.me/7TF2Pdynn
p1153
I1
sVhttp://fb.me/1UHrVfxoj
p1154
I1
sVhttp://fb.me/1Mo1MtL11
p1155
I1
sVhttp://fb.me/KHv8HyRl
p1156
I1
sVhttp://fb.me/1GQn7YdDx
p1157
I1
sVhttp://fb.me/6mSsCsQUD
p1158
I1
sVhttp://fb.me/12mExkuZJ
p1159
I1
sVhttp://fb.me/7BfYgTHGZ
p1160
I1
sVhttp://fb.me/NC5mb0sS
p1161
I1
sVhttp://fb.me/HIQYiZJd
p1162
I1
sVhttp://fb.me/8QjeJK6By
p1163
I1
sVhttp://fb.me/MuBl5Lsf
p1164
I1
sVhttp://fb.me/7WKuAHKrX
p1165
I1
sVhttp://fb.me/8Yc92a3Ik
p1166
I1
sVhttp://fb.me/1aV1Eow7o
p1167
I1
sVhttp://fb.me/4pZfm5L8W
p1168
I1
sVhttp://fb.me/5OMq5GAUg
p1169
I1
sVhttp://fb.me/7GM9Wqtmo
p1170
I1
sVhttp://fb.me/I9sQ0kwx
p1171
I1
sVhttp://fb.me/1Xfebl7Zf
p1172
I1
sVhttp://fb.me/8re7Y3qdh
p1173
I1
sVhttp://fb.me/5Ehf1tNBb
p1174
I1
sVhttp://fb.me/2T3lHYtjL
p1175
I1
sVhttp://fb.me/57TzBVjNM
p1176
I1
sVhttp://fb.me/Ha2XvpLj
p1177
I1
sVhttp://fb.me/8l3uezMe4
p1178
I1
sVhttp://fb.me/6tDxuFO3U
p1179
I1
sVhttp://fb.me/8s6NTJbfS
p1180
I1
sVhttp://fb.me/3pg4MEmKF
p1181
I1
sVhttp://fb.me/88fWyEdIT
p1182
I1
sVhttp://fb.me/1foZP7B6f
p1183
I1
sVhttp://fb.me/5EoN8GoL5
p1184
I1
sVhttp://fb.me/6j37gL5Dr
p1185
I1
sVhttp://fb.me/12YtESSe3
p1186
I1
sVhttp://fb.me/6Fkljx8Qk
p1187
I1
sVhttp://fb.me/5DXrX5kRA
p1188
I1
sVhttp://fb.me/8zgK3HwuT
p1189
I1
sVhttp://fb.me/5LdEQTbBn
p1190
I1
sVhttp://fb.me/16vZZfrno
p1191
I1
sVhttp://fb.me/6NcPihIYG
p1192
I1
sVhttp://fb.me/4ATWyuq72
p1193
I1
sVhttp://fb.me/2DrZ2NBpY
p1194
I22
sVhttp://fb.me/2Pd6wcJmE
p1195
I1
sVhttp://fb.me/5IgKL46dg
p1196
I1
sVhttp://fb.me/8oBI6KK2j
p1197
I1
sVhttp://fb.me/4MWQWCBqw
p1198
I1
sVhttp://fb.me/31sM2PvFL
p1199
I1
sVhttp://fb.me/1Je5VsNQC
p1200
I1
sVhttp://fb.me/3ycSMD289
p1201
I1
sVhttp://fb.me/6k9O4lxrs
p1202
I1
sVhttp://fb.me/6juVaUoqd
p1203
I1
sVhttp://fb.me/xQ073Qfx
p1204
I1
sVhttp://fb.me/8nLk6vDMT
p1205
I1
sVhttp://fb.me/6b5D68aWi
p1206
I1
sVhttp://fb.me/8riJerdc6
p1207
I1
sVhttp://fb.me/1b3YDGGEB
p1208
I1
sVhttp://fb.me/8oLuC7hbq
p1209
I1
sVhttp://fb.me/2Ta0fA0r2
p1210
I1
sVhttp://fb.me/8C56zItJU
p1211
I1
sVhttp://fb.me/1bezCByx0
p1212
I1
sVhttp://fb.me/3ntnjNduC
p1213
I1
sVhttp://fb.me/4peDzUdAu
p1214
I1
sVhttp://fb.me/6njQEUZgv
p1215
I1
sVhttp://fb.me/8eCSwz6Ds
p1216
I1
sVhttp://fb.me/3Bs73HJZX
p1217
I1
sVhttp://fb.me/1x385BQPq
p1218
I1
sVhttp://fb.me/1JYh5IaEr
p1219
I2
sVhttp://fb.me/5Gl7bXsAC
p1220
I1
sVhttp://fb.me/7UdmyeXFN
p1221
I1
sVhttp://fb.me/1nvEPCJxj
p1222
I1
sVhttp://fb.me/7uJ8Ic5h9
p1223
I1
sVhttp://fb.me/6DORLIa5C
p1224
I1
sVhttp://fb.me/5m7gSDVpu
p1225
I1
sVhttp://fb.me/1bwqyBnxp
p1226
I1
sVhttp://fb.me/5IMKYL330
p1227
I1
sVhttp://fb.me/8qVzFiAPd
p1228
I1
sVhttp://fb.me/12H7VXvyx
p1229
I1
sVhttp://fb.me/7dOlb14iZ
p1230
I1
sVhttp://fb.me/1aajgLSrh
p1231
I1
sVhttp://fb.me/2SgfFCNK3
p1232
I1
sVhttp://fb.me/OBJWuE4X
p1233
I1
sVhttp://fb.me/2f1Wu876t
p1234
I1
sVhttp://fb.me/65LfWHCCx
p1235
I1
sVhttp://fb.me/5OFP2RTts
p1236
I1
sVhttp://fb.me/8LyN5zVZ0
p1237
I1
sVhttp://fb.me/uQXNe1XD
p1238
I1
sVhttp://fb.me/T6MHTvM3
p1239
I1
sVhttp://fb.me/8weFj06yd
p1240
I1
sVhttp://fb.me/7GI8mAsl2
p1241
I1
sVhttp://fb.me/5OGVddCDM
p1242
I1
sVhttp://fb.me/5rH6gniNU
p1243
I1
sVhttp://fb.me/8tjDQMY5U
p1244
I1
sVhttp://fb.me/5kpdG3r05
p1245
I1
sVhttp://fb.me/28DDhRxPx
p1246
I1
sVhttp://fb.me/VVuywmQb
p1247
I1
sVhttp://fb.me/868MASmWl
p1248
I1
sVhttp://fb.me/6qDPa05VD
p1249
I1
sVhttp://fb.me/6t0MWfuZE
p1250
I1
sVhttp://fb.me/6xRKfAAhl
p1251
I1
sVhttp://fb.me/PFFtKwUz
p1252
I1
sVhttp://fb.me/2SGylmjUR
p1253
I1
sVhttp://fb.me/8pzetX6hY
p1254
I1
sVhttp://fb.me/2X3epUyps
p1255
I1
sVhttp://fb.me/8hBGr4OLj
p1256
I1
sVhttp://fb.me/6KrrskWi2
p1257
I1
sVhttp://fb.me/7tn8Uoswe
p1258
I1
sVhttp://fb.me/6f1Cp7tzm
p1259
I1
sVhttp://fb.me/1lku4hYJ8
p1260
I1
sVhttp://fb.me/82wiV2S8T
p1261
I1
sVhttp://fb.me/8p1Sv3gBj
p1262
I1
sVhttp://fb.me/8nGz9o8nw
p1263
I1
sVhttp://fb.me/NTS7cxyW
p1264
I1
sVhttp://fb.me/3zeJhfWVn
p1265
I1
sVhttp://fb.me/7H03K1AB9
p1266
I1
sVhttp://fb.me/5RyNLfkkO
p1267
I1
sVhttp://fb.me/1xJ48o7LL
p1268
I1
sVhttp://fb.me/1x0qdYHwp
p1269
I1
sVhttp://fb.me/1KhPwzB0V
p1270
I1
sVhttp://fb.me/1H9Iknge6
p1271
I1
sVhttp://fb.me/8xkXvoEXv
p1272
I1
sVhttp://fb.me/Tz3O8Q5r
p1273
I1
sVhttp://fb.me/Zplyv0Zj
p1274
I1
sVhttp://fb.me/4yNwt8aFP
p1275
I1
sVhttp://fb.me/7AGYdEyY9
p1276
I1
sVhttp://fb.me/89QCKYh7D
p1277
I1
sVhttp://fb.me/ZMedzxJ4
p1278
I1
sVhttp://fb.me/8efigiH13
p1279
I1
sVhttp://fb.me/62ureQSmz
p1280
I1
sVhttp://fb.me/10wx4g7an
p1281
I1
sVhttp://fb.me/1K9HHH0hN
p1282
I1
sVhttp://fb.me/MTQ88Q7q
p1283
I1
sVhttp://fb.me/8rVv6iHaK
p1284
I1
sVhttp://fb.me/3R3TdkOU4
p1285
I1
sVhttp://fb.me/1M2GUpuOx
p1286
I1
sVhttp://fb.me/1wao2zCgA
p1287
I1
sVhttp://fb.me/1jLFSxTvj
p1288
I1
sVhttp://fb.me/5WJKEjOCk
p1289
I1
sVhttp://fb.me/8llywVsCV
p1290
I1
sVhttp://fb.me/8eA4tcTpL
p1291
I1
sVhttp://fb.me/2oRsavvgftjEB
p1292
I1
sVhttp://fb.me/6CgWnw95X
p1293
I1
sVhttp://fb.me/ICWs1DMH
p1294
I1
sVhttp://fb.me/IcSBysfu
p1295
I1
sVhttp://fb.me/1mGRhXxLl
p1296
I1
sVhttp://fb.me/5IXhJLQUy
p1297
I1
sVhttp://fb.me/56HedyGcK
p1298
I1
sVhttp://fb.me/8FpBLGDTh
p1299
I1
sVhttp://fb.me/6vKAClmk8
p1300
I1
sVhttp://fb.me/1h17hKbxK
p1301
I1
sVhttp://fb.me/1TtAMTkL5
p1302
I1
ssS'text'
p1303
Vi posted a new photo to facebook
p1304
sS'id'
p1305
I1
sS'day'
p1306
I20
sS'month'
p1307
I2
sa(dp1308
g2
(dp1309
g4
I67
sg5
I1043
ssg6
I1110
sg7
g8
((lp1310
I777688796443840512
aI788160620533252096
aI736398140178235394
aI737466047255613443
aI779696328934846469
aI819102747316387840
aI825014546725163009
aI2664727808
aI1969893385
aI324952075
aI2453993485
aI1368770575
aI1626456080
aI866572315
aI820533276
aI93706272
aI253434544
aI765614891050864640
aI1861296164
aI2196975654
aI484859945
aI1659240493
aI2838710318
aI590598195
aI1110640692
aI188545077
aI3026067510
aI111714504
aI138305598
aI454101055
aI382447680
aI272783425
aI4856004674
aI193678386
aI82215571
aI23046216
aI521472073
aI98259023
aI69113937
aI1580617812
aI1167105038
aI575379542
aI593174619
aI1528981596
aI2847064157
aI1137305694
aI2468145247
aI265175136
aI166086755
aI343011430
aI256413801
aI1053216716
aI4579039341
aI399229038
aI622739567
aI165464179
aI413204601
aI2374021246
aI361511043
aI12093572
aI720073355823550464
aI2256877703
aI875518092
aI571984016
aI102543505
aI67491989
aI2778980502
aI477092889
aI2276663449
aI455499119
aI3698808988
aI2363201698
aI964540580
aI2506520741
aI1754894502
aI1118326951
aI112273576
aI1132886185
aI25825450
aI535218348
aI175902894
aI436723889
aI4908924442
aI3033051317
aI1717447220
aI832160501907984385
aI4875391163
aI397605053
aI2967556128
aI168511684
aI37260662
aI4899231942
aI249497800
aI577169610
aI983484619
aI1108859084
aI250419405
aI2837878990
aI3017218083
aI34750676
aI375357653
aI2348916950
aI921012439
aI857637080
aI2653233369
aI1207118042
aI234260699
aI72302815
aI348500194
aI2958430435
aI34023653
aI616245478
aI67049704
aI2310396139
aI343953644
aI515258605
aI214679790
aI2735918844
aI967348470
aI562053111
aI760860699530661888
aI345860349
aI762923154071183360
aI51267285
aI953594240
aI2746374402
aI79470852
aI813952284870647808
aI52891009
aI68004554
aI409399561
aI625533194
aI485921035
aI165474573
aI2472966415
aI2279006480
aI102537662
aI59291930
aI890837275
aI1122291998
aI1654815109
aI716642592
aI372326938
aI3233840859
aI76984612
aI169836837
aI944437543
aI2321660636
aI273293611
aI497189164
aI2313284658
aI232106288
aI529062196
aI629311798
aI373618999
aI985389368
aI29208889
aI363352379
aI405053758
aI3907143999
aI135950656
aI823881862187663361
aI628518966
aI452063558
aI872954186
aI426452924
aI3369947603
aI185368913
aI617990820
aI1580966228
aI2695592288
aI443369328
aI91392354
aI2346856808
aI161274218
aI476844396
aI44370286
aI109631855
aI17096099
aI2212059199
aI309317354
aI29796736
aI140978240
aI265701762
aI3118647683
aI360413573
aI2785780102
aI412369293
aI18426254
aI505964943
aI818224536
aI776892818
aI519604883
aI269074846
aI874088863
aI763213086601818112
aI246081955
aI586856868
aI299170213
aI438542758
aI150502129
aI23146921
aI111741355
aI1380043184
aI346755506
aI718178578651697152
aI29190217
aI107614623
aI919136701
aI106191294
aI807930296507203584
aI268488054
aI2419591621
aI461320646
aI2386829771
aI302795212
aI2303504846
aI189786579
aI152351188
aI188494293
aI2725247737
aI821720
aI558021081
aI2920950234
aI147741148
aI460141022
aI592026081
aI2441105147
aI872122856
aI50631145
aI300536300
aI328561133
aI236530159
aI425714161
aI47759858
aI297191924
aI129176319
aI126073903
aI1491948030
aI210747477
aI830554337164144640
aI193067521
aI133814786
aI724707217270824962
aI867348996
aI229495894
aI147724806
aI223938306
aI309787151
aI541901328
aI1593359191
aI23812627
aI2166948374
aI2393731609
aI4903195162
aI388934171
aI87853488
aI2932159011
aI105060900
aI174701093
aI2197066278
aI2735712810
aI584226567
aI265205593
aI404183601
aI1523849779
aI2900177311
aI1167868470
aI124412471
aI967830074
aI1904964156
aI527290944
aI23971936
aI973103682
aI460616260
aI26959286
aI2900548176
aI367888982
aI178350680
aI163228253
aI1047939145
aI1021508197
aI117805671
aI554529385
aI920029806
aI2677932655
aI470694513
aI575072882
aI833302255550025728
aI1045563547
aI624437877
aI427045495
aI534962813
aI617704063
aI2955889280
aI2572654016
aI406948484
aI561582725
aI60689030
aI376515212
aI2291006096
aI833494201853636608
aI195482259
aI2558222998
aI119765785
aI3392641551
aI805989533405720576
aI1029704348
aI242148122
aI707738270
aI1092321733
aI455514784
aI418673313
aI755318457588076545
aI141157030
aI765383578511351808
aI2771051180
aI751973040
aI152771249
aI130209083
aI57203380
aI710048437
aI166597302
aI39051960
aI1403437759
aI4513159873
aI35162820
aI95984330
aI452786894
aI33974992
aI20888275
aI41888469
aI2186883798
aI254615673
aI2908658395
aI459592412
aI1032508130
aI120507108
aI93100774
aI189450983
aI1335293052
aI82088684
aI174412525
aI923415278
aI179645167
aI561591025
aI91519731
aI350667510
aI1068894968
aI178424569
aI345758460
aI820502914808487937
aI2396885461
aI2245761797
aI828999769867575296
aI2222527276
aI293051152
aI392350482
aI602891028
aI301267733
aI192279318
aI122028823
aI348023577
aI88607514
aI4841272092
aI50232095
aI268114963
aI470856483
aI748028632124252161
aI40881819
aI112982492
aI179859591
aI2155985708
aI46666542
aI99384121
aI2916850490
aI3455305634
aI404461146
aI866960197
aI541938507
aI848440142
aI2422915921
aI1020564307
aI90577749
aI1370123094
aI956134231
aI174521176
aI166806671
aI2937736033
aI59028328
aI378995561
aI2899960683
aI2470048620
aI607454061
aI2369794926
aI38912879
aI2304965492
aI130222966
aI1112753016
aI79635322
aI140393339
aI3973653372
aI700527416482144257
aI3282772866
aI274570116
aI28648325
aI825166911054966784
aI59184011
aI34853772
aI3028241827
aI440056301
aI2823113616
aI74292115
aI1956991129
aI250608537
aI3065027483
aI317447070
aI227232672
aI191699873
aI157526946
aI290294691
aI40158118
aI438210716
aI601959339
aI270226349
aI4652000413
aI187980720
aI183632818
aI590365620
aI142447541
aI125559734
aI190430136
aI242787259
aI181857213
aI118201278
aI176763841
aI811419049414397952
aI1053498870
aI944733128
aI1129284554
aI2903645131
aI67861452
aI438620546
aI238699497
aI3540818906
aI136047579
aI57347036
aI64265181
aI897639390
aI2249397541
aI437722081
aI745208802
aI4913861605
aI3270800358
aI560497639
aI162870249
aI29369504
aI73511920
aI208342001
aI195851253
aI215531690
aI1967328254
aI954690566
aI199724204
aI1329837066
aI4818188119
aI1954103810
aI1128698894
aI112882707
aI43244564
aI22017047
aI1852917252
aI1668816235
aI133893149
aI1006119966
aI3985760773
aI570860578
aI35220998
aI635227176
aI183252009
aI228068316
aI250754094
aI764026319159996416
aI1333022527
aI244505649
aI2267747378
aI703410926167285760
aI40191032
aI162278457
aI340878517
aI264422466
aI85458326
aI169481057
aI3181456886
aI2997959754
aI41038923
aI305327183
aI2388309072
aI1109855318
aI610587833
aI409687128
aI3289457755
aI144899164
aI2752037981
aI797708816
aI49685605
aI344343655
aI42323052
aI393153647
aI2485898088
aI701615221
aI427524969
aI85935224
aI2678688889
aI101960827
aI620485756
aI2219122172
aI2901273726
aI131409023
aI192570497
aI215093782
aI793643984753037312
aI102753421
aI140479341
aI331977874
aI2292038809
aI412585115
aI22086170
aI31005854
aI1609022624
aI351044769
aI1402657956
aI832580778
aI714003061824303104
aI857470124
aI224383915
aI364532910
aI61215921
aI711896947
aI955671733
aI424590519
aI607220921
aI732525756
aI603563203
aI423122117
aI1029577927
aI4445125833
aI778249418
aI475516109
aI26987726
aI803217110579048448
aI47162577
aI177177811
aI219120852
aI505076949
aI1534143703
aI128267481
aI2675909851
aI3289523420
aI174116065
aI2990738659
aI2171055333
aI839671016
aI598975356
aI181839082
aI164873451
aI264926447
aI82750704
aI1597184172
aI29242612
aI206007544
aI461010170
aI232119547
aI338746620
aI860299818
aI1308407040
aI351788289
aI2775837955
aI98467077
aI831370814930853888
aI712878372012036096
aI49990094
aI30969100
aI262477076
aI354098454
aI133117207
aI24839448
aI214398233
aI577670426
aI282619165
aI55151903
aI705957520376901632
aI187030747
aI164341028
aI256935205
aI539161894
aI170829095
aI2289261864
aI255702313
aI831510418082377728
aI1690713390
aI52307524
aI493489457
aI525663545
aI4054313183
aI1188054332
aI252429629
aI367516990
aI41749826
aI351200581
aI887852257
aI806271206848598017
aI410551627
aI67763533
aI890163667
aI1621830541
aI401687890
aI370459989
aI463093079
aI750927192
aI3225376089
aI322671964
aI96855775
aI564653407
aI166069429
aI424470171
aI637365605
aI31065344
aI111641961
aI440904295
aI1680264559
aI1027780812
aI2871532918
aI2907725178
aI2993909653
aI360888896
aI2468709762
aI800493061402832896
aI9739662
aI459335058
aI33726019
aI2343622038
aI482602392
aI390847897
aI168295834
aI713416339612893184
aI217798048
aI4878050723
aI33107365
aI201078182
aI348937643
aI143668652
aI1575624110
aI65793457
aI319479218
aI1674755508
aI285269918
aI2391948726
aI735788473
aI261119421
aI596622783
aI44305856
aI1557769122
aI214273486
aI262333224
aI2319445459
aI2356173049
aI481054169
aI226373082
aI3347310047
aI1010939360
aI299922913
aI389152232
aI2210520554
aI3031593213
aI3132571122
aI1914357235
aI789757990907867136
aI4333716982
aI1091333623
aI720102906
aI242038268
aI393272829
aI203621887
aI790101504
aI2584075520
aI4779292163
aI2552890884
aI704259590
aI515227143
aI237016588
aI2554621454
aI603250191
aI990025232
aI2163355154
aI613066259
aI381160986
aI3242407514
aI970731038
aI536591621
aI552441776
aI716493336908054529
aI160575013
aI2288737831
aI493854250
aI2714379821
aI734740014
aI554159663
aI580775478
aI366401801
aI1706059322
aI280170044
aI480155197
aI186703427
aI14444100
aI806110078608646144
aI730240585
aI249970250
aI4665728594
aI1021126243
aI149003860
aI479137365
aI898524758
aI114847320
aI3295082084
aI482727514
aI346730077
aI4250805854
aI463391675
aI107972196
aI353326693
aI215401065
aI39577192
aI52405865
aI714798699
aI362385004
aI378142320
aI61972072
aI1521174133
aI178101879
aI488623737
aI18235002
aI291913339
aI809434748
aI1869935197
aI112303747
aI17907335
aI42528394
aI736687759
aI2655665809
aI1530752545
aI4203846254
aI2920457878
aI1700028992
aI536964761
aI103110298
aI775063195
aI299931292
aI517648029
aI740927136
aI592697014
aI301803191
aI521879224
aI351413945
aI216141499
aI1942266144
aI583700163
aI169424585
aI190923270
aI4524992205
aI459850612
aI3610726096
aI1963017937
aI1705149390
aI128562907
aI1327140572
aI2566593829
aI239615713
aI1147674338
aI1244505829
aI2441347025
aI393547498
aI431329004
aI90472175
aI2590555890
aI2839852792
aI75433722
aI335294203
aI87340796
aI2972071678
aI2156474112
aI101306114
aI704554153482313728
aI145217287
aI1957734152
aI1320333066
aI338689803
aI79925004
aI1391955728
aI155823889
aI2176122841
aI1321250587
aI979779361
aI46911267
aI126406441
aI495042346
aI734832428
aI17784621
aI456083248
aI400539441
aI210249522
aI30570463
aI962221886
aI16983871
aI341749568
aI196407105
aI983050050
aI127530820
aI37906742
aI1286249100
aI562427722
aI1270926306
aI86841166
aI625399634
aI3621289273
aI178376537
aI702197598
aI91387744
aI425244515
aI1366083432
aI54536041
aI822007858623496192
aI1373103984
aI2895480689
aI140248947
aI821778294
aI380999543
aI17969472
aI221523843
aI2512224133
aI387936134
aI272969607
aI237668235
aI38432656
aI134856593
aI588781459
aI1953011605
aI866504598
aI1308370585
aI1063444376
aI287930265
aI635406236
aI2293798814
aI512173986
aI833312526599196672
aI109136540
aI121883975
aI3606093742
aI173621168
aI1038276529
aI2285465522
aI34699188
aI393335454
aI980809656
aI1246945212
aI25982911
aI4819865543
aI3003826121
aI705965281139625985
aI142086135
aI615833548
aI602705873
aI239405013
aI46784473
aI497776603
aI3548649436
aI284354525
aI237545439
aI444022779
aI194039783
aI90464234
aI39290859
aI3240599533
aI16224242
aI1311776755
aI2480783349
aI747864055
aI3073097720
aI2176244052
aI2272094203
aI2327697404
atp1311
Rp1312
sg12
I1
sg13
g14
(g15
tp1313
Rp1314
Vhttp://fb.me/3QHEy8e4P
p1315
I1
sVhttp://fb.me/1LmakKsHq
p1316
I1
sVhttp://fb.me/7rxlqGV7W
p1317
I1
sVhttp://fb.me/IMxN4bTc
p1318
I1
sVhttp://fb.me/2GZVWogGq
p1319
I1
sVhttp://fb.me/7DGU27MPD
p1320
I1
sVhttp://fb.me/7w7tusPlN
p1321
I1
sVhttp://fb.me/1r73qMgb9
p1322
I1
sVhttp://fb.me/4QnqRYD5y
p1323
I1
sVhttp://fb.me/5MbcCInlI
p1324
I1
sVhttp://fb.me/8PRALTIyf
p1325
I1
sVhttp://fb.me/5bgSnf5m0
p1326
I1
sVhttp://fb.me/6y9IfFJUt
p1327
I1
sVhttp://fb.me/83svr16QI
p1328
I1
sVhttp://fb.me/5I7CkZdgl
p1329
I1
sVhttp://fb.me/5UxoECeLe
p1330
I1
sVhttp://fb.me/8CrpmvG7H
p1331
I1
sVhttp://fb.me/8PykmmQyU
p1332
I1
sVhttp://fb.me/1aXAe6zuF
p1333
I5
sVhttp://fb.me/8mr2m5sat
p1334
I1
sVhttp://fb.me/1XhFkp1mF
p1335
I1
sVhttp://fb.me/1DMgmMbAt
p1336
I1
sVhttp://fb.me/8EEfBvG10
p1337
I1
sVhttp://fb.me/1nqoySSiQ
p1338
I1
sVhttp://fb.me/1fpHaiHsp
p1339
I1
sVhttp://fb.me/5X4nEWJ7N
p1340
I1
sVhttp://fb.me/3b9HOAp0a
p1341
I1
sVhttp://fb.me/64J2NNHCg
p1342
I1
sVhttp://fb.me/7XwM8nbMA
p1343
I1
sVhttp://fb.me/11RW8jM3D
p1344
I1
sVhttp://fb.me/20tzXOykw
p1345
I1
sVhttp://fb.me/5qo1aixHA
p1346
I1
sVhttp://fb.me/5RPJD9Cy1
p1347
I2
sVhttp://fb.me/7ei9AgbPL
p1348
I1
sVhttp://fb.me/8uQwnUFSq
p1349
I1
sVhttp://fb.me/48AQiW8oT
p1350
I1
sVhttp://fb.me/8Fs0eWByI
p1351
I1
sVhttp://fb.me/6bIstsxMS
p1352
I1
sVhttp://fb.me/3LAgMmMRn
p1353
I1
sVhttp://fb.me/1bir0zNgn
p1354
I1
sVhttp://fb.me/OE10GtUF
p1355
I2
sVhttp://fb.me/8geEws9bW
p1356
I1
sVhttp://fb.me/8ttzhXUu4
p1357
I1
sVhttp://fb.me/6eDieDwN9
p1358
I1
sVhttp://fb.me/NehX608V
p1359
I1
sVhttp://fb.me/1803vsMo2
p1360
I1
sVhttp://fb.me/yutpJbxT
p1361
I1
sVhttp://fb.me/1OsuV8xmq
p1362
I1
sVhttp://fb.me/1OLxgktW5
p1363
I1
sVhttp://fb.me/6xdZSs7Z8
p1364
I1
sVhttp://fb.me/ITPtKCDJ
p1365
I1
sVhttp://fb.me/1hg3tLhL3
p1366
I1
sVhttp://fb.me/1IOIuqfV7
p1367
I1
sVhttp://fb.me/6lsQ6fCBe
p1368
I1
sVhttp://fb.me/15QTDOCiI
p1369
I1
sVhttp://fb.me/2StHNDXqK
p1370
I1
sVhttp://fb.me/8rn5IIMXA
p1371
I1
sVhttp://fb.me/7yhgRYrwS
p1372
I1
sVhttp://fb.me/1hInDha2J
p1373
I1
sVhttp://fb.me/6IhPdN3aw
p1374
I1
sVhttp://fb.me/Qqr3d8dX
p1375
I1
sVhttp://fb.me/3jcmFs9cn
p1376
I1
sVhttp://fb.me/6MQsMuHYO
p1377
I1
sVhttp://fb.me/UPaXWUUk
p1378
I1
sVhttp://fb.me/1TS1zggy0
p1379
I1
sVhttp://fb.me/5p3ZaT5Lp
p1380
I1
sVhttp://fb.me/Zc53Gu1D
p1381
I1
sVhttp://fb.me/1N3yvbd0G
p1382
I1
sVhttp://fb.me/ww6k7AZ0
p1383
I1
sVhttp://fb.me/LZBj7iOY
p1384
I1
sVhttp://fb.me/1Tb6D4Q3q
p1385
I1
sVhttp://fb.me/1MBHB9oWH
p1386
I1
sVhttp://fb.me/5K7AC3Tql
p1387
I1
sVhttp://fb.me/4hUGWxLl3
p1388
I1
sVhttp://fb.me/1UIWtfLdI
p1389
I1
sVhttp://fb.me/HnyISRIY
p1390
I1
sVhttp://fb.me/2OdcFyrF0
p1391
I1
sVhttp://fb.me/8wxO0K6ZP
p1392
I1
sVhttp://fb.me/8uxFbeTDR
p1393
I1
sVhttp://fb.me/1JaG5oWId
p1394
I2
sVhttp://fb.me/2QDeFEZO6
p1395
I1
sVhttp://fb.me/8JRYhoj2U
p1396
I1
sVhttp://fb.me/8qZucR8IX
p1397
I1
sVhttp://fb.me/1KU4ueMaD
p1398
I1
sVhttp://fb.me/6rZh58Qf4
p1399
I1
sVhttp://fb.me/8SlbgXvlu
p1400
I1
sVhttp://fb.me/4r1zTnJGB
p1401
I1
sVhttp://fb.me/3BB38npv7
p1402
I1
sVhttp://fb.me/1ViwjnwFY
p1403
I1
sVhttp://fb.me/1MWcXnh0s
p1404
I1
sVhttp://fb.me/5gvCQk71f
p1405
I1
sVhttp://fb.me/50FPrjQt0
p1406
I1
sVhttp://fb.me/5Z53r82XH
p1407
I1
sVhttp://fb.me/7GUs8FXkf
p1408
I1
sVhttp://fb.me/8GylX22lb
p1409
I1
sVhttp://fb.me/9WRS11WeR
p1410
I1
sVhttp://fb.me/85gFDLdIO
p1411
I1
sVhttp://fb.me/sJvAAMCs
p1412
I1
sVhttp://fb.me/5POXjONZO
p1413
I1
sVhttp://fb.me/1VvYvUqYf
p1414
I1
sVhttp://fb.me/8Af3d6MRV
p1415
I1
sVhttp://fb.me/1hjIJDc41
p1416
I1
sVhttp://fb.me/7jtzvhvgJ
p1417
I1
sVhttp://fb.me/UBMbfeEv
p1418
I1
sVhttp://fb.me/8pmLdLu1F
p1419
I1
sVhttp://fb.me/tangGH5w
p1420
I1
sVhttp://fb.me/5uM0rVCIX
p1421
I1
sVhttp://fb.me/14L9O4LNu
p1422
I1
sVhttp://fb.me/3cZ7e2oWk
p1423
I1
sVhttp://fb.me/31Npc2dD9
p1424
I1
sVhttp://fb.me/4yZs78g4r
p1425
I1
sVhttp://fb.me/2KifQaPlZ
p1426
I1
sVhttp://fb.me/8DiVSnRE1
p1427
I1
sVhttp://fb.me/1VqhQZKHp
p1428
I1
sVhttp://fb.me/7rvMlmBxD
p1429
I1
sVhttp://fb.me/8xBwvWY7x
p1430
I1
sVhttp://fb.me/ULhZaA61
p1431
I2
sVhttp://fb.me/1o0CLF1zi
p1432
I1
sVhttp://fb.me/Udq0eUx9
p1433
I1
sVhttp://fb.me/17wmcl5E0
p1434
I1
sVhttp://fb.me/68PJwjQiQ
p1435
I1
sVhttp://fb.me/uI1HctYC
p1436
I1
sVhttp://fb.me/7jPiM846i
p1437
I1
sVhttp://fb.me/8IJRvADjn
p1438
I1
sVhttp://fb.me/5HbXD9KIw
p1439
I1
sVhttp://fb.me/5Ni9aRpaQ
p1440
I1
sVhttp://fb.me/uTuY5k5d
p1441
I1
sVhttp://fb.me/1h6kgko8V
p1442
I1
sVhttp://fb.me/1O2PQ0jB2
p1443
I1
sVhttp://fb.me/1cjF1bmnr
p1444
I1
sVhttp://fb.me/14xcPLzU2
p1445
I1
sVhttp://fb.me/W9p8oysR
p1446
I1
sVhttp://fb.me/8E5z7rA4H
p1447
I1
sVhttp://fb.me/TyniaDe3
p1448
I1
sVhttp://fb.me/6laNXFUiu
p1449
I1
sVhttp://fb.me/7FTH3HKAR
p1450
I1
sVhttp://fb.me/YRmrE7Rj
p1451
I1
sVhttp://fb.me/ID5vhCvA
p1452
I2
sVhttp://fb.me/3AwzzdnP2
p1453
I1
sVhttp://fb.me/1Ryn5flyH
p1454
I1
sVhttp://fb.me/7vuJxI1ID
p1455
I1
sVhttp://fb.me/8ogSeFV3q
p1456
I1
sVhttp://fb.me/67gDfbQ1r
p1457
I1
sVhttp://fb.me/3v6EhSbvf
p1458
I2
sVhttp://fb.me/V3gVGjoH
p1459
I1
sVhttp://fb.me/3tgyhWcLu
p1460
I1
sVhttp://fb.me/8x6rRtRVh
p1461
I1
sVhttp://fb.me/5Hg5CVvmB
p1462
I1
sVhttp://fb.me/1CaAvdQ7v
p1463
I1
sVhttp://fb.me/8czkcEM31
p1464
I1
sVhttp://fb.me/8FYWnhIZc
p1465
I1
sVhttp://fb.me/64GoT9UfX
p1466
I1
sVhttp://fb.me/8zYR7YwVY
p1467
I1
sVhttp://fb.me/1xM8e7Ifg
p1468
I1
sVhttp://fb.me/1gwMMPGVJ
p1469
I1
sVhttp://fb.me/MqZMRWci
p1470
I1
sVhttp://fb.me/sR0dUyDa
p1471
I1
sVhttp://fb.me/569B5fdow
p1472
I1
sVhttp://fb.me/80TGanPR5
p1473
I1
sVhttp://fb.me/5YVYqclBq
p1474
I1
sVhttp://fb.me/2YQ7SiFbB
p1475
I1
sVhttp://fb.me/8EAb4Wv0a
p1476
I1
sVhttp://fb.me/5K94zKdm1
p1477
I1
sVhttp://fb.me/1xDod2Lvv
p1478
I1
sVhttp://fb.me/6HCoLM8it
p1479
I1
sVhttp://fb.me/H0zy14Vh
p1480
I1
sVhttp://fb.me/NMsluuKf
p1481
I1
sVhttp://fb.me/7067X81GQ
p1482
I1
sVhttp://fb.me/2RCxW2FAG
p1483
I1
sVhttp://fb.me/3Wl1C3UeF
p1484
I1
sVhttp://fb.me/ZkoeCiR0
p1485
I1
sVhttp://fb.me/HDvTNgcW
p1486
I1
sVhttp://fb.me/4tOSFvR4f
p1487
I1
sVhttp://fb.me/184aRx3ko
p1488
I1
sVhttp://fb.me/1NzU0jZPj
p1489
I1
sVhttp://fb.me/1RpcKJi3e
p1490
I1
sVhttp://fb.me/OuuaH0IB
p1491
I1
sVhttp://fb.me/5ClkAkoPA
p1492
I1
sVhttp://fb.me/4HTxIk2LP
p1493
I1
sVhttp://fb.me/81YwZfepO
p1494
I1
sVhttp://fb.me/6I0YC4YtH
p1495
I1
sVhttp://fb.me/6qk40guqh
p1496
I1
sVhttp://fb.me/5AiyyoNn8
p1497
I1
sVhttp://fb.me/5LYNmrvlM
p1498
I1
sVhttp://fb.me/USXoTQGA
p1499
I1
sVhttp://fb.me/1P9gfy2nJ
p1500
I1
sVhttp://fb.me/5ZMN2B9Id
p1501
I1
sVhttp://fb.me/7AAaBr5Dz
p1502
I1
sVhttp://fb.me/5CfWbbrrl
p1503
I1
sVhttp://fb.me/1U585KyNo
p1504
I1
sVhttp://fb.me/5LSYk0hrM
p1505
I1
sVhttp://fb.me/8ogjTOZed
p1506
I1
sVhttp://fb.me/4QxRebpfA
p1507
I1
sVhttp://fb.me/3m54lpFpr
p1508
I1
sVhttp://fb.me/1Vq2mFXWV
p1509
I1
sVhttp://fb.me/7wH7d46zP
p1510
I1
sVhttp://fb.me/1KVnwIcLB
p1511
I1
sVhttp://fb.me/8vKmpNpS9
p1512
I1
sVhttp://fb.me/48fnznzOH
p1513
I1
sVhttp://fb.me/t1oTdIJp
p1514
I1
sVhttp://fb.me/1Lxh0KbsJ
p1515
I1
sVhttp://fb.me/1ct5Gm1Jx
p1516
I1
sVhttp://fb.me/4toBeHIuL
p1517
I1
sVhttp://fb.me/5MlrdnvIB
p1518
I1
sVhttp://fb.me/HUlIkj8j
p1519
I1
sVhttp://fb.me/8hTzK9Gbt
p1520
I1
sVhttp://fb.me/7gqUVesDx
p1521
I1
sVhttp://fb.me/3dtgiBSy4
p1522
I1
sVhttp://fb.me/1KGwOqysI
p1523
I1
sVhttp://fb.me/6P8QNKvFs
p1524
I1
sVhttp://fb.me/4pp18pI3T
p1525
I1
sVhttp://fb.me/8mbxMXywT
p1526
I1
sVhttp://fb.me/8hMbg4ND9
p1527
I1
sVhttp://fb.me/7Zp6wGJhP
p1528
I1
sVhttp://fb.me/2SPlXLq7u
p1529
I1
sVhttp://fb.me/8Ek44hfep
p1530
I1
sVhttp://fb.me/39w4M7tsF
p1531
I1
sVhttp://fb.me/7JXzJxV5m
p1532
I1
sVhttp://fb.me/8hUPV6bbQ
p1533
I1
sVhttp://fb.me/185a1Do5s
p1534
I1
sVhttp://fb.me/8KmPBZtph
p1535
I1
sVhttp://fb.me/6qrvR0Okb
p1536
I1
sVhttp://fb.me/LAb5X9FM
p1537
I1
sVhttp://fb.me/6rSuo03xf
p1538
I1
sVhttp://fb.me/1a6uqI0Xy
p1539
I1
sVhttp://fb.me/19oQhCu2f
p1540
I1
sVhttp://fb.me/5IPyeHHbE
p1541
I1
sVhttp://fb.me/5L0bajOA1
p1542
I1
sVhttp://fb.me/63rmNzMkB
p1543
I1
sVhttp://fb.me/1HQbbgfmC
p1544
I1
sVhttp://fb.me/6ttNe2NHl
p1545
I1
sVhttp://fb.me/8AwqkECjv
p1546
I1
sVhttp://fb.me/S7QYni7s
p1547
I1
sVhttp://fb.me/5NEekBGWA
p1548
I1
sVhttp://fb.me/1RQKvJ1T4
p1549
I1
sVhttp://fb.me/5MAI3AS0D
p1550
I1
sVhttp://fb.me/3Rux6syZJ
p1551
I1
sVhttp://fb.me/HryLYCzh
p1552
I1
sVhttp://fb.me/6S2Zlc09S
p1553
I1
sVhttp://fb.me/4AbPrhJOx
p1554
I1
sVhttp://fb.me/6OCZ0K1sH
p1555
I1
sVhttp://fb.me/6vXcF6ajl
p1556
I1
sVhttp://fb.me/GqiLKClf
p1557
I1
sVhttp://fb.me/5J8PxJDmS
p1558
I1
sVhttp://fb.me/8bEizaGey
p1559
I1
sVhttp://fb.me/5KDUCujDV
p1560
I1
sVhttp://fb.me/7Ax2QLiCv
p1561
I1
sVhttp://fb.me/5VZYU0Nt6
p1562
I1
sVhttp://fb.me/8v6DPEwIj
p1563
I1
sVhttp://fb.me/6hhrD8bx6
p1564
I1
sVhttp://fb.me/5KClCOWfT
p1565
I1
sVhttp://fb.me/67ZyWukds
p1566
I1
sVhttp://fb.me/6aJT26Bzg
p1567
I1
sVhttp://fb.me/7oryzsR6z
p1568
I1
sVhttp://fb.me/QkrZhGGf
p1569
I1
sVhttp://fb.me/8BV1O8FY8
p1570
I1
sVhttp://fb.me/8sevib1Fi
p1571
I1
sVhttp://fb.me/89sP3C7XJ
p1572
I1
sVhttp://fb.me/8peqCQLt2
p1573
I1
sVhttp://fb.me/90ubhXHbG
p1574
I1
sVhttp://fb.me/124kENtwq
p1575
I1
sVhttp://fb.me/8IZQ9pOiA
p1576
I1
sVhttp://fb.me/6BowneBIe
p1577
I1
sVhttp://fb.me/6MfEOcULG
p1578
I1
sVhttp://fb.me/UBHFwbzA
p1579
I1
sVhttp://fb.me/5PtKcttMl
p1580
I1
sVhttp://fb.me/KWJGlHpU
p1581
I1
sVhttp://fb.me/5T7NoGjPu
p1582
I1
sVhttp://fb.me/5P6nyNRA3
p1583
I1
sVhttp://fb.me/6DHFFYS6k
p1584
I1
sVhttp://fb.me/1bTMr7PCE
p1585
I1
sVhttp://fb.me/ZdsxneBN
p1586
I1
sVhttp://fb.me/1eYNnmKOY
p1587
I1
sVhttp://fb.me/68xVekalw
p1588
I1
sVhttp://fb.me/63nywtKnO
p1589
I1
sVhttp://fb.me/T9yK2WVx
p1590
I1
sVhttp://fb.me/8qEkKdV6e
p1591
I1
sVhttp://fb.me/3340GMefQ
p1592
I3
sVhttp://fb.me/3fMlNQkb7
p1593
I1
sVhttp://fb.me/1acO8BROK
p1594
I1
sVhttp://fb.me/1aEO5TF4T
p1595
I1
sVhttp://fb.me/1caLcniBG
p1596
I1
sVhttp://fb.me/7RBhpcgPR
p1597
I1
sVhttp://fb.me/3fHAIPeDC
p1598
I1
sVhttp://fb.me/1JXMQbTZC
p1599
I1
sVhttp://fb.me/1bOMXeT6p
p1600
I1
sVhttp://fb.me/1ZmTUVE4E
p1601
I1
sVhttp://fb.me/6Sd7rbxLI
p1602
I1
sVhttp://fb.me/4pOXXviap
p1603
I1
sVhttp://fb.me/1NIYLUWxS
p1604
I1
sVhttp://fb.me/3hH88b5B3
p1605
I1
sVhttp://fb.me/8pB3BE447
p1606
I1
sVhttp://fb.me/8sDkDfyZB
p1607
I1
sVhttp://fb.me/UnbOK4mF
p1608
I1
sVhttp://fb.me/4TwgnmCdr
p1609
I1
sVhttp://fb.me/5F8vlIAUp
p1610
I1
sVhttp://fb.me/7JJPASvel
p1611
I1
sVhttp://fb.me/1JAOKM4Ei
p1612
I1
sVhttp://fb.me/5lcsfp2tx
p1613
I1
sVhttp://fb.me/6LbH9r51l
p1614
I1
sVhttp://fb.me/8fKfh9FFb
p1615
I1
sVhttp://fb.me/8uIpCegWV
p1616
I1
sVhttp://fb.me/QoncNBrt
p1617
I1
sVhttp://fb.me/1OtL0d3BP
p1618
I1
sVhttp://fb.me/1UeNIL1RW
p1619
I1
sVhttp://fb.me/8ng7kx7nU
p1620
I1
sVhttp://fb.me/1MuFCLUPH
p1621
I1
sVhttp://fb.me/1JMSPeBYk
p1622
I1
sVhttp://fb.me/62TLs1wcD
p1623
I1
sVhttp://fb.me/1mEdgM1oG
p1624
I1
sVhttp://fb.me/2TyP5KBS0
p1625
I1
sVhttp://fb.me/UfF6o8EP
p1626
I1
sVhttp://fb.me/3hjwhMBwT
p1627
I1
sVhttp://fb.me/3z10ZpwCi
p1628
I1
sVhttp://fb.me/3sXRIEoa6
p1629
I1
sVhttp://fb.me/1IDhCSmCw
p1630
I1
sVhttp://fb.me/14xbJbYlw
p1631
I1
sVhttp://fb.me/2hyN8XeJ8
p1632
I1
sVhttp://fb.me/3tcXrtLQ4
p1633
I1
sVhttp://fb.me/4qVC2zB4j
p1634
I1
sVhttp://fb.me/41tq9DhE5
p1635
I1
sVhttp://fb.me/8Kj6GXgsK
p1636
I1
sVhttp://fb.me/5dyOi4rrb
p1637
I1
sVhttp://fb.me/4IxpsWlHX
p1638
I1
sVhttp://fb.me/1KQcoXaj2
p1639
I1
sVhttp://fb.me/1756WTO9n
p1640
I1
sVhttp://fb.me/3aPfUdzHl
p1641
I1
sVhttp://fb.me/1FPUYgPd5
p1642
I1
sVhttp://fb.me/60zewN8AW
p1643
I1
sVhttp://fb.me/HYaIjAUQ
p1644
I1
sVhttp://fb.me/z7SGsH2K
p1645
I1
sVhttp://fb.me/ALRKCPWB
p1646
I1
sVhttp://fb.me/3Auytzu5J
p1647
I1
sVhttp://fb.me/ZRBbacgy
p1648
I1
sVhttp://fb.me/20nexrcLi
p1649
I1
sVhttp://fb.me/8qYpluj7c
p1650
I2
sVhttp://fb.me/8Eegpl3h8
p1651
I1
sVhttp://fb.me/8zQveiOlA
p1652
I1
sVhttp://fb.me/8mJuzd6Ei
p1653
I1
sVhttp://fb.me/8ufFFjnmI
p1654
I1
sVhttp://fb.me/5Etkz4Fom
p1655
I1
sVhttp://fb.me/11aEUbQZt
p1656
I1
sVhttp://fb.me/8jRG0EseE
p1657
I1
sVhttp://fb.me/8xxqrvJgQ
p1658
I1
sVhttp://fb.me/2SYbiSIOH
p1659
I1
sVhttp://fb.me/2L4eAGSuP
p1660
I1
sVhttp://fb.me/3soFP6zua
p1661
I1
sVhttp://fb.me/8i3CE0Xo5
p1662
I1
sVhttp://fb.me/7wg9JPWKu
p1663
I1
sVhttp://fb.me/1NE21rPmP
p1664
I1
sVhttp://fb.me/1RCP6E6JV
p1665
I1
sVhttp://fb.me/5DJKpIo80
p1666
I1
sVhttp://fb.me/1iGXPkkMm
p1667
I1
sVhttp://fb.me/4zaZMwKPe
p1668
I1
sVhttp://fb.me/8KwUxgPLv
p1669
I1
sVhttp://fb.me/1H0TiT6V3
p1670
I1
sVhttp://fb.me/5FSAEMeH1
p1671
I1
sVhttp://fb.me/8rzd13dw5
p1672
I1
sVhttp://fb.me/8whbwYNfx
p1673
I1
sVhttp://fb.me/8pZqEzhPp
p1674
I1
sVhttp://fb.me/11ovAUVWC
p1675
I1
sVhttp://fb.me/3NOvcmL5d
p1676
I1
sVhttp://fb.me/7ZL2O0H0j
p1677
I1
sVhttp://fb.me/10h0ZvQrp
p1678
I1
sVhttp://fb.me/8y2rokTfJ
p1679
I3
sVhttp://fb.me/16rvdKUbD
p1680
I1
sVhttp://fb.me/5Oq8F2qZE
p1681
I1
sVhttp://fb.me/5Nlkzzy8h
p1682
I1
sVhttp://fb.me/YI3y6yAJ
p1683
I1
sVhttp://fb.me/5CagvaTjW
p1684
I1
sVhttp://fb.me/1VgnxYuwd
p1685
I1
sVhttp://fb.me/4qM5S5Lxe
p1686
I1
sVhttp://fb.me/1JfggkWBX
p1687
I1
sVhttp://fb.me/82cSUCDX8
p1688
I1
sVhttp://fb.me/De9UwyGU
p1689
I1
sVhttp://fb.me/6Z1JQNunN
p1690
I1
sVhttp://fb.me/6Cl7dVm9v
p1691
I1
sVhttp://fb.me/3HNcwcYEf
p1692
I1
sVhttp://fb.me/8l21JNZ4r
p1693
I1
sVhttp://fb.me/DcV7Z86t
p1694
I1
sVhttp://fb.me/3yUnARK9Z
p1695
I1
sVhttp://fb.me/62B8zHWEP
p1696
I1
sVhttp://fb.me/1QkjDhmN3
p1697
I1
sVhttp://fb.me/W6eyFlqo
p1698
I1
sVhttp://fb.me/1JEtkGxOl
p1699
I1
sVhttp://fb.me/7xT5qdOLN
p1700
I1
sVhttp://fb.me/7tQa8Csjr
p1701
I1
sVhttp://fb.me/8uCTDpA7Z
p1702
I1
sVhttp://fb.me/3AdsKMdSd
p1703
I1
sVhttp://fb.me/5JVUl9Nvy
p1704
I1
sVhttp://fb.me/8sCQKhY2X
p1705
I1
sVhttp://fb.me/7TY0mpEeh
p1706
I1
sVhttp://fb.me/1KUHUUGLt
p1707
I1
sVhttp://fb.me/6Z6zLoo3P
p1708
I1
sVhttp://fb.me/7ZolUgh62
p1709
I1
sVhttp://fb.me/7x4WswaAr
p1710
I1
sVhttp://fb.me/xk1Iagg3
p1711
I1
sVhttp://fb.me/8uacaNgrh
p1712
I1
sVhttp://fb.me/ZHn878ic
p1713
I1
sVhttp://fb.me/NQay5jxK
p1714
I1
sVhttp://fb.me/3f8n3q9In
p1715
I1
sVhttp://fb.me/1HgbTC2VS
p1716
I1
sVhttp://fb.me/3m5yJhvp5
p1717
I1
sVhttp://fb.me/1N14jYJqD
p1718
I1
sVhttp://fb.me/8EYJoJhxC
p1719
I1
sVhttp://fb.me/V96c6A45
p1720
I1
sVhttp://fb.me/861KOs9yI
p1721
I1
sVhttp://fb.me/5OjA20CwC
p1722
I1
sVhttp://fb.me/1Kw9WkEf1
p1723
I1
sVhttp://fb.me/7xfMV4T6e
p1724
I1
sVhttp://fb.me/7TnHNPSam
p1725
I2
sVhttp://fb.me/2QwCqoLt2
p1726
I1
sVhttp://fb.me/5DGKmPycz
p1727
I1
sVhttp://fb.me/8j6dI8xLn
p1728
I1
sVhttp://fb.me/1Q3j1SQof
p1729
I1
sVhttp://fb.me/8KWVlPn3a
p1730
I1
sVhttp://fb.me/690hBFGpP
p1731
I1
sVhttp://fb.me/6GcofPfNs
p1732
I1
sVhttp://fb.me/1enbvQzmQ
p1733
I1
sVhttp://fb.me/8z4RrnRlN
p1734
I1
sVhttp://fb.me/36nM10wCL
p1735
I1
sVhttp://fb.me/93K6wiVql
p1736
I1
sVhttp://fb.me/Lb0ZetKh
p1737
I1
sVhttp://fb.me/10IOQX7S2
p1738
I1
sVhttp://fb.me/5eNAYizZI
p1739
I1
sVhttp://fb.me/t60pCBVK
p1740
I1
sVhttp://fb.me/tknb6QWu
p1741
I1
sVhttp://fb.me/8rbun2iqN
p1742
I1
sVhttp://fb.me/8mcfv93pZ
p1743
I1
sVhttp://fb.me/1Tv85d7GS
p1744
I1
sVhttp://fb.me/NgiHL9cT
p1745
I1
sVhttp://fb.me/8hUIyJx22
p1746
I1
sVhttp://fb.me/1aLv3i6wI
p1747
I1
sVhttp://fb.me/1PLskM6Mu
p1748
I1
sVhttp://fb.me/5Vn5LqBis
p1749
I1
sVhttp://fb.me/8rvKklPs9
p1750
I1
sVhttp://fb.me/3816c2pEj
p1751
I1
sVhttp://fb.me/5echrJkMC
p1752
I1
sVhttp://fb.me/1g3FzY45r
p1753
I1
sVhttp://fb.me/1EPKsTcBd
p1754
I1
sVhttp://fb.me/7c2ksl8aL
p1755
I1
sVhttp://fb.me/5aJForjNk
p1756
I1
sVhttp://fb.me/1J6PXHTty
p1757
I1
sVhttp://fb.me/6i5P0BIzQ
p1758
I1
sVhttp://fb.me/8DVPPhcbY
p1759
I1
sVhttp://fb.me/5Bz3kHUjY
p1760
I1
sVhttp://fb.me/74kNHvEcX
p1761
I1
sVhttp://fb.me/8GMhhBrIt
p1762
I1
sVhttp://fb.me/384fmURVr
p1763
I1
sVhttp://fb.me/7q4Mugdwv
p1764
I1
sVhttp://fb.me/2QglP53TT
p1765
I1
sVhttp://fb.me/7VM4AwgDw
p1766
I1
sVhttp://fb.me/8ydNdrqH0
p1767
I1
sVhttp://fb.me/1d4lP7Sgk
p1768
I1
sVhttp://fb.me/1FYCBOJdx
p1769
I1
sVhttp://fb.me/2YFZ3pWh0
p1770
I1
sVhttp://fb.me/6yapDkyOI
p1771
I1
sVhttp://fb.me/7vznmsji6
p1772
I1
sVhttp://fb.me/3aoeu0exw
p1773
I1
sVhttp://fb.me/89iplN7qo
p1774
I1
sVhttp://fb.me/13xGS5vGw
p1775
I1
sVhttp://fb.me/7xztvtx8I
p1776
I1
sVhttp://fb.me/1Q9m3VoBz
p1777
I1
sVhttp://fb.me/3R3AsrjFl
p1778
I1
sVhttp://fb.me/1uvC8n0U9
p1779
I1
sVhttp://fb.me/5ARWoxM7L
p1780
I1
sVhttp://fb.me/1R2eYgiTy
p1781
I1
sVhttp://fb.me/13vkRMeRY
p1782
I1
sVhttp://fb.me/1eB3grm2h
p1783
I1
sVhttp://fb.me/NkXCDjQx
p1784
I1
sVhttp://fb.me/86xqJ9dQC
p1785
I1
sVhttp://fb.me/35zkZ2OIT
p1786
I1
sVhttp://fb.me/8xRpFAopW
p1787
I1
sVhttp://fb.me/4Ydg4QRJO
p1788
I1
sVhttp://fb.me/54L45sqjQ
p1789
I1
sVhttp://fb.me/1KkOJlyYE
p1790
I1
sVhttp://fb.me/2RNmSZ5pX
p1791
I1
sVhttp://fb.me/5LR9086Rh
p1792
I1
sVhttp://fb.me/2YLydCNd3
p1793
I1
sVhttp://fb.me/4UryctIYS
p1794
I1
sVhttp://fb.me/1fH61s1fm
p1795
I1
sVhttp://fb.me/1FxyNatPD
p1796
I1
sVhttp://fb.me/1MS3djVNF
p1797
I1
sVhttp://fb.me/1MfuX9i2P
p1798
I1
sVhttp://fb.me/RKqY2lxf
p1799
I1
sVhttp://fb.me/8yWBWYrKU
p1800
I1
sVhttp://fb.me/4UZdglXoD
p1801
I1
sVhttp://fb.me/6qPifnCYe
p1802
I1
sVhttp://fb.me/1NSz9R5Bk
p1803
I1
sVhttp://fb.me/173dQDTYY
p1804
I1
sVhttp://fb.me/8hXOc7nfH
p1805
I1
sVhttp://fb.me/9mRrnRJRh
p1806
I1
sVhttp://fb.me/5Jj7DprwK
p1807
I1
sVhttp://fb.me/8lU6ki1kV
p1808
I1
sVhttp://fb.me/2h4fkCI4R
p1809
I1
sVhttp://fb.me/7zlaAde6q
p1810
I1
sVhttp://fb.me/6srdqSoN2
p1811
I1
sVhttp://fb.me/4mpGn5coc
p1812
I1
sVhttp://fb.me/8AuTrnbnk
p1813
I1
sVhttp://fb.me/UyGP0q6a
p1814
I1
sVhttp://fb.me/7ZKhKvBQI
p1815
I1
sVhttp://fb.me/6dBnJbJF8
p1816
I1
sVhttp://fb.me/1Irap3FVc
p1817
I1
sVhttp://fb.me/1FRijo9x3
p1818
I1
sVhttp://fb.me/8nNaGd21Q
p1819
I1
sVhttp://fb.me/7WU5C7yUK
p1820
I1
sVhttp://fb.me/VrMvnkeh
p1821
I1
sVhttp://fb.me/8ALZ0t8z6
p1822
I1
sVhttp://fb.me/xzxgEsPb
p1823
I1
sVhttp://fb.me/6vih6Z2KC
p1824
I1
sVhttp://fb.me/1cFcDHJI2
p1825
I1
sVhttp://fb.me/3jlH4onUO
p1826
I1
sVhttp://fb.me/8rr1BJXcU
p1827
I1
sVhttp://fb.me/4msgy3bSw
p1828
I1
sVhttp://fb.me/6DlZzom8b
p1829
I1
sVhttp://fb.me/B0ujPHza
p1830
I1
sVhttp://fb.me/4CjtIpCLN
p1831
I1
sVhttp://fb.me/16uVgedHZ
p1832
I1
sVhttp://fb.me/3qN7foU92
p1833
I1
sVhttp://fb.me/390eZbrHX
p1834
I1
sVhttp://fb.me/5zceBIFds
p1835
I1
sVhttp://fb.me/19xU9gPFE
p1836
I1
sVhttp://fb.me/4JUHeTx3Z
p1837
I1
sVhttp://fb.me/5m14smKWP
p1838
I1
sVhttp://fb.me/5C3yhJeHl
p1839
I1
sVhttp://fb.me/1fIJQtl0K
p1840
I1
sVhttp://fb.me/7sGaTAz9e
p1841
I1
sVhttp://fb.me/1MP70qOlC
p1842
I1
sVhttp://fb.me/5GNrqF1XA
p1843
I1
sVhttp://fb.me/8nvHdsOhi
p1844
I1
sVhttp://fb.me/5DbROF11b
p1845
I1
sVhttp://fb.me/8gaQ22T83
p1846
I1
sVhttp://fb.me/6rcfJNIKz
p1847
I1
sVhttp://fb.me/5LEjb5b4d
p1848
I1
sVhttp://fb.me/4WrOrJ5kl
p1849
I1
sVhttp://fb.me/8ezZYC8Cb
p1850
I1
sVhttp://fb.me/37OGh9U6w
p1851
I1
sVhttp://fb.me/MWQQL6kf
p1852
I1
sVhttp://fb.me/1esjessmL
p1853
I1
sVhttp://fb.me/140HtJQp8
p1854
I1
sVhttp://fb.me/2LFNYmmQN
p1855
I1
sVhttp://fb.me/6NcYK8cRK
p1856
I1
sVhttp://fb.me/M3BhfmgQ
p1857
I1
sVhttp://fb.me/ZQKhmKf5
p1858
I1
sVhttp://fb.me/8uItfAC3K
p1859
I1
sVhttp://fb.me/Dc1LtctA
p1860
I1
sVhttp://fb.me/2RgVnCRkk
p1861
I1
sVhttp://fb.me/3DsfpSGGU
p1862
I1
sVhttp://fb.me/1LQDMnrC7
p1863
I2
sVhttp://fb.me/61SF7p9HP
p1864
I1
sVhttp://fb.me/8rASOyRZF
p1865
I1
sVhttp://fb.me/66TCIR3Wg
p1866
I1
sVhttp://fb.me/5yW55CH22
p1867
I1
sVhttp://fb.me/3c7o6JBdj
p1868
I1
sVhttp://fb.me/5D2Fc1Gs0
p1869
I1
sVhttp://fb.me/7eOqOyZuS
p1870
I1
sVhttp://fb.me/4zCoeflhk
p1871
I1
sVhttp://fb.me/8yhB6D8NG
p1872
I1
sVhttp://fb.me/7tUyJIIqY
p1873
I1
sVhttp://fb.me/56LRBUFke
p1874
I1
sVhttp://fb.me/1O3PUIYZr
p1875
I1
sVhttp://fb.me/19VQowAQt
p1876
I1
sVhttp://fb.me/6x0nfQxAD
p1877
I1
sVhttp://fb.me/1MjpED69u
p1878
I1
sVhttp://fb.me/5HcGgS302
p1879
I1
sVhttp://fb.me/5QYrBz5eA
p1880
I1
sVhttp://fb.me/7z0ccgoIQ
p1881
I1
sVhttp://fb.me/6934owjr4
p1882
I1
sVhttp://fb.me/8uH4ZoNAF
p1883
I1
sVhttp://fb.me/t0SiEcBU
p1884
I1
sVhttp://fb.me/3kp5iDr5f
p1885
I1
sVhttp://fb.me/7JktvKP14
p1886
I1
sVhttp://fb.me/2J1TUugOm
p1887
I1
sVhttp://fb.me/1zbHAwFNg
p1888
I1
sVhttp://fb.me/68B00GZxt
p1889
I1
sVhttp://fb.me/ZDrqP0wK
p1890
I1
sVhttp://fb.me/4F6C40WoB
p1891
I1
sVhttp://fb.me/6B4w4o0Mc
p1892
I1
sVhttp://fb.me/3C4GjGHdQ
p1893
I1
sVhttp://fb.me/7GMfEn1N6
p1894
I1
sVhttp://fb.me/8FMx5SRrh
p1895
I1
sVhttp://fb.me/8TJra2CfH
p1896
I1
sVhttp://fb.me/1QwrybBNI
p1897
I1
sVhttp://fb.me/3xhpVjhF8
p1898
I1
sVhttp://fb.me/3EkwkqmOo
p1899
I1
sVhttp://fb.me/60wRuRIvX
p1900
I1
sVhttp://fb.me/1GaJJLMa2
p1901
I1
sVhttp://fb.me/2dxOyX79b
p1902
I1
sVhttp://fb.me/NP5bOsBI
p1903
I1
sVhttp://fb.me/7ZKuABimz
p1904
I1
sVhttp://fb.me/1KCVT0qrj
p1905
I1
sVhttp://fb.me/4QlBPHAwn
p1906
I2
sVhttp://fb.me/Pl6GNytQ
p1907
I1
sVhttp://fb.me/1eERPmhXs
p1908
I1
sVhttp://fb.me/1axSjUSg2
p1909
I1
sVhttp://fb.me/1SckuSzFZ
p1910
I1
sVhttp://fb.me/OQO5pSMr
p1911
I1
sVhttp://fb.me/26I7jMhaI
p1912
I1
sVhttp://fb.me/t2sei7QI
p1913
I1
sVhttp://fb.me/4DIOge7jz
p1914
I1
sVhttp://fb.me/7ResoCsPe
p1915
I1
sVhttp://fb.me/66fzR4kUA
p1916
I1
sVhttp://fb.me/15Amewohx
p1917
I1
sVhttp://fb.me/RtMyurtp
p1918
I1
sVhttp://fb.me/4l7pp81Q3
p1919
I1
sVhttp://fb.me/8lcjYXeGa
p1920
I1
sVhttp://fb.me/6JhwZgL4P
p1921
I1
sVhttp://fb.me/5Mv7Jqwtx
p1922
I1
sVhttp://fb.me/1ScIKRjQj
p1923
I1
sVhttp://fb.me/6xS8S7SA5
p1924
I1
sVhttp://fb.me/5FPpRXCzV
p1925
I1
sVhttp://fb.me/5OYBmAaFh
p1926
I1
sVhttp://fb.me/1MqpFRWnH
p1927
I1
sVhttp://fb.me/P0agdp77
p1928
I1
sVhttp://fb.me/1HOFvMhR0
p1929
I1
sVhttp://fb.me/8Bmxd4f3s
p1930
I1
sVhttp://fb.me/6zUu48yRu
p1931
I1
sVhttp://fb.me/3jgeII3ae
p1932
I1
sVhttp://fb.me/4AUbmCLvs
p1933
I1
sVhttp://fb.me/8kGXgTUCO
p1934
I1
sVhttp://fb.me/23tO5EX6F
p1935
I1
sVhttp://fb.me/8qy0UErRp
p1936
I1
sVhttp://fb.me/3vJQRZgUG
p1937
I1
sVhttp://fb.me/1JHrhbaxu
p1938
I1
sVhttp://fb.me/5MCQSPGDX
p1939
I1
sVhttp://fb.me/5MlFpC0yd
p1940
I1
sVhttp://fb.me/7nVt9pHIj
p1941
I2
sVhttp://fb.me/5OGVS3dT1
p1942
I1
sVhttp://fb.me/2ABDrqLKv
p1943
I1
sVhttp://fb.me/1McVGlQez
p1944
I2
sVhttp://fb.me/5S8Ouec21
p1945
I1
sVhttp://fb.me/GD5bEu30
p1946
I1
sVhttp://fb.me/2GrwarCi7
p1947
I1
sVhttp://fb.me/1M7Voo0Bt
p1948
I1
sVhttp://fb.me/5M6XgmaIK
p1949
I1
sVhttp://fb.me/7yIISjQQe
p1950
I1
sVhttp://fb.me/1a5GvdHh9
p1951
I1
sVhttp://fb.me/6zxKZ2m5k
p1952
I1
sVhttp://fb.me/1gejOyN6k
p1953
I1
sVhttp://fb.me/1iYVbg2tB
p1954
I1
sVhttp://fb.me/6mV56ebex
p1955
I1
sVhttp://fb.me/1C9tP3XDX
p1956
I1
sVhttp://fb.me/1POn5SPat
p1957
I1
sVhttp://fb.me/1z29tlZTL
p1958
I1
sVhttp://fb.me/8wqNaw5wu
p1959
I1
sVhttp://fb.me/1JJtrP0oB
p1960
I1
sVhttp://fb.me/7FhIPXxRf
p1961
I1
sVhttp://fb.me/JYZszd50
p1962
I1
sVhttp://fb.me/6yuELFynW
p1963
I1
sVhttp://fb.me/8wXEQK7D1
p1964
I1
sVhttp://fb.me/7Nm4paFIy
p1965
I1
sVhttp://fb.me/1N7uxG7j9
p1966
I1
sVhttp://fb.me/8tNWwUkCx
p1967
I1
sVhttp://fb.me/6uZY0h9xQ
p1968
I1
sVhttp://fb.me/8nFhj8fJp
p1969
I1
sVhttp://fb.me/1xRhuBOwx
p1970
I1
sVhttp://fb.me/2AONMz2Jf
p1971
I1
sVhttp://fb.me/2bkMhWfYK
p1972
I1
sVhttp://fb.me/5N8WqMo6O
p1973
I1
sVhttp://fb.me/89acoBVDZ
p1974
I1
sVhttp://fb.me/1J5vuzOGL
p1975
I1
sVhttp://fb.me/2Xcx3rrVW
p1976
I1
sVhttp://fb.me/1RWgvFI3O
p1977
I1
sVhttp://fb.me/102KzrLPe
p1978
I1
sVhttp://fb.me/2NI1lOscU
p1979
I1
sVhttp://fb.me/6AwAAdsNl
p1980
I1
sVhttp://fb.me/800pkAQsE
p1981
I1
sVhttp://fb.me/6mhLQa9ME
p1982
I1
sVhttp://fb.me/D11T5SW5
p1983
I1
sVhttp://fb.me/1fCE1DkEG
p1984
I1
sVhttp://fb.me/8FbVdrHKI
p1985
I1
sVhttp://fb.me/5FNj0Zs6j
p1986
I1
sVhttp://fb.me/5Jch1LjmR
p1987
I1
sVhttp://fb.me/2HeSGHjvY
p1988
I1
sVhttp://fb.me/1u9BIkX8R
p1989
I1
sVhttp://fb.me/2DTveNbLT
p1990
I1
sVhttp://fb.me/3q9Ut6swj
p1991
I1
sVhttp://fb.me/673Dbl84l
p1992
I1
sVhttp://fb.me/1WdEut2Ys
p1993
I1
sVhttp://fb.me/5zXkP9uDT
p1994
I2
sVhttp://fb.me/8p4G2P2yE
p1995
I1
sVhttp://fb.me/5xVqXi8zx
p1996
I1
sVhttp://fb.me/5B6wMaJ2s
p1997
I1
sVhttp://fb.me/5STJBoSV4
p1998
I1
sVhttp://fb.me/8nUuvLqm3
p1999
I1
sVhttp://fb.me/30Z2WIqCI
p2000
I1
sVhttp://fb.me/7wOvKwLWZ
p2001
I1
sVhttp://fb.me/4wqCdVno2
p2002
I1
sVhttp://fb.me/1PoqhHcQ9
p2003
I1
sVhttp://fb.me/1O5GKFng2
p2004
I1
sVhttp://fb.me/NTsvYKU5
p2005
I1
sVhttp://fb.me/8UeHTelZ1
p2006
I1
sVhttp://fb.me/NJeyNl6c
p2007
I1
sVhttp://fb.me/3eGYufKHg
p2008
I1
sVhttp://fb.me/8MBvgv1ij
p2009
I1
sVhttp://fb.me/7xRPpr12X
p2010
I1
sVhttp://fb.me/8qd8SzTrz
p2011
I1
sVhttp://fb.me/UXVvXRUo
p2012
I1
sVhttp://fb.me/8u2ZNGS6t
p2013
I1
sVhttp://fb.me/86AE4M33v
p2014
I1
sVhttp://fb.me/5MuHqF7J5
p2015
I1
sVhttp://fb.me/1HXuEVXFI
p2016
I1
sVhttp://fb.me/2Z7t2HSA0
p2017
I1
sVhttp://fb.me/4WwsyKm0E
p2018
I1
sVhttp://fb.me/7yGvdXbMd
p2019
I1
sVhttp://fb.me/2K1DmRyPZ
p2020
I1
sVhttp://fb.me/1fFy8mrof
p2021
I1
sVhttp://fb.me/1MfqgAOGP
p2022
I1
sVhttp://fb.me/8nbXicSCU
p2023
I1
sVhttp://fb.me/5GhSWCbit
p2024
I1
sVhttp://fb.me/8CqeTwdZd
p2025
I1
sVhttp://fb.me/1T9vhsbnU
p2026
I1
sVhttp://fb.me/2AOLyJoKa
p2027
I1
sVhttp://fb.me/Yiu0jbm8
p2028
I1
sVhttp://fb.me/1cmQDqBwL
p2029
I1
sVhttp://fb.me/2OAbApahw
p2030
I1
sVhttp://fb.me/8DTPG3zkj
p2031
I1
sVhttp://fb.me/5s0KtGUJD
p2032
I1
sVhttp://fb.me/8v0gLxcLm
p2033
I1
sVhttp://fb.me/3rTrekPN5
p2034
I1
sVhttp://fb.me/4MyA8NUPE
p2035
I1
sVhttp://fb.me/7yBkCG6qD
p2036
I1
sVhttp://fb.me/Rp1c6ude
p2037
I1
sVhttp://fb.me/82EZXOYNe
p2038
I1
sVhttp://fb.me/8yEq8kVjq
p2039
I1
sVhttp://fb.me/63pyRcvMv
p2040
I1
sVhttp://fb.me/8nwMD7u9N
p2041
I1
sVhttp://fb.me/2LDQIu3tV
p2042
I1
sVhttp://fb.me/1JmQXVWmQ
p2043
I1
sVhttp://fb.me/6nFCkcz6e
p2044
I1
sVhttp://fb.me/5FShPOY2Q
p2045
I1
sVhttp://fb.me/7PPgxX9OL
p2046
I1
sVhttp://fb.me/5Zm2xmgYq
p2047
I1
sVhttp://fb.me/10yULf2C7
p2048
I1
sVhttp://fb.me/5rd9lI6w7
p2049
I1
sVhttp://fb.me/1RnIhsMKy
p2050
I1
sVhttp://fb.me/6fhAalBlQ
p2051
I1
sVhttp://fb.me/8zzs3RW3j
p2052
I1
sVhttp://fb.me/3dnMBUsps
p2053
I1
sVhttp://fb.me/19x1qsww2
p2054
I1
sVhttp://fb.me/1KS7rdMd9
p2055
I1
sVhttp://fb.me/8iMUpgo6G
p2056
I1
sVhttp://fb.me/a86Tniy77
p2057
I1
sVhttp://fb.me/36koCjEiw
p2058
I1
sVhttp://fb.me/116SNjXw6
p2059
I1
sVhttp://fb.me/1SiydGQsa
p2060
I1
sVhttp://fb.me/3hKKQOxYJ
p2061
I1
sVhttp://fb.me/6ngpi6SZ5
p2062
I1
sVhttp://fb.me/4YuFi6JM1
p2063
I1
sVhttp://fb.me/5I61qcPKP
p2064
I1
sVhttp://fb.me/11eUJEy59
p2065
I1
sVhttp://fb.me/1FWXZCrdA
p2066
I1
sVhttp://fb.me/twclNqLg
p2067
I1
sVhttp://fb.me/ZBR9K5WD
p2068
I1
sVhttp://fb.me/1LuVGCqc7
p2069
I1
sVhttp://fb.me/7p6uoJ39v
p2070
I1
sVhttp://fb.me/UQmx4qbo
p2071
I1
sVhttp://fb.me/MCZ14FJZ
p2072
I1
sVhttp://fb.me/7A2xIGGwE
p2073
I1
sVhttp://fb.me/1fGafPaYh
p2074
I1
sVhttp://fb.me/7xJItBaKM
p2075
I1
sVhttp://fb.me/8eBa8cHKB
p2076
I1
sVhttp://fb.me/8z6QWTEH6
p2077
I1
sVhttp://fb.me/71P1PKBzW
p2078
I1
sVhttp://fb.me/6BeTUgfMa
p2079
I1
sVhttp://fb.me/8lsMpS6t1
p2080
I1
sVhttp://fb.me/7ylffKsml
p2081
I1
sVhttp://fb.me/1dHrAIFoT
p2082
I1
sVhttp://fb.me/1lGIslCOi
p2083
I1
sVhttp://fb.me/3rJkmmOch
p2084
I1
sVhttp://fb.me/9BB2RnJZt
p2085
I1
sVhttp://fb.me/6ttGnIEAM
p2086
I1
sVhttp://fb.me/146z9vhM9
p2087
I1
sVhttp://fb.me/4MKOKN0se
p2088
I1
sVhttp://fb.me/4uNyc2RNp
p2089
I1
sVhttp://fb.me/86DIqYAw2
p2090
I1
sVhttp://fb.me/6H6wDl1ca
p2091
I1
sVhttp://fb.me/3dB0Le9Ly
p2092
I1
sVhttp://fb.me/8xCTPg4ge
p2093
I1
sVhttp://fb.me/1xwJslZUy
p2094
I1
sVhttp://fb.me/7h0uBcUlP
p2095
I1
sVhttp://fb.me/F2XObx4q
p2096
I1
sVhttp://fb.me/8yo1KuN6A
p2097
I1
sVhttp://fb.me/8tLCUO50P
p2098
I1
sVhttp://fb.me/1aQCO9TCe
p2099
I1
sVhttp://fb.me/OSCNahZd
p2100
I1
sVhttp://fb.me/8tfVs0QDN
p2101
I1
sVhttp://fb.me/yx91ILBr
p2102
I1
sVhttp://fb.me/6tSWSliwC
p2103
I1
sVhttp://fb.me/2aFUktOCZ
p2104
I1
sVhttp://fb.me/7U0S6XwXx
p2105
I1
sVhttp://fb.me/19acVeDzK
p2106
I1
sVhttp://fb.me/1i6LpLwij
p2107
I1
sVhttp://fb.me/32xnSis2Y
p2108
I1
sVhttp://fb.me/1UZLZvTJH
p2109
I1
sVhttp://fb.me/1PDW28DvO
p2110
I1
sVhttp://fb.me/8B7TbaNPJ
p2111
I1
sVhttp://fb.me/3NgTFxeZ5
p2112
I1
sVhttp://fb.me/8rQfc7LDY
p2113
I1
sVhttp://fb.me/1awUjMhV0
p2114
I1
sVhttp://fb.me/665VKAmBl
p2115
I1
sVhttp://fb.me/3yIAxHbxa
p2116
I1
sVhttp://fb.me/3zjZPOEuJ
p2117
I1
sVhttp://fb.me/7FMZoLUUd
p2118
I1
sVhttp://fb.me/3tgk51xkG
p2119
I1
sVhttp://fb.me/HrOTM12R
p2120
I1
sVhttp://fb.me/1adl7jXqb
p2121
I1
sVhttp://fb.me/1JhzwyzeP
p2122
I1
sVhttp://fb.me/3wdVzDbCp
p2123
I1
sVhttp://fb.me/8AukCw8WV
p2124
I1
sVhttp://fb.me/1LvtXDGI9
p2125
I1
sVhttp://fb.me/1KdOJsxpI
p2126
I1
sVhttp://fb.me/8tMRmmK54
p2127
I1
sVhttp://fb.me/8l0JQCaUY
p2128
I1
sVhttp://fb.me/6oQEbRN4i
p2129
I1
sVhttp://fb.me/ZjNa7DDj
p2130
I1
sVhttp://fb.me/53GMQ84FT
p2131
I1
sVhttp://fb.me/3BMR1qJQJ
p2132
I1
sVhttp://fb.me/1VZmZR2jP
p2133
I1
sVhttp://fb.me/1MJrxXGGi
p2134
I1
sVhttp://fb.me/Fd9SY0D0
p2135
I1
sVhttp://fb.me/7yHcaxMzH
p2136
I1
sVhttp://fb.me/85YIZu2MJ
p2137
I1
sVhttp://fb.me/8xqENyZtg
p2138
I1
sVhttp://fb.me/8BRYTuDCm
p2139
I1
sVhttp://fb.me/8g7zq4FB2
p2140
I1
sVhttp://fb.me/1TQy2qfMQ
p2141
I1
sVhttp://fb.me/4gWbTVewo
p2142
I1
sVhttp://fb.me/2ZKWGB3EW
p2143
I1
sVhttp://fb.me/2OcVpnnpw
p2144
I1
sVhttp://fb.me/6Z6vORaew
p2145
I1
sVhttp://fb.me/19aDGc4uw
p2146
I1
sVhttp://fb.me/ORdBrZIC
p2147
I1
sVhttp://fb.me/61CjZGTCv
p2148
I1
sVhttp://fb.me/6idilC9fy
p2149
I1
sVhttp://fb.me/3xcAkzf1c
p2150
I1
sVhttp://fb.me/2CbEeOKr8
p2151
I23
sVhttp://fb.me/5TQeypOT3
p2152
I1
sVhttp://fb.me/6cRFC1i6h
p2153
I1
sVhttp://fb.me/8mMb4fqzJ
p2154
I1
sVhttp://fb.me/1UfY7sUDU
p2155
I1
sVhttp://fb.me/1O4TJNuDy
p2156
I1
sVhttp://fb.me/9kNGbnPcm
p2157
I1
sVhttp://fb.me/3gaOMH1sw
p2158
I1
sVhttp://fb.me/3pV7SRd7w
p2159
I1
sVhttp://fb.me/1T307ppqX
p2160
I1
sVhttp://fb.me/8oTQCMuIS
p2161
I1
sVhttp://fb.me/3frfhu6qb
p2162
I1
sVhttp://fb.me/NLi9bONp
p2163
I1
sVhttp://fb.me/35wBv1NtZ
p2164
I1
sVhttp://fb.me/3cPvnpLvK
p2165
I2
sVhttp://fb.me/10oFKRzMJ
p2166
I1
sVhttp://fb.me/1TvF6p2Nb
p2167
I1
sVhttp://fb.me/6eucLJkKN
p2168
I1
sVhttp://fb.me/8muRF1BKp
p2169
I1
sVhttp://fb.me/M4GK3OB1
p2170
I1
sVhttp://fb.me/7PhTTjJNg
p2171
I1
sVhttp://fb.me/8ERrsHZB3
p2172
I1
sVhttp://fb.me/8Vx8TlN47
p2173
I1
sVhttp://fb.me/8aO8JAl2V
p2174
I1
sVhttp://fb.me/NuVTLCXS
p2175
I1
sVhttp://fb.me/5HbVKiPWK
p2176
I1
sVhttp://fb.me/11XxjuYLT
p2177
I1
sVhttp://fb.me/5YHTvqLfC
p2178
I1
sVhttp://fb.me/8sPWFkwRf
p2179
I1
sVhttp://fb.me/38ERgHW4i
p2180
I1
sVhttp://fb.me/6Shxn68zi
p2181
I1
sVhttp://fb.me/1UnZYPQYF
p2182
I1
sVhttp://fb.me/7tgdzsNX2
p2183
I1
sVhttp://fb.me/NzPh7uoU
p2184
I1
sVhttp://fb.me/579WPUGUw
p2185
I2
sVhttp://fb.me/1X3INQ9fA
p2186
I1
sVhttp://fb.me/5ur6SEDHe
p2187
I1
sVhttp://fb.me/87PRYPJVp
p2188
I1
sVhttp://fb.me/8lH8YJ7Bz
p2189
I1
sVhttp://fb.me/1ftHwlkpE
p2190
I1
sVhttp://fb.me/10IvdUSYb
p2191
I1
sVhttp://fb.me/LmR2hIks
p2192
I1
sVhttp://fb.me/YC0GTnCt
p2193
I1
sVhttp://fb.me/608AuS9WI
p2194
I1
sVhttp://fb.me/7E9O8czW1
p2195
I1
sVhttp://fb.me/ua0JKxH8
p2196
I1
sVhttp://fb.me/8bWgqUsu7
p2197
I1
sVhttp://fb.me/LeoMXYJS
p2198
I1
sVhttp://fb.me/8J8xJlTtg
p2199
I1
sVhttp://fb.me/8wJWtg3tU
p2200
I1
sVhttp://fb.me/YqpnetRY
p2201
I1
sVhttp://fb.me/6b6fwZHPr
p2202
I1
sVhttp://fb.me/1cI1n0YVA
p2203
I1
sVhttp://fb.me/6b5U649vJ
p2204
I1
sVhttp://fb.me/6kGxb5s89
p2205
I1
sVhttp://fb.me/1bwrFbahM
p2206
I1
sVhttp://fb.me/3b8ZKXXgo
p2207
I1
sVhttp://fb.me/1V4wlpHc9
p2208
I1
sVhttp://fb.me/141wJNcms
p2209
I1
sVhttp://fb.me/6zGyYUoQC
p2210
I1
sVhttp://fb.me/NeRXIFzU
p2211
I1
sVhttp://fb.me/66CHIbAyI
p2212
I1
sVhttp://fb.me/8qlXY7Hpk
p2213
I1
sVhttp://fb.me/19y9NhSkG
p2214
I1
sVhttp://fb.me/1RDNrZcu1
p2215
I1
sVhttp://fb.me/8kOeMYSQd
p2216
I3
sVhttp://fb.me/466T3XOB5
p2217
I1
sVhttp://fb.me/1TTlpAHG8
p2218
I1
sVhttp://fb.me/4mdNjVeYm
p2219
I1
sVhttp://fb.me/O44GdaHZ
p2220
I1
sVhttp://fb.me/Z3oDVYgN
p2221
I1
sVhttp://fb.me/8iCuaISwK
p2222
I1
sVhttp://fb.me/63mPgpQsw
p2223
I1
sVhttp://fb.me/1i2YBlX4t
p2224
I1
sVhttp://fb.me/2FSXA7ZQl
p2225
I1
sVhttp://fb.me/2KhHyVAMQ
p2226
I1
sVhttp://fb.me/3zBqMGaQt
p2227
I1
sVhttp://fb.me/3BeSrJOkS
p2228
I1
sVhttp://fb.me/30FAzs3nm
p2229
I1
sVhttp://fb.me/8tEfpbzFt
p2230
I1
sVhttp://fb.me/5EyHOuyg7
p2231
I1
sVhttp://fb.me/8zZZpapEY
p2232
I1
sVhttp://fb.me/8rmsflaHM
p2233
I1
sVhttp://fb.me/2gL8h5ntd
p2234
I1
sVhttp://fb.me/1H0685VFF
p2235
I1
sVhttp://fb.me/6XfmSFqPR
p2236
I1
sVhttp://fb.me/5e0gEKvqM
p2237
I1
sVhttp://fb.me/NRC7MFuW
p2238
I1
sVhttp://fb.me/5Jr2aFT6S
p2239
I1
sVhttp://fb.me/1UZcCAPA0
p2240
I1
sVhttp://fb.me/8xV33JoUS
p2241
I1
sVhttp://fb.me/4eTIGIHef
p2242
I1
sVhttp://fb.me/2fxle2BN0
p2243
I1
sVhttp://fb.me/Txr7hinB
p2244
I1
sVhttp://fb.me/5Y08q9oax
p2245
I2
sVhttp://fb.me/5IlWobzFO
p2246
I1
sVhttp://fb.me/5LcwbyA7H
p2247
I1
sVhttp://fb.me/8htBthzSL
p2248
I1
sVhttp://fb.me/6gqe5eRZ0
p2249
I1
sVhttp://fb.me/1UllqIsAE
p2250
I1
sVhttp://fb.me/2LO0rjnui
p2251
I1
sVhttp://fb.me/6shcMSQ5C
p2252
I1
sVhttp://fb.me/2K8g7tUZ7
p2253
I1
sVhttp://fb.me/57GtEQWp6
p2254
I1
sVhttp://fb.me/1WRspjV82
p2255
I1
sVhttp://fb.me/46jVdKHiJ
p2256
I1
sVhttp://fb.me/1WgjN3OYT
p2257
I1
sVhttp://fb.me/V5zHrJxu
p2258
I1
sVhttp://fb.me/7AiZ5Xyyx
p2259
I1
sVhttp://fb.me/3qq1OiApF
p2260
I1
sVhttp://fb.me/5SOle3zZY
p2261
I1
sVhttp://fb.me/3wPoq9ifG
p2262
I1
sVhttp://fb.me/8yv5YXY8Y
p2263
I1
sVhttp://fb.me/3CKHzJpLA
p2264
I1
sVhttp://fb.me/8r7D6XmGa
p2265
I1
sVhttp://fb.me/1eggu6WqW
p2266
I1
sVhttp://fb.me/36wpyZOQK
p2267
I1
sVhttp://fb.me/1aGOOYUpP
p2268
I1
sVhttp://fb.me/wH2rt2l5
p2269
I1
sVhttp://fb.me/8sqLSSrZh
p2270
I1
sVhttp://fb.me/40gUAj4XB
p2271
I1
sVhttp://fb.me/N2jFZGBh
p2272
I1
sVhttp://fb.me/NGA8lgRU
p2273
I1
sVhttp://fb.me/8t9EQ5ldO
p2274
I1
sVhttp://fb.me/8BB6aupAv
p2275
I1
sVhttp://fb.me/L7wkWHYB
p2276
I1
sVhttp://fb.me/7dwm6nIDl
p2277
I1
sVhttp://fb.me/6ljZthwwE
p2278
I1
sVhttp://fb.me/1J1qw2ATx
p2279
I1
sVhttp://fb.me/8KyczW14h
p2280
I1
sVhttp://fb.me/50yr4UABa
p2281
I1
sVhttp://fb.me/8tQPvVv4f
p2282
I1
sVhttp://fb.me/57Uc9kx1w
p2283
I1
sVhttp://fb.me/1SZs5yjuc
p2284
I1
sVhttp://fb.me/5QBV8lsQW
p2285
I1
sVhttp://fb.me/7Obage8YY
p2286
I1
sVhttp://fb.me/1USlUR0gY
p2287
I1
sVhttp://fb.me/7vbQq9rfs
p2288
I1
sVhttp://fb.me/5sKbcz3WN
p2289
I1
sVhttp://fb.me/3iXwPjcMv
p2290
I1
sVhttp://fb.me/GthNVcKz
p2291
I1
sVhttp://fb.me/8ojSElsb4
p2292
I1
sVhttp://fb.me/uQcMSGW9
p2293
I1
sVhttp://fb.me/4qW3hxlqS
p2294
I1
sVhttp://fb.me/5EYyNhUME
p2295
I1
sVhttp://fb.me/stAZQFVG
p2296
I1
sVhttp://fb.me/7kmSS4Vgz
p2297
I1
sVhttp://fb.me/1U6PfDkKY
p2298
I1
sVhttp://fb.me/1RRfn93h7
p2299
I1
sVhttp://fb.me/4vUsNJlcB
p2300
I1
sVhttp://fb.me/3oGMdBBAA
p2301
I1
sVhttp://fb.me/16qV72CoL
p2302
I1
sVhttp://fb.me/6iUBktmgl
p2303
I1
sVhttp://fb.me/31UoNyAWu
p2304
I1
sVhttp://fb.me/IZGOj7MJ
p2305
I1
sVhttp://fb.me/1ayTka4BA
p2306
I1
sVhttp://fb.me/7xmukFCKe
p2307
I1
sVhttp://fb.me/8mwRlAMjw
p2308
I1
sVhttp://fb.me/2LCI2fL67
p2309
I1
sVhttp://fb.me/5RIbck9aL
p2310
I1
sVhttp://fb.me/1JLv4aVl6
p2311
I1
sVhttp://fb.me/6FXsYqzLy
p2312
I1
sVhttp://fb.me/8hvjPBRoZ
p2313
I1
sVhttp://fb.me/1d7x74pD8
p2314
I1
sVhttp://fb.me/4BuqCANXT
p2315
I1
sVhttp://fb.me/7W5HiTwPH
p2316
I1
sVhttp://fb.me/PGQK9bdC
p2317
I1
sVhttp://fb.me/zCaeEkwG
p2318
I1
sVhttp://fb.me/8dN1kSFYx
p2319
I1
sVhttp://fb.me/3iRHmHEsS
p2320
I1
sVhttp://fb.me/TTvAQa7K
p2321
I1
sVhttp://fb.me/1NKuC0g5T
p2322
I1
sVhttp://fb.me/1bfOsiMVb
p2323
I1
sVhttp://fb.me/58rOqbgM6
p2324
I1
sVhttp://fb.me/5Frsbnk6E
p2325
I1
sVhttp://fb.me/137rUU2M8
p2326
I1
sVhttp://fb.me/V7QgXpUz
p2327
I1
sVhttp://fb.me/6lQgSbP3A
p2328
I1
sVhttp://fb.me/28oJ3F3vz
p2329
I1
sVhttp://fb.me/6voAoItAi
p2330
I1
sVhttp://fb.me/1853oamnC
p2331
I1
sVhttp://fb.me/1c8BYZVlo
p2332
I1
sVhttp://fb.me/38o2mztKg
p2333
I1
sVhttp://fb.me/8sj0egvID
p2334
I2
sVhttp://fb.me/2cECZ7sHN
p2335
I1
sVhttp://fb.me/1CXP25yj4
p2336
I1
sVhttp://fb.me/1PoMyJqm7
p2337
I1
sVhttp://fb.me/2L6QYmCdX
p2338
I1
sVhttp://fb.me/15mDO6MIL
p2339
I1
sVhttp://fb.me/5gSaPa6cy
p2340
I1
sVhttp://fb.me/8EAKWjIaF
p2341
I1
sVhttp://fb.me/1a504d9VO
p2342
I1
sVhttp://fb.me/7J8fOCs46
p2343
I1
sVhttp://fb.me/86wu85rGY
p2344
I1
sVhttp://fb.me/1LLk36F5X
p2345
I1
sVhttp://fb.me/1fbPgetPD
p2346
I1
sVhttp://fb.me/8DFuRI1a0
p2347
I1
sVhttp://fb.me/6uzklmzMS
p2348
I1
sVhttp://fb.me/5DxoYZ8rX
p2349
I1
sVhttp://fb.me/1IINnVUO9
p2350
I1
sVhttp://fb.me/3MAiY3JJ2
p2351
I1
sVhttp://fb.me/8gW8t02KL
p2352
I1
sVhttp://fb.me/3dViJwiZz
p2353
I1
sVhttp://fb.me/8aL065DAv
p2354
I1
sVhttp://fb.me/1hunTKoTz
p2355
I1
sVhttp://fb.me/4ZOaAb6fX
p2356
I1
sVhttp://fb.me/8yUaopLzG
p2357
I1
sVhttp://fb.me/TgE5LKaE
p2358
I1
sVhttp://fb.me/y487zyDr
p2359
I1
sVhttp://fb.me/6YX2ObIL6
p2360
I6
sVhttp://fb.me/1G2SD0uV6
p2361
I1
sVhttp://fb.me/1LuKNri2r
p2362
I1
sVhttp://fb.me/3syWtrWfR
p2363
I1
sVhttp://fb.me/NrQJg8ca
p2364
I1
sVhttp://fb.me/1X8KDedDz
p2365
I1
sVhttp://fb.me/7wE9VQR94
p2366
I1
sVhttp://fb.me/unhTaUeC
p2367
I1
sVhttp://fb.me/2U7xEaN53
p2368
I1
sVhttp://fb.me/8urqweiMY
p2369
I1
sVhttp://fb.me/5yB1lo5aL
p2370
I1
ssg1303
Vi posted a new video to facebook
p2371
sg1305
I2
sg1306
I20
sg1307
I2
sa(dp2372
g2
(dp2373
g4
I466
sg5
I0
ssg6
I466
sg7
g8
((lp2374
I792148977269563392
aI792130613730021376
aI833460460846510082
aI792177553268178947
aI792147042936188932
aI833466596110774277
aI833466624237830144
aI761043597500178433
aI761042580901466121
aI833463044776853506
aI833460238024114176
aI833465940935315459
aI833466467723132928
aI760997551617236996
aI833466449561792517
aI833459956598837248
aI761013633237123073
aI833466613898891270
aI833486198878269440
aI833461297098399748
aI833481116623450119
aI792078386344624128
aI833461624606425089
aI833473538593939456
aI833502160092475392
aI833477965870678017
aI833479362389303296
aI833462621466656768
aI775507118287884289
aI833478558379077632
aI833459996436361216
aI825050373593370624
aI775846136879976448
aI833470408925995008
aI833462523076702210
aI833499978983104513
aI792300479497826304
aI833475372700176384
aI761577011999567872
aI833476193685012484
aI833474732041187328
aI833476213930856448
aI792125382644338692
aI833465746575474688
aI833470417444667397
aI792264449612779520
aI833466493467758593
aI833461764108980225
aI833476060230582273
aI792239627541307392
aI833493902053216258
aI833477605672222720
aI833504910897328128
aI791939666291240960
aI833507581012357120
aI792261559154278401
aI833480617379581953
aI833483219529981954
aI833464123572764674
aI833473265301590016
aI833459302933336067
aI823230708537815041
aI792187146253795328
aI781273809315852288
aI833499960901509120
aI833462139188867072
aI761008968307249153
aI833471222499405827
aI792076285749170180
aI833468025923710976
aI833466122829705216
aI833466451965124608
aI833478991541473280
aI833472530488950784
aI833475006088704000
aI833469127780077568
aI833474345372631040
aI792412620464726017
aI791939845933248512
aI792158678329819136
aI792156475712045056
aI833467670586589185
aI792312244637949952
aI833478080916254721
aI792179440591704065
aI833462308248641536
aI761025832680775680
aI833478842538942464
aI833476667410485248
aI833480561750581251
aI833463100191961088
aI761017561181986816
aI792399715958681603
aI833472028623695872
aI791947125173002244
aI792438300242042880
aI833478543275339776
aI833475217225756672
aI833468689517314048
aI833468553105862656
aI833465068134232068
aI792240835219886080
aI833469317303906305
aI792215220303396864
aI833468812531884032
aI792303628178587648
aI792441183318466560
aI833461506717003778
aI791937330084839424
aI833473165657460737
aI833468362508337152
aI833490159555342336
aI833462775024349184
aI833460761183784960
aI833460048252780544
aI824310991878029314
aI761047730873446401
aI770930271818571776
aI833495061023248384
aI833500111405772800
aI833467316897615872
aI791943929750958084
aI792307256742346752
aI791947997261082624
aI833459978144989184
aI833465377652830208
aI833469163234541568
aI761030948687196165
aI792388851608260608
aI833482107397615616
aI833468074934288385
aI761033263859113984
aI833476550842515457
aI833469989000736768
aI833467994323968000
aI833462992020848642
aI833464484559716352
aI792378558438051841
aI792173261345943552
aI792252413642178561
aI833472422225514496
aI792306658403872769
aI791944328520212480
aI833464671948591104
aI792459450590388225
aI774632963459911680
aI833463089198747648
aI833469347096096768
aI761053924820291584
aI792399943591923716
aI769406796897411072
aI833473654470094848
aI794484181489373184
aI833495756258496513
aI833504984666812417
aI792417049616248832
aI761008890389692417
aI833469713397202944
aI833468252391165953
aI833464898168430592
aI833485483825045508
aI792316712133820416
aI833482763584012289
aI792408588689997825
aI833464850365833216
aI833477557072769024
aI763500676920008704
aI791934487361835010
aI833482175106293761
aI792450636113645569
aI833457661521694720
aI833470379041644544
aI779208240232009728
aI833473495879258112
aI833471013354549248
aI833480204534190081
aI833500010071281664
aI792314772393959424
aI792179318424268800
aI791959029660590081
aI833461749055578112
aI833485550527066112
aI833475983856459776
aI833470652027981825
aI792388897183522816
aI833485781238968321
aI833462156456771584
aI792477492418342913
aI833472163000832005
aI833472188552470529
aI833466441097682945
aI761002743406419968
aI761017416549752834
aI792300691394031616
aI833473886721277952
aI833458079433887744
aI833480597003726848
aI833491253756989440
aI833463453465636864
aI833468170228944897
aI761040808690659328
aI776190257515626496
aI833471516830474240
aI833468225547546625
aI833465005194543106
aI833472225068118016
aI833485057482424320
aI833496591138852864
aI833491754695286788
aI833469834931220480
aI792361306057826304
aI833499535729061888
aI833463073730134016
aI833467745266135040
aI833465641172615168
aI833469601216356357
aI792399263561093120
aI833462249067073538
aI792177768935092225
aI792199751055933440
aI833480748246106113
aI833466658656251904
aI792312484237565952
aI833460183456182274
aI833499089899655168
aI761023375208611840
aI792181566990610432
aI833461707204853760
aI833462495474020352
aI833484766099828736
aI833463753865908225
aI833473689727430659
aI833476724314738688
aI833504081440231424
aI833478647721844737
aI833464551727362049
aI833465245976899584
aI833464236009472000
aI791928595635724288
aI792059897135398912
aI833472611657084929
aI833504583360012288
aI833471294427512832
aI833460766837731329
aI833473815027998720
aI792450415820406785
aI792257882490306561
aI833466091317780480
aI833476931756650502
aI833466780005851136
aI833499895604523008
aI833469514792701953
aI833506063840210944
aI833475525511221248
aI833466004747358209
aI792301239270772736
aI792357749829107715
aI761040177494003713
aI791933298675109888
aI833463193301291008
aI792448628686200832
aI792212280498909184
aI833467279597723648
aI833477326004326400
aI833481803302371328
aI792264312073125892
aI792444985518022656
aI833475625742643200
aI833475012161998848
aI833506385329586176
aI792082632100179968
aI833475919910158336
aI792443256328032256
aI833462739578281984
aI761026378867183617
aI833461838733914112
aI792073953309229057
aI792264748725329920
aI792456546609397762
aI775415300879777792
aI792261052079693824
aI833491503406198784
aI833505609060212737
aI792284566853677056
aI792431686936039424
aI774596484822077440
aI792203197637070848
aI833476284349050881
aI792263566548201473
aI775165657981812736
aI791939857555730432
aI792484686639529985
aI833465672738942977
aI792302594739859456
aI782793201375731712
aI833477833829806080
aI833467948027224068
aI761030556221976576
aI792183456977608704
aI833462715259592704
aI833466970699816961
aI792164348458373120
aI761018398859853824
aI833471357174194177
aI833470961118752768
aI833477808399724544
aI833466759147618304
aI833466036582244352
aI761050235804069889
aI833486538344394753
aI833473902370250753
aI833469809807462400
aI792286399064076288
aI792178382947618816
aI833463840146915330
aI833485482789003264
aI792259535415181312
aI833462378729656320
aI792484684408168448
aI833461771939803136
aI833477951576489984
aI761023350906892292
aI792412475761291264
aI833503849923031041
aI792215381742149632
aI833473587587723264
aI761030490425962496
aI792065754644549633
aI792313055552167937
aI833468633024167936
aI761015199079993344
aI792338934789509120
aI792081824172343296
aI833504848330973186
aI763975618610376705
aI833471537181315072
aI833468916131360772
aI791948232922234881
aI833463337073643520
aI833507141705162752
aI833469017717354497
aI833482223554789376
aI792156830038360064
aI833463574861344768
aI773802489267253248
aI833475225882734594
aI833471022435278849
aI799518759719469056
aI833476362795114498
aI833506009259741185
aI792271277188874240
aI762051862346469376
aI792121969391050752
aI792390898109837312
aI833462176002109440
aI792160625292107776
aI833471506407530497
aI833473490271555584
aI833476770124881920
aI833482860090765312
aI833471894741516288
aI833484019488669697
aI833505116158242818
aI833469652357496832
aI833462912152920066
aI791964249295884288
aI833476526683353089
aI833479137251696640
aI825849958242844673
aI792074358126698496
aI833460937927581696
aI833491642707423232
aI833473150004273152
aI833476570245365760
aI833498749930336256
aI792371053481848832
aI791945345164906496
aI792431974434607104
aI833505751272394752
aI792362507776225281
aI833470549028401153
aI792078747931385856
aI833492360000581633
aI833462478185103361
aI791928638690189312
aI792369302942978049
aI833462719739109376
aI833498653733969924
aI833481839499165696
aI833469588994142213
aI792261187434151936
aI833464977256243201
aI761036343132631041
aI833484746898354176
aI833473962948456448
aI833461666465603584
aI792080118214717441
aI833461485133234178
aI833497555174584320
aI791947591504105472
aI792031665736519680
aI833463858538782721
aI833506375560933376
aI770025883897884673
aI833490284466098176
aI791939883099054080
aI833491037792432128
aI833471100734500864
aI833470542229364736
aI833505167106387968
aI833476968016392192
aI833462899070926850
aI833499744710205440
aI833469940531347456
aI792084260689772544
aI761030004029333504
aI833504218719805440
aI792268767623540736
aI792302357258309632
aI792177036232122368
aI792380109739159553
aI833465241144995844
aI833466193730207744
aI760997888013066244
aI833464084544647169
aI833475591789768704
aI792407099464675329
aI833469470148530176
aI833466603463385089
aI833465218646867970
aI833483731981651968
aI833466655799861249
aI790760977939693568
aI793384845816766464
aI833464121190342656
aI792081994406588417
aI833465895385182208
aI833473484982513664
aI792432558881529856
aI833471413499654144
aI833499434763776001
aI833475472147181568
aI792181582576615424
aI833467029566861312
aI824973627510493184
aI833470820500566017
aI792175714305015808
aI833469172768206849
aI833461453428551684
aI833477716854849536
aI833473673839407106
aI792416460907905024
aI833479758440587264
aI833476380490919938
aI833491382106980352
aI792281720632537089
aI833474849704144896
aI833475583187095552
aI833460826208161793
aI833466306347331585
aI792086377940869125
aI833473770144747520
aI833479232449892352
aI833506519928827904
aI761022479397588992
aI833471174579515396
atp2375
Rp2376
sg12
I1
sg13
g14
(g15
tp2377
Rp2378
Vhttp://fb.me/2bmdupfjm
p2379
I466
ssg1303
Vgta 4 new report compares xbox 360 and xbox one versions
p2380
sg1305
I3
sg1306
I20
sg1307
I2
sa(dp2381
g2
(dp2382
g4
I453
sg5
I0
ssg6
I453
sg7
g8
((lp2383
I793683836999720960
aI782793201375731712
aI761018052968194050
aI792177553268178947
aI761003239252844548
aI833466596110774277
aI833471894741516288
aI761026378867183617
aI761042580901466121
aI833461749055578112
aI833463044776853506
aI833460238024114176
aI833459302933336067
aI829445396225220631
aI833484228687970304
aI833493518886711300
aI833469588994142213
aI833463193301291008
aI833461624606425089
aI833466613898891270
aI833507852824178690
aI833481116623450119
aI833461485133234178
aI833495657608404992
aI833460881497391106
aI833477965870678017
aI833462621466656768
aI833478558379077632
aI792320180416311296
aI761010869048315904
aI792253799381536768
aI833463073730134016
aI833462523076702210
aI792303628178587648
aI792010284357525504
aI792300479497826304
aI833476193685012484
aI833474732041187328
aI833476213930856448
aI833484025343811584
aI792177036232122368
aI833465746575474688
aI808591886285881346
aI833470417444667397
aI792264449612779520
aI833503049565868033
aI833474849704144896
aI792450636113645569
aI833480488174092289
aI833466493467758593
aI792388897183522816
aI833504759826952192
aI833488644031721472
aI833504910897328128
aI833507157014245376
aI833507581012357120
aI792261559154278401
aI833480617379581953
aI833462992020848642
aI833473265301590016
aI833465940935315459
aI833464551727362049
aI792187146253795328
aI833499960901509120
aI833462139188867072
aI792065754644549633
aI833471222499405827
aI792399943591923716
aI833468025923710976
aI833466122829705216
aI792060439282720768
aI833466624237830144
aI833475006088704000
aI833460761183784960
aI833474345372631040
aI792043462677958656
aI791959029660590081
aI792158678329819136
aI792450415820406785
aI792312244637949952
aI792340261854670849
aI792179440591704065
aI833462308248641536
aI833478842538942464
aI833476667410485248
aI792120919917551617
aI761026340124446720
aI833503120391020544
aI792127986594185216
aI833507141705162752
aI792399715958681603
aI833472028623695872
aI761020752766210048
aI833467948027224068
aI792438300242042880
aI833478543275339776
aI833502160092475392
aI833468689517314048
aI833468553105862656
aI833465068134232068
aI792036725581291525
aI792240835219886080
aI761016972880580608
aI833469317303906305
aI792215220303396864
aI833468812531884032
aI792059897135398912
aI792441183318466560
aI833497262189785090
aI833459956598837248
aI833468633024167936
aI833490159555342336
aI833462775024349184
aI833469127780077568
aI792129497197846529
aI833460048252780544
aI824310991878029314
aI833483068396572673
aI833493296550965249
aI833462378729656320
aI833467316897615872
aI833465241144995844
aI792307256742346752
aI833470961118752768
aI833466467723132928
aI792137644851531777
aI833477716854849536
aI833469163234541568
aI761008890389692417
aI833479758440587264
aI833466449561792517
aI792388851608260608
aI833482107397615616
aI833497333732098049
aI792332773629591552
aI833476550842515457
aI833467994323968000
aI833464123572764674
aI833464484559716352
aI792378558438051841
aI833477605672222720
aI792173261345943552
aI792257882490306561
aI792394292379680769
aI833490100801507328
aI833470652027981825
aI792043452229881856
aI792333636234309633
aI833464671948591104
aI792459450590388225
aI833471537181315072
aI833469347096096768
aI833463089198747648
aI833473165657460737
aI792398199017406465
aI833469713397202944
aI833463919763214337
aI833466451965124608
aI833485483825045508
aI792408588689997825
aI792076285749170180
aI833477557072769024
aI763500676920008704
aI761009724808654849
aI833461764108980225
aI833457661521694720
aI833470379041644544
aI792203197637070848
aI833473495879258112
aI792045751694192641
aI833471013354549248
aI833480204534190081
aI833470408925995008
aI792261052079693824
aI792341393700159488
aI792179318424268800
aI833473815027998720
aI792042773495111680
aI833485550527066112
aI792063209519865856
aI833468252391165953
aI792281720632537089
aI833462156456771584
aI833492841426939904
aI833472163000832005
aI791312537174347776
aI792049845607555073
aI792050212294590466
aI833471174579515396
aI833481263184883712
aI833466441097682945
aI792063276205105152
aI761007625270091778
aI761022479397588992
aI833473886721277952
aI833458079433887744
aI833480597003726848
aI792390898109837312
aI833468170228944897
aI833472225068118016
aI792042026451791872
aI833471516830474240
aI833468225547546625
aI833465005194543106
aI792412475761291264
aI760985661558095874
aI833498653733969924
aI833469834931220480
aI792361306057826304
aI833465377652830208
aI833466759147618304
aI833467745266135040
aI833465641172615168
aI833469601216356357
aI792399263561093120
aI833462249067073538
aI792057182778953728
aI792177768935092225
aI792199751055933440
aI833480748246106113
aI833466658656251904
aI828105085125160961
aI792312484237565952
aI833460183456182274
aI833499089899655168
aI792181566990610432
aI833461707204853760
aI833462495474020352
aI833463753865908225
aI833473689727430659
aI833476724314738688
aI833505464251985920
aI792040666733899776
aI833478647721844737
aI833466306347331585
aI833465245976899584
aI833464236009472000
aI792340989696442368
aI792264312073125892
aI833471294427512832
aI833463453465636864
aI792252413642178561
aI792065355627855872
aI833472188552470529
aI833464850365833216
aI833476931756650502
aI833466780005851136
aI784635589882736641
aI792334814519128065
aI833469514792701953
aI833486198878269440
aI833459996436361216
aI833505096910540801
aI833472422225514496
aI792301239270772736
aI792357749829107715
aI792023359760560129
aI792448628686200832
aI833486018934353921
aI792212280498909184
aI833464121190342656
aI833477326004326400
aI833481803302371328
aI792117893311987716
aI792444985518022656
aI833475625742643200
aI833475372700176384
aI833460460846510082
aI833497147144237056
aI792082632100179968
aI833475919910158336
aI760989882923814912
aI833462739578281984
aI833466004747358209
aI833461838733914112
aI833476060230582273
aI792239627541307392
aI792456546609397762
aI791713005125918720
aI792078386344624128
aI833476526683353089
aI792284566853677056
aI792431686936039424
aI833473538593939456
aI792443256328032256
aI792412620464726017
aI833476284349050881
aI792263566548201473
aI775165657981812736
aI833467029566861312
aI833465672738942977
aI792302594739859456
aI792183456977608704
aI833475012161998848
aI833477833829806080
aI833461297098399748
aI833462715259592704
aI833466970699816961
aI792164348458373120
aI761023375208611840
aI833460766837731329
aI833471357174194177
aI833473654470094848
aI833477808399724544
aI833466036582244352
aI761032413107453952
aI833475225882734594
aI833473902370250753
aI833503440227561472
aI833469809807462400
aI792286399064076288
aI774632963459911680
aI763916995079254016
aI833463840146915330
aI833485482789003264
aI792259535415181312
aI833479362389303296
aI833464898168430592
aI833461771939803136
aI833477951576489984
aI833504218719805440
aI833462604638990336
aI833503849923031041
aI792215381742149632
aI833473587587723264
aI792313055552167937
aI833482916424404992
aI792055065368530944
aI792081824172343296
aI761017416549752834
aI833461453428551684
aI833463337073643520
aI792043510585253888
aI833469017717354497
aI833482223554789376
aI833485057482424320
aI833497268334440448
aI792268767623540736
aI833468362508337152
aI833461506717003778
aI833471022435278849
aI833472530488950784
aI833476362795114498
aI761027819275063297
aI792271277188874240
aI833501735041847296
aI792121969391050752
aI833471506407530497
aI833476770124881920
aI833475217225756672
aI791312870088839168
aI761009869998751744
aI833469652357496832
aI833462912152920066
aI791964249295884288
aI833475983856459776
aI792068042683449346
aI833479137251696640
aI833467670586589185
aI833497555174584320
aI833480278119047168
aI833460937927581696
aI833480835093311488
aI833462719739109376
aI833498749930336256
aI792371053481848832
aI833484019488669697
aI792431974434607104
aI792362507776225281
aI833470549028401153
aI792078747931385856
aI833492360000581633
aI833462478185103361
aI833476570245365760
aI792369302942978049
aI833507561613598720
aI833481839499165696
aI792261187434151936
aI833464977256243201
aI833484746898354176
aI833463574861344768
aI833462176002109440
aI833461666465603584
aI792080118214717441
aI792394590280089602
aI833469989000736768
aI792031665736519680
aI833463858538782721
aI770025883897884673
aI833473490271555584
aI792394701634674688
aI792338934789509120
aI833491037792432128
aI833471100734500864
aI833467279597723648
aI833505167106387968
aI761026396856528900
aI833476968016392192
aI833462899070926850
aI833473150004273152
aI833469940531347456
aI833478080916254721
aI792330561964703744
aI833463100191961088
aI792302357258309632
aI792264748725329920
aI792380109739159553
aI833466193730207744
aI760997888013066244
aI833464084544647169
aI833475591789768704
aI792407099464675329
aI833469470148530176
aI833466603463385089
aI833465218646867970
aI792034070721101824
aI833483731981651968
aI833466655799861249
aI761017654475907072
aI792059282007138304
aI792178382947618816
aI792081994406588417
aI833465895385182208
aI833473484982513664
aI792432558881529856
aI833471413499654144
aI833499434763776001
aI833475472147181568
aI792181582576615424
aI833475525511221248
aI833470820500566017
aI833481121715347461
aI792175714305015808
aI833469172768206849
aI833459978144989184
aI833473673839407106
aI833466091317780480
aI833504373816844288
aI833476380490919938
aI833473962948456448
aI833472611657084929
aI792300691394031616
aI833475583187095552
aI833460826208161793
aI792086377940869125
aI792052796178726912
aI833473770144747520
aI833479232449892352
aI791822258171998208
aI833506519928827904
aI833478991541473280
aI833470542229364736
aI833468916131360772
atp2384
Rp2385
sg12
I1
sg13
g14
(g15
tp2386
Rp2387
Vhttp://fb.me/5YqXCaFMW
p2388
I453
ssg1303
Vgamestop randomly selecting 1000 people today to preorder nintendo switch
p2389
sg1305
I4
sg1306
I20
sg1307
I2
sa(dp2390
g2
(dp2391
g4
I295
sg5
I0
ssg6
I295
sg7
g8
((lp2392
I833416059948511232
aI833410411596750848
aI833460183456182274
aI833435764042133507
aI833406175320354820
aI833466596110774277
aI833405289521152000
aI833446671895887873
aI833408527121137673
aI833411150968717312
aI833462715259592704
aI833431999180333057
aI833372303408898050
aI833356114867544064
aI833460238024114176
aI833440351146831872
aI833418934955208707
aI833452433921671168
aI833447984125853697
aI833459829502980098
aI833438516126302208
aI833430005640212485
aI833437333739470849
aI833424513421357061
aI833456289699201024
aI833447373644914693
aI833396182898638848
aI833401820315865088
aI833459169323782144
aI833434450117672961
aI833458459924320262
aI833449293491040256
aI833421589102354439
aI833460761183784960
aI833445750377963521
aI833460881497391106
aI833458140301627392
aI833461624606425089
aI833419637895331841
aI833358889902956544
aI833450093084868608
aI833453764577071105
aI833442657099710464
aI833449558298546178
aI833350069655068672
aI833446066653642754
aI833433745445289986
aI833444636152717313
aI833446322082562049
aI833451362608349184
aI833405148269420544
aI833464484559716352
aI833448271884480513
aI833456314437267458
aI833445800940335104
aI833431194385674240
aI833415187096969216
aI833405387474870272
aI833446239387521024
aI833428032681545728
aI833453745581203457
aI833446023829811201
aI833439472587010049
aI833428505010503682
aI833420707304501249
aI833407600813342722
aI833431139658391553
aI833451684970057728
aI833446058264973312
aI833432127253389313
aI833466193730207744
aI833442599738494976
aI833428518918819841
aI833431199251099649
aI833397631124721664
aI833456829816565760
aI833363947411615744
aI833461749055578112
aI833432793959038977
aI833424915927699456
aI833444187026685956
aI833458786023116800
aI833446380446314496
aI833396755098136576
aI833455133455503360
aI833403210031304704
aI833441337244577794
aI833436773942493184
aI833416473573982213
aI833384218914811904
aI833413911449915392
aI833425678808784897
aI833415692825280512
aI833454376643616769
aI833429780783566848
aI833454762498588677
aI833421705158631428
aI833368085423935490
aI833456016444575745
aI833446744440573952
aI833456206933008384
aI833454466976333825
aI833418227489325056
aI833458388746907648
aI833464977256243201
aI833367127901995009
aI833368408041390080
aI833449216265551873
aI833459097605398528
aI833411504200437761
aI833444939224715265
aI833417354222649350
aI833427525850132480
aI833435799622410240
aI833459282553294850
aI833408156990529536
aI833449807322705921
aI833429271918047232
aI833373364668465152
aI833465746575474688
aI833461485133234178
aI833436953395732482
aI833443040106668033
aI833436409516003330
aI833443615640866816
aI833430595220992002
aI833450272018067457
aI833454051987714048
aI833411384557858816
aI833443978427113472
aI833450169559613442
aI833366692688302080
aI833456951602331650
aI833418456015966208
aI833422310283550721
aI833438172340219906
aI833459302933336067
aI833435896112410626
aI833464551727362049
aI833461707204853760
aI833453633542955009
aI833451314717872130
aI833444830348914688
aI833448095564259329
aI833460263517114368
aI833459461360594945
aI833430261828304897
aI833387617714630656
aI833439507370430465
aI833432330375200769
aI833370400901861376
aI833452967265177600
aI833423271395684352
aI833441609589067780
aI833461297098399748
aI833450636138147840
aI833420106080333824
aI833407104878780416
aI833423482247663617
aI833457781588033536
aI833348066027700226
aI833443326233833472
aI833452964681441281
aI833445007726100480
aI833449988273213440
aI833424256985862149
aI833458822903590912
aI833426022636863488
aI833428112188829696
aI833452485230608384
aI833454927448006658
aI833423940336939011
aI833440730685304836
aI833438775401410561
aI833420247768117248
aI833459978144989184
aI833414540880666625
aI833438321082785792
aI833445961611436032
aI833456628804378625
aI833433443472125952
aI833407798830587905
aI833427037566148608
aI833338289398640640
aI833443718225154048
aI833463574861344768
aI833405014596935680
aI833441815135133697
aI833456934049181696
aI833426893378568192
aI833416585301876736
aI833407956406251521
aI833417149020532737
aI833415446703521792
aI833342728918413319
aI833431670514647040
aI833459826239926273
aI833424653230149633
aI833379977458491393
aI833404366900060161
aI833299976188989440
aI833447612770553858
aI833458819258675200
aI833439939920556032
aI833443278909489153
aI833436963109793792
aI833430969080221696
aI833462139188867072
aI833437393889923072
aI833448125159313409
aI833352112604053507
aI833413205665800194
aI833459957601144835
aI833441925294391298
aI833416076327321601
aI833390346251988994
aI833403761779494913
aI833441627557466113
aI833384126401171456
aI833456208942030848
aI833464898168430592
aI833432488617852931
aI833434667139346433
aI833443866535567362
aI833451558134284288
aI833424898706042880
aI833440342041034752
aI833454386110201857
aI825125248353734656
aI833375319327375360
aI833445069046824960
aI833430800636985344
aI833441914670157825
aI833456183054774273
aI833448488679645184
aI833444609644703744
aI833408252113203200
aI833457268544962560
aI833433960575299588
aI833441677650034690
aI833454187199549441
aI833460048252780544
aI833441016648720389
aI833420777923948544
aI833402465139687424
aI833455229911887873
aI833455075318042624
aI833437000564879361
aI833416245764640768
aI833429633626406913
aI833413528941912065
aI833462156456771584
aI833437792441139205
aI833427559610249220
aI833450105319546881
aI833436155211370499
aI833424938614784000
aI833429483394887680
aI833422454869483520
aI833431940552351744
aI833451029786144769
aI833408535681642498
aI833419721210892288
aI833455527950708737
aI833442496780722176
aI833401094646661120
aI833419699501355008
aI833386823229509633
aI833431199871668224
aI833450492097359873
aI833445121366642693
aI833456119284637698
aI833445288115335168
aI833366486840389632
aI833442195550113792
aI833448563178872833
aI833435254232907776
aI833377312116764675
aI833437342211960833
aI833465940935315459
aI833463044776853506
aI833461764108980225
aI833442379545849856
aI833436833312808960
aI833368981809590273
aI833410482044297218
aI833439546842894336
aI833400780493357056
aI833383810939154432
aI833446221549273092
aI833443372224413697
aI833442198842724353
aI833428515617927169
aI833364844124467204
atp2393
Rp2394
sg12
I1
sg13
g14
(g15
tp2395
Rp2396
Vhttp://fb.me/1pfO8Ig55
p2397
I295
ssg1303
Vhow many fans of dr wallach out there    click like if you are  youngevity 90forlife
p2398
sg1305
I5
sg1306
I20
sg1307
I2
sa(dp2399
g2
(dp2400
g4
I152
sg5
I0
ssg6
I152
sg7
g8
((lp2401
I706075419783643136
aI2525752321
aI705028666628112386
aI2186327041
aI2394966025
aI2471054346
aI2691655682
aI2567651342
aI3308878356
aI2440072214
aI2950731807
aI2743519777
aI3230881317
aI3425059880
aI2416332295
aI3322124232
aI3095232569
aI3301253690
aI2693166660
aI2244090955
aI3299821132
aI702792145065922560
aI3257162324
aI2497669134
aI2463643736
aI2473145947
aI3244381748
aI704229443016003584
aI2705632357
aI3174837870
aI3311793778
aI3290919541
aI2764463736
aI3317975165
aI2294438526
aI2335767168
aI2733595328
aI704596130697498624
aI2301529226
aI2646240918
aI3319946903
aI2521293468
aI2550719647
aI3022813857
aI3346439842
aI2272864422
aI3175149938
aI3256169648
aI3230876337
aI1667058866
aI2460384444
aI2716005566
aI3364762485
aI2828544704
aI3303208647
aI3330864843
aI2353043148
aI2150243023
aI2212965588
aI3366690766
aI2478834902
aI2450324695
aI2358977755
aI2363317981
aI3184291555
aI706422976275750912
aI2507797226
aI2578239355
aI2497413356
aI2323057903
aI2432911602
aI3340881139
aI2332501753
aI2341096698
aI2502648577
aI3346967813
aI2639964422
aI2362987784
aI2827644682
aI2361665294
aI3346970895
aI3159016216
aI2495496475
aI2358280476
aI706113094628610048
aI2604179748
aI2160788262
aI2788668205
aI2506097461
aI3334308665
aI3159179073
aI3374649154
aI3262591812
aI2477327179
aI3257456977
aI2355208532
aI3256944469
aI3161354297
aI708055549515067392
aI1976035681
aI2603365735
aI2502291816
aI2348984172
aI706188135101816833
aI3157993840
aI2249564018
aI2549305716
aI2429810924
aI3337187817
aI2406496123
aI2550370172
aI2496314773
aI705010732384055296
aI2263172844
aI2757335191
aI2326625166
aI2595106712
aI2707737492
aI3319598997
aI2272698776
aI2353228700
aI3342336928
aI3347276195
aI2794475941
aI3184350632
aI2566200746
aI3257497003
aI3391591340
aI3184307954
aI2826992558
aI2548732866
aI2975103940
aI2733647521
aI2288305608
aI2542321740
aI2678416842
aI2244649934
aI2356895702
aI2362340089
aI2675041243
aI2489247198
aI3228176805
aI3158327265
aI2610127843
aI2398586604
aI2499929574
aI2274487292
aI3023331820
aI3300228592
aI2735404028
aI3207570346
aI2352605821
atp2402
Rp2403
sg12
I1
sg13
g14
(g15
tp2404
Rp2405
Vhttp://fb.me/3lxPC6rEI
p2406
I152
ssg1303
Vreasons to be cheerful part 3 reasons to keep me busy coming up this week brits hadid design center and
p2407
sg1305
I6
sg1306
I20
sg1307
I2
sa(dp2408
g2
(dp2409
g4
I147
sg5
I0
ssg6
I147
sg7
g8
((lp2410
I706075419783643136
aI2525752321
aI705028666628112386
aI2186327041
aI2394966025
aI2471054346
aI2691655682
aI2567651342
aI3308878356
aI2440072214
aI2950731807
aI2743519777
aI3230881317
aI3425059880
aI2416332295
aI3322124232
aI3095232569
aI3301253690
aI2693166660
aI2244090955
aI3299821132
aI702792145065922560
aI3257162324
aI2497669134
aI2463643736
aI2473145947
aI3244381748
aI704229443016003584
aI2705632357
aI3174837870
aI2502291816
aI3311793778
aI3290919541
aI2764463736
aI3317975165
aI2294438526
aI2335767168
aI2733595328
aI704596130697498624
aI2301529226
aI3319946903
aI2521293468
aI2550719647
aI3022813857
aI3346439842
aI2272864422
aI3256169648
aI3230876337
aI1667058866
aI2460384444
aI2716005566
aI3364762485
aI2828544704
aI3303208647
aI3330864843
aI2150243023
aI2212965588
aI3366690766
aI2478834902
aI2450324695
aI2358977755
aI2363317981
aI3184291555
aI706422976275750912
aI2507797226
aI2578239355
aI2497413356
aI2323057903
aI2432911602
aI3340881139
aI2332501753
aI2341096698
aI2502648577
aI3346967813
aI2639964422
aI2362987784
aI2361665294
aI3346970895
aI3159016216
aI2495496475
aI706113094628610048
aI2604179748
aI2160788262
aI2788668205
aI2506097461
aI3334308665
aI3159179073
aI3374649154
aI3262591812
aI2477327179
aI3257456977
aI2355208532
aI3256944469
aI3161354297
aI708055549515067392
aI1976035681
aI2603365735
aI2496314773
aI2348984172
aI706188135101816833
aI3157993840
aI2249564018
aI2429810924
aI3337187817
aI2406496123
aI2550370172
aI3150744469
aI705010732384055296
aI2263172844
aI2757335191
aI2595106712
aI2707737492
aI3319598997
aI2272698776
aI2353228700
aI3342336928
aI3347276195
aI2794475941
aI3184350632
aI2566200746
aI3257497003
aI3391591340
aI3184307954
aI2826992558
aI2548732866
aI2975103940
aI2733647521
aI2288305608
aI2542321740
aI2678416842
aI2244649934
aI2356895702
aI2362340089
aI2675041243
aI2286857978
aI2489247198
aI3228176805
aI3158327265
aI2610127843
aI2398586604
aI2499929574
aI2274487292
aI3023331820
aI3300228592
aI2735404028
aI3207570346
aI2352605821
atp2411
Rp2412
sg12
I1
sg13
g14
(g15
tp2413
Rp2414
Vhttp://fb.me/4nvLc0aNS
p2415
I147
ssg1303
Vcar fan buys porsche 928 for spares discovers its first owner was georgeharrison of thebeatles restores it
p2416
sg1305
I7
sg1306
I20
sg1307
I2
sa(dp2417
g2
(dp2418
g4
I142
sg5
I0
ssg6
I142
sg7
g8
((lp2419
I702409655318880256
aI704210455619829760
aI3349001733
aI705300734733058048
aI702840734001582081
aI2513416201
aI3304777229
aI2675254189
aI2776896529
aI3324219924
aI2261571096
aI3347302937
aI2498221596
aI707753887772577792
aI707788899377135617
aI2830932006
aI3228248103
aI3158290985
aI2495482412
aI2382945714
aI2329432622
aI2320129592
aI704314656161185792
aI3254906426
aI2497056318
aI3347025983
aI3330589761
aI2495871554
aI2497126981
aI2835681865
aI3346706506
aI2968727627
aI3299821132
aI2288600418
aI3229011981
aI2488881234
aI2357035093
aI2251572823
aI1238249054
aI2477419615
aI706113094628610048
aI2363688036
aI2358233190
aI2385890304
aI2391146599
aI3358381168
aI2507272310
aI2244255865
aI703576687871660032
aI2882696328
aI3229044364
aI3255490189
aI3256806548
aI2398755991
aI2521293468
aI3349081029
aI2733647521
aI3272303779
aI704652427216211969
aI3234098858
aI2392017582
aI3322124232
aI2356078262
aI2658285241
aI2733595328
aI3228372171
aI1649504473
aI2521853659
aI3324372190
aI2549097187
aI2458907876
aI2355289830
aI3257400552
aI3319682794
aI2432911602
aI2723982067
aI2488783093
aI3229027384
aI2363405563
aI2378718462
aI2502648577
aI3446621957
aI1649428242
aI3228782638
aI2704473817
aI2742870085
aI1624858404
aI2475335977
aI2788668205
aI3230674743
aI2551370040
aI703193571676045312
aI2564879678
aI3302692163
aI3300525537
aI2216560458
aI2274804043
aI2603809122
aI2464831800
aI2158316887
aI2237752158
aI3295768415
aI2505281378
aI3230870374
aI2398689848
aI3183317354
aI2600316271
aI2241463152
aI2686140786
aI2583105403
aI2472336764
aI2243078017
aI2817951108
aI2476101698
aI2399855504
aI2790288280
aI2245979546
aI706067262533402624
aI2288305608
aI3158258602
aI2291495341
aI3357660592
aI2671356338
aI3438941625
aI2329444255
aI3207550396
aI2610710462
aI1649422272
aI3258150853
aI2556207559
aI2164521416
aI2678416842
aI2484638670
aI702882195334152192
aI2324598264
aI3158327265
aI2610127843
aI1972662246
aI1624938949
aI2484645876
aI2394012152
aI2675521621
atp2420
Rp2421
sg12
I1
sg13
g14
(g15
tp2422
Rp2423
Vhttps://twitter.com/i/web/status/833345211702980608
p2424
I142
ssg1303
Vim excited with this sisteract musical been a fan and been singing their songs upto now joyful\u2026
p2425
sg1305
I8
sg1306
I20
sg1307
I2
sa(dp2426
g2
(dp2427
g4
I140
sg5
I0
ssg6
I140
sg7
g8
((lp2428
I706075419783643136
aI2525752321
aI705028666628112386
aI2186327041
aI2394966025
aI2471054346
aI2691655682
aI2567651342
aI3308878356
aI2440072214
aI2950731807
aI2743519777
aI3230881317
aI3425059880
aI2416332295
aI3322124232
aI3095232569
aI2693166660
aI3299821132
aI702792145065922560
aI3257162324
aI2497669134
aI2463643736
aI2473145947
aI3244381748
aI704229443016003584
aI2705632357
aI3174837870
aI2502291816
aI3311793778
aI3290919541
aI2764463736
aI3317975165
aI2294438526
aI2335767168
aI2733595328
aI704596130697498624
aI3319946903
aI2521293468
aI2550719647
aI3022813857
aI3346439842
aI2272864422
aI3256169648
aI3230876337
aI1667058866
aI2460384444
aI2716005566
aI3364762485
aI2828544704
aI3303208647
aI3330864843
aI2150243023
aI2212965588
aI2244649934
aI2478834902
aI2450324695
aI2358977755
aI2363317981
aI2578239355
aI706422976275750912
aI2507797226
aI2497413356
aI2323057903
aI2432911602
aI3340881139
aI2332501753
aI2341096698
aI2502648577
aI3346967813
aI2639964422
aI2362987784
aI2361665294
aI3346970895
aI3159016216
aI2495496475
aI2604179748
aI2160788262
aI2788668205
aI2506097461
aI3334308665
aI3159179073
aI3374649154
aI3262591812
aI2477327179
aI3257456977
aI2355208532
aI3256944469
aI3161354297
aI708055549515067392
aI1976035681
aI2603365735
aI2496314773
aI2348984172
aI706188135101816833
aI3157993840
aI2249564018
aI2429810924
aI3337187817
aI2406496123
aI2550370172
aI3150744469
aI705010732384055296
aI2263172844
aI2757335191
aI2595106712
aI2707737492
aI3319598997
aI2272698776
aI2353228700
aI3342336928
aI3347276195
aI2794475941
aI3184350632
aI3207570346
aI3257497003
aI3391591340
aI3184307954
aI2826992558
aI2548732866
aI2975103940
aI2733647521
aI2288305608
aI2542321740
aI2678416842
aI3366690766
aI2356895702
aI2362340089
aI2675041243
aI2489247198
aI3228176805
aI3158327265
aI2610127843
aI2398586604
aI2499929574
aI2274487292
aI3023331820
aI3300228592
aI2735404028
aI2352605821
atp2429
Rp2430
sg12
I1
sg13
g14
(g15
tp2431
Rp2432
Vhttp://fb.me/8JG2xYs9D
p2433
I140
ssg1303
Vbad lp cover of the day yet another by swamp dogg
p2434
sg1305
I9
sg1306
I20
sg1307
I2
sa(dp2435
g2
(dp2436
g4
I140
sg5
I0
ssg6
I140
sg7
g8
((lp2437
I706075419783643136
aI2525752321
aI705028666628112386
aI2186327041
aI2394966025
aI2471054346
aI2691655682
aI2567651342
aI3308878356
aI2440072214
aI2950731807
aI2743519777
aI3230881317
aI3425059880
aI2416332295
aI3322124232
aI3095232569
aI2693166660
aI3299821132
aI702792145065922560
aI3257162324
aI2497669134
aI2463643736
aI2473145947
aI3244381748
aI704229443016003584
aI2705632357
aI3174837870
aI2502291816
aI3311793778
aI3290919541
aI2764463736
aI3317975165
aI2294438526
aI2335767168
aI2733595328
aI704596130697498624
aI3319946903
aI2521293468
aI2550719647
aI3022813857
aI3346439842
aI2272864422
aI3256169648
aI3230876337
aI1667058866
aI2460384444
aI2716005566
aI3364762485
aI2828544704
aI3303208647
aI3330864843
aI2150243023
aI2212965588
aI2244649934
aI2478834902
aI2450324695
aI2358977755
aI2363317981
aI2578239355
aI706422976275750912
aI2507797226
aI2497413356
aI2323057903
aI2432911602
aI3340881139
aI2332501753
aI2341096698
aI2502648577
aI3346967813
aI2639964422
aI2362987784
aI2361665294
aI3346970895
aI3159016216
aI2495496475
aI2604179748
aI2160788262
aI2788668205
aI2506097461
aI3334308665
aI3159179073
aI3374649154
aI3262591812
aI2477327179
aI3257456977
aI2355208532
aI3256944469
aI3161354297
aI708055549515067392
aI1976035681
aI2603365735
aI2496314773
aI2348984172
aI706188135101816833
aI3157993840
aI2249564018
aI2429810924
aI3337187817
aI2406496123
aI2550370172
aI3150744469
aI705010732384055296
aI2263172844
aI2757335191
aI2595106712
aI2707737492
aI3319598997
aI2272698776
aI2353228700
aI3342336928
aI3347276195
aI2794475941
aI3184350632
aI3207570346
aI3257497003
aI3391591340
aI3184307954
aI2826992558
aI2548732866
aI2975103940
aI2733647521
aI2288305608
aI2542321740
aI2678416842
aI3366690766
aI2356895702
aI2362340089
aI2675041243
aI2489247198
aI3228176805
aI3158327265
aI2610127843
aI2398586604
aI2499929574
aI2274487292
aI3023331820
aI3300228592
aI2735404028
aI2352605821
atp2438
Rp2439
sg12
I1
sg13
g14
(g15
tp2440
Rp2441
Vhttps://www.youtube.com/watch?v=7daxzs-EK2A
p2442
I140
sVhttp://fb.me/ao2hChjeL
p2443
I140
ssg1303
Vno swedish crisis dont panic and listen to lana lanadelrey
p2444
sg1305
I10
sg1306
I20
sg1307
I2
sa(dp2445
g2
(dp2446
g4
I139
sg5
I0
ssg6
I139
sg7
g8
((lp2447
I706075419783643136
aI2525752321
aI705028666628112386
aI2186327041
aI2394966025
aI2471054346
aI2691655682
aI2567651342
aI3308878356
aI2440072214
aI2950731807
aI2743519777
aI3230881317
aI3425059880
aI2416332295
aI3322124232
aI3095232569
aI2693166660
aI3299821132
aI702792145065922560
aI3257162324
aI2497669134
aI2463643736
aI2473145947
aI3244381748
aI704229443016003584
aI2705632357
aI3174837870
aI2502291816
aI3311793778
aI3290919541
aI2764463736
aI3317975165
aI2294438526
aI2335767168
aI2733595328
aI704596130697498624
aI3319946903
aI2521293468
aI2550719647
aI3022813857
aI3346439842
aI2272864422
aI3256169648
aI3230876337
aI1667058866
aI2460384444
aI2716005566
aI3364762485
aI2828544704
aI3303208647
aI3330864843
aI2150243023
aI2212965588
aI2244649934
aI2478834902
aI2450324695
aI2358977755
aI2363317981
aI2578239355
aI706422976275750912
aI2507797226
aI2497413356
aI2323057903
aI2432911602
aI3340881139
aI2332501753
aI2341096698
aI2502648577
aI3346967813
aI2639964422
aI2362987784
aI2361665294
aI3346970895
aI3159016216
aI2495496475
aI2604179748
aI2160788262
aI2788668205
aI2506097461
aI3334308665
aI3159179073
aI3374649154
aI3262591812
aI2477327179
aI3257456977
aI2355208532
aI3256944469
aI3161354297
aI708055549515067392
aI1976035681
aI2603365735
aI2496314773
aI2348984172
aI706188135101816833
aI3157993840
aI2249564018
aI2429810924
aI3337187817
aI2406496123
aI2550370172
aI3150744469
aI705010732384055296
aI2263172844
aI2757335191
aI2595106712
aI2707737492
aI3319598997
aI2272698776
aI2353228700
aI3342336928
aI2794475941
aI3207570346
aI3257497003
aI3391591340
aI3184307954
aI2826992558
aI2548732866
aI2975103940
aI2733647521
aI2288305608
aI2542321740
aI2678416842
aI3366690766
aI2356895702
aI2362340089
aI2675041243
aI2489247198
aI3228176805
aI3158327265
aI2610127843
aI2398586604
aI2499929574
aI2274487292
aI3023331820
aI3300228592
aI2735404028
aI2352605821
atp2448
Rp2449
sg12
I1
sg13
g14
(g15
tp2450
Rp2451
Vhttp://fb.me/6vOrWHWlu
p2452
I139
ssg1303
Vdonnie darko is back my interview with director jrichardkelly in dantemag on sale in whsmith or subscribe
p2453
sg1305
I11
sg1306
I20
sg1307
I2
sa(dp2454
g2
(dp2455
g4
I126
sg5
I1
ssg6
I127
sg7
g8
((lp2456
I827726083923382272
aI830555919402405888
aI820866051382513666
aI831057778110193667
aI739790372646223872
aI824191539152822273
aI336366090
aI4300864514
aI2956982804
aI2456181272
aI1943721500
aI403394078
aI378290719
aI269287971
aI150941737
aI124417579
aI254451757
aI3164120114
aI158145590
aI850914877
aI3068145733
aI3233302603
aI333902924
aI2306223708
aI2415836773
aI135626512
aI3193577659
aI777444966
aI2905144934
aI297855591
aI3316982887
aI809074285
aI122312307
aI127840380
aI330204287
aI703531146647179264
aI105346183
aI4078782613
aI3499847833
aI706428892437843969
aI2864692902
aI1902393372
aI775020973565161472
aI74688175
aI751321937410813952
aI85085383
aI802511805427789824
aI2243974867
aI723781339
aI184482682
aI3308549346
aI267332839
aI751797415112421376
aI363331820
aI3009009391
aI1264072946
aI2949727478
aI168425719
aI914721529
aI570856698
aI830550760928669696
aI3393054974
aI818174141056491520
aI105698055
aI1643168556
aI333597962
aI2371633932
aI2428004624
aI4329516312
aI2191922461
aI2985714974
aI2896664352
aI771428782200631296
aI297546023
aI153823016
aI156939399
aI772769580
aI1457402930
aI136972599
aI70049085
aI2937184063
aI1956716598
aI341771083
aI116119373
aI1078177111
aI2210561886
aI706694976369917952
aI4414815072
aI158339946
aI859177843
aI2780032374
aI299067770
aI2371182464
aI2848289154
aI269586819
aI828747485552062464
aI1102749932
aI2734500252
aI764569202443161600
aI786178991740694529
aI197712295
aI2452592040
aI134484400
aI122655160
aI505971641
aI1243408830
aI830934647466921984
aI471032266
aI93505996
aI265908175
aI234520018
aI2210696148
aI125493205
aI2190611364
aI338187227
aI1650919393
aI177181154
aI1574499302
aI134620583
aI2860324334
aI3138016754
aI82271731
aI628101108
aI837540343
aI121486847
aI797374159886188544
atp2457
Rp2458
sg12
I1
sg13
g14
(g15
tp2459
Rp2460
Vhttp://fb.me/1fDhDAsuT
p2461
I127
ssg1303
Vinaba  salas chubby groove tour 2017 at diamond hall the final inabasalas \u7a32\u8449\u6d69\u5fd7 steviesalas chubbygroove
p2462
sg1305
I12
sg1306
I20
sg1307
I2
sa(dp2463
g2
(dp2464
g4
I77
sg5
I1
ssg6
I78
sg7
g8
((lp2465
I773203416919121920
aI738804102176591873
aI1284857474
aI701185650612166660
aI747514306544209920
aI828021469733060609
aI1688502920
aI728732654
aI20211595
aI3219601164
aI34056757
aI100996878
aI179722639
aI75641872
aI4856647699
aI3019433236
aI708865443860058112
aI735488983
aI825297960
aI2998164762
aI3310052508
aI1043702558
aI711652108714512384
aI47868806
aI81149094
aI23026087
aI3325515688
aI2498976426
aI406715563
aI32553644
aI4659336914
aI2391765553
aI2390454834
aI3165799092
aI4574214196
aI469936437
aI812832715791802368
aI2336951369
aI3361152952
aI518715193
aI704110771664334848
aI122107579
aI178745535
aI3171046080
aI3237542081
aI83634118
aI1460989447
aI2913201609
aI17547338
aI702315491453349888
aI2202992972
aI4168365262
aI2207709775
aI2340696528
aI2531028984
aI2446413906
aI89469655
aI775851957877477376
aI2588667612
aI32016221
aI737844922053623808
aI168925200
aI816054242
aI2367931783
aI721118023336140800
aI186130920
aI2491320817
aI3022177259
aI4204545133
aI3173876462
aI36946416
aI81871656
aI797535862322057216
aI830329717
aI2559242742
aI491449464
aI3241867351
aI158536443
atp2466
Rp2467
sg12
I1
sg13
g14
(g15
tp2468
Rp2469
Vhttp://fb.me/6Jo3quL2B
p2470
I78
ssg1303
Vplay ball  its time for the season four premiere of when calls the heart so head over to hallmark channel now
p2471
sg1305
I13
sg1306
I20
sg1307
I2
sa(dp2472
g2
(dp2473
g4
I0
sg5
I73
ssg6
I73
sg7
g8
((lp2474
I48797504
aI533191810
aI54368387
aI265094788
aI229238150
aI89524097
aI1210749577
aI85830413
aI145259918
aI107079055
aI257588112
aI3094371218
aI145378221
aI282701847
aI82292249
aI1688680602
aI20168220
aI74178079
aI431838112
aI403001250
aI43120932
aI41386534
aI20071209
aI23215660
aI144939949
aI2281380913
aI2977955635
aI89290718
aI162098870
aI145255967
aI90480445
aI20467147
aI2303682240
aI340521056
aI102178115
aI2338805700
aI19380534
aI145420743
aI90945305
aI16534987
aI57154402
aI107174094
aI145629392
aI3094365649
aI148794322
aI158769491
aI402439632
aI116865749
aI29909079
aI829179480
aI145288154
aI24902671
aI104565214
aI2153787103
aI30475616
aI1729294177
aI2561301474
aI23781947
aI145250021
aI239841254
aI273567631
aI104300804
aI2892071122
aI145611502
aI534606959
aI271588468
aI250332021
aI29752873
aI2303681017
aI3094310906
aI199797245
aI87373309
aI336651263
atp2475
Rp2476
sg12
I1
sg13
g14
(g15
tp2477
Rp2478
Vhttp://fb.me/1eDSv6KnA
p2479
I1
sVhttp://fb.me/1VzwKQFLl
p2480
I1
sVhttp://fb.me/33MoIhhmM
p2481
I1
sVhttp://fb.me/McB58YEp
p2482
I1
sVhttp://fb.me/ZJxbn3ll
p2483
I1
sVhttp://fb.me/8iRq59f4v
p2484
I1
sVhttp://fb.me/38BXA9fVx
p2485
I1
sVhttp://fb.me/68POcEmFU
p2486
I1
sVhttp://fb.me/Ps1XEfrj
p2487
I1
sVhttp://fb.me/2NOncOeeZ
p2488
I1
sVhttp://fb.me/1bBNydTke
p2489
I1
sVhttp://fb.me/2D9qdyDGX
p2490
I1
sVhttp://fb.me/vEpBfS4a
p2491
I1
sVhttp://fb.me/6j1OYj3LL
p2492
I1
sVhttp://fb.me/10KKjPQN1
p2493
I1
sVhttp://fb.me/uIYJyBoW
p2494
I1
sVhttp://fb.me/51L1hbtRE
p2495
I1
sVhttp://fb.me/6y5XwKpy6
p2496
I1
sVhttp://fb.me/6o1jbIcJ3
p2497
I1
sVhttp://fb.me/8vT63pRTm
p2498
I1
sVhttp://fb.me/37191cAKo
p2499
I1
sVhttp://fb.me/8Nr8H1eW3
p2500
I1
sVhttp://fb.me/6c7g9dsfy
p2501
I1
sVhttp://fb.me/19ycyJCCo
p2502
I1
sVhttp://fb.me/11FxkH8OH
p2503
I1
sVhttp://fb.me/2AH8Pg2JA
p2504
I1
sVhttp://fb.me/1S2GAlCv6
p2505
I1
sVhttp://fb.me/8y5HOm63W
p2506
I1
sVhttp://fb.me/Ho8LLnV1
p2507
I1
sVhttp://fb.me/83SEYwUhV
p2508
I1
sVhttp://fb.me/8D7TPkLbU
p2509
I1
sVhttp://fb.me/GJcaU8Tv
p2510
I1
sVhttp://fb.me/8xEurjrN8
p2511
I1
sVhttp://fb.me/1IZDqs8x1
p2512
I1
sVhttp://fb.me/1b5BwhtFM
p2513
I1
sVhttp://fb.me/7xgkHpSZc
p2514
I1
sVhttp://fb.me/8rs96ELK4
p2515
I1
sVhttp://fb.me/8uGRDIWq4
p2516
I1
sVhttp://fb.me/19cXR2bri
p2517
I1
sVhttp://fb.me/6fFekTuU7
p2518
I1
sVhttp://fb.me/6brYGoR8v
p2519
I1
sVhttp://fb.me/1SdOAGnel
p2520
I1
sVhttp://fb.me/45RYVR7Tz
p2521
I1
sVhttp://fb.me/8JZPBeOYj
p2522
I1
sVhttp://fb.me/UlT3pBq2
p2523
I1
sVhttp://fb.me/8Js7w7Xgr
p2524
I1
sVhttp://fb.me/1Qp6hKusI
p2525
I1
sVhttp://fb.me/8o5ut6lb3
p2526
I1
sVhttp://fb.me/6cFyhT1Ec
p2527
I1
sVhttp://fb.me/2UtFOftCK
p2528
I1
sVhttp://fb.me/1dSAQSJAv
p2529
I1
sVhttp://fb.me/5wzCZkiZ7
p2530
I1
sVhttp://fb.me/8w3Tc0M6C
p2531
I1
sVhttp://fb.me/840wQThHL
p2532
I1
sVhttp://fb.me/1VHTXhokV
p2533
I1
sVhttp://fb.me/1R8COcxuA
p2534
I1
sVhttp://fb.me/6cKiGIGhe
p2535
I1
sVhttp://fb.me/85sjvkfza
p2536
I1
sVhttp://fb.me/5Ro9W97uY
p2537
I1
sVhttp://fb.me/8cR1GO7eI
p2538
I1
sVhttp://fb.me/1aqQfTL1d
p2539
I1
sVhttp://fb.me/1J6kJ3k4a
p2540
I1
sVhttp://fb.me/3fHE3eIT5
p2541
I1
sVhttp://fb.me/5DXaUFHeu
p2542
I1
sVhttp://fb.me/2O1cHMubp
p2543
I1
sVhttp://fb.me/F8aqF2d5
p2544
I1
sVhttp://fb.me/1NFCTKjGY
p2545
I1
sVhttp://fb.me/5O6cjCWHM
p2546
I1
sVhttp://fb.me/5s0wOCgym
p2547
I1
sVhttp://fb.me/19txTczOx
p2548
I1
sVhttp://fb.me/3KEpm7jp3
p2549
I1
sVhttp://fb.me/8zHC9i1aP
p2550
I1
sVhttp://fb.me/7usQX91QG
p2551
I1
ssg1303
Vhollywoodlife needs to stop making up stories a bey source revealed
p2552
sg1305
I14
sg1306
I20
sg1307
I2
sa(dp2553
g2
(dp2554
g4
I69
sg5
I0
ssg6
I69
sg7
g8
((lp2555
I758137878958309376
aI828110502299471873
aI1422076291
aI701614798950150148
aI764843680687587328
aI829370961090793473
aI802473504599785482
aI1203360398
aI2173672464
aI2662776338
aI3253239552
aI729832183968501760
aI3668725633
aI3311081762
aI1686000931
aI762727997950533633
aI4223414054
aI1454343463
aI735306477569593344
aI3245013468
aI826281223
aI609801391
aI4772578087
aI3314348467
aI107775668
aI3131190110
aI2551653174
aI702163771
aI46091452
aI719927676509626369
aI2791308277
aI3311073984
aI727385846085726209
aI2865781314
aI701651100382826496
aI1701341750
aI327789712
aI4012044380
aI4438859598
aI2566451407
aI3446562980
aI4891180753
aI3129159506
aI744852410464501761
aI2580716324
aI31088858
aI617954140
aI730703122058747905
aI3699903198
aI3812999653
aI128226529
aI986689621
aI2286209893
aI3250497510
aI790745831359979520
aI3157882344
aI3539051113
aI402538475
aI3289279596
aI2811249469
aI3019244016
aI3308154353
aI38838516
aI1609650421
aI901359608
aI4882347514
aI412886908
aI4751081726
aI2420405503
atp2556
Rp2557
sg12
I1
sg13
g14
(g15
tp2558
Rp2559
Vhttp://fb.me/8qkSIar3p
p2560
I69
ssg1303
Vwelcome to unisilver jewelry family daniel padilla
p2561
sg1305
I15
sg1306
I20
sg1307
I2
sa(dp2562
g2
(dp2563
g4
I63
sg5
I0
ssg6
I63
sg7
g8
((lp2564
I830436032134803456
aI830437824759369728
aI830434737772650498
aI2479427076
aI832227376549371909
aI824041209089753088
aI830439587226939393
aI824223322560831488
aI983426575
aI3637243152
aI830732084046032896
aI3221265811
aI824227043730538496
aI55934741
aI4890492612
aI26231835
aI829666788942106624
aI482670497
aI727458388586569729
aI830740135511592960
aI828528780113108993
aI3731423473
aI830737785455652864
aI286722220
aI829098717684699136
aI824224930560491520
aI829653510618652672
aI2394838195
aI829664715060043776
aI1057649780
aI830692165458096128
aI2793357372
aI726204830063034370
aI830741159869763586
aI786472443544113152
aI707748387827744768
aI1256986309
aI771210948681928705
aI824856286437089280
aI824225667243872256
aI4148964852
aI4652218573
aI827322135940984833
aI828524109952749570
aI4190010198
aI824228080126267392
aI829655925828968450
aI830736703123922945
aI208500576
aI1664360059
aI769633131062173696
aI830735548289470464
aI830740731341910016
aI824243245009944576
aI824226211102498817
aI829649670758551552
aI830433371712991232
aI830693226579320832
aI2227378680
aI830442219471409152
aI829662441793429505
aI826047908789182464
aI756651779526459392
atp2565
Rp2566
sg12
I1
sg13
g14
(g15
tp2567
Rp2568
Vhttp://fb.me/1dY9aKzhw
p2569
I63
ssg1303
Vjadine is inviting you for the most awaited concert comeback in the us of the phenomenal love team
p2570
sg1305
I16
sg1306
I20
sg1307
I2
sa(dp2571
g2
(dp2572
g4
I0
sg5
I49
ssg6
I49
sg7
g8
((lp2573
I580363265
aI303477634
aI3663131414
aI2770545030
aI740240849213231105
aI343495817
aI1310495628
aI2284325378
aI37704723
aI1712934294
aI71318808
aI3520512794
aI46125596
aI4142294302
aI592976233
aI4352208803
aI41652007
aI36700289
aI67787305
aI2724607404
aI58986800
aI3272201780
aI2495433781
aI3262618038
aI353700709
aI247994296
aI2300928572
aI184820160
aI2852373974
aI256588489
aI617331916
aI2400471890
aI327823571
aI14524245
aI3146033238
aI1523310168
aI30658907
aI547189097
aI18663653
aI2302187749
aI2478825448
aI89060156
aI109361516
aI31165906
aI261966703
aI47481072
aI85931636
aI255636009
atp2574
Rp2575
sg12
I1
sg13
g14
(g15
tp2576
Rp2577
Vhttp://fb.me/6yf1lGLFO
p2578
I1
sVhttp://fb.me/39lWQJaf2
p2579
I1
sVhttp://fb.me/afMRsxpQ0
p2580
I1
sVhttp://fb.me/Gwc4lIF6
p2581
I1
sVhttp://fb.me/8bNjHRhej
p2582
I1
sVhttp://fb.me/7ebCwUuTO
p2583
I1
sVhttp://fb.me/178OMHOtP
p2584
I1
sVhttp://fb.me/un76xrap
p2585
I1
sVhttp://fb.me/12LaapiSi
p2586
I1
sVhttp://fb.me/8AbRLeXVA
p2587
I1
sVhttp://fb.me/7Yop5x5gn
p2588
I1
sVhttp://fb.me/18OIKl6tU
p2589
I1
sVhttp://fb.me/6z2SEQKUY
p2590
I1
sVhttp://fb.me/8p24Od2lk
p2591
I1
sVhttp://fb.me/2C58RGN5o
p2592
I1
sVhttp://fb.me/2S9KCzBWS
p2593
I1
sVhttp://fb.me/IvcKyuSd
p2594
I1
sVhttp://fb.me/5DF4u86c5
p2595
I1
sVhttp://fb.me/4X9WOiZWy
p2596
I1
sVhttp://fb.me/1e63bj35N
p2597
I1
sVhttp://fb.me/18f9j1ZID
p2598
I1
sVhttp://fb.me/5z9hDGcqa
p2599
I1
sVhttp://fb.me/6gFCoAiMH
p2600
I1
sVhttp://fb.me/2Fb0YRSov
p2601
I1
sVhttp://fb.me/6IHIbLe9J
p2602
I1
sVhttp://fb.me/QAJnM5Ua
p2603
I1
sVhttp://fb.me/5R2FlxpzD
p2604
I1
sVhttp://fb.me/1wbB9lkmi
p2605
I1
sVhttp://fb.me/14dPNFER8
p2606
I1
sVhttp://fb.me/15hgXhHDD
p2607
I1
sVhttp://fb.me/1h2HrPj64
p2608
I1
sVhttp://fb.me/9iLYtEKeV
p2609
I1
sVhttp://fb.me/Y8d9MVtR
p2610
I1
sVhttp://fb.me/5usnTttIO
p2611
I1
sVhttp://fb.me/7yJMilZIt
p2612
I1
sVhttp://fb.me/J1FLj24x
p2613
I1
sVhttp://fb.me/7v8KuVvPN
p2614
I1
sVhttp://fb.me/56JGjveAx
p2615
I1
sVhttp://fb.me/4jHMAS2PE
p2616
I1
sVhttp://fb.me/8lfMnBqio
p2617
I1
sVhttp://fb.me/2gUfLS5jj
p2618
I1
sVhttp://fb.me/6vMZk2p5y
p2619
I1
sVhttp://fb.me/3hPonvTnS
p2620
I1
sVhttp://fb.me/YXThUTEw
p2621
I1
sVhttp://fb.me/5buIL11v3
p2622
I1
sVhttp://fb.me/8nyYGG6qS
p2623
I1
sVhttp://fb.me/18WPan3sj
p2624
I1
sVhttp://fb.me/akJlpiNa1
p2625
I1
sVhttp://fb.me/11OzRkyVb
p2626
I1
ssg1303
Vdo you want to spend some time with the locals
p2627
sg1305
I17
sg1306
I20
sg1307
I2
sa(dp2628
g2
(dp2629
g4
I46
sg5
I0
ssg6
I46
sg7
g8
((lp2630
I3410083072
aI711212842091937792
aI810639841750876162
aI773338796737822720
aI232422927
aI222436369
aI952818067
aI3107814168
aI2974407963
aI56913949
aI384825328
aI2929011237
aI2221870759
aI796735483615264768
aI2879667890
aI793311806836137984
aI3431822645
aI2150093622
aI742060046289362944
aI3235396410
aI2940165308
aI2240715841
aI2588609090
aI776124774036574208
aI3058228036
aI384964662
aI36052038
aI59039223
aI2440654669
aI480962126
aI75367248
aI746992213
aI3312949669
aI3607811172
aI706991917104570368
aI2149064554
aI752001771837333504
aI2181086320
aI730390555088302080
aI2892865140
aI3406531319
aI584198137
aI1103173626
aI1691886331
aI486240509
aI893304318
atp2631
Rp2632
sg12
I1
sg13
g14
(g15
tp2633
Rp2634
Vhttp://fb.me/PcFiuAsQ
p2635
I46
ssg1303
Vretweeted diverse character versecharacter  how is he not signed \U0001f926\U0001f3fc\u200d\u2642\ufe0f\U0001f525\U0001f525\U0001f525\U0001f61e
p2636
sg1305
I18
sg1306
I20
sg1307
I2
sa(dp2637
g2
(dp2638
g4
I3
sg5
I43
ssg6
I46
sg7
g8
((lp2639
I757042613241286656
aI150820226
aI605715075
aI1478813036
aI988922378
aI3463752077
aI738120078
aI2599629458
aI402227348
aI628139340
aI39098137
aI620418720
aI143591456
aI103445666
aI1094810917
aI2216755878
aI2245002535
aI33001132
aI745751732
aI1920986166
aI2705436343
aI434689720
aI111783860
aI1081740704
aI2185084361
aI25676087
aI2308665548
aI320510676
aI1397907548
aI1138415084
aI1675054195
aI211922548
aI401649910
aI68452855
aI164021496
aI361521787
aI68811132
atp2640
Rp2641
sg12
I1
sg13
g14
(g15
tp2642
Rp2643
Vhttp://fb.me/8xmpqYNuo
p2644
I1
sVhttp://fb.me/5l7uv7yCH
p2645
I1
sVhttp://fb.me/7H5564ez8
p2646
I1
sVhttp://fb.me/1988rNrYT
p2647
I1
sVhttp://fb.me/6B8l8Fgqq
p2648
I1
sVhttp://fb.me/6nnVTVeVE
p2649
I1
sVhttp://fb.me/7YcqvHXJL
p2650
I1
sVhttp://fb.me/10juuiYtE
p2651
I1
sVhttp://fb.me/7qEiczBcJ
p2652
I1
sVhttp://fb.me/5sGsa5ckG
p2653
I1
sVhttp://fb.me/6MK50acyW
p2654
I1
sVhttp://fb.me/1evRUV2BD
p2655
I1
sVhttp://fb.me/6rtlzmCl2
p2656
I1
sVhttp://fb.me/7BPVkvrDr
p2657
I1
sVhttp://fb.me/3LLVfBxii
p2658
I1
sVhttp://fb.me/8d3DQyyvf
p2659
I1
sVhttp://fb.me/Or4tECsb
p2660
I1
sVhttp://fb.me/1bRU9aXs8
p2661
I1
sVhttp://fb.me/5L0jMvrT9
p2662
I2
sVhttp://fb.me/8EPbvLYFT
p2663
I1
sVhttp://fb.me/8xPJd17j9
p2664
I1
sVhttp://fb.me/4uAdZlYtq
p2665
I1
sVhttp://fb.me/8YiEeeJVd
p2666
I1
sVhttp://fb.me/52fGMD6bm
p2667
I1
sVhttp://fb.me/5ErOCrKpe
p2668
I1
sVhttp://fb.me/7vyJldvUR
p2669
I1
sVhttp://fb.me/1OdrEO341
p2670
I1
sVhttp://fb.me/6czfGN0WX
p2671
I1
sVhttp://fb.me/63DWqZPjU
p2672
I1
sVhttp://fb.me/6HV58cGPh
p2673
I1
sVhttp://fb.me/1VdRwaURN
p2674
I1
sVhttps://twitter.com/SEALofHonor/status/833481313600561153
p2675
I1
sVhttp://fb.me/1SW6mp2Kr
p2676
I1
sVhttp://fb.me/1KHyzOSGf
p2677
I1
sVhttp://fb.me/8OOVxHwds
p2678
I1
sVhttp://fb.me/5MerKqlmy
p2679
I1
sVhttp://fb.me/P3Kq2tzD
p2680
I1
sVhttp://fb.me/1bBrt8V62
p2681
I1
sVhttp://fb.me/1MFEx8QBR
p2682
I1
sVhttp://fb.me/1d2il32zk
p2683
I1
sVhttp://fb.me/5R4PJyjXE
p2684
I1
sVhttp://fb.me/1bt33AGjn
p2685
I1
sVhttp://fb.me/UNnAZsvt
p2686
I1
sVhttp://fb.me/7zdK6vPo0
p2687
I1
sVhttp://fb.me/8DntLcsOa
p2688
I1
ssg1303
Vamen
p2689
sg1305
I19
sg1306
I20
sg1307
I2
sa(dp2690
g2
(dp2691
g4
I34
sg5
I0
ssg6
I34
sg7
g8
((lp2692
I711658260407779328
aI821557664152883200
aI739033350
aI716837549914755073
aI20211595
aI168925200
aI728732654
aI465229977
aI708865443860058112
aI47868806
aI17113640
aI977153287
aI2465385902
aI201888180
aI278813257
aI498478787
aI635004033
aI2913201609
aI17547338
aI2340696528
aI3173427025
aI4659336914
aI969039703
aI61837787
aI2588667612
aI122874342
aI3022177259
aI3173876462
aI24068336
aI2491320817
aI2406935922
aI830329717
aI771070178683740160
aI3094133119
atp2693
Rp2694
sg12
I1
sg13
g14
(g15
tp2695
Rp2696
Vhttp://fb.me/1JCuOYVIr
p2697
I34
ssg1303
Vtonight  be sure to join us for the season four premiere of when calls the heart at 9 pm etpt on hallmark
p2698
sg1305
I20
sg1306
I20
sg1307
I2
sa(dp2699
g2
(dp2700
g4
I32
sg5
I0
ssg6
I32
sg7
g8
((lp2701
I830593526165483520
aI709127219554164737
aI326165355
aI297369350
aI726573866152255489
aI2475923083
aI198722831
aI2528560154
aI534567069
aI3413212065
aI799415594651099136
aI114312711
aI44002861
aI813103766106947584
aI411902451
aI247114293
aI3640734136
aI4883801255
aI883530175
aI935076804
aI2571377989
aI374331041
aI151585739
aI1296875341
aI3551147605
aI1917632858
aI498905323
aI2955138093
aI4219318899
aI3309295093
aI767631306079559680
aI808156348332605440
atp2702
Rp2703
sg12
I1
sg13
g14
(g15
tp2704
Rp2705
Vhttp://fb.me/8th3vrAUJ
p2706
I32
ssg1303
Vdo you agree
p2707
sg1305
I21
sg1306
I20
sg1307
I2
sa(dp2708
g2
(dp2709
g4
I31
sg5
I1
ssg6
I32
sg7
g8
((lp2710
I727903339661303808
aI818858839692877824
aI3226501891
aI719357715143757824
aI701578973742936065
aI3972744074
aI3570158354
aI3158227475
aI195697685
aI2911694754
aI713268059092291584
aI763418459187376129
aI4913222952
aI3430080683
aI3018353839
aI48048734
aI711002289696149505
aI2919281546
aI3190696644
aI3283433672
aI798096532134211584
aI3303903568
aI1217183569
aI222345310
aI717635483170316288
aI3153877992
aI752416790479720448
aI4241257455
aI3678989777
aI780281556761923584
aI3536783480
aI1181287422
atp2711
Rp2712
sg12
I1
sg13
g14
(g15
tp2713
Rp2714
Vhttp://www.tfc-us.com/exandwhys
p2715
I32
sVhttp://fb.me/542FQS622
p2716
I1
ssg1303
Vits a date with liza and enrique watch my ex and whys now showing in us theaters
p2717
sg1305
I22
sg1306
I20
sg1307
I2
sa(dp2718
g2
(dp2719
g4
I28
sg5
I1
ssg6
I29
sg7
g8
((lp2720
I1341628550
aI852288775
aI1229270802
aI1653192218
aI307577631
aI347902884
aI324319014
aI2730615338
aI852272556
aI1646268973
aI378204334
aI45428914
aI2373715256
aI541063101
aI1371691327
aI3119216198
aI628932041
aI3301325519
aI852298706
aI852275286
aI1217400410
aI852288733
aI2392452577
aI741337321
aI920406378
aI425528043
aI167613805
aI301213373
aI1071454890
atp2721
Rp2722
sg12
I1
sg13
g14
(g15
tp2723
Rp2724
Vhttps://twitter.com/JetMuzik/status/832807070172798977?s=09
p2725
I29
ssg1303
Vcheck out jetmuziks tweet
p2726
sg1305
I23
sg1306
I20
sg1307
I2
sa(dp2727
g2
(dp2728
g4
I0
sg5
I25
ssg6
I25
sg7
g8
((lp2729
I303743106
atp2730
Rp2731
sg12
I1
sg13
g14
(g15
tp2732
Rp2733
Vhttp://fb.me/16bvOl8yQ
p2734
I1
sVhttp://fb.me/5KBzdoMD7
p2735
I1
sVhttp://fb.me/7fwFgk7En
p2736
I1
sVhttp://fb.me/1cRxZHfij
p2737
I1
sVhttp://fb.me/3cY1lJvWd
p2738
I1
sVhttp://fb.me/18FkO8mBJ
p2739
I1
sVhttp://fb.me/8nZ2NCuYu
p2740
I1
sVhttp://fb.me/19YBoPWHO
p2741
I1
sVhttp://fb.me/6Jbn6G09P
p2742
I1
sVhttp://fb.me/8wYROucsa
p2743
I1
sVhttp://fb.me/2Mp5R3zcG
p2744
I1
sVhttp://fb.me/usWSxMY1
p2745
I1
sVhttp://fb.me/8jFtZK8aZ
p2746
I1
sVhttp://fb.me/7wx8BoZxm
p2747
I1
sVhttp://fb.me/2IL1k3BIY
p2748
I1
sVhttp://fb.me/vrNHYrfs
p2749
I1
sVhttp://fb.me/LFSQjFoJ
p2750
I1
sVhttp://fb.me/5MYgDbMPB
p2751
I1
sVhttp://fb.me/1Nrdbj2oB
p2752
I1
sVhttp://fb.me/9GBaY78J9
p2753
I1
sVhttp://fb.me/Y3LltuXj
p2754
I1
sVhttp://fb.me/18VLw7MsS
p2755
I1
sVhttp://fb.me/zu7v8Ig1
p2756
I1
sVhttp://fb.me/65AoatRh9
p2757
I1
sVhttp://fb.me/3w60y8EHP
p2758
I1
ssg1303
Vwall posts
p2759
sg1305
I24
sg1306
I20
sg1307
I2
sa(dp2760
g2
(dp2761
g4
I0
sg5
I25
ssg6
I25
sg7
g8
((lp2762
I104300804
aI1210749577
aI273567631
aI90945305
aI1688680602
aI1735687195
aI403001250
aI145378221
aI2977925426
aI23781947
aI90480445
aI224261572
aI145420743
aI20467147
aI3094365649
aI2892071122
aI28099028
aI829179480
aI230842972
aI2652086365
aI100300774
aI3075549162
aI145611502
aI2980025010
aI336651263
atp2763
Rp2764
sg12
I1
sg13
g14
(g15
tp2765
Rp2766
Vhttp://fb.me/4dyWftHq5
p2767
I1
sVhttp://fb.me/6zgiizlBF
p2768
I1
sVhttp://fb.me/3afqJtmEl
p2769
I1
sVhttp://fb.me/1aS80jySt
p2770
I1
sVhttp://fb.me/7TXRfjOIG
p2771
I1
sVhttp://fb.me/5FQkdo1QD
p2772
I1
sVhttp://fb.me/3wFfcU4rF
p2773
I1
sVhttp://fb.me/1lQHcAcjO
p2774
I1
sVhttp://fb.me/8bzNnXV1d
p2775
I1
sVhttp://fb.me/uMgGxXVn
p2776
I1
sVhttp://fb.me/1q5IrIXQr
p2777
I1
sVhttp://fb.me/8mlRjJXNZ
p2778
I1
sVhttp://fb.me/1YjRGlKHf
p2779
I1
sVhttp://fb.me/1bImOJcIt
p2780
I1
sVhttp://fb.me/814ASEay5
p2781
I1
sVhttp://fb.me/5wZu5lezM
p2782
I1
sVhttp://fb.me/7H318emKP
p2783
I1
sVhttp://fb.me/3vYX5IInG
p2784
I1
sVhttp://fb.me/195LTqh4s
p2785
I1
sVhttp://fb.me/52ETuDUZq
p2786
I1
sVhttp://fb.me/1OsoVB2Mn
p2787
I1
sVhttp://fb.me/1VZx4h8NK
p2788
I1
sVhttp://fb.me/9cl3LbcB3
p2789
I1
sVhttp://fb.me/1PzWd201g
p2790
I1
sVhttp://fb.me/QkMxorWc
p2791
I1
ssg1303
Vstar claims the cohosts were locked in an intense and heated exchange during a recent filming
p2792
sg1305
I25
sg1306
I20
sg1307
I2
sa(dp2793
g2
(dp2794
g4
I0
sg5
I25
ssg6
I25
sg7
g8
((lp2795
I758089094337441792
aI317909980
aI66209420
aI16860978
aI63326424
aI86190202
aI93145147
aI2380382876
atp2796
Rp2797
sg12
I1
sg13
g14
(g15
tp2798
Rp2799
Vhttps://twitter.com/i/web/status/833508232517734400
p2800
I1
sVhttps://twitter.com/i/web/status/833501423635570688
p2801
I1
sVhttps://twitter.com/i/web/status/833508232484179969
p2802
I1
sVhttps://twitter.com/i/web/status/833511342711590912
p2803
I1
sVhttps://twitter.com/i/web/status/833511342678040576
p2804
I1
sVhttps://twitter.com/i/web/status/833501423761444864
p2805
I1
sVhttps://twitter.com/i/web/status/833511342833168384
p2806
I1
sVhttps://twitter.com/i/web/status/833508232245112832
p2807
I1
sVhttps://twitter.com/i/web/status/833511342820642817
p2808
I1
sVhttps://twitter.com/i/web/status/833501423816044545
p2809
I1
sVhttps://twitter.com/i/web/status/833501423748853760
p2810
I1
sVhttps://twitter.com/i/web/status/833508232312213504
p2811
I1
sVhttps://twitter.com/i/web/status/833501423723651072
p2812
I1
sVhttps://twitter.com/i/web/status/833508232249225216
p2813
I1
sVhttps://twitter.com/i/web/status/833501423643930624
p2814
I1
sVhttps://twitter.com/i/web/status/833511342589956097
p2815
I1
sVhttps://twitter.com/i/web/status/833501423606210561
p2816
I1
sVhttps://twitter.com/i/web/status/833508232437993472
p2817
I1
sVhttps://twitter.com/i/web/status/833501423484624900
p2818
I1
sVhttps://twitter.com/i/web/status/833511342837338112
p2819
I1
sVhttps://twitter.com/i/web/status/833508232341565441
p2820
I1
sVhttps://twitter.com/i/web/status/833508232576372736
p2821
I2
sVhttps://twitter.com/i/web/status/833511342577377280
p2822
I1
sVhttps://twitter.com/i/web/status/833511342803791872
p2823
I1
ssg1303
Vcourtel superior court cartel conceived in sinborn of corruptionprotected by guard dogs of hell\u2026
p2824
sg1305
I26
sg1306
I20
sg1307
I2
sa(dp2825
g2
(dp2826
g4
I0
sg5
I24
ssg6
I24
sg7
g8
((lp2827
I743565260657831936
aI1969330950
aI87899154
aI2989657110
aI9098522
aI459170590
aI282798498
aI77261219
aI4491870631
aI43799602
aI3003013176
aI777599604
aI342366271
aI1949706182
aI226306760
aI880232395
aI356226765
aI299717496
aI2362968661
aI485570651
aI1492140391
aI860001517
aI1662955764
aI976653176
atp2828
Rp2829
sg12
I1
sg13
g14
(g15
tp2830
Rp2831
Vhttp://fb.me/7LfRjoLiX
p2832
I1
sVhttp://fb.me/2bJZiehb1
p2833
I1
sVhttp://fb.me/S4F9gMkn
p2834
I1
sVhttp://fb.me/8mLaRb4xB
p2835
I1
sVhttp://fb.me/7xDVdVlOO
p2836
I1
sVhttp://fb.me/1QQpO1EtN
p2837
I1
sVhttp://fb.me/1ulkMun4N
p2838
I1
sVhttp://fb.me/1cuHkfx2p
p2839
I1
sVhttp://fb.me/1aAndkKxI
p2840
I1
sVhttp://fb.me/6scdzGWD9
p2841
I1
sVhttp://fb.me/8V2iEStxk
p2842
I1
sVhttp://fb.me/1HxvTnGh1
p2843
I1
sVhttp://fb.me/OfTwmWUX
p2844
I1
sVhttp://fb.me/8uTsZaiTA
p2845
I1
sVhttp://fb.me/1cR14AVsx
p2846
I1
sVhttp://fb.me/ajwSOhfVk
p2847
I1
sVhttp://fb.me/5LNBZrmez
p2848
I1
sVhttp://fb.me/1b4zBRKcQ
p2849
I1
sVhttp://fb.me/8LhCA8FDa
p2850
I1
sVhttp://fb.me/5LnhvmHJj
p2851
I1
sVhttp://fb.me/1TJ3IXkHG
p2852
I1
sVhttp://fb.me/1IRKLmDBf
p2853
I1
sVhttp://fb.me/1YbmSrEQa
p2854
I1
sVhttp://fb.me/7sLypV6kC
p2855
I1
ssg1303
Vhelp me out play my slot machine and get free chips for you and me
p2856
sg1305
I27
sg1306
I20
sg1307
I2
sa(dp2857
g2
(dp2858
g4
I24
sg5
I0
ssg6
I24
sg7
g8
((lp2859
I473449945
aI476316722
aI275384231
aI444798728
aI439605612
aI281957585
aI435273255
aI433772748
aI430999629
aI287146919
aI434004265
aI413023344
aI414746065
aI282037522
aI279958611
aI425412021
aI618743350
aI435261367
aI615659641
aI613947548
aI437970730
atp2860
Rp2861
sg12
I1
sg13
g14
(g15
tp2862
Rp2863
Vhttp://fb.me/90x79piR9
p2864
I9
sVhttp://fb.me/1PVUxzUQp
p2865
I9
sVhttp://fb.me/1mEN9hbR1
p2866
I6
ssg1303
Vmake sure to join us at the 6th annual wedding showcase at cira centre this amazing showcase is on sunday march ht\u2026
p2867
sg1305
I28
sg1306
I20
sg1307
I2
sa(dp2868
g2
(dp2869
g4
I0
sg5
I23
ssg6
I23
sg7
g8
((lp2870
I510930565
aI276099206
aI173915399
aI91384463
aI103994897
aI2870918931
aI1625366676
aI2272203420
aI492565280
aI211156642
aI519475750
aI449740327
aI499028018
aI487247561
aI354464971
aI285189196
aI146278946
aI362909010
aI282920531
aI1253162730
aI462381548
aI28953722
aI139014140
atp2871
Rp2872
sg12
I1
sg13
g14
(g15
tp2873
Rp2874
Vhttp://fb.me/8lE96dJff
p2875
I1
sVhttp://fb.me/1aSsKBHYV
p2876
I1
sVhttp://fb.me/8zHXog5Jf
p2877
I1
sVhttp://fb.me/K5GRI02I
p2878
I1
sVhttp://fb.me/2aBn1L1se
p2879
I1
sVhttp://fb.me/7G6aKgPa7
p2880
I1
sVhttp://fb.me/1JKlMuLHH
p2881
I1
sVhttp://fb.me/1TM6OcG0s
p2882
I1
sVhttp://fb.me/8wO95KDiL
p2883
I1
sVhttp://fb.me/2vQeO4D7R
p2884
I1
sVhttp://fb.me/2baCRo35l
p2885
I1
sVhttp://fb.me/1KRE18kWB
p2886
I1
sVhttp://fb.me/62lPcfTML
p2887
I1
sVhttp://fb.me/PMwYTnsx
p2888
I1
sVhttp://fb.me/1FE6uTFWj
p2889
I1
sVhttp://fb.me/19MCV6pbH
p2890
I1
sVhttp://fb.me/2SwJwioCE
p2891
I1
sVhttp://fb.me/4hdEluXED
p2892
I1
sVhttp://fb.me/7v3roVzMj
p2893
I1
sVhttp://fb.me/1MJtPR4VV
p2894
I1
sVhttp://fb.me/6ALbvsBQp
p2895
I1
sVhttp://fb.me/8cCz4lQFK
p2896
I1
sVhttp://fb.me/5LyarM1wm
p2897
I1
ssg1303
Vyour horoscope for today
p2898
sg1305
I29
sg1306
I20
sg1307
I2
sa(dp2899
g2
(dp2900
g4
I22
sg5
I1
ssg6
I23
sg7
g8
((lp2901
I852288775
aI3005150938
aI1600254240
aI1608091681
aI347902884
aI324319014
aI2730615338
aI852272556
aI1646268973
aI378204334
aI3005149744
aI45428914
aI444007740
aI541063101
aI852298706
aI1217400410
aI741337321
aI920406378
aI425528043
aI167613805
aI1675361268
aI1071454890
aI1675342334
atp2902
Rp2903
sg12
I1
sg13
g14
(g15
tp2904
Rp2905
Vhttps://twitter.com/JetMuzik/status/832807070172798977?s=09
p2906
I23
sVhttp://fb.me/2ItpqRh1t
p2907
I23
ssg1303
Vretweeted gme agency gmeagency  check out jetmuziks tweet
p2908
sg1305
I30
sg1306
I20
sg1307
I2
sa(dp2909
g2
(dp2910
g4
I22
sg5
I1
ssg6
I23
sg7
g8
((lp2911
I733914508142481408
aI798771835282165761
aI705346771233480704
aI47889031
aI2519690888
aI160273809
aI1190028308
aI3234815767
aI4209702433
aI948901550
aI128470323
aI4787298228
aI3047231673
aI1597648710
aI1934388686
aI2849085663
aI331542240
aI74752743
aI456532465
aI788100036760522752
aI55783158
aI127734652
aI144570879
atp2912
Rp2913
sg12
I1
sg13
g14
(g15
tp2914
Rp2915
Vhttp://fb.me/w79bobsx
p2916
I23
ssg1303
Vmuslims have the first right over the nations resources  raincoat clad teflon coated pm  media reactions
p2917
sg1305
I31
sg1306
I20
sg1307
I2
sa(dp2918
g2
(dp2919
g4
I0
sg5
I21
ssg6
I21
sg7
g8
((lp2920
I260036691
aI2807332387
aI58571716
aI454294230
aI3421465318
aI51573575
aI118836891
aI2216071657
aI182120472
aI4920692621
aI559527214
aI70248866
aI714834392
aI125758450
aI35991675
aI326240278
aI124494136
aI98953238
aI246853499
aI1300931784
aI3651968248
atp2921
Rp2922
sg12
I1
sg13
g14
(g15
tp2923
Rp2924
Vhttp://fb.me/YyEakMgC
p2925
I1
sVhttp://fb.me/5LhX0IL2R
p2926
I1
sVhttp://fb.me/8MjwDacKI
p2927
I1
sVhttp://fb.me/51FnyZSSD
p2928
I1
sVhttp://fb.me/1OgdiOQTp
p2929
I1
sVhttp://fb.me/JbexZaV1
p2930
I1
sVhttp://fb.me/5YMd3dlvG
p2931
I1
sVhttp://fb.me/2V2pDp43o
p2932
I1
sVhttp://fb.me/6QZF9lWfc
p2933
I1
sVhttp://fb.me/3pLSR6Myk
p2934
I1
sVhttp://fb.me/1jFh6D5AQ
p2935
I1
sVhttp://fb.me/7u61woCZd
p2936
I1
sVhttp://fb.me/8kBULkkuh
p2937
I1
sVhttp://fb.me/1JDMDSWdF
p2938
I1
sVhttp://fb.me/4zJqgeBjt
p2939
I1
sVhttp://fb.me/1jYNiwQ5y
p2940
I1
sVhttp://fb.me/1OH3mYNFG
p2941
I1
sVhttp://fb.me/8gVMFXSC0
p2942
I1
sVhttp://fb.me/7HTZnjfRn
p2943
I1
sVhttp://fb.me/1cOGfBlGU
p2944
I1
sVhttp://fb.me/29vX9O91m
p2945
I1
ssg1303
Vget adjusted chiropractic is an important tool for maintaining a healthy immune system
p2946
sg1305
I32
sg1306
I20
sg1307
I2
sa(dp2947
g2
(dp2948
g4
I21
sg5
I0
ssg6
I21
sg7
g8
((lp2949
I830889442680381440
aI830431103395586048
aI829385543230316544
aI828978042244648963
aI744605210731896833
aI829511500243038208
aI830997637327360001
aI814136325418975232
aI718610105160183808
aI827711353687330816
aI825641224870707200
aI2914812003
aI828373224501104640
aI713002470079918080
aI823398601288282112
aI827333856646684672
aI4054136602
aI4834797467
aI735201424074805248
aI313037584
aI831469339647868928
atp2950
Rp2951
sg12
I1
sg13
g14
(g15
tp2952
Rp2953
Vhttps://soundcloud.com/biggystal-verbalkadav-1/manman-fanm-nan-vle-viza
p2954
I21
sVhttp://fb.me/8tpRiU1vA
p2955
I21
ssg1303
Venjoy your sunday
p2956
sg1305
I33
sg1306
I20
sg1307
I2
sa(dp2957
g2
(dp2958
g4
I20
sg5
I1
ssg6
I21
sg7
g8
((lp2959
I277285152
aI425427524
aI23826375
aI430871112
aI444987689
aI291720490
aI437986930
aI281979950
aI430933821
aI272399794
aI471826579
aI22743700
aI433962770
aI18398615
aI280883448
aI411553554
aI281949979
aI281959132
aI434034506
aI456300030
aI443461951
atp2960
Rp2961
sg12
I1
sg13
g14
(g15
tp2962
Rp2963
Vhttp://fb.me/3tvsotag9
p2964
I21
ssg1303
Vwhen the ceo is on tv salute to my brother iamtonyneal firstfamilyofhiphop coredjs
p2965
sg1305
I34
sg1306
I20
sg1307
I2
sa(dp2966
g2
(dp2967
g4
I0
sg5
I21
ssg6
I21
sg7
g8
((lp2968
I340521056
aI57154402
aI1380573540
aI145250021
aI239841254
aI18807432
aI89295785
aI29909079
aI23215660
aI107174094
aI534606959
aI257588112
aI2281380913
aI3142050772
aI107129013
aI162098870
aI20071209
aI2338805700
aI169220443
aI104565214
aI250332021
atp2969
Rp2970
sg12
I1
sg13
g14
(g15
tp2971
Rp2972
Vhttp://fb.me/2QIS7PDx5
p2973
I1
sVhttp://fb.me/3wWUvfG9a
p2974
I1
sVhttp://fb.me/8xKH8XK6z
p2975
I1
sVhttp://fb.me/4vShisBej
p2976
I1
sVhttp://fb.me/68JgK2clO
p2977
I1
sVhttp://fb.me/8BAUAefCo
p2978
I1
sVhttp://fb.me/8jCbVYMmX
p2979
I1
sVhttp://fb.me/7HWRWQ7Jz
p2980
I1
sVhttp://fb.me/8keGe2fy5
p2981
I1
sVhttp://fb.me/1tKI7y8Ra
p2982
I1
sVhttp://fb.me/Ydpk48Oe
p2983
I1
sVhttp://fb.me/1bnEto8sM
p2984
I1
sVhttp://fb.me/82x6D06zw
p2985
I1
sVhttp://fb.me/1dVPNZuDJ
p2986
I1
sVhttp://fb.me/60xFdgYYp
p2987
I1
sVhttp://fb.me/8Jzy2L6ac
p2988
I1
sVhttp://fb.me/8fL01fKZT
p2989
I1
sVhttp://fb.me/17eBtDXtK
p2990
I1
sVhttp://fb.me/1Pbzi0wJO
p2991
I1
sVhttp://fb.me/wkDtpazN
p2992
I1
sVhttp://fb.me/88bxhzgqz
p2993
I1
ssg1303
Vsources close to selena revealed shes fed up with social media trying to define her romance
p2994
sg1305
I35
sg1306
I20
sg1307
I2
sa(dp2995
g2
(dp2996
g4
I0
sg5
I21
ssg6
I21
sg7
g8
((lp2997
I191781221
atp2998
Rp2999
sg12
I1
sg13
g14
(g15
tp3000
Rp3001
Vhttp://fb.me/3kn3VaIqW
p3002
I1
sVhttp://fb.me/8zOzSpu2r
p3003
I1
sVhttps://twitter.com/masecdante/status/833510330802266118/photo/1?utm_source=fb&utm_medium=fb&utm_campaign=masecdante&utm_content=833510377681989632
p3004
I2
sVhttp://fb.me/4HaIVDrmz
p3005
I1
sVhttps://twitter.com/masecdante/status/833510347772399617/photo/1?utm_source=fb&utm_medium=fb&utm_campaign=masecdante&utm_content=833510347772399617
p3006
I1
sVhttps://twitter.com/masecdante/status/833510374301368320/photo/1?utm_source=fb&utm_medium=fb&utm_campaign=masecdante&utm_content=833510374301368320
p3007
I3
sVhttp://fb.me/86kwD2fzd
p3008
I1
sVhttp://fb.me/82yha3v4L
p3009
I1
sVhttp://fb.me/8IURn42Xg
p3010
I1
sVhttp://fb.me/8oBRvdgn3
p3011
I1
sVhttps://twitter.com/masecdante/status/833510330802266118/photo/1?utm_source=fb&utm_medium=fb&utm_campaign=masecdante&utm_content=833510330802266118
p3012
I6
sVhttp://fb.me/5BtTFDx4x
p3013
I1
sVhttp://fb.me/8ZSCzNCmJ
p3014
I1
sVhttp://fb.me/vhG1tsjM
p3015
I1
sVhttp://fb.me/6NvNGgwLF
p3016
I1
sVhttp://fb.me/1aPOBYzFv
p3017
I1
sVhttps://twitter.com/masecdante/status/833510374301368320/photo/1?utm_source=fb&utm_medium=fb&utm_campaign=masecdante&utm_content=833510391305093120
p3018
I1
sVhttp://fb.me/2WlWGcMPh
p3019
I1
sVhttp://fb.me/3rEko1J8J
p3020
I1
sVhttps://twitter.com/masecdante/status/833510374301368320/photo/1?utm_source=fb&utm_medium=fb&utm_campaign=masecdante&utm_content=833510398385074176
p3021
I1
sVhttps://twitter.com/masecdante/status/833510330802266118/photo/1?utm_source=fb&utm_medium=fb&utm_campaign=masecdante&utm_content=833510370513928192
p3022
I2
sVhttps://twitter.com/masecdante/status/833510330802266118/photo/1?utm_source=fb&utm_medium=fb&utm_campaign=masecdante&utm_content=833510366634184704
p3023
I2
sVhttp://fb.me/5Nt9Xbg4d
p3024
I1
sVhttp://fb.me/8hpC0XxDw
p3025
I1
sVhttp://fb.me/6h7tIMtKg
p3026
I1
sVhttp://fb.me/1JZrPaUEh
p3027
I1
sVhttp://fb.me/1aF8CEwoC
p3028
I1
sVhttp://fb.me/1n7TvlUrY
p3029
I1
sVhttps://twitter.com/masecdante/status/833510330802266118/photo/1?utm_source=fb&utm_medium=fb&utm_campaign=masecdante&utm_content=833510363127767042
p3030
I4
sVhttp://fb.me/8jE9L2Wmz
p3031
I1
ssg1303
Vnew trending gif on giphy
p3032
sg1305
I36
sg1306
I20
sg1307
I2
sa.