(lp0
(dp1
S'status'
p2
(dp3
S'retweet'
p4
I245
sS'original'
p5
I27
ssS'count'
p6
I272
sS'user_ids'
p7
c__builtin__
set
p8
((lp9
I775355817897762816
aI762337006257045505
aI801580634875580418
aI2467176963
aI2341977604
aI246967792
aI757463689091874816
aI703535000927526913
aI105710600
aI2956468233
aI735062539
aI240734722
aI3471217167
aI2161484816
aI16792067
aI167710228
aI637129237
aI2699495448
aI21622300
aI46655005
aI500224030
aI24964127
aI755557986123255808
aI730041562839711745
aI3270559782
aI757451802149134336
aI3420540252
aI636647978
aI778556117429485568
aI757467628541648896
aI740874799
aI736708840465518592
aI788873902265073665
aI763534904
aI730094592822001664
aI722639268951101440
aI3335776317
aI782073863509114880
aI14729794
aI2903192644
aI269913669
aI758437794914107392
aI48104204
aI2614154826
aI150526306
aI288938063
aI706189937528303616
aI363793489
aI3925146194
aI739132068165242880
aI1462664791
aI757464426777677824
aI787789632670949376
aI329143901
aI4493744734
aI3678420496
aI797831192536092672
aI2724918372
aI62065766
aI480208998
aI757790724712636416
aI783490018719465472
aI491457130
aI2940254315
aI2189444204
aI2786321005
aI2903650414
aI111622904
aI796846279284445184
aI2833322863
aI757462321555922944
aI799041992391086080
aI426903572
aI4899483772
aI3167437949
aI779729037564403712
aI708115371161731072
aI757453858381508608
aI3419869632
aI603192171
aI582858006
aI786021727268589568
aI531854855
aI1057646359
aI473403160
aI3888381074
aI164159637
aI73012505
aI368886939
aI4826329370
aI27757215
aI2289011360
aI721503639261458432
aI3038687906
aI1880936238
aI716432567042347009
aI719601294068072448
aI799415594651099136
aI799066443958472704
aI757465767235301376
aI2949568173
aI25470639
aI4402594994
aI214428019
aI757374783654879232
aI755872661532708865
aI163995322
aI108155579
aI786710975126929408
aI757466669434281985
aI2658418367
aI559957185
aI132273859
aI2908236484
aI787288979775164416
aI3987603143
aI1949219016
aI38066483
aI757461979552329728
aI4686693072
aI495647441
aI207361059
aI106599126
aI726236936038440960
aI319265497
aI2178494170
aI2924527836
aI1553052270
aI19087036
aI3457282272
aI82252513
aI705197282
aI2764318751
aI793852671790841856
aI62023916
aI3473259256
aI2235360902
aI2853516157
aI750418382932107264
aI228736760
aI3416490233
aI346046202
aI96054012
aI354593834
aI2818143486
aI4289779455
aI759824352288309248
aI420502656
aI796250172493799424
aI4657978753
aI2527717640
aI3397576972
aI3514650382
aI238873872
aI929010222
aI1052264472
aI3420899033
aI1917859608
aI1160646937
aI726512368608415744
aI409032987
aI1379288282
aI757453039489777664
aI776164823948111872
aI63357527
aI782584702414839809
aI76413574
aI19572007
aI257286954
aI796069555072368640
aI2268321580
aI363841629
aI800955153121558528
aI4560856881
aI607683379
aI4569118009
aI521457466
aI790591458311020545
aI17719672
aI728401273670631424
aI757466256765104129
aI733421930712162306
aI332544323
aI971110213
aI786852914857902080
aI487863630
aI800848709818806273
aI167488851
aI103726421
aI895625785
aI496425816
aI52691290
aI784622524042768384
aI719446423192866816
aI714259803376254976
aI764601975505911808
aI1206586722
aI801225769791946752
aI33442666
aI14839147
aI719913576719376385
aI369292654
aI3408760175
aI177487728
aI276087666
aI622459795
aI1716110708
aI345774968
aI344063866
aI957958525
aI4862157717
aI3818220088
aI763337086359527424
aI559081349
aI790071588729204736
aI4871415689
aI17651082
aI2210715536
aI47847315
aI2605069205
aI1347889956
aI2294281113
aI2786102171
aI71394717
aI751086968784683008
aI705433853289082880
aI2997700002
aI757464028985692160
aI738472648552919041
aI3651159976
aI305305516
aI802649755784462336
aI2399391152
aI2230272840
aI796179263154049024
aI1113356725
aI3124412854
aI2836839353
aI4487940026
aI802132445634134016
aI561890778
aI4795096513
aI885483463
aI707287429326049280
aI4881996747
aI784572878
aI703588035657646080
aI637220816
aI460378065
aI4686968654
aI18360790
aI3201789399
aI874812324
aI37579226
aI744601304224370688
aI756310591422201856
aI776055774
aI3423356703
aI729483944136085504
aI446653924
aI180141039
aI2739547625
aI3589234154
aI1367531
aI447163884
aI42400751
aI788391449448554496
aI106527267
aI3142910454
aI3289045495
aI482694137
aI763354486786195456
atp10
Rp11
sS'hour'
p12
I16
sS'url'
p13
ccollections
defaultdict
p14
(c__builtin__
int
p15
tp16
Rp17
Vhttp://bit.ly/2gt2qYm
p18
I272
ssS'text'
p19
Vericbolling realdonaldtrump already creating jobs after election
p20
sS'id'
p21
I1
sS'day'
p22
I27
sS'month'
p23
I11
sa(dp24
g2
(dp25
g4
I123
sg5
I2
ssg6
I125
sg7
g8
((lp26
I764566572866252800
aI796090831060934657
aI718501532203905026
aI3020455940
aI728401273670631424
aI792785656825073665
aI21785096
aI1938005023
aI31330849
aI156845062
aI2220100134
aI788392607692890112
aI1516358184
aI455315499
aI143611436
aI4833947182
aI114845234
aI2300158004
aI1376002614
aI575702452
aI985898048
aI3429078081
aI3120922524
aI952346700
aI16272976
aI18929234
aI30812245
aI4679693911
aI250699864
aI3848820318
aI1499087472
aI2699103507
aI44041065
aI21965432
aI1522442875
aI439574145
aI620640900
aI711720532597559296
aI1952367752
aI3356915849
aI842591886
aI777210000
aI374498458
aI3433022621
aI369020298
aI933345733
aI2976878243
aI701408955986223104
aI489753256
aI1281533107
aI737004307044786176
aI24307393
aI459830470
aI776798619181645824
aI777601766909063168
aI4886380750
aI1061204708
aI20535530
aI3903251179
aI780202870251462656
aI20060909
aI390945006
aI28223215
aI757689964482142208
aI1883797237
aI788839062564016128
aI4871961853
aI532768000
aI233578496
aI2342391571
aI4257641237
aI745196826
aI246555419
aI1646044446
aI2916303139
aI754020308328128513
aI489975608
aI499489674
aI498959173
aI107288394
aI2981310283
aI709973837
aI2359971156
aI706357192220405760
aI2149769052
aI259119456
aI3167591273
aI2581662570
aI783025373327925248
aI2952719616
aI26388848
aI451055997
aI520586133
aI379184516
aI756348267827310592
aI333823882
aI4819130770
aI913530606
aI4499382678
aI56096156
aI2824082847
aI3413212065
aI751846050906845185
aI544724393
aI280249258
aI2252475822
aI735880227486715904
aI384132020
aI49346997
aI56259518
aI760770167982948352
aI1325837762
aI782444912448933888
aI2751155653
aI1050970063
aI129867730
aI32550356
aI1482206677
aI234615767
aI524724189
aI836628960
aI38324710
aI412776430
aI1305192181
aI3247084884
atp27
Rp28
sg12
I16
sg13
g14
(g15
tp29
Rp30
Vhttp://bit.ly/2g6ElpB
p31
I124
sVhttp://bit.ly/2gjUHJg
p32
I1
ssg19
Vflashback clinton called not accepting election results horrifying
p33
sg21
I2
sg22
I27
sg23
I11
sa(dp34
g2
(dp35
g4
I30
sg5
I69
ssg6
I99
sg7
g8
((lp36
I785001299855151104
aI794151742502010880
aI798622157437890562
aI994902187
aI796856852076183552
aI790312111272591361
aI787961053535698946
aI796845841113903104
aI771809397341294592
aI793527224225890305
aI2937150214
aI785875549369409536
aI17904171
aI295646776
aI293721781
aI765357581246291968
aI796069555072368640
aI800566385948532736
aI800178269601419265
aI790931081511993345
aI781055490973392896
aI786625958283350017
aI796866449625255936
aI3311054952
aI796920360184795136
aI802287999312678912
aI796880564305461249
aI21958144
aI789266125485998080
aI796924210736222208
aI16062087
aI790601488599027713
aI797474468989988864
aI3291036316
aI797952408525606913
aI794149651062595584
aI766869346123526144
aI71278773
aI788353148792496128
aI151122105
aI751603522853036032
aI797950746553683970
aI2906686150
aI38110935
aI779765423285866496
aI791086606597951488
aI971254513
aI796917510910177280
aI1308509430
aI796854637592776705
aI2161038589
aI177747712
aI790339051496890368
aI797920563696193536
aI1247869705
aI754802590664290304
aI796908611788279809
aI799104738470096896
aI794174399595352064
aI796871088915578880
aI765543903252676608
aI70885172
aI807990584
aI788133591242928128
aI791509649430310912
aI796927207658680320
aI240443742
aI35904361
aI794224446634676224
aI796875146757894144
aI589511830
aI789796781257289728
aI772789868858597376
aI1907943324
aI787978290799775744
aI790385458840731648
aI773253347998593025
aI796905814858592256
aI796897307652407296
aI781626051684433920
aI789113916102180864
aI784912148891856898
aI800762110720380928
aI787629739724898304
aI188504529
aI797947739741028352
aI153347555
aI1314055652
aI197257709
aI718496703842807809
aI794189004077985792
aI905374200
aI798950099816775680
atp37
Rp38
sg12
I16
sg13
g14
(g15
tp39
Rp40
Vhttp://viid.me/qwpAOj
p41
I1
sVhttp://viid.me/qwpAAe
p42
I1
sVhttp://viid.me/qwpAOc
p43
I2
sVhttp://viid.me/qwpStv
p44
I1
sVhttp://viid.me/qwpAGg
p45
I1
sVhttp://viid.me/qwpAGn
p46
I7
sVhttp://viid.me/qwpAOA
p47
I4
sVhttp://viid.me/qwpAHC
p48
I1
sVhttp://truthfeed.com/video-cnn-runs-fake-news-interview-with-stein-claiming-2016-was-hack-riddled-election/38171/?utm_source=dlvr.it&utm_medium=twitter
p49
I4
sVhttp://ift.tt/2fTyRve
p50
I1
sVhttp://viid.me/qwpAGR
p51
I1
sVhttp://viid.me/qwpStS
p52
I7
sVhttp://viid.me/qwpAI7
p53
I1
sVhttp://viid.me/qwpSiM
p54
I2
sVhttp://viid.me/qwpAHk
p55
I1
sVhttps://truthfeed.com/video-cnn-runs-fake-news-interview-with-stein-claiming-2016-was-hack-riddled-election/38171/?utm_source=dlvr.it&utm_medium=twitter
p56
I1
sVhttp://viid.me/qwpAMU
p57
I2
sVhttp://viid.me/qwpAG3
p58
I1
sVhttp://viid.me/qwpSi5
p59
I3
sVhttp://viid.me/qwpAYd
p60
I1
sVhttp://viid.me/qwpAG8
p61
I1
sVhttp://viid.me/qwpSu7
p62
I2
sVhttp://viid.me/qwpAA1
p63
I10
sVhttp://viid.me/qwpSuo
p64
I1
sVhttp://viid.me/qwpSo0
p65
I1
sVhttps://twitter.com/i/web/status/802936839497580544
p66
I1
sVhttp://viid.me/qwpAII
p67
I1
sVhttp://viid.me/qwpSuV
p68
I1
sVhttp://viid.me/qwpAUy
p69
I6
sVhttp://viid.me/qwpAFM
p70
I1
sVhttp://viid.me/qwpAYW
p71
I32
ssg19
Vvideo  cnn runs fake news interview with stein claiming 2016 was \u201chack riddled\u201d election
p72
sg21
I3
sg22
I27
sg23
I11
sa(dp73
g2
(dp74
g4
I17
sg5
I63
ssg6
I80
sg7
g8
((lp75
I797474468989988864
aI761652866499153920
aI3677302402
aI801894639276064772
aI771538069723885573
aI784176944304783360
aI773253347998593025
aI230288360
aI708458185494040576
aI2941802980
aI16062990
aI797629918200950785
aI16989970
aI571062293
aI790312111272591361
aI786293784359219200
aI746379059727204357
aI764857474365132800
aI2576122788
aI51499174
aI794149651062595584
aI2891985448
aI766869346123526144
aI4140818604
aI256903879
aI800829990849933312
aI501052337
aI777349928557215745
aI2412051059
aI781634834422763520
aI792829665656377344
aI167252918
aI779728567773061120
aI4315960634
aI765273279389134848
aI790725486426988545
aI763784764465774592
aI2307253314
aI732574435102855168
aI2710331262
aI2195634502
aI1295670710
aI1270001353
aI1452668023
aI2751618611
aI763916668171149312
aI4265514193
aI21351506
aI287647587
aI772211503122509824
aI801500608377290753
aI27285591
aI2178922148
aI751414073288486912
aI772922637953667072
aI791151679785828352
aI166855904
aI4922868578
aI787978290799775744
aI791086606597951488
aI264004582
aI188504529
aI788836153868845056
aI779461418861101056
aI763068697099534336
aI2176872813
aI413430640
aI293721781
aI802287999312678912
aI785195157712990208
aI169123446
aI785556435321184256
aI16598023
aI790601488599027713
aI796845841113903104
aI305642237
aI782718474695090180
aI789266125485998080
atp76
Rp77
sg12
I16
sg13
g14
(g15
tp78
Rp79
Vhttp://dlvr.it/MlpQjd
p80
I1
sVhttp://viid.me/qwpbYp
p81
I1
sVhttp://viid.me/qwpbQg
p82
I1
sVhttp://dlvr.it/MlnzZP
p83
I1
sVhttp://www.breitbart.com/texas/2016/11/27/massive-surge-migrants-months-leading-presidential-election/?utm_source=dlvr.it&utm_medium=twitter
p84
I7
sVhttp://viid.me/qwpv8W
p85
I2
sVhttp://viid.me/qwpbTH
p86
I1
sVhttp://viid.me/qwpvZa
p87
I1
sVhttp://viid.me/qwpbn7
p88
I1
sVhttp://viid.me/qwpbWC
p89
I6
sVhttp://dlvr.it/MlnxsF
p90
I1
sVhttp://dld.bz/fhxzE
p91
I2
sVhttp://dld.bz/fhxCN
p92
I1
sVhttp://dlvr.it/MlnzQ7
p93
I1
sVhttp://dlvr.it/Mlnz0Q
p94
I1
sVhttp://bit.ly/2gvmvNO
p95
I17
sVhttp://ift.tt/2fBVpjc
p96
I1
sVhttp://viid.me/qwpv9T
p97
I4
sVhttp://viid.me/qwpbRr
p98
I1
sVhttp://dlvr.it/Mlnz1x
p99
I1
sVhttp://viid.me/qwpbYB
p100
I1
sVhttp://dlvr.it/MlnzQW
p101
I1
sVhttp://viid.me/qwpv9Z
p102
I4
sVhttp://viid.me/qwpbTu
p103
I3
sVhttp://viid.me/qwpbUv
p104
I1
sVhttp://viid.me/qwpbm5
p105
I1
sVhttp://viid.me/qwpvNm
p106
I1
sVhttp://dlvr.it/MlnxYf
p107
I1
sVhttp://viid.me/qwpvNh
p108
I1
sVhttp://dlvr.it/MlnzQb
p109
I1
sVhttp://dlvr.it/MlnzG4
p110
I5
sVhttp://viid.me/qwpbUk
p111
I3
sVhttp://ift.tt/2fBM3Ek
p112
I5
ssg19
Vmassive surge of migrants in months leading up to presidential election
p113
sg21
I4
sg22
I27
sg23
I11
sa(dp114
g2
(dp115
g4
I78
sg5
I1
ssg6
I79
sg7
g8
((lp116
I771642306239746048
aI3923762177
aI292570498
aI742007984499261443
aI2249065220
aI733733770680016901
aI105604742
aI719913576719376385
aI2352566665
aI2367970827
aI189940236
aI243865485
aI4064331736
aI426903572
aI48017429
aI1052264472
aI323869316
aI2878861445
aI30359711
aI46255008
aI507062947
aI716432567042347009
aI774776866230108160
aI785094175167361024
aI143611436
aI55993133
aI1408294447
aI885873415
aI405066164
aI48873781
aI2353563320
aI43181625
aI68889823
aI786710975126929408
aI19777469
aI782331319313240064
aI743166519157227520
aI55311883
aI4902151361
aI391738179
aI786379286756196352
aI3146738294
aI37764422
aI372361032
aI568184650
aI24873365
aI413591915
aI15823438
aI358554486
aI706601266193920000
aI885642834
aI61206499
aI43384148
aI2678256842
aI2832323288
aI136040282
aI340620507
aI18067164
aI580392669
aI431233630
aI176152287
aI519031521
aI16420194
aI402316003
aI892285796
aI887823206
aI285367313
aI2725704808
aI3074371177
aI1952154218
aI534665707
aI340979692
aI2470211666
aI46260456
aI17665654
aI790725997209542656
aI444585336
aI19929690
aI335721343
atp117
Rp118
sg12
I16
sg13
g14
(g15
tp119
Rp120
Vhttp://bit.ly/2fQAdHj
p121
I79
ssg19
Vhillaryclinton 1 month ago you have to accept the election results or youre threatening democracy
p122
sg21
I5
sg22
I27
sg23
I11
sa(dp123
g2
(dp124
g4
I4
sg5
I73
ssg6
I77
sg7
g8
((lp125
I799087176218800128
aI783687774050234369
aI755151444605534210
aI771538069723885573
aI772922637953667072
aI765253666156650497
aI623162610
aI2593165068
aI48274829
aI122472251
aI3230259733
aI28818582
aI784176944304783360
aI107150361
aI115517851
aI2562709148
aI278370845
aI786293784359219200
aI783330891330355200
aI3364127015
aI760300265824194560
aI779789207447408641
aI779445140951826438
aI292257830
aI783691441251819520
aI157994665
aI1176495146
aI776287400347795456
aI2494833453
aI4857584175
aI731592752
aI2841074354
aI2212972574
aI783330139979538432
aI554983967
aI4379138233
aI787129103128358912
aI763784764465774592
aI779728567773061120
aI761999522213998592
aI787828400744501250
aI1958049475
aI326616900
aI4215256394
aI2941365709
aI791757560869163010
aI345517008
aI2973598035
aI66674004
aI107495715
aI1550439127
aI780234993314500609
aI785195157712990208
aI782286927793909760
aI794229280326746112
aI3068746850
aI926462779
aI4919586532
aI51499174
aI4064826086
aI761004461590478848
aI1169031146
aI4084169127
aI166216613
aI751759952469958656
aI795136281126825985
aI2690281202
aI4306732883
aI118064505
aI116155386
aI431183358
aI785354015043452928
atp126
Rp127
sg12
I16
sg13
g14
(g15
tp128
Rp129
Vhttp://dlvr.it/Mlq1Ph
p130
I1
sVhttp://viid.me/qwpHQd
p131
I1
sVhttp://dlvr.it/MlpdmM
p132
I1
sVhttp://viid.me/qwpXz5
p133
I1
sVhttp://bit.ly/2fFGmbI
p134
I1
sVhttps://goo.gl/fb/JBCysy
p135
I1
sVhttp://viid.me/qwp1V8
p136
I1
sVhttp://viid.me/qwpHQk
p137
I3
sVhttps://goo.gl/3zKZPR
p138
I2
sVhttp://dlvr.it/MlpnM7
p139
I1
sVhttp://dlvr.it/MlpnM6
p140
I1
sVhttp://viid.me/qwpXjW
p141
I1
sVhttp://dlvr.it/MlpnBz
p142
I1
sVhttps://goo.gl/fb/QkFVWr
p143
I1
sVhttp://dlvr.it/MlpnYY
p144
I1
sVhttp://dlvr.it/MlpnC3
p145
I1
sVhttp://viid.me/qwpHQU
p146
I1
sVhttp://dlvr.it/MlpnBH
p147
I1
sVhttp://viid.me/qwp1Be
p148
I2
sVhttp://viid.me/qwpXaO
p149
I1
sVhttps://goo.gl/fb/VNVf5c
p150
I1
sVhttp://viid.me/qwpVOI
p151
I1
sVhttp://viid.me/qwpXll
p152
I1
sVhttp://viid.me/qwpHQJ
p153
I4
sVhttp://ift.tt/2gztUJm
p154
I5
sVhttp://dlvr.it/MlpnWP
p155
I1
sVhttp://dlvr.it/MlpvmK
p156
I1
sVhttp://dlvr.it/MlpnSG
p157
I1
sVhttp://goo.gl/qK8K6n
p158
I1
sVhttp://dlvr.it/MlpnX1
p159
I1
sVhttp://dlvr.it/MlpnKw
p160
I1
sVhttp://ift.tt/2gw2J0M
p161
I1
sVhttp://viid.me/qwpHWP
p162
I2
sVhttp://viid.me/qwpXkP
p163
I4
sVhttp://viid.me/qwpXpX
p164
I1
sVhttp://dlvr.it/Mlq1LD
p165
I1
sVhttp://viid.me/qwpXjJ
p166
I1
sVhttp://viid.me/qwp1Mr
p167
I1
sVhttps://goo.gl/fb/LJ4cxv
p168
I1
sVhttp://dlvr.it/Mlpdg2
p169
I1
sVhttp://dlvr.it/MlpdhY
p170
I1
sVhttp://dlvr.it/MlpdnP
p171
I1
sVhttp://viid.me/qwpXiy
p172
I1
sVhttp://dlvr.it/MlpnHZ
p173
I1
sVhttp://dlvr.it/MlpnXj
p174
I1
sVhttp://viid.me/qwp2oP
p175
I1
sVhttp://dlvr.it/Mlpdlc
p176
I1
sVhttp://dlvr.it/MlpnVM
p177
I1
sVhttp://dlvr.it/MlpnTX
p178
I1
sVhttp://dlvr.it/Mlpn9W
p179
I1
sVhttp://viid.me/qwpXpc
p180
I1
sVhttp://dlvr.it/Mlpdlr
p181
I1
sVhttp://dlvr.it/MlpnDb
p182
I1
sVhttp://abcnews.go.com/Politics/trump-calls-election-recount-efforts-sad/story?id=43804381&utm_source=dlvr.it&utm_medium=twitter
p183
I8
sVhttp://dlvr.it/Mlq1JD
p184
I1
ssg19
Vtrump calls the election recount efforts sad
p185
sg21
I6
sg22
I27
sg23
I11
sa(dp186
g2
(dp187
g4
I0
sg5
I75
ssg6
I75
sg7
g8
((lp188
I794432123511787520
aI748145343506767872
aI3696697216
aI722959771133865987
aI723013796541820932
aI796797873631490053
aI748164866519629824
aI748162434934792193
aI723419517158756353
aI3682656563
aI30988556
aI1218622722
aI1218583021
aI407290641
aI4842439186
aI174743659
aI2894967534
aI722992925420883969
aI746460704769720320
aI722962909098188804
aI1511203100
aI748170498886991872
aI2284421479
aI716168453674049537
aI2269287589
aI722696992678354944
aI4893175720
aI1218702596
aI748153551839440896
aI1489796270
aI4877689007
aI1888653697
aI722959802666602496
aI1218643861
aI715401475971616769
aI1925419723
aI3020705981
aI714991662829678593
aI1218652098
aI2549314243
aI2251223366
aI4895619141
aI2505896390
aI4842287175
aI748184259580526592
aI1511194999
aI3020695373
aI3663125112
aI722711378960719872
aI4841997525
aI722631467570823168
aI700989391897026560
aI2428304088
aI433801252
aI723419564394999808
aI589595100
aI722962674456240129
aI1218718136
aI2547018619
aI4877892070
aI757829708075573248
aI4842863655
aI126050157
aI605700078
aI723433202556112896
aI2523485894
aI3662980934
aI4842356471
aI2778915847
aI715004345679384576
aI1511143170
aI723436919229554689
aI2213433852
aI748115702859636737
aI2362060885
atp189
Rp190
sg12
I16
sg13
g14
(g15
tp191
Rp192
Vhttp://dlvr.it/MlpKxx
p193
I1
sVhttp://dlvr.it/MlpKz3
p194
I1
sVhttp://ift.tt/2fBHOZs
p195
I9
sVhttp://dld.bz/fhxCb
p196
I60
sVhttp://viid.me/qwpU8C
p197
I1
sVhttp://ift.tt/2gzrtqm
p198
I3
ssg19
Vrubio on trump nuke concerns we had an election
p199
sg21
I7
sg22
I27
sg23
I11
sa(dp200
g2
(dp201
g4
I30
sg5
I22
ssg6
I52
sg7
g8
((lp202
I799134620130258944
aI799123467593392128
aI799119503502102530
aI742007984499261443
aI788532739288866820
aI799130746786979840
aI799120973735727105
aI733093128081661954
aI800524431223201792
aI799357549745160192
aI714115470731784192
aI46655005
aI799133233665306624
aI799119537924734976
aI799131332060164096
aI106527267
aI781955878580785153
aI2759934214
aI194036902
aI784820204563996672
aI354593834
aI799130717045170176
aI799122468933746688
aI4402594994
aI799133910378500096
aI414563038
aI799120336524451840
aI714445385809399809
aI799122408749690880
aI770264973490675712
aI3413212065
aI766719223745896448
aI799123194804215808
aI799134595048321024
aI799123496689233920
aI3284112337
aI710829156624420864
aI2598340052
aI18067164
aI799133879361630208
aI799133264849973248
aI498007394
aI799120299971121152
aI3435638633
aI799131301236260864
aI782584702414839809
aI796924210736222208
aI1035092468
aI923957791
aI4091106004
aI799121010637185024
aI1642945278
atp203
Rp204
sg12
I16
sg13
g14
(g15
tp205
Rp206
Vhttp://bit.ly/2fFAoI0
p207
I52
ssg19
Vhillarys money making machine already moving for next election
p208
sg21
I8
sg22
I27
sg23
I11
sa(dp209
g2
(dp210
g4
I7
sg5
I42
ssg6
I49
sg7
g8
((lp211
I704044972274802688
aI1230154112
aI1142467586
aI2756409323
aI764183125660426240
aI141625351
aI381174536
aI302318216
aI258934667
aI1575552912
aI2180403347
aI255320988
aI245480863
aI1732989216
aI361735585
aI390677297
aI4483541416
aI105976233
aI2534689194
aI24291371
aI731592752
aI261025800
aI990326455
aI922704445
aI276062398
aI753635385234841600
aI229479105
aI1647925958
aI785487284586020864
aI353380558
aI2755014138
aI231078482
aI4266616931
aI163594070
aI2844640602
aI504279674
aI726632414504751104
aI420134507
aI3222276333
aI205208302
aI4139795055
aI120753649
aI1395731954
aI477946229
aI1097547512
aI718078074
aI301721852
atp212
Rp213
sg12
I16
sg13
g14
(g15
tp214
Rp215
Vhttp://dlvr.it/MlqX5b
p216
I1
sVhttp://dlvr.it/MlqWtj
p217
I1
sVhttp://dlvr.it/MlqDtP
p218
I1
sVhttp://dlvr.it/MlqWmr
p219
I1
sVhttp://dlvr.it/MlqDpG
p220
I1
sVhttp://dlvr.it/MlqDrG
p221
I1
sVhttp://dlvr.it/MlqDWv
p222
I1
sVhttp://dlvr.it/MlqFFd
p223
I1
sVhttp://dlvr.it/MlqFFg
p224
I1
sVhttp://dlvr.it/MlqDrx
p225
I2
sVhttp://dlvr.it/MlqDvw
p226
I1
sVhttp://dlvr.it/MlqWsn
p227
I1
sVhttp://dlvr.it/MlqDmq
p228
I1
sVhttp://dlvr.it/MlqQR6
p229
I1
sVhttp://dlvr.it/MlqXHd
p230
I1
sVhttp://ift.tt/2gvUGRz
p231
I1
sVhttp://dlvr.it/MlqDpb
p232
I1
sVhttp://dlvr.it/MlqXBr
p233
I1
sVhttp://dlvr.it/MlqXFs
p234
I1
sVhttp://dlvr.it/MlqDnL
p235
I1
sVhttp://dlvr.it/MlqFfD
p236
I2
sVhttp://dlvr.it/MlqDTs
p237
I1
sVhttp://dlvr.it/MlqDk3
p238
I1
sVhttp://dlvr.it/MlqFGS
p239
I9
sVhttp://dlvr.it/MlqFGP
p240
I1
sVhttp://dlvr.it/MlqFGZ
p241
I1
sVhttp://dlvr.it/MlqGS4
p242
I1
sVhttp://dlvr.it/MlqXLL
p243
I1
sVhttp://dlvr.it/MlqFPB
p244
I1
sVhttp://dlvr.it/MlqDng
p245
I1
sVhttp://punchng.com/ondo-election-call-rescue-state-reverse-fortunes-akeredolu/?utm_source=dlvr.it&utm_medium=twitter
p246
I1
sVhttp://dlvr.it/MlqX83
p247
I1
sVhttp://dlvr.it/MlqDlr
p248
I1
sVhttp://dlvr.it/MlqFGr
p249
I1
sVhttp://dlvr.it/MlqDsk
p250
I1
sVhttp://dlvr.it/MlqDX9
p251
I1
sVhttp://dlvr.it/MlqBJw
p252
I1
sVhttps://goo.gl/fb/jmSlef
p253
I1
sVhttp://dlvr.it/MlqFPr
p254
I1
ssg19
Vondo election a call to rescue our state reverse its fortunes \u2013 akeredolu
p255
sg21
I9
sg22
I27
sg23
I11
sa(dp256
g2
(dp257
g4
I22
sg5
I26
ssg6
I48
sg7
g8
((lp258
I791086606597951488
aI779841027926528000
aI785693257707565056
aI782718474695090180
aI861589381
aI784007069896679424
aI783374858579218433
aI3190958888
aI1061013524
aI797474468989988864
aI138520965
aI346417825
aI788395383655370752
aI790312111272591361
aI794149651062595584
aI15669672
aI765543903252676608
aI42769580
aI3127122100
aI2211027127
aI800139903107362816
aI383418826
aI792794115729686528
aI754769736538415104
aI3437237921
aI27671624
aI340022217
aI787103791145443328
aI383667791
aI800809883318644736
aI112186577
aI787799847915118592
aI585172516
aI794209402131771392
aI54454385
aI794151742502010880
aI794174399595352064
aI801849704
aI447163884
aI800820265806544896
aI118165489
aI796924210736222208
aI32989815
aI753466388
aI785875549369409536
aI2261100539
aI777878638511489024
atp259
Rp260
sg12
I16
sg13
g14
(g15
tp261
Rp262
Vhttp://dlvr.it/MlpNNZ
p263
I3
sVhttp://viid.me/qwpGfJ
p264
I1
sVhttp://dlvr.it/MlpNNX
p265
I1
sVhttp://viid.me/qwpJ3k
p266
I1
sVhttp://viid.me/qwpGuX
p267
I1
sVhttp://viid.me/qwpJ65
p268
I1
sVhttp://viid.me/qwpJ2F
p269
I5
sVhttp://dlvr.it/MlpNNP
p270
I1
sVhttp://viid.me/qwpUYo
p271
I1
sVhttp://viid.me/qwpGpm
p272
I1
sVhttp://dlvr.it/MlpNK8
p273
I20
sVhttp://dlvr.it/MlpNkw
p274
I1
sVhttp://viid.me/qwpJ2z
p275
I3
sVhttp://viid.me/qwpJ4m
p276
I1
sVhttp://viid.me/qwpGoJ
p277
I1
sVhttp://viid.me/qwpJ6H
p278
I2
sVhttp://viid.me/qwpJ2L
p279
I1
sVhttp://dlvr.it/MlpNR4
p280
I1
sVhttp://viid.me/qwpM1Z
p281
I1
sVhttp://viid.me/qwpJ7n
p282
I1
ssg19
Vdonald trump\u2019s statement on hillary\u2019s election putsch
p283
sg21
I10
sg22
I27
sg23
I11
sa(dp284
g2
(dp285
g4
I2
sg5
I45
ssg6
I47
sg7
g8
((lp286
I763068697099534336
aI766869346123526144
aI3677302402
aI801894639276064772
aI771538069723885573
aI761652866499153920
aI773253347998593025
aI3138769552
aI797629918200950785
aI790312111272591361
aI782718474695090180
aI792829665656377344
aI4774933922
aI764857474365132800
aI2576122788
aI51499174
aI794149651062595584
aI786293784359219200
aI501052337
aI781634834422763520
aI777349928557215745
aI167252918
aI779728567773061120
aI4315960634
aI765273279389134848
aI779461418861101056
aI1295670710
aI763916668171149312
aI188504529
aI772211503122509824
aI801500608377290753
aI785195157712990208
aI772922637953667072
aI763784764465774592
aI787978290799775744
aI791086606597951488
aI788836153868845056
aI784176944304783360
aI802287999312678912
aI751414073288486912
aI785556435321184256
aI16598023
aI790601488599027713
aI796845841113903104
aI789266125485998080
atp287
Rp288
sg12
I16
sg13
g14
(g15
tp289
Rp290
Vhttp://dlvr.it/Mlpk8p
p291
I1
sVhttp://viid.me/qwpLlu
p292
I1
sVhttp://viid.me/qwpLt8
p293
I1
sVhttp://viid.me/qwpLhk
p294
I3
sVhttp://viid.me/qwpLjy
p295
I1
sVhttp://viid.me/qwpKBb
p296
I1
sVhttp://viid.me/qwpLhd
p297
I2
sVhttp://dlvr.it/MlpkRx
p298
I1
sVhttp://viid.me/qwpLwZ
p299
I1
sVhttp://dlvr.it/MlpjYz
p300
I1
sVhttp://viid.me/qwpLhW
p301
I4
sVhttp://viid.me/qwpL0R
p302
I3
sVhttp://viid.me/qwpKVm
p303
I1
sVhttp://viid.me/qwpLwN
p304
I4
sVhttp://viid.me/qwpLlH
p305
I1
sVhttp://viid.me/qwpLzz
p306
I1
sVhttp://dlvr.it/Mlpjy3
p307
I1
sVhttp://dlvr.it/Mlpjy0
p308
I1
sVhttp://dlvr.it/MlpkQj
p309
I1
sVhttp://viid.me/qwpL03
p310
I3
sVhttp://viid.me/qwpLq6
p311
I1
sVhttp://www.breitbart.com/2016-presidential-race/2016/11/26/report-obama-called-clinton-election-night-urged-concede/?utm_source=dlvr.it&utm_medium=twitter
p312
I8
sVhttp://dlvr.it/Mlpjc6
p313
I1
sVhttp://viid.me/qwpLkE
p314
I1
sVhttp://dlvr.it/Mlpk9B
p315
I1
sVhttp://ift.tt/2gkAtz4
p316
I2
ssg19
Vreport obama called clinton on election night urged her to concede
p317
sg21
I11
sg22
I27
sg23
I11
sa(dp318
g2
(dp319
g4
I1
sg5
I41
ssg6
I42
sg7
g8
((lp320
I743699721076641792
aI1652772608
aI3935891717
aI764183125660426240
aI2896032904
aI3935146635
aI3123306892
aI374642577
aI914750738
aI764736019
aI1417333141
aI104403350
aI945465757
aI245480863
aI1732989216
aI999282722
aI738097642039808000
aI1652902820
aI3383328285
aI390677297
aI2229650742
aI753635385234841600
aI1652949049
aI290770495
aI892670347
aI3936032327
aI361832401
aI100349522
aI308819289
aI2844640602
aI4266616931
aI386260327
aI746972004952211456
aI996932970
aI477946229
aI2444222713
aI718078074
aI1652963324
aI815457662
aI343832703
atp321
Rp322
sg12
I16
sg13
g14
(g15
tp323
Rp324
Vhttp://dlvr.it/MlqtC8
p325
I1
sVhttp://dlvr.it/MlqtBv
p326
I1
sVhttp://dlvr.it/MlqtBt
p327
I1
sVhttp://dlvr.it/MlqshK
p328
I1
sVhttp://dlvr.it/Mlqt9R
p329
I1
sVhttp://dlvr.it/Mlqt0D
p330
I1
sVhttp://dlvr.it/Mlqt2F
p331
I1
sVhttp://dlvr.it/Mlqsnl
p332
I1
sVhttp://dlvr.it/Mlqsjb
p333
I1
sVhttp://dlvr.it/Mlqt9s
p334
I1
sVhttp://www.vanguardngr.com/2016/11/ondo-election-tinubu-hails-akeredolus-victory/?utm_source=dlvr.it&utm_medium=twitter
p335
I1
sVhttp://ift.tt/2g7xCMh
p336
I1
sVhttp://dlvr.it/Mlqt9f
p337
I1
sVhttp://dlvr.it/Mlqt4S
p338
I1
sVhttp://dlvr.it/Mlqswh
p339
I1
sVhttp://dlvr.it/Mlqt7m
p340
I2
sVhttp://dlvr.it/MlqskM
p341
I1
sVhttp://dlvr.it/MlqtB5
p342
I1
sVhttp://dlvr.it/MlqskH
p343
I1
sVhttp://dlvr.it/MlqsvT
p344
I1
sVhttp://dlvr.it/MlqskF
p345
I1
sVhttp://dlvr.it/Mlqsr7
p346
I1
sVhttp://dlvr.it/MlqskB
p347
I1
sVhttp://dlvr.it/MlqtCD
p348
I1
sVhttp://dlvr.it/MlqstB
p349
I1
sVhttp://dlvr.it/MlqskW
p350
I1
sVhttp://dlvr.it/Mlqstt
p351
I1
sVhttp://dlvr.it/Mlqspy
p352
I1
sVhttp://dlvr.it/Mlqt3K
p353
I1
sVhttp://dlvr.it/Mlqsq0
p354
I1
sVhttp://dlvr.it/Mlqsl4
p355
I1
sVhttp://dlvr.it/Mlqsl5
p356
I1
sVhttp://ift.tt/2foZSLc
p357
I1
sVhttp://dlvr.it/MlqtCL
p358
I2
sVhttp://dlvr.it/MlqtCB
p359
I1
sVhttp://dlvr.it/Mlqt1P
p360
I1
sVhttp://dlvr.it/Mlqt8j
p361
I1
sVhttp://dlvr.it/Mlqsrx
p362
I1
sVhttp://fb.me/5jQG6TLFU
p363
I1
sVhttp://dlvr.it/Mlqskq
p364
I1
sVhttp://dlvr.it/MlqtCC
p365
I1
ssg19
Vondo election tinubu hails akeredolu\u2019s victory oyegun buhari
p366
sg21
I12
sg22
I27
sg23
I11
sa(dp367
g2
(dp368
g4
I4
sg5
I38
ssg6
I42
sg7
g8
((lp369
I791086606597951488
aI797474468989988864
aI796924210736222208
aI796866449625255936
aI796854637592776705
aI797920563696193536
aI796897307652407296
aI754802590664290304
aI796927207658680320
aI796875146757894144
aI796856852076183552
aI799104738470096896
aI790385458840731648
aI2492306720
aI796880564305461249
aI794149651062595584
aI796905814858592256
aI765543903252676608
aI4857584175
aI800517701865066496
aI781055490973392896
aI783374858579218433
aI796863876667207680
aI797947739741028352
aI789113916102180864
aI796917510910177280
aI797952408525606913
aI796871088915578880
aI794189004077985792
aI81438841
aI751414073288486912
aI794151742502010880
aI794174399595352064
aI791511878233038848
aI785875549369409536
aI794224446634676224
aI796920360184795136
aI794209402131771392
aI788535135687892992
aI796908611788279809
aI796845841113903104
aI789266125485998080
atp370
Rp371
sg12
I16
sg13
g14
(g15
tp372
Rp373
Vhttp://viid.me/qwazWN
p374
I24
sVhttp://viid.me/qwazYk
p375
I1
sVhttp://viid.me/qwazTO
p376
I1
sVhttp://viid.me/qwazYS
p377
I1
sVhttp://viid.me/qwazEb
p378
I1
sVhttp://viid.me/qwazTF
p379
I1
sVhttp://viid.me/qwazEI
p380
I1
sVhttp://viid.me/qwap0H
p381
I1
sVhttp://viid.me/qwazT8
p382
I1
sVhttp://newsninja2012.com/trump-economic-advisor-overturn-these-election-results-and-there-would-be-civil-war/?utm_source=dlvr.it&utm_medium=twitter
p383
I2
sVhttp://viid.me/qwazT3
p384
I1
sVhttp://viid.me/qwaf0y
p385
I1
sVhttp://viid.me/qwazGB
p386
I5
sVhttp://viid.me/qwazG3
p387
I1
ssg19
Vtrump economic advisor \u2013 overturn these election results and there would be civil war
p388
sg21
I13
sg22
I27
sg23
I11
sa(dp389
g2
(dp390
g4
I0
sg5
I41
ssg6
I41
sg7
g8
((lp391
I735776779365810176
aI770250593256480769
aI1682982404
aI767057728279814144
aI4805685256
aI2593165068
aI1705086734
aI253889689
aI469621146
aI1656398366
aI14510498
aI1693687716
aI5377542
aI561369382
aI765637685453135872
aI1101728424
aI2293078699
aI873172652
aI276693038
aI1652682672
aI107755579
aI1829261366
aI754153164014817280
aI790988352417853440
aI2493066174
aI26722112
aI291734467
aI1683530310
aI723135574714929152
aI377218518
aI834995108
aI1729627614
aI2395826915
aI473039271
aI1696772078
aI149963509
aI581749878
aI790239563038023680
aI1707447800
aI2185947770
atp392
Rp393
sg12
I16
sg13
g14
(g15
tp394
Rp395
Vhttp://ift.tt/2fC2ZdJ
p396
I1
sVhttp://ift.tt/2g7kbfb
p397
I1
sVhttp://ift.tt/2fzpYWV
p398
I40
ssg19
Velection therapy from my basket of deplorables by maureen dowd via nyt
p399
sg21
I14
sg22
I27
sg23
I11
sa(dp400
g2
(dp401
g4
I3
sg5
I32
ssg6
I35
sg7
g8
((lp402
I802061220186587136
aI775210474900107264
aI788353148792496128
aI783545739314167809
aI2911104273
aI787546010
aI484486640
aI2896924835
aI705000239854256129
aI3318602282
aI1952328751
aI491809971
aI1026273973
aI791506408873287680
aI179752508
aI2337544130
aI1958049475
aI202872644
aI148777927
aI733246533156655104
aI2302736208
aI740435113721384960
aI343405144
aI118175323
aI794229280326746112
aI522537060
aI1141862377
aI2161104236
aI2250398192
aI2405189490
aI31456118
aI1195087230
atp403
Rp404
sg12
I16
sg13
g14
(g15
tp405
Rp406
Vhttp://dlvr.it/Mlnxk0
p407
I2
sVhttp://ift.tt/2fFB1kG
p408
I1
sVhttp://dlvr.it/Mlp7G8
p409
I1
sVhttp://dlvr.it/Mlnxls
p410
I1
sVhttp://viid.me/qwpWQl
p411
I1
sVhttp://bit.ly/fcqOOK
p412
I1
sVhttp://dld.bz/fhxcp
p413
I1
sVhttp://viid.me/qq9cqd
p414
I1
sVhttp://ift.tt/2fF3Eyn
p415
I1
sVhttp://ift.tt/2gjHUWW
p416
I1
sVhttp://ift.tt/eA8V8J
p417
I1
sVhttp://ift.tt/2g76DQP
p418
I2
sVhttp://dlvr.it/Mlnx08
p419
I1
sVhttp://ift.tt/2g7oAPp
p420
I2
sVhttp://viid.me/qwpW6c
p421
I1
sVhttp://ift.tt/2gMiSUb
p422
I1
sVhttp://dlvr.it/Mlp8p3
p423
I1
sVhttp://dlvr.it/Mlnxkh
p424
I1
sVhttp://dlvr.it/Mlp8sv
p425
I1
sVhttp://www.ndtv.com/world-news/election-throws-us-plans-for-syrian-refugees-into-question-1630927?utm_source=dlvr.it&utm_medium=twitter
p426
I1
sVhttp://dlvr.it/Mlnx8p
p427
I1
sVhttp://dlvr.it/Mlp8b0
p428
I1
sVhttp://dlvr.it/MlqSpS
p429
I1
sVhttp://dlvr.it/Mlnx7S
p430
I1
sVhttp://dlvr.it/MlpLdm
p431
I1
sVhttps://goo.gl/A473Lj
p432
I2
sVhttp://dlvr.it/Mlq8HG
p433
I1
sVhttps://goo.gl/BEHInq
p434
I4
sVhttp://dlvr.it/Mlp8sS
p435
I1
sVhttp://dlvr.it/MlnxmQ
p436
I1
ssg19
Velection throws us plans for syrian refugees into question
p437
sg21
I15
sg22
I27
sg23
I11
sa(dp438
g2
(dp439
g4
I17
sg5
I16
ssg6
I33
sg7
g8
((lp440
I763337086359527424
aI701072793660592129
aI750418382932107264
aI795639809633091585
aI273015689
aI411466123
aI183625230
aI479923986
aI259358483
aI3054284700
aI220798237
aI2494067616
aI14138785
aI561098353
aI250171399
aI102015931
aI1447936830
aI797207912800223232
aI34701889
aI2361604001
aI4874129992
aI3596682315
aI160930875
aI1228840274
aI2838359254
aI788818872707248128
aI183811425
aI19706851
aI2417887335
aI102606065
aI23298034
aI158950134
aI4899483772
atp441
Rp442
sg12
I16
sg13
g14
(g15
tp443
Rp444
Vhttp://ift.tt/2g7i2zX
p445
I2
sVhttp://bit.ly/2g7j5QI
p446
I1
sVhttp://dlvr.it/MlprPL
p447
I1
sVhttp://dlvr.it/MlpqsS
p448
I1
sVhttp://www.telegraph.co.uk/news/2016/11/27/donald-trump-unleashes-twitter-storm-against-clinton-support/?utm_source=dlvr.it&utm_medium=twitter
p449
I25
sVhttp://dlvr.it/Mlpz9B
p450
I1
sVhttp://dlvr.it/MlpjTr
p451
I1
sVhttp://dlvr.it/MlpwH4
p452
I1
ssg19
Vdonald trump unleashes twitter storm against hillary clintons support for sad election recount effort
p453
sg21
I16
sg22
I27
sg23
I11
sa(dp454
g2
(dp455
g4
I31
sg5
I0
ssg6
I31
sg7
g8
((lp456
I786593875615969280
aI789640373882716161
aI2176108677
aI735603498558054400
aI2477942529
aI817765256
aI2336674833
aI2775909654
aI2449116444
aI51693726
aI393804192
aI22844065
aI3053925410
aI2480568611
aI21784241
aI351596207
aI3001785521
aI2482384181
aI48470839
aI253380154
aI410056274
aI148642907
aI428634333
aI337227492
aI3259482344
aI115094250
aI1370818670
aI438660571
aI880727923
aI566457850
atp457
Rp458
sg12
I16
sg13
g14
(g15
tp459
Rp460
Vhttp://bit.ly/2gqLMZ8
p461
I31
ssg19
Vpetition demand an audit of the 2016 presidential election   auditthevote
p462
sg21
I17
sg22
I27
sg23
I11
sa(dp463
g2
(dp464
g4
I2
sg5
I29
ssg6
I31
sg7
g8
((lp465
I791086606597951488
aI752727994226081792
aI789169356542320642
aI801989288363782148
aI777943369960001536
aI802280381324083201
aI801602380101992459
aI3020455940
aI786306487765176320
aI783374858579218433
aI798244577257857024
aI785875549369409536
aI788535135687892992
aI765357581246291968
aI779765423285866496
aI781889855290769408
aI779461418861101056
aI798274583560331264
aI788565677477130240
aI799778010773721088
aI788910707869945856
aI788082976953368576
aI797855479326187520
aI802480725614325761
aI193837811
aI795469536942292993
aI786276799277785088
aI787474057084211201
aI783543477212774400
atp466
Rp467
sg12
I16
sg13
g14
(g15
tp468
Rp469
Vhttp://viid.me/qwpAPt
p470
I1
sVhttp://viid.me/qwpAAk
p471
I1
sVhttp://viid.me/qwpAHJ
p472
I1
sVhttp://www.jewsnews.co.il/2016/11/27/white-house-issues-statement-about-election-results-basically-says-hillary-is.html?utm_source=dlvr.it&utm_medium=twitter
p473
I6
sVhttp://viid.me/qwpAK2
p474
I2
sVhttp://viid.me/qwpAJy
p475
I1
sVhttp://viid.me/qwpAPF
p476
I1
sVhttp://viid.me/qwpAAS
p477
I1
sVhttp://viid.me/qwpAPB
p478
I2
sVhttp://viid.me/qwpAOY
p479
I1
sVhttp://viid.me/qwpAPO
p480
I1
sVhttp://viid.me/qwpAkx
p481
I1
sVhttp://viid.me/qwpIOI
p482
I1
sVhttp://viid.me/qwpYRu
p483
I1
sVhttp://viid.me/qwpAkh
p484
I1
sVhttp://viid.me/qwpAP8
p485
I1
sVhttp://viid.me/qwpALw
p486
I1
sVhttp://viid.me/qwpALu
p487
I1
sVhttp://dlvr.it/MlpT1W
p488
I1
sVhttp://viid.me/qwpALX
p489
I1
sVhttp://viid.me/qwpADE
p490
I1
sVhttp://viid.me/qwpAIo
p491
I2
sVhttp://viid.me/qwpALQ
p492
I1
ssg19
Vwhite house issues statement about election results basically says hillary is\u2026
p493
sg21
I18
sg22
I27
sg23
I11
sa(dp494
g2
(dp495
g4
I27
sg5
I1
ssg6
I28
sg7
g8
((lp496
I368422406
aI358895241
aI3335093770
aI235531659
aI490218903
aI140199835
aI17409452
aI1528148785
aI211233972
aI174539701
aI81342089
aI186110270
aI362445835
aI3838262727
aI902251082
aI480173387
aI329160911
aI350779858
aI387214931
aI235534680
aI259264989
aI475703017
aI114284370
aI303344754
aI208591348
aI102036670
aI236751868
aI2447479039
atp497
Rp498
sg12
I16
sg13
g14
(g15
tp499
Rp500
Vhttp://bit.ly/2fFy1EP
p501
I28
ssg19
Vondo state election largely credible civil society group says  sahara reporters
p502
sg21
I19
sg22
I27
sg23
I11
sa(dp503
g2
(dp504
g4
I0
sg5
I28
ssg6
I28
sg7
g8
((lp505
I749199493233508352
aI726632414504751104
aI420134507
aI764183125660426240
aI302318216
aI258934667
aI528320909
aI383861518
aI1575552912
aI255320988
aI202171678
aI785487284586020864
aI1732989216
aI2534689194
aI390677297
aI753635385234841600
aI757323495802044416
aI353380558
aI163594070
aI704044972274802688
aI504279674
aI4266616931
aI1663566314
aI2756409323
aI120753649
aI477946229
aI718078074
atp506
Rp507
sg12
I16
sg13
g14
(g15
tp508
Rp509
Vhttp://dlvr.it/MlppNd
p510
I1
sVhttp://ift.tt/2gvKGro
p511
I1
sVhttp://dlvr.it/MlppBt
p512
I1
sVhttp://dlvr.it/MlpsCN
p513
I1
sVhttp://dlvr.it/MlpfcK
p514
I1
sVhttp://dlvr.it/MlpjhG
p515
I1
sVhttp://dlvr.it/MlpjGV
p516
I1
sVhttp://dlvr.it/MlpjGY
p517
I1
sVhttp://dlvr.it/Mlpngl
p518
I1
sVhttp://dlvr.it/MlppDX
p519
I1
sVhttp://dlvr.it/MlppDw
p520
I1
sVhttp://dlvr.it/MlppQM
p521
I1
sVhttp://dlvr.it/MlplVV
p522
I1
sVhttp://dlvr.it/MlppBJ
p523
I1
sVhttp://dlvr.it/MlplTD
p524
I1
sVhttp://dlvr.it/Mlpndy
p525
I1
sVhttp://dlvr.it/Mlpj83
p526
I1
sVhttp://dlvr.it/MlppPh
p527
I1
sVhttp://dlvr.it/MlpjDX
p528
I1
sVhttp://dlvr.it/MlppPl
p529
I1
sVhttp://dlvr.it/Mlphvl
p530
I1
sVhttp://dlvr.it/MlpjDS
p531
I1
sVhttp://dlvr.it/Mlpp8P
p532
I1
sVhttp://dlvr.it/Mlpj9T
p533
I1
sVhttp://dlvr.it/MlpjfH
p534
I1
sVhttp://dlvr.it/Mlpp6m
p535
I1
sVhttp://dlvr.it/MlpfjJ
p536
I1
sVhttp://dlvr.it/MlpjG0
p537
I1
ssg19
Vondo election i\u2019ll reveal my next line of action soon says jegede
p538
sg21
I20
sg22
I27
sg23
I11
sa(dp539
g2
(dp540
g4
I0
sg5
I28
ssg6
I28
sg7
g8
((lp541
I704044972274802688
aI144635137
aI2538139394
aI383861518
aI945465757
aI245480863
aI882341030
aI555013547
aI994944686
aI1677924025
aI2160518719
aI174147910
aI749147857
aI4705746006
aI308819289
aI375814879
aI278450019
aI1663566314
aI420134507
aI1652772078
aI120753649
aI364936434
aI988456436
aI718078074
aI343832703
atp542
Rp543
sg12
I16
sg13
g14
(g15
tp544
Rp545
Vhttp://dlvr.it/Mlq3y5
p546
I1
sVhttp://dlvr.it/MlqDT1
p547
I1
sVhttp://dlvr.it/MlqDdf
p548
I1
sVhttp://dlvr.it/MlqDWr
p549
I2
sVhttp://dlvr.it/MlqDbw
p550
I1
sVhttp://dlvr.it/MlqDWx
p551
I1
sVhttp://dlvr.it/MlqDX6
p552
I1
sVhttp://dlvr.it/MlqDdt
p553
I1
sVhttp://ift.tt/2foMUgm
p554
I1
sVhttp://ift.tt/2fC8klh
p555
I1
sVhttp://dlvr.it/Mlq3wm
p556
I1
sVhttp://dlvr.it/MlqbFx
p557
I1
sVhttp://dlvr.it/MlqBlK
p558
I1
sVhttp://fb.me/5rcDuVGyk
p559
I1
sVhttp://dlvr.it/MlqDPh
p560
I1
sVhttp://dlvr.it/MlqHdZ
p561
I1
sVhttp://dlvr.it/MlqDTQ
p562
I1
sVhttp://dlvr.it/Mlq4JV
p563
I1
sVhttp://dlvr.it/MlqDTH
p564
I1
sVhttp://dlvr.it/MlqDTK
p565
I2
sVhttp://dlvr.it/MlqDVR
p566
I1
sVhttp://dlvr.it/MlqDhg
p567
I1
sVhttp://dlvr.it/MlqBs9
p568
I1
sVhttp://dlvr.it/MlqDTD
p569
I2
sVhttp://dlvr.it/MlqDTG
p570
I1
sVhttp://dlvr.it/MlqDVX
p571
I1
ssg19
Vondo election pdp lost because inec rigged polls in advance for apc \u2013 fayose
p572
sg21
I21
sg22
I27
sg23
I11
sa(dp573
g2
(dp574
g4
I0
sg5
I28
ssg6
I28
sg7
g8
((lp575
I764183125660426240
aI726632414504751104
aI420134507
aI749199493233508352
aI302318216
aI258934667
aI383861518
aI1575552912
aI255320988
aI785487284586020864
aI1732989216
aI2888223144
aI2534689194
aI731592752
aI390677297
aI753635385234841600
aI353380558
aI163594070
aI704044972274802688
aI504279674
aI4266616931
aI1663566314
aI2756409323
aI120753649
aI1714939634
aI477946229
aI718078074
atp576
Rp577
sg12
I16
sg13
g14
(g15
tp578
Rp579
Vhttp://dlvr.it/MlqDpS
p580
I1
sVhttp://dlvr.it/MlqBwM
p581
I1
sVhttp://dlvr.it/Mlq6dZ
p582
I1
sVhttp://dlvr.it/MlqDkJ
p583
I1
sVhttp://dlvr.it/Mlq67r
p584
I1
sVhttp://dlvr.it/Mlq6dM
p585
I1
sVhttp://dlvr.it/Mlq6M4
p586
I1
sVhttp://dlvr.it/MlqFNY
p587
I1
sVhttp://dlvr.it/MlqQQj
p588
I1
sVhttps://goo.gl/fb/ImJlwZ
p589
I1
sVhttp://dlvr.it/MlqFdd
p590
I1
sVhttp://dlvr.it/MlqDkj
p591
I1
sVhttp://dlvr.it/Mlq5yk
p592
I1
sVhttp://dlvr.it/MlqDmb
p593
I1
sVhttps://goo.gl/fb/T5Zf8j
p594
I1
sVhttp://dlvr.it/MlqDgl
p595
I1
sVhttp://dlvr.it/Mlq6Rt
p596
I1
sVhttp://dlvr.it/Mlq6Rw
p597
I1
sVhttp://dlvr.it/Mlq6SK
p598
I1
sVhttp://dlvr.it/MlqG8S
p599
I1
sVhttp://ift.tt/2foWsI1
p600
I1
sVhttps://goo.gl/fb/l6Pe8K
p601
I1
sVhttp://dlvr.it/Mlq6QS
p602
I1
sVhttp://dlvr.it/MlqDlj
p603
I1
sVhttp://dlvr.it/MlqBzQ
p604
I1
sVhttp://dlvr.it/MlqFPV
p605
I1
sVhttp://dlvr.it/Mlq5zl
p606
I1
sVhttp://dlvr.it/MlqDnp
p607
I1
ssg19
Vondo election be a fatherfigure to all tambuwal urges akeredolu
p608
sg21
I22
sg22
I27
sg23
I11
sa(dp609
g2
(dp610
g4
I0
sg5
I26
ssg6
I26
sg7
g8
((lp611
I704044972274802688
aI144635137
aI2538139394
aI2883630747
aI945465757
aI245480863
aI882341030
aI555013547
aI994944686
aI1677924025
aI2160518719
aI2883666496
aI174147910
aI749147857
aI4705746006
aI308819289
aI375814879
aI278450019
aI420134507
aI1652772078
aI120753649
aI364936434
aI988456436
aI718078074
aI343832703
atp612
Rp613
sg12
I16
sg13
g14
(g15
tp614
Rp615
Vhttp://ift.tt/2g7ulwg
p616
I1
sVhttp://dlvr.it/Mlqg0r
p617
I1
sVhttp://dlvr.it/MlqbCT
p618
I1
sVhttp://dlvr.it/MlqRpH
p619
I1
sVhttp://dlvr.it/MlqgR2
p620
I1
sVhttp://dlvr.it/MlqgPf
p621
I1
sVhttp://dlvr.it/MlqHkG
p622
I1
sVhttp://dlvr.it/MlqgQ9
p623
I1
sVhttp://dlvr.it/MlqfqW
p624
I1
sVhttp://dlvr.it/MlqRdH
p625
I1
sVhttp://dlvr.it/MlqgSM
p626
I2
sVhttp://dlvr.it/MlqSpv
p627
I1
sVhttp://dlvr.it/MlqgkN
p628
I1
sVhttp://dlvr.it/MlqgSZ
p629
I1
sVhttp://dlvr.it/MlqgKp
p630
I1
sVhttp://dlvr.it/MlqgQX
p631
I1
sVhttp://dlvr.it/MlqRcg
p632
I1
sVhttp://ift.tt/2gvKfkN
p633
I1
sVhttp://dlvr.it/MlqgNs
p634
I1
sVhttp://dlvr.it/MlqRkX
p635
I1
sVhttp://fb.me/3B7kR16MM
p636
I1
sVhttp://dlvr.it/MlqgQg
p637
I1
sVhttp://dlvr.it/MlqgNd
p638
I1
sVhttp://dlvr.it/MlqgQt
p639
I1
sVhttp://dlvr.it/Mlqg1V
p640
I1
sVhttp://dlvr.it/MlqgYj
p641
I1
ssg19
Vondo election you will soon know my position \u2013 eyitayo jegede
p642
sg21
I23
sg22
I27
sg23
I11
sa(dp643
g2
(dp644
g4
I24
sg5
I1
ssg6
I25
sg7
g8
((lp645
I794904326967885824
aI743152200281632768
aI45831180
aI473698829
aI4386932238
aI2428949142
aI629110301
aI533753630
aI3065563945
aI518086577
aI3367933623
aI87803453
aI3291734603
aI14711760
aI56649169
aI298990034
aI2925347671
aI114677336
aI624442842
aI197701852
aI313825000
aI267769705
aI456279406
aI2181188602
aI22225916
atp646
Rp647
sg12
I16
sg13
g14
(g15
tp648
Rp649
Vhttps://goo.gl/sLhJC3
p650
I25
sVhttps://twitter.com/i/web/status/802948054009548800
p651
I1
ssg19
Vtoday in history 28 nov 1893 nz women vote in general election for the first time     a wor\u2026
p652
sg21
I24
sg22
I27
sg23
I11
sa(dp653
g2
(dp654
g4
I23
sg5
I1
ssg6
I24
sg7
g8
((lp655
I801839717922775040
aI772481235520217088
aI403482756
aI789527328506404864
aI358895241
aI286353321
aI125346858
aI4839204526
aI131214521
aI467500232
aI480173387
aI707626137288097792
aI350779858
aI2397251032
aI563030991
aI3078051425
aI314531302
aI114284370
aI413852145
aI443835893
aI1294801015
aI758195143191265280
atp656
Rp657
sg12
I16
sg13
g14
(g15
tp658
Rp659
Vhttp://bit.ly/2fBFxNN
p660
I24
ssg19
Vondo election former opponent jimoh ibrahim congratulates akeredolu    channelsat21
p661
sg21
I25
sg22
I27
sg23
I11
sa(dp662
g2
(dp663
g4
I0
sg5
I24
ssg6
I24
sg7
g8
((lp664
I2718660980
atp665
Rp666
sg12
I16
sg13
g14
(g15
tp667
Rp668
Vhttp://ift.tt/2g7klmz
p669
I1
sVhttp://ift.tt/2foWIH3
p670
I1
sVhttp://ift.tt/2gkna1s
p671
I1
sVhttp://ift.tt/2fTx8pS
p672
I1
sVhttp://ift.tt/2gzgoWj
p673
I1
sVhttp://ift.tt/2g7wfNs
p674
I1
sVhttp://ift.tt/2gvPkpo
p675
I1
sVhttp://ift.tt/2gMKRTq
p676
I1
sVhttp://ift.tt/2g7xuwe
p677
I1
sVhttp://ift.tt/2fBRnaM
p678
I1
sVhttp://ift.tt/2gkMNzj
p679
I1
sVhttp://ift.tt/2fTEsly
p680
I1
sVhttp://ift.tt/2fTzTHG
p681
I1
sVhttp://ift.tt/2gMzaMG
p682
I1
sVhttp://ift.tt/2gzuMxK
p683
I1
sVhttp://ift.tt/2gMmjKu
p684
I1
sVhttp://ift.tt/2gvrB8P
p685
I1
sVhttp://ift.tt/2fBV00r
p686
I1
sVhttp://ift.tt/2fFwvCM
p687
I1
sVhttp://ift.tt/2fFvcnu
p688
I1
sVhttp://ift.tt/2gMnMAp
p689
I1
sVhttp://ift.tt/2fFBzXN
p690
I1
sVhttp://ift.tt/2fFNapO
p691
I1
sVhttp://ift.tt/2gMuIh5
p692
I1
ssg19
Vyusril supports ahoks right to contest election   pemimpinprofesional urbanplural
p693
sg21
I26
sg22
I27
sg23
I11
sa(dp694
g2
(dp695
g4
I23
sg5
I0
ssg6
I23
sg7
g8
((lp696
I713325994531282944
aI713325288873148416
aI702722791594831875
aI4834004228
aI741141013964689408
aI3433109784
aI741157958365675524
aI745646238612193280
aI702708653669789696
aI3588945314
aI3303915050
aI713317430253264896
aI741852712879280128
aI3698948533
aI743781636131676160
aI3698942534
aI702723932068032512
aI3468336974
aI713580339931836416
aI3696050654
aI741451332872110080
aI713579051861090304
aI3357912432
atp697
Rp698
sg12
I16
sg13
g14
(g15
tp699
Rp700
Vhttp://bit.ly/2ePrTts
p701
I23
ssg19
Vforget about the election and look at these bouncy babes
p702
sg21
I27
sg22
I27
sg23
I11
sa(dp703
g2
(dp704
g4
I0
sg5
I23
ssg6
I23
sg7
g8
((lp705
I764183125660426240
aI753635385234841600
aI738097642039808000
aI374642577
aI914750738
aI104403350
aI3383328285
aI1732989216
aI945465757
aI390677297
aI361832401
aI100349522
aI308819289
aI2844640602
aI4266616931
aI386260327
aI996932970
aI477946229
aI2444222713
aI718078074
aI815457662
aI343832703
atp706
Rp707
sg12
I16
sg13
g14
(g15
tp708
Rp709
Vhttp://dlvr.it/Mlqt7Q
p710
I1
sVhttp://fb.me/1EFidBic0
p711
I1
sVhttp://dlvr.it/Mlqt9M
p712
I1
sVhttp://dlvr.it/MlqtBV
p713
I1
sVhttp://dlvr.it/Mlqt7v
p714
I1
sVhttp://dlvr.it/Mlqst1
p715
I1
sVhttp://dlvr.it/Mlqsp3
p716
I1
sVhttp://dlvr.it/Mlqt4C
p717
I2
sVhttp://dlvr.it/Mlqshn
p718
I1
sVhttp://dlvr.it/Mlqsp5
p719
I1
sVhttp://dlvr.it/MlqtBC
p720
I1
sVhttp://dlvr.it/MlqtB2
p721
I1
sVhttp://dlvr.it/MlqstT
p722
I1
sVhttp://dlvr.it/Mlqsxq
p723
I1
sVhttp://dlvr.it/MlqtB7
p724
I1
sVhttp://dlvr.it/Mlqt8Z
p725
I1
sVhttp://dlvr.it/MlqskV
p726
I1
sVhttp://dlvr.it/Mlqt8C
p727
I1
sVhttp://dlvr.it/Mlqt5H
p728
I1
sVhttp://dlvr.it/Mlqsmt
p729
I1
sVhttp://ift.tt/2fTDmWH
p730
I1
sVhttp://dlvr.it/Mlqt6j
p731
I1
sVhttp://dlvr.it/Mlqt87
p732
I1
ssg19
V340 634 registered voters for lagos bye election on saturday\u2013 inec
p733
sg21
I28
sg22
I27
sg23
I11
sa(dp734
g2
(dp735
g4
I0
sg5
I22
ssg6
I22
sg7
g8
((lp736
I144635137
aI2538139394
aI555013547
aI882341030
aI174147910
aI120753649
aI1677924025
aI420134507
aI1652772078
aI749147857
aI364936434
aI278450019
aI988456436
aI994944686
aI4705746006
aI308819289
aI2160518719
aI718078074
aI375814879
aI945465757
aI343832703
atp737
Rp738
sg12
I16
sg13
g14
(g15
tp739
Rp740
Vhttp://dlvr.it/Mlny4y
p741
I1
sVhttp://dlvr.it/MlnyF6
p742
I1
sVhttp://dlvr.it/MlnyHH
p743
I1
sVhttp://dlvr.it/MlnyGT
p744
I1
sVhttp://dlvr.it/Mlny3y
p745
I1
sVhttp://dlvr.it/Mlny7g
p746
I1
sVhttp://dlvr.it/MlnyF2
p747
I1
sVhttp://dlvr.it/MlnfQJ
p748
I1
sVhttp://dlvr.it/Mlp2qx
p749
I1
sVhttp://dlvr.it/MlnqpP
p750
I1
sVhttp://dlvr.it/MlnyDd
p751
I2
sVhttp://dlvr.it/MlnyFG
p752
I1
sVhttp://dlvr.it/MlnyD8
p753
I1
sVhttp://dlvr.it/Mlny74
p754
I1
sVhttp://ift.tt/2gkiRmL
p755
I1
sVhttp://ift.tt/2gzofTw
p756
I1
sVhttp://dlvr.it/Mlnt9H
p757
I1
sVhttp://dlvr.it/MlnyDQ
p758
I1
sVhttp://dlvr.it/Mlny9z
p759
I1
sVhttp://dlvr.it/MlnyGN
p760
I1
sVhttp://dlvr.it/MlnyC9
p761
I1
ssg19
Vondo election there will be no dictatorship corruption under akeredolu\u2019s administration \u2013 apc
p762
sg21
I29
sg22
I27
sg23
I11
sa(dp763
g2
(dp764
g4
I21
sg5
I0
ssg6
I21
sg7
g8
((lp765
I788232467358507008
aI799003751789002753
aI742007984499261443
aI769025252
aI550987205
aI747144457741606912
aI715595731562672129
aI1447529352
aI901726730
aI336542187
aI55381358
aI934785902
aI4808066595
aI2159779477
aI293267862
aI2869860183
aI274207288
aI1424405210
aI796090831060934657
aI18393418
aI782798424466984960
atp766
Rp767
sg12
I16
sg13
g14
(g15
tp768
Rp769
Vhttp://viid.me/qwpAYW
p770
I20
sVhttp://viid.me/qwpAOA
p771
I1
ssg19
Vvideo  cnn runs fake news interview with stein claiming 2016 was \u201chack riddled\u201d election   htt\u2026
p772
sg21
I30
sg22
I27
sg23
I11
sa(dp773
g2
(dp774
g4
I16
sg5
I5
ssg6
I21
sg7
g8
((lp775
I768475739901530112
aI2807202913
aI47573602
aI1694109350
aI264004582
aI2729858161
aI2259628106
aI1331887915
aI9376622
aI344349680
aI388105873
aI21351506
aI718978155327803392
aI122455671
aI803009624
aI16963034
aI18067164
aI3646190173
atp776
Rp777
sg12
I16
sg13
g14
(g15
tp778
Rp779
Vhttp://bit.ly/2gMxCT5
p780
I10
sVhttp://dld.bz/fhxhr
p781
I3
sVhttp://ift.tt/2gMgVqP
p782
I1
sVhttp://bit.ly/2gkliWB
p783
I1
sVhttp://bit.ly/2gMpWA3
p784
I6
ssg19
Veconomist steve moore if democrats try to change the election \u2013 there would be a civil war video
p785
sg21
I31
sg22
I27
sg23
I11
sa.