(lp0
(dp1
S'status'
p2
(dp3
S'retweet'
p4
I35
sS'original'
p5
I39
ssS'count'
p6
I74
sS'user_ids'
p7
c__builtin__
set
p8
((lp9
I754802590664290304
aI785001299855151104
aI787961053535698946
aI771809397341294592
aI790601488599027713
aI827864293773365249
aI44790666
aI4213020683
aI797950746553683970
aI1485495438
aI2177256592
aI2394726929
aI4760886682
aI3304982419
aI811936350970806273
aI815928899058147328
aI818973474341404672
aI815313447667765248
aI35500378
aI787978290799775744
aI790385458840731648
aI2223712032
aI1550862242
aI786685161970733056
aI790312111272591361
aI3400894919
aI794149651062595584
aI476995113
aI829128255038959616
aI3519034157
aI3089040558
aI712634960281223168
aI897953586
aI793527224225890305
aI788353148792496128
aI4480906040
aI815924866637500417
aI788133591242928128
aI4172969354
aI3885469758
aI813445430654697472
aI772789868858597376
aI816269782303510530
aI734892227411873792
aI815923752919777281
aI800566385948532736
aI788055459169177601
aI107611807
aI815927754482970624
aI188504529
aI4840914130
aI789796781257289728
aI716299079370674176
aI111735130
aI794209402131771392
aI782047131028819968
aI3088316794
aI240443742
aI794151742502010880
aI794174399595352064
aI138713188
aI747144457741606912
aI426999530
aI794224446634676224
aI3292725757
aI819343861118017536
aI802287999312678912
aI794189004077985792
aI790339051496890368
aI815925915100258304
aI799104738470096896
aI701928621854760961
aI749627140887371776
aI789266125485998080
atp10
Rp11
sS'hour'
p12
I5
sS'url'
p13
ccollections
defaultdict
p14
(c__builtin__
int
p15
tp16
Rp17
Vhttp://viid.me/qlTxqa
p18
I1
sVhttp://viid.me/qlTzWP
p19
I1
sVhttp://viid.me/qlTxaG
p20
I1
sVhttp://viid.me/qlTxsr
p21
I1
sVhttp://viid.me/qlTzAv
p22
I11
sVhttp://viid.me/qlTQ5F
p23
I1
sVhttp://viid.me/qlTxwD
p24
I19
sVhttp://viid.me/qlTYKP
p25
I1
sVhttp://viid.me/qlTxwI
p26
I13
sVhttp://viid.me/qlTxaa
p27
I3
sVhttp://viid.me/qlTxah
p28
I1
sVhttp://viid.me/qlTxpd
p29
I1
sVhttp://viid.me/qlTxpi
p30
I1
sVhttp://viid.me/qlTxpv
p31
I1
sVhttp://viid.me/qlTQTu
p32
I1
sVhttp://viid.me/qlTxog
p33
I1
sVhttp://viid.me/qlTQYn
p34
I2
sVhttp://viid.me/qlTQRI
p35
I1
sVhttp://viid.me/qlTQTA
p36
I5
sVhttp://viid.me/qlTQTY
p37
I1
sVhttp://viid.me/qlTQTQ
p38
I5
sVhttp://viid.me/qlTxoB
p39
I2
ssS'text'
p40
Vswedish police detective warns america what refugees have done to sweden
p41
sS'id'
p42
I1
sS'day'
p43
I9
sS'month'
p44
I2
sa(dp45
g2
(dp46
g4
I10
sg5
I62
ssg6
I72
sg7
g8
((lp47
I786915319008854016
aI799104738470096896
aI789169356542320642
aI782718474695090180
aI771538069723885573
aI827207230890049536
aI827215096791363585
aI2264947340
aI787961053535698946
aI367506318
aI2365781293
aI807681173837279232
aI800944784928108544
aI789113916102180864
aI3313501976
aI785831730913484800
aI793612476789231616
aI2259012509
aI796941226578743296
aI766663994362986501
aI772922637953667072
aI828089584785432577
aI799372320892657664
aI818141195595640832
aI826984595384053760
aI770355908056588288
aI765543903252676608
aI821375422583685120
aI828093209834291201
aI793527224225890305
aI828082540615458816
aI827200680628719617
aI759795273937874944
aI824676586792296449
aI779461418861101056
aI827183165831798784
aI799778010773721088
aI710812512732614656
aI796999539085504512
aI818951756508004352
aI218965318
aI804833365862023168
aI806695257916182529
aI809842713923387392
aI806702031171977216
aI797994514837291008
aI3382027107
aI798274583560331264
aI786306487765176320
aI773289605042991104
aI771809397341294592
aI827177353344229377
aI240443742
aI808475908394905600
aI788910707869945856
aI819920470589968384
aI188504529
aI788836153868845056
aI752727994226081792
aI300763628
aI808648679645069312
aI785556435321184256
aI827910559760838657
aI805863343894523906
aI826855764950208512
aI774486797606907904
aI2809720950
aI788535135687892992
aI818270767406317569
aI374835348
aI330121407
aI783543477212774400
atp48
Rp49
sg12
I5
sg13
g14
(g15
tp50
Rp51
Vhttp://viid.me/qlUcu7
p52
I1
sVhttp://viid.me/qlUcyP
p53
I1
sVhttp://viid.me/qlUctv
p54
I1
sVhttp://viid.me/qlUjRU
p55
I2
sVhttp://viid.me/qlUp4V
p56
I1
sVhttp://viid.me/qlUcrn
p57
I1
sVhttp://viid.me/qlUcon
p58
I1
sVhttp://viid.me/qlUceM
p59
I1
sVhttp://viid.me/qlUcq4
p60
I1
sVhttp://viid.me/qlUcyG
p61
I1
sVhttp://viid.me/qlUcul
p62
I1
sVhttp://viid.me/qlUct1
p63
I1
sVhttp://viid.me/qlUp4E
p64
I1
sVhttp://viid.me/qlUhIl
p65
I1
sVhttp://viid.me/qlUhdT
p66
I1
sVhttp://viid.me/qlUhdP
p67
I2
sVhttp://viid.me/qlUcyy
p68
I6
sVhttp://viid.me/qlUxYC
p69
I5
sVhttp://viid.me/qlUco0
p70
I1
sVhttp://viid.me/qlUcyZ
p71
I1
sVhttp://viid.me/qlUcoR
p72
I1
sVhttp://viid.me/qlUhfD
p73
I1
sVhttp://viid.me/qlUcyh
p74
I1
sVhttp://viid.me/qlUcf8
p75
I1
sVhttp://viid.me/qlUctJ
p76
I1
sVhttp://viid.me/qlUx1y
p77
I1
sVhttp://viid.me/qlUcuV
p78
I1
sVhttp://viid.me/qlUx5v
p79
I2
sVhttp://viid.me/qlUcur
p80
I1
sVhttp://viid.me/qlUx64
p81
I1
sVhttp://viid.me/qlUhFQ
p82
I2
sVhttp://viid.me/qlUx48
p83
I1
sVhttp://viid.me/qlUcr3
p84
I2
sVhttp://viid.me/qlUcr0
p85
I1
sVhttp://viid.me/qlUcwf
p86
I1
sVhttp://viid.me/qlUaVl
p87
I10
sVhttp://viid.me/qlUaVo
p88
I1
sVhttp://viid.me/qlUcqZ
p89
I2
sVhttp://viid.me/qlUctS
p90
I1
sVhttp://viid.me/qlUx98
p91
I1
sVhttp://viid.me/qlUcy9
p92
I1
sVhttp://viid.me/qlUhgA
p93
I1
sVhttp://viid.me/qlUc0J
p94
I1
sVhttp://viid.me/qlUcuD
p95
I1
sVhttp://viid.me/qlUcub
p96
I1
sVhttp://viid.me/qlUciw
p97
I3
ssg40
Vgoogle and facebook now working in us and france to curtail free speech
p98
sg42
I2
sg43
I9
sg44
I2
sa(dp99
g2
(dp100
g4
I6
sg5
I64
ssg6
I70
sg7
g8
((lp101
I799104738470096896
aI773289605042991104
aI787961053535698946
aI3296734251
aI757569748360171524
aI771538069723885573
aI799778010773721088
aI793527224225890305
aI825361456807936008
aI300763628
aI788232467358507008
aI789169356542320642
aI367506318
aI807681173837279232
aI789113916102180864
aI797994514837291008
aI782718474695090180
aI793612476789231616
aI823614557797158912
aI766663994362986501
aI225188002
aI771809397341294592
aI806695257916182529
aI785831730913484800
aI818141195595640832
aI806702031171977216
aI765543903252676608
aI821375422583685120
aI240443742
aI825155185156714496
aI798274583560331264
aI58191549
aI788836153868845056
aI805863343894523906
aI796999539085504512
aI818951756508004352
aI804833365862023168
aI786915319008854016
aI2264947340
aI721118837349957632
aI809842713923387392
aI796863876667207680
aI188504529
aI752727994226081792
aI770355908056588288
aI786306487765176320
aI774486797606907904
aI772922637953667072
aI824676586792296449
aI788910707869945856
aI819920470589968384
aI814988597896024064
aI796941226578743296
aI779461418861101056
aI828600641253625856
aI785556435321184256
aI330121407
aI799372320892657664
aI826855764950208512
aI808475908394905600
aI788535135687892992
aI818270767406317569
aI800944784928108544
aI828615339994923012
aI783543477212774400
atp102
Rp103
sg12
I5
sg13
g14
(g15
tp104
Rp105
Vhttps://twitter.com/i/web/status/829596793822343171
p106
I1
sVhttps://twitter.com/i/web/status/829588445815136256
p107
I1
sVhttps://twitter.com/i/web/status/829588237928656896
p108
I1
sVhttps://twitter.com/i/web/status/829588224066457604
p109
I1
sVhttps://twitter.com/i/web/status/829596794153627649
p110
I1
sVhttps://twitter.com/i/web/status/829588980312133632
p111
I1
sVhttps://twitter.com/i/web/status/829588481768779776
p112
I1
sVhttps://twitter.com/i/web/status/829588961710333952
p113
I1
sVhttps://twitter.com/i/web/status/829589944553254912
p114
I1
sVhttps://twitter.com/i/web/status/829589945593368576
p115
I1
sVhttps://twitter.com/i/web/status/829583939845054466
p116
I1
sVhttps://twitter.com/i/web/status/829596803171389440
p117
I1
sVhttps://twitter.com/i/web/status/829586957260840960
p118
I1
sVhttps://twitter.com/i/web/status/829588431902633984
p119
I1
sVhttps://twitter.com/i/web/status/829588474751627264
p120
I1
sVhttps://twitter.com/i/web/status/829588483509399552
p121
I1
sVhttps://twitter.com/i/web/status/829588483660357632
p122
I1
sVhttps://twitter.com/i/web/status/829590824505659392
p123
I2
sVhttps://twitter.com/i/web/status/829586955788656640
p124
I1
sVhttps://twitter.com/i/web/status/829596789829283841
p125
I1
sVhttps://twitter.com/i/web/status/829589945924743168
p126
I1
sVhttps://twitter.com/i/web/status/829588452253372416
p127
I1
sVhttps://twitter.com/i/web/status/829588484528574464
p128
I2
sVhttps://twitter.com/i/web/status/829588452450586625
p129
I1
sVhttps://twitter.com/i/web/status/829586957621555200
p130
I1
sVhttps://twitter.com/i/web/status/829588440228376576
p131
I1
sVhttps://twitter.com/i/web/status/829588230672494592
p132
I2
sVhttps://twitter.com/i/web/status/829588199366275073
p133
I1
sVhttps://twitter.com/i/web/status/829591522987302912
p134
I1
sVhttps://twitter.com/i/web/status/829587733047758848
p135
I1
sVhttps://twitter.com/i/web/status/829588483538776065
p136
I1
sVhttps://twitter.com/i/web/status/829589949854814208
p137
I1
sVhttps://twitter.com/i/web/status/829588472897744896
p138
I1
sVhttps://twitter.com/i/web/status/829588482829873157
p139
I1
sVhttps://twitter.com/i/web/status/829589244242898944
p140
I1
sVhttps://twitter.com/i/web/status/829590223654772737
p141
I1
sVhttps://twitter.com/i/web/status/829590216285433858
p142
I1
sVhttps://twitter.com/i/web/status/829589259036225537
p143
I1
sVhttps://twitter.com/i/web/status/829586943172190208
p144
I1
sVhttps://twitter.com/i/web/status/829588960477274115
p145
I3
sVhttps://twitter.com/i/web/status/829586927699386368
p146
I1
sVhttps://twitter.com/i/web/status/829589250811113476
p147
I1
sVhttps://twitter.com/i/web/status/829588203002748929
p148
I1
sVhttps://twitter.com/i/web/status/829588960481406976
p149
I1
sVhttps://twitter.com/i/web/status/829588475187851266
p150
I2
sVhttps://twitter.com/i/web/status/829588198330228737
p151
I1
sVhttps://twitter.com/i/web/status/829590772827582464
p152
I1
sVhttps://twitter.com/i/web/status/829586960515686400
p153
I1
sVhttps://twitter.com/i/web/status/829588479356985345
p154
I1
sVhttps://twitter.com/i/web/status/829588236984922112
p155
I1
sVhttps://twitter.com/i/web/status/829588206643343360
p156
I1
sVhttps://twitter.com/i/web/status/829588475045253120
p157
I1
sVhttps://twitter.com/i/web/status/829588227300298752
p158
I1
sVhttps://twitter.com/i/web/status/829588477385641984
p159
I1
sVhttps://twitter.com/i/web/status/829596790886326272
p160
I1
sVhttps://twitter.com/i/web/status/829588232526450688
p161
I1
sVhttps://twitter.com/i/web/status/829586959341277184
p162
I1
sVhttps://twitter.com/i/web/status/829586926424387584
p163
I1
sVhttps://twitter.com/i/web/status/829588223793917952
p164
I1
sVhttps://twitter.com/i/web/status/829588232153100290
p165
I1
sVhttps://twitter.com/i/web/status/829588229380722688
p166
I1
sVhttps://twitter.com/i/web/status/829591508185604096
p167
I1
sVhttps://twitter.com/i/web/status/829588234418073600
p168
I1
sVhttps://twitter.com/i/web/status/829588432074612736
p169
I1
ssg40
Vvideo marine forced to evacuate iraq after telling the chilling truth about trump\u2019s travel ban\u2026
p170
sg42
I3
sg43
I9
sg44
I2
sa(dp171
g2
(dp172
g4
I1
sg5
I67
ssg6
I68
sg7
g8
((lp173
I790611590320103424
aI827183165831798784
aI787828400744501250
aI803952837537464324
aI790895491294826496
aI827200680628719617
aI766307608743600128
aI484898449
aI799788453676417025
aI786293784359219200
aI827207230890049536
aI779841027926528000
aI727564171156570113
aI826984595384053760
aI828093209834291201
aI828082540615458816
aI779789207447408641
aI787129103128358912
aI828089584785432577
aI779461418861101056
aI792529889991725057
aI787040661702864896
aI785195157712990208
aI772922637953667072
aI827177353344229377
aI240443742
aI827910559760838657
aI797938751263555584
aI827215096791363585
aI802287999312678912
aI784049878271979520
aI785556435321184256
atp174
Rp175
sg12
I5
sg13
g14
(g15
tp176
Rp177
Vhttp://viid.me/qlUckj
p178
I1
sVhttp://viid.me/qlTfZl
p179
I1
sVhttp://viid.me/qlTfZb
p180
I5
sVhttp://viid.me/qlUiby
p181
I1
sVhttp://viid.me/qlUic8
p182
I1
sVhttp://viid.me/qlTfLG
p183
I3
sVhttp://viid.me/qlUibT
p184
I1
sVhttp://viid.me/qlTfZK
p185
I1
sVhttp://viid.me/qlUou9
p186
I1
sVhttp://viid.me/qlTfYu
p187
I1
sVhttp://viid.me/qlTfK1
p188
I10
sVhttp://viid.me/qlTfZE
p189
I1
sVhttp://viid.me/qlUibG
p190
I1
sVhttp://viid.me/qlTfLa
p191
I2
sVhttp://viid.me/qlUoy1
p192
I1
sVhttp://viid.me/qlUivi
p193
I1
sVhttp://viid.me/qlUoad
p194
I1
sVhttp://viid.me/qlTggs
p195
I1
sVhttp://viid.me/qlTfXQ
p196
I1
sVhttp://viid.me/qlUoRt
p197
I10
sVhttp://viid.me/qlTfXX
p198
I1
sVhttp://viid.me/qlTfCg
p199
I1
sVhttp://viid.me/qlTfKC
p200
I1
sVhttp://viid.me/qlTfXw
p201
I1
sVhttp://viid.me/qlUoyk
p202
I1
sVhttp://viid.me/qlUor5
p203
I1
sVhttp://viid.me/qlUoyi
p204
I2
sVhttp://viid.me/qlUot0
p205
I1
sVhttp://viid.me/qlTfL9
p206
I1
sVhttp://viid.me/qlUivd
p207
I6
sVhttp://viid.me/qlTfKk
p208
I1
sVhttp://viid.me/qlUicB
p209
I3
sVhttp://viid.me/qlTfVe
p210
I2
sVhttp://viid.me/qlUoua
p211
I1
ssg40
Vmeet si swimsuit rookie
p212
sg42
I4
sg43
I9
sg44
I2
sa(dp213
g2
(dp214
g4
I12
sg5
I49
ssg6
I61
sg7
g8
((lp215
I794209402131771392
aI794189004077985792
aI797950746553683970
aI829128255038959616
aI815313447667765248
aI827215096791363585
aI827864293773365249
aI2181347084
aI787961053535698946
aI1485495438
aI737294036
aI790312111272591361
aI788353148792496128
aI18553881
aI217575068
aI819343861118017536
aI790385458840731648
aI785001299855151104
aI815923752919777281
aI794149651062595584
aI826984595384053760
aI818973474341404672
aI417497777
aI787978290799775744
aI828093209834291201
aI793527224225890305
aI828082540615458816
aI815924866637500417
aI789796781257289728
aI4885405884
aI828089584785432577
aI813445430654697472
aI827183165831798784
aI1250323009
aI317308866
aI734892227411873792
aI800566385948532736
aI827207230890049536
aI827200680628719617
aI188504529
aI788133591242928128
aI815927754482970624
aI771809397341294592
aI827177353344229377
aI240443742
aI794151742502010880
aI794174399595352064
aI769192599852765184
aI802287999312678912
aI28034749
aI815928899058147328
aI827910559760838657
aI794224446634676224
aI754802590664290304
aI772789868858597376
aI790339051496890368
aI790601488599027713
aI815925915100258304
aI799104738470096896
aI749627140887371776
aI789266125485998080
atp216
Rp217
sg12
I5
sg13
g14
(g15
tp218
Rp219
Vhttp://viid.me/qlUorY
p220
I1
sVhttp://viid.me/qlUbO3
p221
I1
sVhttp://viid.me/qlUbUE
p222
I1
sVhttp://viid.me/qlUodK
p223
I1
sVhttp://viid.me/qlUos9
p224
I1
sVhttp://viid.me/qlUbSr
p225
I1
sVhttp://viid.me/qlUbA9
p226
I1
sVhttp://viid.me/qlUbPC
p227
I6
sVhttp://viid.me/qlUowG
p228
I1
sVhttp://viid.me/qlUsNa
p229
I1
sVhttp://viid.me/qlUbTS
p230
I6
sVhttp://viid.me/qlUbAG
p231
I5
sVhttp://viid.me/qlUbPS
p232
I2
sVhttp://viid.me/qlUouN
p233
I5
sVhttp://viid.me/qlUoer
p234
I1
sVhttp://viid.me/qlUi7P
p235
I10
sVhttp://viid.me/qlUbW7
p236
I1
sVhttp://viid.me/qlUofs
p237
I10
sVhttp://viid.me/qlUbPe
p238
I1
sVhttp://viid.me/qlUbPi
p239
I1
sVhttp://viid.me/qlUbS2
p240
I1
sVhttp://viid.me/qlUbAy
p241
I1
sVhttp://viid.me/qlUom1
p242
I1
sVhttp://viid.me/qlUbAa
p243
I1
ssg40
Vbreaking  sessions conformation means mass amnesty is over
p244
sg42
I5
sg43
I9
sg44
I2
sa(dp245
g2
(dp246
g4
I2
sg5
I59
ssg6
I61
sg7
g8
((lp247
I799104738470096896
aI773289605042991104
aI789169356542320642
aI757569748360171524
aI771538069723885573
aI785556435321184256
aI793527224225890305
aI825361456807936008
aI819920470589968384
aI2264947340
aI805863343894523906
aI367506318
aI800944784928108544
aI789113916102180864
aI797994514837291008
aI782718474695090180
aI793612476789231616
aI796941226578743296
aI766663994362986501
aI771809397341294592
aI806695257916182529
aI799372320892657664
aI818141195595640832
aI765543903252676608
aI818270767406317569
aI821375422583685120
aI3458047347
aI825155185156714496
aI824676586792296449
aI779461418861101056
aI787961053535698946
aI796999539085504512
aI818951756508004352
aI804833365862023168
aI786915319008854016
aI772922637953667072
aI809842713923387392
aI796863876667207680
aI806702031171977216
aI752727994226081792
aI798274583560331264
aI786306487765176320
aI774486797606907904
aI799778010773721088
aI240443742
aI823614557797158912
aI746089182636834816
aI785831730913484800
aI188504529
aI788836153868845056
aI300763628
aI330121407
aI826855764950208512
aI770355908056588288
aI828600641253625856
aI808475908394905600
aI788535135687892992
aI788910707869945856
aI807681173837279232
aI828615339994923012
aI783543477212774400
atp248
Rp249
sg12
I5
sg13
g14
(g15
tp250
Rp251
Vhttp://viid.me/qlEc3p
p252
I2
sVhttp://viid.me/qlElaO
p253
I1
sVhttp://viid.me/qlEzAK
p254
I1
sVhttp://viid.me/qlEbLs
p255
I1
sVhttps://twitter.com/i/web/status/829587731277701120
p256
I1
sVhttp://viid.me/qlEv4E
p257
I1
sVhttp://viid.me/qlElaB
p258
I1
sVhttps://twitter.com/i/web/status/829588498319499264
p259
I1
sVhttp://viid.me/qlExY3
p260
I1
sVhttps://twitter.com/i/web/status/829588497790967808
p261
I1
sVhttp://viid.me/qlEzIB
p262
I2
sVhttp://viid.me/qlEz7t
p263
I5
sVhttp://viid.me/qlEz8d
p264
I1
sVhttp://viid.me/qlEx7y
p265
I1
sVhttp://viid.me/qlExUk
p266
I1
sVhttp://viid.me/qlEc1V
p267
I1
sVhttp://viid.me/qlEx5z
p268
I1
sVhttp://viid.me/qlEvi3
p269
I1
sVhttp://viid.me/qlEzAl
p270
I1
sVhttp://viid.me/qlEzwK
p271
I1
sVhttp://viid.me/qlEhc0
p272
I1
sVhttp://viid.me/qlEx7N
p273
I1
sVhttp://viid.me/qlEv18
p274
I1
sVhttp://viid.me/qlExGA
p275
I1
sVhttp://viid.me/qlEzD0
p276
I1
sVhttp://viid.me/qlEzD3
p277
I1
sVhttp://viid.me/qlEv6z
p278
I1
sVhttp://viid.me/qlExRI
p279
I1
sVhttp://viid.me/qlEc30
p280
I1
sVhttp://viid.me/qlEzSu
p281
I1
sVhttps://twitter.com/i/web/status/829588499430985729
p282
I1
sVhttp://viid.me/qlEljU
p283
I3
sVhttps://twitter.com/i/web/status/829588518082981892
p284
I1
sVhttp://viid.me/qlElgH
p285
I1
sVhttp://viid.me/qlEc2s
p286
I1
sVhttp://viid.me/qlEx4w
p287
I1
sVhttp://viid.me/qlEzOv
p288
I1
sVhttp://viid.me/qlEcm6
p289
I1
sVhttp://viid.me/qlEz5r
p290
I1
sVhttp://viid.me/qlElf7
p291
I1
sVhttp://viid.me/qlExUe
p292
I2
sVhttp://viid.me/qlEcqk
p293
I1
sVhttp://viid.me/qlEz7O
p294
I1
sVhttp://viid.me/qlEbZ0
p295
I1
sVhttp://viid.me/qlEzDn
p296
I1
sVhttp://viid.me/qlEz3v
p297
I1
sVhttp://viid.me/qlEzqq
p298
I1
sVhttp://viid.me/qlEcN6
p299
I1
sVhttp://viid.me/qlElfI
p300
I1
sVhttp://viid.me/qlEx4u
p301
I2
sVhttps://twitter.com/i/web/status/829588500844417024
p302
I1
sVhttp://viid.me/qlEvoe
p303
I1
sVhttp://viid.me/qlEzA2
p304
I2
sVhttp://viid.me/qlEzDz
p305
I1
sVhttp://viid.me/qlEz8W
p306
I2
ssg40
Vvideo standoff at ice office in phoenix as protesters block deportation of illegal alien
p307
sg42
I6
sg43
I9
sg44
I2
sa(dp308
g2
(dp309
g4
I9
sg5
I50
ssg6
I59
sg7
g8
((lp310
I796025831919386624
aI764662496179421185
aI787828400744501250
aI819663263998869507
aI789266125485998080
aI772922637953667072
aI779789207447408641
aI2240002320
aI821375422583685120
aI115517851
aI771538069723885573
aI786915319008854016
aI869176992
aI784825705099956224
aI823343596917112833
aI815928899058147328
aI786293784359219200
aI809168093708697600
aI778051538132594688
aI799714584307171329
aI704051509063974913
aI785195157712990208
aI815924866637500417
aI222505018
aI765273279389134848
aI828838674884222976
aI779461418861101056
aI802061220186587136
aI67297220
aI815923752919777281
aI787662472530493440
aI782286927793909760
aI806148701160927232
aI815927754482970624
aI779841027926528000
aI794229280326746112
aI741426407599833088
aI815925915100258304
aI795596174589829120
aI791086606597951488
aI727564171156570113
aI789113916102180864
aI4883801255
aI823431491845836800
aI824089961905397760
aI828957353928249344
aI800039817652400128
aI759795273937874944
aI827241553596973057
aI3003471994
aI791823307922374656
aI431183358
aI785354015043452928
atp311
Rp312
sg12
I5
sg13
g14
(g15
tp313
Rp314
Vhttp://viid.me/qlEjQm
p315
I1
sVhttp://viid.me/qlEkkL
p316
I1
sVhttp://viid.me/qlEkUp
p317
I1
sVhttp://viid.me/qlEkUn
p318
I1
sVhttp://viid.me/qlEkcj
p319
I1
sVhttp://viid.me/qlELnd
p320
I1
sVhttp://viid.me/qlELbO
p321
I3
sVhttp://viid.me/qlEh8l
p322
I7
sVhttp://viid.me/qlEbC9
p323
I1
sVhttp://viid.me/qlEkcY
p324
I1
sVhttp://viid.me/qlEmWd
p325
I1
sVhttp://viid.me/qlEbeT
p326
I1
sVhttp://viid.me/qq9cqd
p327
I1
sVhttp://viid.me/qlEEol
p328
I2
sVhttp://viid.me/qlEbCP
p329
I1
sVhttp://viid.me/qlELbn
p330
I1
sVhttp://viid.me/qlEj0L
p331
I4
sVhttp://viid.me/qlEa07
p332
I5
sVhttp://viid.me/qlEjW7
p333
I1
sVhttp://viid.me/qlETct
p334
I1
sVhttp://viid.me/qlEjW2
p335
I1
sVhttp://viid.me/qlEEob
p336
I1
sVhttp://viid.me/qlEklJ
p337
I1
sVhttp://viid.me/qlEEof
p338
I1
sVhttp://viid.me/qlEh8b
p339
I1
sVhttp://ift.tt/eA8V8J
p340
I1
sVhttp://viid.me/qlEkbU
p341
I4
sVhttp://viid.me/qlEkbS
p342
I1
sVhttp://viid.me/qlEbXe
p343
I1
sVhttp://viid.me/qlEh9A
p344
I4
sVhttp://viid.me/qlEbCa
p345
I1
sVhttp://viid.me/qlEAw9
p346
I1
sVhttp://viid.me/qlEkdp
p347
I5
sVhttp://viid.me/qlEklk
p348
I1
ssg40
Vpolice arrest protesters at phoenix immigration office
p349
sg42
I7
sg43
I9
sg44
I2
sa(dp350
g2
(dp351
g4
I9
sg5
I49
ssg6
I58
sg7
g8
((lp352
I827183165831798784
aI827910559760838657
aI787961053535698946
aI829128255038959616
aI790339051496890368
aI828089584785432577
aI827864293773365249
aI819231703227105282
aI2668467074
aI790312111272591361
aI772789868858597376
aI4855368629
aI815313447667765248
aI787978290799775744
aI827207230890049536
aI785001299855151104
aI827215096791363585
aI794149651062595584
aI826984595384053760
aI818973474341404672
aI824459310830915584
aI828093209834291201
aI793527224225890305
aI788353148792496128
aI827200680628719617
aI789796781257289728
aI813445430654697472
aI828082540615458816
aI797950746553683970
aI734892227411873792
aI815923752919777281
aI800566385948532736
aI790385458840731648
aI815924866637500417
aI815927754482970624
aI725783439572496384
aI188504529
aI794189004077985792
aI788133591242928128
aI754802590664290304
aI771809397341294592
aI827177353344229377
aI240443742
aI794151742502010880
aI2167585616
aI794174399595352064
aI797095725901447168
aI154103402
aI794224446634676224
aI815928899058147328
aI819343861118017536
aI802287999312678912
aI794209402131771392
aI3306240758
aI790601488599027713
aI815925915100258304
aI799104738470096896
aI789266125485998080
atp353
Rp354
sg12
I5
sg13
g14
(g15
tp355
Rp356
Vhttp://viid.me/qlUi50
p357
I1
sVhttp://viid.me/qlUek1
p358
I6
sVhttp://viid.me/qlUejt
p359
I1
sVhttp://viid.me/qlUi8o
p360
I1
sVhttp://viid.me/qlUsXl
p361
I1
sVhttp://viid.me/qlUenE
p362
I2
sVhttp://viid.me/qlUi6d
p363
I1
sVhttp://viid.me/qlUorc
p364
I1
sVhttp://viid.me/qlUebN
p365
I3
sVhttp://viid.me/qlUenI
p366
I1
sVhttp://viid.me/qlUebZ
p367
I1
sVhttp://viid.me/qlUevv
p368
I1
sVhttp://viid.me/qlUi87
p369
I5
sVhttp://viid.me/qlY6CG
p370
I13
sVhttp://viid.me/qlUems
p371
I1
sVhttp://viid.me/qlUebG
p372
I1
sVhttp://viid.me/qlUolY
p373
I1
sVhttp://viid.me/qlUezV
p374
I1
sVhttp://viid.me/qlUowh
p375
I1
sVhttp://viid.me/qlUevU
p376
I1
sVhttp://viid.me/qlUeby
p377
I1
sVhttp://viid.me/qlUevJ
p378
I1
sVhttp://viid.me/qlUekC
p379
I11
sVhttp://viid.me/qlUevC
p380
I1
ssg40
Vbreaking video  poor chuck schumer is sick of losing
p381
sg42
I8
sg43
I9
sg44
I2
sa(dp382
g2
(dp383
g4
I5
sg5
I53
ssg6
I58
sg7
g8
((lp384
I796863876667207680
aI824676586792296449
aI789169356542320642
aI782718474695090180
aI771538069723885573
aI799778010773721088
aI793527224225890305
aI300763628
aI2264947340
aI787961053535698946
aI367506318
aI807681173837279232
aI800944784928108544
aI789113916102180864
aI821375422583685120
aI799104738470096896
aI793612476789231616
aI786915319008854016
aI773740631101497344
aI771809397341294592
aI770355908056588288
aI799372320892657664
aI818141195595640832
aI806702031171977216
aI765543903252676608
aI766663994362986501
aI797994514837291008
aI806695257916182529
aI793677341042044928
aI818940168073842688
aI752727994226081792
aI821698510798123010
aI796999539085504512
aI818951756508004352
aI804833365862023168
aI809842713923387392
aI188504529
aI798274583560331264
aI786306487765176320
aI774486797606907904
aI772922637953667072
aI240443742
aI808475908394905600
aI788910707869945856
aI819920470589968384
aI796941226578743296
aI788836153868845056
aI779461418861101056
aI785831730913484800
aI813138530339815424
aI785556435321184256
aI805863343894523906
aI826855764950208512
aI773289605042991104
aI788535135687892992
aI818270767406317569
aI330121407
aI783543477212774400
atp385
Rp386
sg12
I5
sg13
g14
(g15
tp387
Rp388
Vhttp://viid.me/qlE4Xn
p389
I1
sVhttp://viid.me/qlRwv9
p390
I1
sVhttp://viid.me/qlRwa0
p391
I1
sVhttp://viid.me/qlRwc1
p392
I1
sVhttp://viid.me/qlRwb7
p393
I1
sVhttp://viid.me/qlRwsi
p394
I1
sVhttp://viid.me/qlE9Dm
p395
I1
sVhttp://viid.me/qlRwa8
p396
I1
sVhttp://viid.me/qlE9xH
p397
I1
sVhttp://viid.me/qlRwbb
p398
I1
sVhttp://viid.me/qlRwbE
p399
I1
sVhttp://viid.me/qlE9Fo
p400
I2
sVhttp://viid.me/qlRwbo
p401
I1
sVhttp://viid.me/qlRwvN
p402
I1
sVhttp://viid.me/qlRwi4
p403
I1
sVhttp://viid.me/qlRwse
p404
I1
sVhttp://viid.me/qlRwsd
p405
I1
sVhttp://viid.me/qlRwGz
p406
I1
sVhttp://viid.me/qlRwnc
p407
I1
sVhttp://viid.me/qlE3Af
p408
I1
sVhttp://viid.me/qlRwsk
p409
I1
sVhttp://viid.me/qlE6kz
p410
I1
sVhttp://viid.me/qlE9FI
p411
I1
sVhttp://viid.me/qlRwsv
p412
I1
sVhttp://viid.me/qlRwp5
p413
I1
sVhttp://viid.me/qlE9Dx
p414
I1
sVhttp://viid.me/qlE4D4
p415
I1
sVhttp://viid.me/qlRwbI
p416
I1
sVhttp://viid.me/qlRwbV
p417
I1
sVhttp://viid.me/qlRwFX
p418
I1
sVhttp://viid.me/qlRwap
p419
I1
sVhttp://viid.me/qlRwpH
p420
I2
sVhttp://viid.me/qlRwDE
p421
I1
sVhttp://viid.me/qlRwnY
p422
I1
sVhttp://viid.me/qlRwpA
p423
I1
sVhttp://viid.me/qlRwpY
p424
I1
sVhttp://viid.me/qlE9Gc
p425
I1
sVhttp://viid.me/qlRwiq
p426
I1
sVhttp://viid.me/qlRtDH
p427
I1
sVhttp://viid.me/qlRtLp
p428
I1
sVhttp://viid.me/qlRwnw
p429
I2
sVhttp://viid.me/qlRwvm
p430
I2
sVhttp://viid.me/qlRwFQ
p431
I2
sVhttp://viid.me/qlE9S6
p432
I1
sVhttp://viid.me/qlRwaB
p433
I6
sVhttp://viid.me/qlRwiP
p434
I2
sVhttp://viid.me/qlE3Uc
p435
I1
ssg40
Visis puts 1 million bounty on danish student\u2019s head for killing 100 isis militants photos
p436
sg42
I9
sg43
I9
sg44
I2
sa(dp437
g2
(dp438
g4
I0
sg5
I57
ssg6
I57
sg7
g8
((lp439
I809168093708697600
aI799714584307171329
aI797852908553375746
aI803952837537464324
aI806600011756818437
aI772922637953667072
aI779789207447408641
aI766307608743600128
aI796025831919386624
aI787828400744501250
aI799788453676417025
aI827207230890049536
aI828082540615458816
aI779841027926528000
aI823343596917112833
aI824089961905397760
aI786293784359219200
aI787040661702864896
aI828093209834291201
aI828838674884222976
aI792529889991725057
aI222505018
aI782286927793909760
aI828089584785432577
aI826984595384053760
aI779461418861101056
aI827183165831798784
aI827200680628719617
aI784049878271979520
aI787129103128358912
aI764662496179421185
aI785195157712990208
aI790895491294826496
aI827177353344229377
aI240443742
aI794229280326746112
aI827215096791363585
aI727564171156570113
aI797938751263555584
aI790611590320103424
aI827910559760838657
aI802287999312678912
aI800039817652400128
aI785556435321184256
aI3003471994
aI785354015043452928
atp440
Rp441
sg12
I5
sg13
g14
(g15
tp442
Rp443
Vhttp://viid.me/qlTxlt
p444
I1
sVhttp://viid.me/qlT78Z
p445
I1
sVhttp://viid.me/qlT7Gb
p446
I1
sVhttp://viid.me/qlT8Bw
p447
I1
sVhttp://viid.me/qlYofg
p448
I1
sVhttp://viid.me/qlT8Bu
p449
I1
sVhttp://viid.me/qlTSg8
p450
I1
sVhttp://viid.me/qlT9dA
p451
I10
sVhttp://viid.me/qlTSg0
p452
I1
sVhttp://viid.me/qlT76O
p453
I1
sVhttp://viid.me/qlT8BY
p454
I1
sVhttp://viid.me/qlT7GK
p455
I5
sVhttp://viid.me/qlTShW
p456
I1
sVhttp://viid.me/qlT8BQ
p457
I1
sVhttp://viid.me/qlT75Y
p458
I3
sVhttp://viid.me/qlTxcl
p459
I1
sVhttp://viid.me/qlT8Ng
p460
I2
sVhttp://viid.me/qlT5Vm
p461
I1
sVhttp://viid.me/qlT8Mv
p462
I1
sVhttp://viid.me/qlYyqd
p463
I1
sVhttp://viid.me/qlTSfX
p464
I1
sVhttp://viid.me/qlT8B5
p465
I1
sVhttp://viid.me/qlTSgg
p466
I1
sVhttp://viid.me/qlT51e
p467
I1
sVhttp://viid.me/qlTSgz
p468
I3
sVhttp://viid.me/qlT77C
p469
I1
sVhttp://viid.me/qlTSfM
p470
I3
sVhttp://viid.me/qlTSgp
p471
I1
sVhttp://viid.me/qlT8NL
p472
I1
sVhttp://viid.me/qlTSfs
p473
I4
sVhttp://viid.me/qlT768
p474
I1
sVhttp://viid.me/qlTSgL
p475
I2
sVhttp://viid.me/qlTSgR
p476
I1
ssg40
Vblast in french nuclear plants machine room no radiation
p477
sg42
I10
sg43
I9
sg44
I2
sa(dp478
g2
(dp479
g4
I6
sg5
I50
ssg6
I56
sg7
g8
((lp480
I827183165831798784
aI828093209834291201
aI787961053535698946
aI65388145
aI829128255038959616
aI790339051496890368
aI827215096791363585
aI136497672
aI827864293773365249
aI797950746553683970
aI1485495438
aI790312111272591361
aI18553881
aI815313447667765248
aI787978290799775744
aI827207230890049536
aI771809397341294592
aI828089584785432577
aI794149651062595584
aI826984595384053760
aI818973474341404672
aI793527224225890305
aI788353148792496128
aI772789868858597376
aI827200680628719617
aI789796781257289728
aI2865032639
aI828082540615458816
aI734892227411873792
aI815923752919777281
aI800566385948532736
aI790385458840731648
aI3750989257
aI815924866637500417
aI714617115471425536
aI815927754482970624
aI188504529
aI819343861118017536
aI794189004077985792
aI788133591242928128
aI754802590664290304
aI785001299855151104
aI827177353344229377
aI240443742
aI794151742502010880
aI794174399595352064
aI813445430654697472
aI794224446634676224
aI815928899058147328
aI827910559760838657
aI802287999312678912
aI794209402131771392
aI790601488599027713
aI815925915100258304
aI799104738470096896
aI789266125485998080
atp481
Rp482
sg12
I5
sg13
g14
(g15
tp483
Rp484
Vhttp://viid.me/qlURq7
p485
I1
sVhttp://viid.me/qlUbGe
p486
I4
sVhttp://viid.me/qlUbHN
p487
I1
sVhttp://viid.me/qlUWgI
p488
I1
sVhttp://viid.me/qlUbF0
p489
I1
sVhttp://viid.me/qlUbHP
p490
I1
sVhttp://viid.me/qlUbHm
p491
I1
sVhttp://viid.me/qlUbGC
p492
I1
sVhttp://viid.me/qlUbHa
p493
I3
sVhttp://viid.me/qlUbGJ
p494
I1
sVhttp://viid.me/qlUbJr
p495
I1
sVhttp://viid.me/qlUbHy
p496
I1
sVhttp://viid.me/qlUbSo
p497
I1
sVhttp://viid.me/qlUbUl
p498
I5
sVhttp://viid.me/qlUkKq
p499
I11
sVhttp://viid.me/qlUU02
p500
I1
sVhttp://viid.me/qlUWjp
p501
I1
sVhttp://viid.me/qlUbRz
p502
I1
sVhttp://viid.me/qlUbU2
p503
I11
sVhttp://viid.me/qlUWcg
p504
I1
sVhttp://viid.me/qlUWjF
p505
I5
sVhttp://viid.me/qlUWlG
p506
I1
sVhttp://viid.me/qlUWgr
p507
I1
sVhttps://twitter.com/trumphero4usa/status/829692762823938049
p508
I1
ssg40
Vbreaking  the trump wall is being designed right now
p509
sg42
I11
sg43
I9
sg44
I2
sa(dp510
g2
(dp511
g4
I6
sg5
I49
ssg6
I55
sg7
g8
((lp512
I826984595384053760
aI827207230890049536
aI787961053535698946
aI789266125485998080
aI790339051496890368
aI828093209834291201
aI827864293773365249
aI797950746553683970
aI788353148792496128
aI818973474341404672
aI815313447667765248
aI787978290799775744
aI790385458840731648
aI30266529
aI785001299855151104
aI790312111272591361
aI794149651062595584
aI829128255038959616
aI712634960281223168
aI1448600947
aI827910559760838657
aI793527224225890305
aI827183165831798784
aI827200680628719617
aI789796781257289728
aI828089584785432577
aI72646719
aI828082540615458816
aI816269782303510530
aI734892227411873792
aI815923752919777281
aI800566385948532736
aI815924866637500417
aI815927754482970624
aI188504529
aI819343861118017536
aI788133591242928128
aI754802590664290304
aI771809397341294592
aI827177353344229377
aI240443742
aI794151742502010880
aI794174399595352064
aI813445430654697472
aI794224446634676224
aI815928899058147328
aI827215096791363585
aI802287999312678912
aI794189004077985792
aI772789868858597376
aI773740631101497344
aI790601488599027713
aI815925915100258304
aI799104738470096896
aI794209402131771392
atp513
Rp514
sg12
I5
sg13
g14
(g15
tp515
Rp516
Vhttp://viid.me/qlTRGz
p517
I11
sVhttp://viid.me/qlTVq2
p518
I10
sVhttp://viid.me/qlTVtG
p519
I1
sVhttp://viid.me/qlT29r
p520
I1
sVhttp://viid.me/qlTVd8
p521
I1
sVhttp://viid.me/qlTVh2
p522
I2
sVhttp://viid.me/qlT3uv
p523
I1
sVhttp://viid.me/qlT3PL
p524
I1
sVhttp://viid.me/qlTVgq
p525
I1
sVhttp://viid.me/qlTVhV
p526
I1
sVhttp://viid.me/qlT3eN
p527
I1
sVhttp://viid.me/qlTY3E
p528
I1
sVhttp://viid.me/qlTVfS
p529
I1
sVhttp://viid.me/qlTVhE
p530
I1
sVhttp://viid.me/qlTVhD
p531
I1
sVhttp://viid.me/qlTVj5
p532
I2
sVhttp://viid.me/qlT2Aw
p533
I1
sVhttp://viid.me/qlTVdp
p534
I1
sVhttp://viid.me/qlT3ea
p535
I5
sVhttp://viid.me/qlTVqE
p536
I4
sVhttp://viid.me/qlTVhl
p537
I5
sVhttp://viid.me/qlT2BP
p538
I1
sVhttp://viid.me/qlTC7u
p539
I1
ssg40
Vlisten  liberal university professor tells class he has no sympathy for white people
p540
sg42
I12
sg43
I9
sg44
I2
sa(dp541
g2
(dp542
g4
I20
sg5
I34
ssg6
I54
sg7
g8
((lp543
I779461418861101056
aI765273279389134848
aI805863343894523906
aI828260305973174275
aI829366975352668164
aI771538069723885573
aI772922637953667072
aI799714584307171329
aI825207964072083456
aI3166178833
aI825086314076831747
aI2203455899
aI802299026242736128
aI826451724349079552
aI750905187783544832
aI790601488599027713
aI1459282344
aI786293784359219200
aI2750309806
aI809168093708697600
aI417497777
aI787978290799775744
aI787799847915118592
aI792529889991725057
aI713768020284301312
aI788836153868845056
aI318694851
aI433792330
aI1242171468
aI188504529
aI758337585223569408
aI785195157712990208
aI2912118236
aI906855901
aI816823302568214528
aI2368262497
aI792829665656377344
aI746089182636834816
aI785595843801849856
aI802287999312678912
aI392899058
aI823431491845836800
aI796863876667207680
aI785556435321184256
aI4797764475
aI765543903252676608
atp544
Rp545
sg12
I5
sg13
g14
(g15
tp546
Rp547
Vhttps://twitter.com/i/web/status/829588967137767426
p548
I1
sVhttps://twitter.com/i/web/status/829588687172145153
p549
I1
sVhttps://twitter.com/i/web/status/829590435521716224
p550
I1
sVhttps://twitter.com/i/web/status/829588602170400768
p551
I2
sVhttps://twitter.com/i/web/status/829591495288066048
p552
I1
sVhttps://twitter.com/i/web/status/829588691085512705
p553
I2
sVhttps://twitter.com/i/web/status/829588692041740289
p554
I1
sVhttps://twitter.com/i/web/status/829588688417890304
p555
I2
sVhttps://twitter.com/i/web/status/829589260265140224
p556
I7
sVhttps://twitter.com/i/web/status/829588989753516033
p557
I1
sVhttps://twitter.com/i/web/status/829588960233918470
p558
I1
sVhttps://twitter.com/i/web/status/829588695674032128
p559
I2
sVhttps://twitter.com/i/web/status/829588707573272577
p560
I2
sVhttps://twitter.com/i/web/status/829590432820584448
p561
I1
sVhttps://twitter.com/i/web/status/829589657771925504
p562
I1
sVhttps://twitter.com/i/web/status/829631779954794500
p563
I2
sVhttps://twitter.com/i/web/status/829588961907531776
p564
I1
sVhttps://twitter.com/i/web/status/829589307388096512
p565
I1
sVhttps://twitter.com/i/web/status/829590437480460288
p566
I1
sVhttps://twitter.com/i/web/status/829588602971525120
p567
I1
sVhttps://twitter.com/i/web/status/829588948548677632
p568
I1
sVhttps://twitter.com/i/web/status/829589309401374722
p569
I1
sVhttps://twitter.com/i/web/status/829588707040595969
p570
I1
sVhttps://twitter.com/i/web/status/829589971778498564
p571
I1
sVhttps://twitter.com/i/web/status/829588685393797120
p572
I1
sVhttps://twitter.com/i/web/status/829588966798086149
p573
I3
sVhttps://twitter.com/i/web/status/829589267990974464
p574
I1
sVhttps://twitter.com/i/web/status/829589337524219904
p575
I1
sVhttps://twitter.com/i/web/status/829594518676647936
p576
I4
sVhttps://twitter.com/i/web/status/829589636326371328
p577
I3
sVhttps://twitter.com/i/web/status/829589231341170688
p578
I1
sVhttps://twitter.com/i/web/status/829589943492022273
p579
I2
sVhttps://twitter.com/i/web/status/829589949175394305
p580
I1
sVhttps://twitter.com/i/web/status/829589305404252160
p581
I1
ssg40
Vsen mike lee rep jim jordan rep mark meadows call for immediate repeal of \u2018deplorable\u2019 obamacare\u2026
p582
sg42
I13
sg43
I9
sg44
I2
sa(dp583
g2
(dp584
g4
I9
sg5
I42
ssg6
I51
sg7
g8
((lp585
I826984595384053760
aI827200680628719617
aI797950746553683970
aI825086314076831747
aI802299026242736128
aI827910559760838657
aI806701385593004034
aI374835348
aI790312111272591361
aI790385458840731648
aI303896480
aI794209402131771392
aI815313447667765248
aI827215096791363585
aI1077650310
aI719855009928716288
aI806702031171977216
aI818973474341404672
aI828093209834291201
aI827183165831798784
aI789796781257289728
aI828089584785432577
aI813445430654697472
aI828082540615458816
aI358510405
aI827207230890049536
aI734755116780249089
aI785538339961204736
aI794189004077985792
aI827177353344229377
aI794151742502010880
aI63796576
aI794174399595352064
aI197257709
aI794149651062595584
aI794224446634676224
aI3631292532
aI754802590664290304
aI790339051496890368
aI732873175768305665
aI756668572370436096
atp586
Rp587
sg12
I5
sg13
g14
(g15
tp588
Rp589
Vhttp://viid.me/qlUlEA
p590
I2
sVhttp://viid.me/qlUib4
p591
I21
sVhttp://viid.me/qlUlmJ
p592
I1
sVhttp://viid.me/qlUlEw
p593
I2
sVhttp://viid.me/qlUlmC
p594
I1
sVhttp://viid.me/qlUlmd
p595
I5
sVhttp://viid.me/qlUlWo
p596
I1
sVhttp://viid.me/qlUlEs
p597
I1
sVhttp://viid.me/qlUlQ9
p598
I1
sVhttp://viid.me/qlUlWI
p599
I1
sVhttp://viid.me/qlUlWK
p600
I1
sVhttp://viid.me/qlUlmU
p601
I13
sVhttp://viid.me/qlUlmW
p602
I1
ssg40
Vobama set up phone hotline for illegals\u2026 here\u2019s how much it\u2019s cost taxpayers
p603
sg42
I14
sg43
I9
sg44
I2
sa(dp604
g2
(dp605
g4
I11
sg5
I39
ssg6
I50
sg7
g8
((lp606
I787978290799775744
aI754802590664290304
aI787961053535698946
aI785001299855151104
aI790312111272591361
aI827864293773365249
aI797950746553683970
aI316161690
aI819343861118017536
aI790385458840731648
aI771809397341294592
aI793527224225890305
aI794149651062595584
aI829128255038959616
aI818973474341404672
aI371515056
aI311140916
aI715349560491520000
aI772789868858597376
aI815924866637500417
aI788133591242928128
aI813445430654697472
aI788353148792496128
aI734892227411873792
aI797420693872906240
aI815923752919777281
aI800566385948532736
aI522585544
aI4700004686
aI815927754482970624
aI188504529
aI789796781257289728
aI780096605252751360
aI794189004077985792
aI815313447667765248
aI240443742
aI794151742502010880
aI794174399595352064
aI2941802980
aI794224446634676224
aI815928899058147328
aI802287999312678912
aI794209402131771392
aI2474468982
aI790339051496890368
aI790601488599027713
aI815925915100258304
aI799104738470096896
aI16933756
aI789266125485998080
atp607
Rp608
sg12
I5
sg13
g14
(g15
tp609
Rp610
Vhttp://viid.me/qlR6M7
p611
I1
sVhttp://viid.me/qlTe5a
p612
I1
sVhttp://viid.me/qlTyKt
p613
I1
sVhttp://viid.me/qlR6V8
p614
I5
sVhttp://viid.me/qlR61s
p615
I1
sVhttp://viid.me/qlR6Be
p616
I13
sVhttp://viid.me/qlR6Bi
p617
I1
sVhttp://viid.me/qlTeNe
p618
I1
sVhttp://viid.me/qlR6N4
p619
I1
sVhttp://viid.me/qlTwXt
p620
I1
sVhttp://viid.me/qlTe2u
p621
I6
sVhttp://viid.me/qlR6AE
p622
I8
sVhttp://viid.me/qlR6O6
p623
I1
sVhttp://viid.me/qlR6MK
p624
I1
sVhttp://viid.me/qlR6Mo
p625
I1
sVhttp://viid.me/qlTe4v
p626
I1
sVhttp://viid.me/qlTeuG
p627
I1
sVhttp://viid.me/qlR6Ml
p628
I1
sVhttp://viid.me/qlR6ME
p629
I1
sVhttp://viid.me/qlR6Ao
p630
I1
sVhttp://viid.me/qlR6Al
p631
I1
sVhttp://viid.me/qlTe4S
p632
I1
ssg40
Vvideo  dobbs \u2013 democrats stuck in a downward spiral becoming fringe minority
p633
sg42
I15
sg43
I9
sg44
I2
sa(dp634
g2
(dp635
g4
I5
sg5
I38
ssg6
I43
sg7
g8
((lp636
I799104738470096896
aI785001299855151104
aI787961053535698946
aI780444042102472709
aI794174399595352064
aI790601488599027713
aI3343309577
aI763130254231756802
aI776303179810086912
aI789266125485998080
aI819343861118017536
aI790385458840731648
aI771809397341294592
aI790312111272591361
aI815925915100258304
aI829128255038959616
aI818973474341404672
aI793527224225890305
aI772789868858597376
aI815924866637500417
aI788133591242928128
aI813445430654697472
aI788353148792496128
aI797950746553683970
aI734892227411873792
aI815923752919777281
aI800566385948532736
aI817089248167768064
aI815927754482970624
aI188504529
aI789796781257289728
aI827864293773365249
aI754802590664290304
aI815313447667765248
aI240443742
aI794151742502010880
aI787978290799775744
aI794224446634676224
aI794149651062595584
aI802287999312678912
aI794189004077985792
aI790339051496890368
aI794209402131771392
atp637
Rp638
sg12
I5
sg13
g14
(g15
tp639
Rp640
Vhttp://viid.me/qlYdYi
p641
I1
sVhttp://viid.me/qlYdYk
p642
I1
sVhttp://viid.me/qlYdRM
p643
I1
sVhttp://viid.me/qlYdED
p644
I1
sVhttp://viid.me/qlYdYd
p645
I1
sVhttp://viid.me/qlYbtd
p646
I1
sVhttp://viid.me/qlYdTz
p647
I1
sVhttp://viid.me/qlT7Tl
p648
I1
sVhttp://viid.me/qlYdTB
p649
I1
sVhttp://viid.me/qlYdYC
p650
I1
sVhttp://viid.me/qlYbtU
p651
I4
sVhttp://viid.me/qlYdEb
p652
I5
sVhttp://viid.me/qlYbTa
p653
I1
sVhttp://viid.me/qlYdYS
p654
I1
sVhttp://viid.me/qlYbd5
p655
I1
sVhttp://viid.me/qlYdWZ
p656
I10
sVhttp://viid.me/qlYbyG
p657
I1
sVhttp://viid.me/qlYdTg
p658
I5
sVhttp://viid.me/qlYdT8
p659
I1
sVhttp://viid.me/qlYdWh
p660
I2
sVhttp://viid.me/qlYbwI
p661
I1
sVhttp://viid.me/qlYbln
p662
I1
ssg40
Vbreaking video  iran just launched another missile
p663
sg42
I16
sg43
I9
sg44
I2
sa(dp664
g2
(dp665
g4
I11
sg5
I32
ssg6
I43
sg7
g8
((lp666
I802299026242736128
aI772922637953667072
aI805863343894523906
aI828260305973174275
aI829366975352668164
aI771538069723885573
aI785556435321184256
aI799714584307171329
aI816823302568214528
aI825086314076831747
aI787978290799775744
aI803549389369249792
aI790601488599027713
aI786293784359219200
aI809168093708697600
aI787799847915118592
aI792529889991725057
aI765273279389134848
aI779461418861101056
aI67470017
aI21368516
aI414725701
aI2288756816
aI188504529
aI3104950051
aI785195157712990208
aI825207964072083456
aI792829665656377344
aI764289800127979520
aI788836153868845056
aI802287999312678912
aI796863876667207680
aI81120503
aI64071544
aI367905405
aI784759395091570688
atp667
Rp668
sg12
I5
sg13
g14
(g15
tp669
Rp670
Vhttp://viid.me/qlUhOj
p671
I1
sVhttp://viid.me/qlUhIr
p672
I4
sVhttp://viid.me/qlUhPn
p673
I1
sVhttp://viid.me/qlUhPO
p674
I2
sVhttp://viid.me/qlUhky
p675
I7
sVhttp://viid.me/qlUhOc
p676
I1
sVhttp://viid.me/qlUhXi
p677
I1
sVhttp://viid.me/qlUhZB
p678
I1
sVhttp://viid.me/qlUhda
p679
I2
sVhttp://viid.me/qlUhlb
p680
I4
sVhttp://viid.me/qlUhUh
p681
I1
sVhttp://viid.me/qlUhPg
p682
I1
sVhttp://viid.me/qlUhPz
p683
I2
sVhttp://viid.me/qlUhPt
p684
I1
sVhttp://viid.me/qlUhfK
p685
I5
sVhttp://viid.me/qlUhPR
p686
I2
sVhttp://viid.me/qlUhP3
p687
I1
sVhttp://viid.me/qlUhO5
p688
I5
sVhttp://viid.me/qlUhSh
p689
I1
ssg40
Vitalian populist salvini seeks alliance with trump administration
p690
sg42
I17
sg43
I9
sg44
I2
sa(dp691
g2
(dp692
g4
I37
sg5
I4
ssg6
I41
sg7
g8
((lp693
I807868661239156736
aI817931406730891264
aI728563177877811204
aI815825364601737216
aI824046990484979713
aI828285928607096832
aI805331236105224192
aI771258931633008641
aI2894044206
aI794685810045894656
aI759896660449243137
aI741583152423002112
aI807470234818867200
aI826840911107612672
aI4782494653
aI723701212466413568
aI720880220828372992
aI808638365989904384
aI814364944699248641
aI736982769012748288
aI2539584849
aI3250385755
aI763164866391617537
aI160189674
aI812193125884051456
aI821537912030425088
aI3449917814
aI784321038641356800
aI805183090750619648
atp694
Rp695
sg12
I5
sg13
g14
(g15
tp696
Rp697
Vhttp://dindoyxtube.site
p698
I41
sVhttp://viid.me/qreLqe
p699
I41
ssg40
V\u27a1     \u2b05 visit our gay porn site for full videos     gay gaypo\u2026
p700
sg42
I18
sg43
I9
sg44
I2
sa(dp701
g2
(dp702
g4
I8
sg5
I33
ssg6
I41
sg7
g8
((lp703
I779461418861101056
aI765273279389134848
aI805863343894523906
aI828260305973174275
aI829366975352668164
aI771538069723885573
aI725469308558663680
aI790601488599027713
aI825207964072083456
aI825086314076831747
aI787978290799775744
aI2839103519
aI772922637953667072
aI799714584307171329
aI2235360902
aI786293784359219200
aI809168093708697600
aI787799847915118592
aI792529889991725057
aI701118459933913088
aI746089182636834816
aI188504529
aI785195157712990208
aI816823302568214528
aI802299026242736128
aI792829665656377344
aI788836153868845056
aI14101483
aI823431491845836800
aI19025138
aI802287999312678912
aI796863876667207680
aI785556435321184256
atp704
Rp705
sg12
I5
sg13
g14
(g15
tp706
Rp707
Vhttp://viid.me/qlExhs
p708
I2
sVhttp://viid.me/qlExjz
p709
I1
sVhttp://viid.me/qlExev
p710
I5
sVhttp://viid.me/qlExhw
p711
I3
sVhttp://viid.me/qlEcm1
p712
I1
sVhttp://viid.me/qlExhu
p713
I1
sVhttp://viid.me/qlExgV
p714
I1
sVhttp://viid.me/qlExE9
p715
I3
sVhttp://viid.me/qlEcuh
p716
I1
sVhttp://viid.me/qlExEP
p717
I1
sVhttp://viid.me/qlEcRg
p718
I1
sVhttp://viid.me/qlExed
p719
I1
sVhttp://viid.me/qlExQz
p720
I2
sVhttp://viid.me/qlEx8l
p721
I1
sVhttp://viid.me/qlEcMh
p722
I1
sVhttp://viid.me/qlExTw
p723
I1
sVhttp://viid.me/qlEcQq
p724
I1
sVhttp://viid.me/qlExEN
p725
I1
sVhttp://viid.me/qlExrm
p726
I7
sVhttp://viid.me/qlExjR
p727
I1
sVhttp://viid.me/qlExgl
p728
I5
ssg40
Vreport trump may designate iran\u2019s revolutionary guard corps a terrorist group
p729
sg42
I19
sg43
I9
sg44
I2
sa(dp730
g2
(dp731
g4
I7
sg5
I33
ssg6
I40
sg7
g8
((lp732
I765273279389134848
aI787978290799775744
aI805863343894523906
aI825086314076831747
aI829366975352668164
aI771538069723885573
aI785556435321184256
aI799714584307171329
aI816823302568214528
aI828260305973174275
aI802299026242736128
aI869176992
aI803549389369249792
aI792529889991725057
aI4883801255
aI801168552
aI786293784359219200
aI809168093708697600
aI787799847915118592
aI788836153868845056
aI188504529
aI26182484
aI785195157712990208
aI772922637953667072
aI825207964072083456
aI792829665656377344
aI779461418861101056
aI823431491845836800
aI802287999312678912
aI796863876667207680
aI790601488599027713
atp733
Rp734
sg12
I5
sg13
g14
(g15
tp735
Rp736
Vhttp://viid.me/qlEhRb
p737
I1
sVhttp://viid.me/qlEhGX
p738
I1
sVhttp://viid.me/qlEh7h
p739
I2
sVhttp://viid.me/qlEhGj
p740
I8
sVhttp://viid.me/qlEh7y
p741
I1
sVhttp://viid.me/qlEhL2
p742
I1
sVhttp://viid.me/qlEh9s
p743
I1
sVhttp://viid.me/qlEh7P
p744
I1
sVhttp://viid.me/qlEhZw
p745
I1
sVhttp://viid.me/qlEjQP
p746
I3
sVhttp://viid.me/qlEh5z
p747
I1
sVhttp://viid.me/qlEhLK
p748
I1
sVhttp://viid.me/qlEjWK
p749
I1
sVhttp://viid.me/qlEh2x
p750
I2
sVhttp://viid.me/qlEjkb
p751
I1
sVhttp://viid.me/qlEhGY
p752
I7
sVhttp://viid.me/qlEhF7
p753
I1
sVhttp://viid.me/qlEkUt
p754
I1
sVhttp://viid.me/qlEhJ6
p755
I4
sVhttp://viid.me/qlEhJW
p756
I1
ssg40
Vschumer when jeff sessions was confirmed \u2018it turned my stomach\u2019
p757
sg42
I20
sg43
I9
sg44
I2
sa(dp758
g2
(dp759
g4
I6
sg5
I34
ssg6
I40
sg7
g8
((lp760
I819343861118017536
aI828082540615458816
aI797950746553683970
aI828665803859980291
aI788535135687892992
aI827207230890049536
aI827910559760838657
aI825207964072083456
aI754802590664290304
aI2264947340
aI790312111272591361
aI790385458840731648
aI815313447667765248
aI827177353344229377
aI794149651062595584
aI826984595384053760
aI783374858579218433
aI828093209834291201
aI827183165831798784
aI815924866637500417
aI705607742736703488
aI828089584785432577
aI813445430654697472
aI815923752919777281
aI827200680628719617
aI794189004077985792
aI1452943908
aI333075722
aI815927754482970624
aI121373404
aI794151742502010880
aI794174399595352064
aI815925915100258304
aI827215096791363585
aI794224446634676224
aI794209402131771392
aI701352182
aI790339051496890368
aI799104738470096896
aI789266125485998080
atp761
Rp762
sg12
I5
sg13
g14
(g15
tp763
Rp764
Vhttp://viid.me/qlUors
p765
I1
sVhttp://viid.me/qlY8RV
p766
I4
sVhttp://viid.me/qlYBSi
p767
I12
sVhttp://viid.me/qlY3hs
p768
I2
sVhttp://viid.me/qlY8EG
p769
I12
sVhttp://viid.me/qlY87x
p770
I1
sVhttp://viid.me/qlY86U
p771
I2
sVhttp://viid.me/qlUi8K
p772
I1
sVhttp://viid.me/qlY8Rf
p773
I1
sVhttp://viid.me/qlYBI9
p774
I1
sVhttp://viid.me/qlYBSk
p775
I1
sVhttp://viid.me/qlUeno
p776
I1
sVhttp://viid.me/qlUo00
p777
I1
ssg40
Vsyrian priest \u2018the media coverage on syria is the biggest media lie of our time\u2019
p778
sg42
I21
sg43
I9
sg44
I2
sa(dp779
g2
(dp780
g4
I32
sg5
I7
ssg6
I39
sg7
g8
((lp781
I820322857452523520
aI787978290799775744
aI787961053535698946
aI713745118046654467
aI4826510725
aI750423143907487744
aI790601488599027713
aI32343438
aI374567187
aI26944788
aI2833820181
aI302240023
aI780444042102472709
aI804085307234717696
aI747588803670458369
aI1174762118
aI557468072
aI1639644487
aI43679281
aI1380706867
aI359524918
aI789796781257289728
aI734892227411873792
aI160570053
aI800566385948532736
aI153283018
aI2655561547
aI1692590413
aI78519694
aI191156581
aI736149283158827008
aI2394771566
aI3198505583
aI783796249074003969
aI2327061237
aI761548191959441408
aI15700729
aI765543903252676608
atp782
Rp783
sg12
I5
sg13
g14
(g15
tp784
Rp785
Vhttp://viid.me/qlWfYm
p786
I1
sVhttp://viid.me/qlRbaj
p787
I8
sVhttp://viid.me/qlRlg2
p788
I22
sVhttp://viid.me/qlWfYh
p789
I8
ssg40
Vobama\u2019s brother backs trump\u2019s immigration ban rebukes barack in an epic fashion\u2026
p790
sg42
I22
sg43
I9
sg44
I2
sa(dp791
g2
(dp792
g4
I4
sg5
I34
ssg6
I38
sg7
g8
((lp793
I766307608743600128
aI790611590320103424
aI787828400744501250
aI803952837537464324
aI4833630597
aI779841027926528000
aI799788453676417025
aI827207230890049536
aI772922637953667072
aI727564171156570113
aI787129103128358912
aI786293784359219200
aI828093209834291201
aI828082540615458816
aI779789207447408641
aI782286927793909760
aI828089584785432577
aI826984595384053760
aI779461418861101056
aI827183165831798784
aI792529889991725057
aI787040661702864896
aI785195157712990208
aI790895491294826496
aI827177353344229377
aI240443742
aI827200680628719617
aI827215096791363585
aI797938751263555584
aI827910559760838657
aI802287999312678912
aI784049878271979520
aI785556435321184256
aI731157103973441537
aI820660623679913984
atp794
Rp795
sg12
I5
sg13
g14
(g15
tp796
Rp797
Vhttps://twitter.com/i/web/status/829644339781394432
p798
I1
sVhttps://twitter.com/i/web/status/829644333884198914
p799
I1
sVhttps://twitter.com/i/web/status/829644336295874562
p800
I1
sVhttps://twitter.com/i/web/status/829644830930149376
p801
I1
sVhttps://twitter.com/i/web/status/829644831781629953
p802
I1
sVhttps://twitter.com/i/web/status/829644341995921408
p803
I1
sVhttps://twitter.com/i/web/status/829644333674438656
p804
I1
sVhttps://twitter.com/i/web/status/829644833832595456
p805
I1
sVhttps://twitter.com/i/web/status/829644335150804992
p806
I1
sVhttps://twitter.com/i/web/status/829644831961935875
p807
I1
sVhttps://twitter.com/i/web/status/829644831890735104
p808
I1
sVhttps://twitter.com/i/web/status/829644338401402880
p809
I1
sVhttps://twitter.com/i/web/status/829644341257723904
p810
I2
sVhttps://twitter.com/i/web/status/829644337411616768
p811
I1
sVhttps://twitter.com/i/web/status/829644343606595585
p812
I1
sVhttps://twitter.com/i/web/status/829644338401406976
p813
I2
sVhttps://twitter.com/i/web/status/829644831500570625
p814
I1
sVhttps://twitter.com/i/web/status/829644335972966406
p815
I1
sVhttps://twitter.com/i/web/status/829644334492311556
p816
I2
sVhttps://twitter.com/i/web/status/829644334467125249
p817
I1
sVhttps://twitter.com/i/web/status/829643805594841088
p818
I1
sVhttps://twitter.com/i/web/status/829644362384502786
p819
I1
sVhttps://twitter.com/i/web/status/829644336090411009
p820
I1
sVhttps://twitter.com/i/web/status/829644832003874817
p821
I2
sVhttps://twitter.com/i/web/status/829644832066793472
p822
I1
sVhttps://twitter.com/i/web/status/829644339773005825
p823
I1
sVhttps://twitter.com/i/web/status/829644351005339648
p824
I1
sVhttps://twitter.com/i/web/status/829644338833416192
p825
I1
sVhttps://twitter.com/i/web/status/829644336459419650
p826
I1
sVhttps://twitter.com/i/web/status/829644831278260224
p827
I1
sVhttps://twitter.com/i/web/status/829644340737683456
p828
I1
sVhttps://twitter.com/i/web/status/829644339621961728
p829
I1
sVhttps://twitter.com/i/web/status/829644339399634945
p830
I1
sVhttps://twitter.com/i/web/status/829644832314265600
p831
I1
ssg40
Vmedia buzz gop gives elizabeth warren a boost as dems seize on silencing theme  sessions confirmed as attorney\u2026\u2026
p832
sg42
I23
sg43
I9
sg44
I2
sa(dp833
g2
(dp834
g4
I3
sg5
I33
ssg6
I36
sg7
g8
((lp835
I802061220186587136
aI802299026242736128
aI805863343894523906
aI828260305973174275
aI829366975352668164
aI771538069723885573
aI772922637953667072
aI799714584307171329
aI816823302568214528
aI825086314076831747
aI792829665656377344
aI790601488599027713
aI786293784359219200
aI809168093708697600
aI787799847915118592
aI792529889991725057
aI765273279389134848
aI788836153868845056
aI81120503
aI188504529
aI796863876667207680
aI825207964072083456
aI787978290799775744
aI779461418861101056
aI802287999312678912
aI785195157712990208
aI785556435321184256
aI367905405
aI784759395091570688
atp836
Rp837
sg12
I5
sg13
g14
(g15
tp838
Rp839
Vhttp://viid.me/qlUhG3
p840
I1
sVhttp://viid.me/qlUhHS
p841
I1
sVhttp://viid.me/qlUhG0
p842
I2
sVhttp://viid.me/qlUhG8
p843
I2
sVhttp://ift.tt/eA8V8J
p844
I1
sVhttp://viid.me/qlUhVI
p845
I1
sVhttp://viid.me/qlUhBH
p846
I1
sVhttp://viid.me/qlUhF5
p847
I1
sVhttp://viid.me/qlUhHi
p848
I1
sVhttp://viid.me/qlUhgX
p849
I2
sVhttp://viid.me/qlUhj6
p850
I5
sVhttp://viid.me/qq9cqd
p851
I1
sVhttp://viid.me/qlUhJh
p852
I1
sVhttp://viid.me/qlUhGB
p853
I1
sVhttp://viid.me/qlUhxp
p854
I2
sVhttp://viid.me/qlUhDE
p855
I1
sVhttp://viid.me/qlUhS9
p856
I3
sVhttp://viid.me/qlUhvZ
p857
I7
sVhttp://viid.me/qlUhGp
p858
I1
sVhttp://viid.me/qlUhLQ
p859
I1
sVhttp://viid.me/qlUhGL
p860
I1
ssg40
Vtrump presidency heralds new era of closer ties with egypt
p861
sg42
I24
sg43
I9
sg44
I2
sa(dp862
g2
(dp863
g4
I3
sg5
I32
ssg6
I35
sg7
g8
((lp864
I802299026242736128
aI772922637953667072
aI805863343894523906
aI825086314076831747
aI829366975352668164
aI771538069723885573
aI792829665656377344
aI799714584307171329
aI816823302568214528
aI828260305973174275
aI2901984022
aI790601488599027713
aI786293784359219200
aI809168093708697600
aI787799847915118592
aI792529889991725057
aI765273279389134848
aI788836153868845056
aI1918026432
aI188504529
aI785195157712990208
aI825207964072083456
aI787978290799775744
aI779461418861101056
aI802287999312678912
aI796863876667207680
aI785556435321184256
atp865
Rp866
sg12
I5
sg13
g14
(g15
tp867
Rp868
Vhttp://viid.me/qlUh5d
p869
I1
sVhttp://viid.me/qlUjQl
p870
I1
sVhttp://viid.me/qlUhxF
p871
I3
sVhttp://viid.me/qlUh7f
p872
I1
sVhttp://viid.me/qlUh5C
p873
I1
sVhttp://viid.me/qlUhVD
p874
I1
sVhttp://viid.me/qlUh4L
p875
I1
sVhttp://viid.me/qlUje5
p876
I1
sVhttp://viid.me/qlUjqP
p877
I1
sVhttp://viid.me/qlUhxR
p878
I5
sVhttp://viid.me/qlUjkM
p879
I1
sVhttp://viid.me/qlUhNg
p880
I1
sVhttp://viid.me/qlUh43
p881
I1
sVhttp://viid.me/qlUhWT
p882
I3
sVhttp://viid.me/qlUhBY
p883
I1
sVhttp://viid.me/qlUhIK
p884
I7
sVhttp://viid.me/qlUh8X
p885
I1
sVhttp://viid.me/qlUhVr
p886
I3
sVhttp://viid.me/qlUh8w
p887
I1
ssg40
Vdonald trump challenges sen blumenthal on judge gorsuch \u2018disheartened\u2019 story
p888
sg42
I25
sg43
I9
sg44
I2
sa(dp889
g2
(dp890
g4
I1
sg5
I34
ssg6
I35
sg7
g8
((lp891
I829128255038959616
aI791086606597951488
aI819663263998869507
aI829154356436021248
aI817790422235967493
aI828082540615458816
aI827910559760838657
aI772829467102380033
aI824806953645916164
aI827207230890049536
aI784825705099956224
aI828761013143076865
aI822121521246310406
aI825204167287386112
aI828093209834291201
aI3012586039
aI827200680628719617
aI828089584785432577
aI826984595384053760
aI820392090966327296
aI827183165831798784
aI489991894
aI800039817652400128
aI772922637953667072
aI827177353344229377
aI794229280326746112
aI819623494505918465
aI827215096791363585
aI823431491845836800
aI784049878271979520
aI785556435321184256
aI779841027926528000
aI753214996415340544
atp892
Rp893
sg12
I5
sg13
g14
(g15
tp894
Rp895
Vhttp://viid.me/qlT494
p896
I1
sVhttp://viid.me/qlTSOp
p897
I10
sVhttp://viid.me/qlY0pr
p898
I1
sVhttp://viid.me/qlTA9Y
p899
I1
sVhttp://viid.me/qlT49G
p900
I2
sVhttp://viid.me/qlTSrA
p901
I1
sVhttp://viid.me/qlTAs3
p902
I1
sVhttp://viid.me/qlTAu8
p903
I1
sVhttp://viid.me/qlT9vQ
p904
I2
sVhttp://viid.me/qlT49y
p905
I1
sVhttp://viid.me/qlTHVq
p906
I1
sVhttp://viid.me/qlY0aQ
p907
I1
sVhttp://viid.me/qlT5Kx
p908
I1
sVhttp://viid.me/qlTVAQ
p909
I1
sVhttp://viid.me/qlTS08
p910
I1
sVhttp://viid.me/qlTAsB
p911
I2
sVhttp://viid.me/qlTCn0
p912
I1
sVhttp://viid.me/qlTSru
p913
I1
sVhttp://viid.me/qlT5q5
p914
I4
sVhttp://viid.me/qlT5qA
p915
I1
ssg40
Vworld cup 2026 uefa will ask for 16 places for european teams
p916
sg42
I26
sg43
I9
sg44
I2
sa(dp917
g2
(dp918
g4
I35
sg5
I0
ssg6
I35
sg7
g8
((lp919
I4327704672
aI826808856558845953
aI739045395356061696
aI829551613547130881
aI796367509091794950
aI707655242364489728
aI786493238676828161
aI2896931724
aI402531303
aI2815474796
aI1551471661
aI2952910992
aI766067857935495172
aI1141482516
aI865699351
aI4832580345
aI2211893882
aI741088201138376704
aI3020781274
aI728563177877811204
atp920
Rp921
sg12
I5
sg13
g14
(g15
tp922
Rp923
Vhttp://viid.me/qkawhJ
p924
I35
ssg40
V\u27a1    \u2b05 superdioses rt scallysex scallysex scallysex realitydudes dickdorm
p925
sg42
I27
sg43
I9
sg44
I2
sa(dp926
g2
(dp927
g4
I2
sg5
I32
ssg6
I34
sg7
g8
((lp928
I772789868858597376
aI826829154016428033
aI778679855374184450
aI825086314076831747
aI803952837537464324
aI138520965
aI794573977159143424
aI794581473009528833
aI755151444605534210
aI798521044646690820
aI819920470589968384
aI764560298086981633
aI822121521246310406
aI75388838
aI790611590320103424
aI716418247579549696
aI792529889991725057
aI826216161733910528
aI792443841789960193
aI1335947582
aI795786553985499136
aI764662496179421185
aI800039817652400128
aI764857474365132800
aI240443742
aI796025831919386624
aI801533437534474240
aI784529318500245505
aI197257709
aI772922637953667072
aI815709962315898880
aI766307608743600128
aI756668572370436096
atp929
Rp930
sg12
I5
sg13
g14
(g15
tp931
Rp932
Vhttp://viid.me/qlTt9p
p933
I1
sVhttp://viid.me/qlTlMs
p934
I1
sVhttp://viid.me/qlRKnK
p935
I1
sVhttp://viid.me/qlRJ6M
p936
I2
sVhttp://viid.me/qlTywb
p937
I1
sVhttp://viid.me/qlTlaD
p938
I1
sVhttp://viid.me/qlRK0o
p939
I2
sVhttp://viid.me/qlTlgN
p940
I1
sVhttp://viid.me/qlTxZa
p941
I3
sVhttp://viid.me/qlRKp7
p942
I1
sVhttp://viid.me/qlTywE
p943
I1
sVhttp://viid.me/qlTt9O
p944
I1
sVhttp://viid.me/qlTyqP
p945
I1
sVhttp://viid.me/qlTt98
p946
I1
sVhttp://viid.me/qlTlpG
p947
I1
sVhttp://viid.me/qlTldz
p948
I1
sVhttp://viid.me/qlTla2
p949
I1
sVhttp://viid.me/qlTyrz
p950
I1
sVhttp://viid.me/qlTufx
p951
I1
sVhttp://viid.me/qlTloU
p952
I2
sVhttp://viid.me/qlTy06
p953
I2
sVhttp://viid.me/qlTt8j
p954
I1
sVhttp://viid.me/qlTltx
p955
I1
sVhttp://viid.me/qlTlpy
p956
I2
sVhttp://viid.me/qlRFbQ
p957
I1
sVhttp://viid.me/qlTlpa
p958
I1
sVhttp://viid.me/qlTlgm
p959
I1
ssg40
Vfirst 100 days briefing federal workers get guidance for discussing the politics of trump
p960
sg42
I28
sg43
I9
sg44
I2
sa(dp961
g2
(dp962
g4
I10
sg5
I24
ssg6
I34
sg7
g8
((lp963
I785556435321184256
aI815709962315898880
aI787828400744501250
aI3130927019
aI794229280326746112
aI764662496179421185
aI199768203
aI4324657154
aI317223956
aI721118837349957632
aI757564780404015104
aI779841027926528000
aI823343596917112833
aI824089961905397760
aI786293784359219200
aI809168093708697600
aI799714584307171329
aI779789207447408641
aI222505018
aI782286927793909760
aI779461418861101056
aI264913231
aI800039817652400128
aI772922637953667072
aI796025831919386624
aI2448553039
aI818792974909919232
aI785195157712990208
aI3003471994
aI1287022826
aI785354015043452928
atp964
Rp965
sg12
I5
sg13
g14
(g15
tp966
Rp967
Vhttp://viid.me/qlEVxL
p968
I1
sVhttp://viid.me/qlEVci
p969
I3
sVhttp://viid.me/qlEVcJ
p970
I1
sVhttp://viid.me/qlEVce
p971
I1
sVhttp://viid.me/qlEVvh
p972
I1
sVhttp://viid.me/qlEFCQ
p973
I1
sVhttp://viid.me/qlEVzs
p974
I11
sVhttp://viid.me/qlEVcU
p975
I1
sVhttp://viid.me/qlEVc6
p976
I1
sVhttp://viid.me/qlEVc1
p977
I1
sVhttp://viid.me/qlEFVO
p978
I7
sVhttp://viid.me/qlEFVL
p979
I1
sVhttp://viid.me/qlEVx3
p980
I4
ssg40
V7 arrested at phoenix deportation protest
p981
sg42
I29
sg43
I9
sg44
I2
sa(dp982
g2
(dp983
g4
I0
sg5
I34
ssg6
I34
sg7
g8
((lp984
I766307608743600128
aI786293784359219200
aI787828400744501250
aI803952837537464324
aI779841027926528000
aI799788453676417025
aI827207230890049536
aI790895491294826496
aI727564171156570113
aI790611590320103424
aI787129103128358912
aI826984595384053760
aI828093209834291201
aI828082540615458816
aI779789207447408641
aI782286927793909760
aI828089584785432577
aI779461418861101056
aI827183165831798784
aI792529889991725057
aI787040661702864896
aI784049878271979520
aI772922637953667072
aI827177353344229377
aI240443742
aI827200680628719617
aI827215096791363585
aI797938751263555584
aI827910559760838657
aI802287999312678912
aI785195157712990208
aI785556435321184256
atp985
Rp986
sg12
I5
sg13
g14
(g15
tp987
Rp988
Vhttp://viid.me/qlR2Rl
p989
I5
sVhttp://viid.me/qlR2RK
p990
I1
sVhttp://viid.me/qlR2YL
p991
I1
sVhttp://viid.me/qlR2T5
p992
I1
sVhttp://viid.me/qlR2Tj
p993
I1
sVhttp://viid.me/qlR3K5
p994
I10
sVhttp://viid.me/qlR2Ih
p995
I1
sVhttp://viid.me/qlR2Uv
p996
I1
sVhttp://viid.me/qlR2W6
p997
I3
sVhttp://viid.me/qlR2I9
p998
I1
sVhttp://viid.me/qlR2UJ
p999
I1
sVhttp://viid.me/qlR2Uk
p1000
I2
sVhttp://viid.me/qlRMMv
p1001
I1
sVhttp://viid.me/qlR2Y3
p1002
I1
sVhttp://viid.me/qlR2Ue
p1003
I1
sVhttp://viid.me/qlR2UC
p1004
I1
sVhttp://viid.me/qlR2Hz
p1005
I1
sVhttp://viid.me/qlR2Eq
p1006
I1
ssg40
Vwikipedia bans editors from citing daily mail as source
p1007
sg42
I30
sg43
I9
sg44
I2
sa(dp1008
g2
(dp1009
g4
I2
sg5
I32
ssg6
I34
sg7
g8
((lp1010
I802299026242736128
aI772922637953667072
aI805863343894523906
aI825086314076831747
aI829366975352668164
aI771538069723885573
aI792829665656377344
aI799714584307171329
aI816823302568214528
aI828260305973174275
aI2901984022
aI790601488599027713
aI786293784359219200
aI809168093708697600
aI787799847915118592
aI792529889991725057
aI765273279389134848
aI788836153868845056
aI188504529
aI785195157712990208
aI825207964072083456
aI787978290799775744
aI779461418861101056
aI802287999312678912
aI796863876667207680
aI785556435321184256
aI3226766840
atp1011
Rp1012
sg12
I5
sg13
g14
(g15
tp1013
Rp1014
Vhttp://viid.me/qlUhBj
p1015
I1
sVhttp://viid.me/qlUjhh
p1016
I1
sVhttp://viid.me/qlUh72
p1017
I1
sVhttp://viid.me/qlUhlI
p1018
I5
sVhttp://viid.me/qlUhJP
p1019
I3
sVhttp://viid.me/qlUhXk
p1020
I1
sVhttp://viid.me/qlUhCm
p1021
I1
sVhttp://viid.me/qlUhbl
p1022
I2
sVhttp://viid.me/qlUhCZ
p1023
I1
sVhttp://viid.me/qlUhXJ
p1024
I1
sVhttp://viid.me/qlUhkm
p1025
I2
sVhttp://viid.me/qlUhX6
p1026
I1
sVhttp://viid.me/qlUhVf
p1027
I2
sVhttp://viid.me/qlUhCq
p1028
I1
sVhttp://viid.me/qlUhXU
p1029
I1
sVhttp://viid.me/qlUhRH
p1030
I7
sVhttp://viid.me/qlUhVV
p1031
I1
sVhttp://viid.me/qlUhLs
p1032
I1
sVhttp://viid.me/qlUhBu
p1033
I1
ssg40
V\u2018several injured\u2019 after \u2018explosion\u2019 at french nuclear plant
p1034
sg42
I31
sg43
I9
sg44
I2
sa(dp1035
g2
(dp1036
g4
I1
sg5
I33
ssg6
I34
sg7
g8
((lp1037
I779461418861101056
aI772922637953667072
aI787828400744501250
aI803952837537464324
aI790895491294826496
aI727564171156570113
aI766307608743600128
aI799788453676417025
aI827207230890049536
aI779841027926528000
aI779789207447408641
aI790611590320103424
aI786293784359219200
aI828093209834291201
aI828082540615458816
aI792529889991725057
aI787129103128358912
aI828089584785432577
aI826984595384053760
aI827183165831798784
aI793856174592360448
aI827200680628719617
aI787040661702864896
aI784049878271979520
aI827177353344229377
aI240443742
aI827910559760838657
aI797938751263555584
aI827215096791363585
aI802287999312678912
aI785195157712990208
aI785556435321184256
atp1038
Rp1039
sg12
I5
sg13
g14
(g15
tp1040
Rp1041
Vhttp://viid.me/qlUobc
p1042
I1
sVhttp://viid.me/qlUovf
p1043
I1
sVhttp://viid.me/qlUozn
p1044
I2
sVhttp://viid.me/qlUiTQ
p1045
I3
sVhttp://viid.me/qlUiYL
p1046
I1
sVhttp://viid.me/qlUocG
p1047
I1
sVhttp://viid.me/qlUiRI
p1048
I5
sVhttp://viid.me/qlUovI
p1049
I1
sVhttp://viid.me/qlUiR7
p1050
I1
sVhttp://viid.me/qlUiYp
p1051
I1
sVhttp://viid.me/qlUoPU
p1052
I11
sVhttp://viid.me/qlUcEp
p1053
I1
sVhttp://viid.me/qlUolu
p1054
I1
sVhttp://viid.me/qlUiUk
p1055
I1
sVhttp://viid.me/qlUox1
p1056
I1
sVhttp://viid.me/qlUoxS
p1057
I1
sVhttp://viid.me/qlUiTH
p1058
I1
ssg40
Vto declaw cats or not nj could be first with ban
p1059
sg42
I32
sg43
I9
sg44
I2
sa(dp1060
g2
(dp1061
g4
I0
sg5
I34
ssg6
I34
sg7
g8
((lp1062
I815313447667765248
aI794209402131771392
aI797950746553683970
aI788535135687892992
aI794174399595352064
aI815924866637500417
aI825207964072083456
aI754802590664290304
aI2264947340
aI790312111272591361
aI819343861118017536
aI790385458840731648
aI815923752919777281
aI794149651062595584
aI826984595384053760
aI828093209834291201
aI828082540615458816
aI827200680628719617
aI828089584785432577
aI813445430654697472
aI827183165831798784
aI827207230890049536
aI783374858579218433
aI815927754482970624
aI827177353344229377
aI794151742502010880
aI827215096791363585
aI815925915100258304
aI827910559760838657
aI794224446634676224
aI794189004077985792
aI790339051496890368
aI799104738470096896
aI789266125485998080
atp1063
Rp1064
sg12
I5
sg13
g14
(g15
tp1065
Rp1066
Vhttp://viid.me/qlYP3R
p1067
I1
sVhttp://viid.me/qlY3fN
p1068
I1
sVhttp://viid.me/qlYZHq
p1069
I1
sVhttp://viid.me/qlYOJJ
p1070
I1
sVhttp://viid.me/qlYOOr
p1071
I10
sVhttp://viid.me/qlYO7T
p1072
I10
sVhttp://viid.me/qlYP0g
p1073
I1
sVhttp://viid.me/qlYOI4
p1074
I1
sVhttp://viid.me/qlYOPY
p1075
I4
sVhttp://viid.me/qlYF3r
p1076
I1
sVhttp://viid.me/qlYZZ6
p1077
I1
sVhttp://viid.me/qlYZHy
p1078
I1
sVhttp://viid.me/qlYO8V
p1079
I1
ssg40
V\u201cexpecting mom\u201d beyonce sued for 20m and this case is real
p1080
sg42
I33
sg43
I9
sg44
I2
sa(dp1081
g2
(dp1082
g4
I1
sg5
I33
ssg6
I34
sg7
g8
((lp1083
I790611590320103424
aI786293784359219200
aI787828400744501250
aI803952837537464324
aI779841027926528000
aI779789207447408641
aI799788453676417025
aI827207230890049536
aI772922637953667072
aI727564171156570113
aI800796470349688839
aI828093209834291201
aI827183165831798784
aI792529889991725057
aI787040661702864896
aI828089584785432577
aI826984595384053760
aI779461418861101056
aI828082540615458816
aI827200680628719617
aI787129103128358912
aI785195157712990208
aI790895491294826496
aI827177353344229377
aI240443742
aI827910559760838657
aI797938751263555584
aI827215096791363585
aI802287999312678912
aI784049878271979520
aI785556435321184256
aI820660623679913984
atp1084
Rp1085
sg12
I5
sg13
g14
(g15
tp1086
Rp1087
Vhttp://viid.me/qlR2hX
p1088
I1
sVhttp://viid.me/qlR3FL
p1089
I10
sVhttp://viid.me/qlR2kd
p1090
I1
sVhttp://viid.me/qlE1hf
p1091
I1
sVhttp://viid.me/qlR2vW
p1092
I1
sVhttp://viid.me/qlR2xc
p1093
I1
sVhttp://viid.me/qlR2jL
p1094
I5
sVhttp://viid.me/qlR2ct
p1095
I1
sVhttp://viid.me/qlR2zE
p1096
I1
sVhttp://viid.me/qlR2xs
p1097
I2
sVhttp://viid.me/qlR2lG
p1098
I1
sVhttp://viid.me/qlR2hM
p1099
I1
sVhttp://viid.me/qlR2cO
p1100
I1
sVhttp://viid.me/qlR2hc
p1101
I4
sVhttp://viid.me/qlR2jz
p1102
I1
sVhttp://viid.me/qlR2cF
p1103
I1
sVhttp://viid.me/qlR2jB
p1104
I1
ssg40
Vkasich to newspaper editors i want you to survive
p1105
sg42
I34
sg43
I9
sg44
I2
sa(dp1106
g2
(dp1107
g4
I0
sg5
I34
ssg6
I34
sg7
g8
((lp1108
I790895491294826496
aI786293784359219200
aI787828400744501250
aI803952837537464324
aI779841027926528000
aI727564171156570113
aI799788453676417025
aI827207230890049536
aI772922637953667072
aI779789207447408641
aI790611590320103424
aI800796470349688839
aI828093209834291201
aI827183165831798784
aI792529889991725057
aI787129103128358912
aI828089584785432577
aI826984595384053760
aI779461418861101056
aI828082540615458816
aI827200680628719617
aI782286927793909760
aI787040661702864896
aI785195157712990208
aI827177353344229377
aI240443742
aI827215096791363585
aI797938751263555584
aI827910559760838657
aI802287999312678912
aI784049878271979520
aI785556435321184256
atp1109
Rp1110
sg12
I5
sg13
g14
(g15
tp1111
Rp1112
Vhttp://viid.me/qlR19q
p1113
I1
sVhttp://viid.me/qlR19a
p1114
I2
sVhttp://viid.me/qlR2qA
p1115
I1
sVhttp://viid.me/qlR186
p1116
I1
sVhttp://viid.me/qlR18W
p1117
I3
sVhttp://viid.me/qlR18U
p1118
I1
sVhttp://viid.me/qlE5rH
p1119
I1
sVhttp://viid.me/qlR20V
p1120
I1
sVhttp://viid.me/qlUiv1
p1121
I1
sVhttp://viid.me/qlR18d
p1122
I1
sVhttp://viid.me/qlR18C
p1123
I1
sVhttp://viid.me/qlR181
p1124
I1
sVhttp://viid.me/qlR2qw
p1125
I1
sVhttp://viid.me/qlR19G
p1126
I1
sVhttp://viid.me/qlR19x
p1127
I5
sVhttp://viid.me/qlR3GU
p1128
I8
sVhttp://viid.me/qlR18v
p1129
I1
sVhttp://viid.me/qlR3GS
p1130
I2
sVhttp://viid.me/qlR20D
p1131
I1
ssg40
Vreport possible terrorist designation for irans revolutionary guard sparks concerns
p1132
sg42
I35
sg43
I9
sg44
I2
sa(dp1133
g2
(dp1134
g4
I0
sg5
I34
ssg6
I34
sg7
g8
((lp1135
I790611590320103424
aI827910559760838657
aI787828400744501250
aI803952837537464324
aI790895491294826496
aI828093209834291201
aI766307608743600128
aI799788453676417025
aI786293784359219200
aI827207230890049536
aI779841027926528000
aI727564171156570113
aI826984595384053760
aI827183165831798784
aI779789207447408641
aI787129103128358912
aI828089584785432577
aI779461418861101056
aI828082540615458816
aI827200680628719617
aI787040661702864896
aI785195157712990208
aI772922637953667072
aI827177353344229377
aI240443742
aI792529889991725057
aI797938751263555584
aI827215096791363585
aI802287999312678912
aI784049878271979520
aI785556435321184256
atp1136
Rp1137
sg12
I5
sg13
g14
(g15
tp1138
Rp1139
Vhttp://viid.me/qlTfH5
p1140
I1
sVhttp://viid.me/qlTfFN
p1141
I10
sVhttp://viid.me/qlUctC
p1142
I1
sVhttp://viid.me/qlTfJp
p1143
I1
sVhttp://viid.me/qlTfGD
p1144
I5
sVhttp://viid.me/qlTfHu
p1145
I2
sVhttp://viid.me/qlTfHH
p1146
I1
sVhttp://viid.me/qlTfHw
p1147
I1
sVhttp://viid.me/qlTfSp
p1148
I1
sVhttp://viid.me/qlTgd9
p1149
I1
sVhttp://viid.me/qlTfHs
p1150
I1
sVhttp://viid.me/qlTfFx
p1151
I1
sVhttp://viid.me/qlTfHQ
p1152
I1
sVhttp://viid.me/qlTfAA
p1153
I1
sVhttp://viid.me/qlTfQQ
p1154
I1
sVhttp://viid.me/qlTfG2
p1155
I1
sVhttp://viid.me/qlTfFP
p1156
I3
sVhttp://viid.me/qlTfJF
p1157
I1
ssg40
Vtomi lahren gets personal
p1158
sg42
I36
sg43
I9
sg44
I2
sa(dp1159
g2
(dp1160
g4
I1
sg5
I32
ssg6
I33
sg7
g8
((lp1161
I802061220186587136
aI792529889991725057
aI797852908553375746
aI819663263998869507
aI803952837537464324
aI771538069723885573
aI802299026242736128
aI727564171156570113
aI789113916102180864
aI115517851
aI806600011756818437
aI786915319008854016
aI784825705099956224
aI815924866637500417
aI795596174589829120
aI821375422583685120
aI828838674884222976
aI795786553985499136
aI764451906
aI815923752919777281
aI764662496179421185
aI815927754482970624
aI796025831919386624
aI791086606597951488
aI791823307922374656
aI197257709
aI815928899058147328
aI828957353928249344
aI778051538132594688
aI827241553596973057
aI815925915100258304
aI431183358
aI789266125485998080
atp1162
Rp1163
sg12
I5
sg13
g14
(g15
tp1164
Rp1165
Vhttp://viid.me/qlEMM4
p1166
I1
sVhttp://viid.me/qlE9FK
p1167
I1
sVhttp://viid.me/qlE9cF
p1168
I5
sVhttp://viid.me/qlE6z4
p1169
I1
sVhttp://viid.me/qlE1Zb
p1170
I1
sVhttp://viid.me/qlEM1l
p1171
I1
sVhttp://viid.me/qlENVG
p1172
I1
sVhttp://viid.me/qq9cqd
p1173
I1
sVhttp://viid.me/qlEKP3
p1174
I1
sVhttp://viid.me/qlENw0
p1175
I2
sVhttp://viid.me/qlE6cw
p1176
I1
sVhttp://viid.me/qlE6kn
p1177
I1
sVhttp://viid.me/qlE9FE
p1178
I1
sVhttp://viid.me/qlE9bP
p1179
I1
sVhttp://viid.me/qlE9Gs
p1180
I1
sVhttp://viid.me/qlEKPL
p1181
I1
sVhttp://viid.me/qlE9F7
p1182
I1
sVhttp://viid.me/qlE9bq
p1183
I1
sVhttp://viid.me/qlE6zG
p1184
I4
sVhttp://ift.tt/eA8V8J
p1185
I1
sVhttp://viid.me/qlE6zN
p1186
I1
sVhttp://viid.me/qlE1K6
p1187
I1
sVhttp://viid.me/qlEZfh
p1188
I1
sVhttp://viid.me/qlEMMN
p1189
I1
sVhttp://viid.me/qlE6zZ
p1190
I1
sVhttp://viid.me/qlEN4M
p1191
I1
ssg40
Vlast cuban doctor defectors arrive in us after policy change
p1192
sg42
I37
sg43
I9
sg44
I2
sa(dp1193
g2
(dp1194
g4
I0
sg5
I33
ssg6
I33
sg7
g8
((lp1195
I790611590320103424
aI827910559760838657
aI787828400744501250
aI803952837537464324
aI790895491294826496
aI827215096791363585
aI766307608743600128
aI799788453676417025
aI786293784359219200
aI827207230890049536
aI779841027926528000
aI779789207447408641
aI826984595384053760
aI828093209834291201
aI827183165831798784
aI827200680628719617
aI787129103128358912
aI828089584785432577
aI779461418861101056
aI828082540615458816
aI792529889991725057
aI787040661702864896
aI785195157712990208
aI772922637953667072
aI827177353344229377
aI240443742
aI727564171156570113
aI797938751263555584
aI802287999312678912
aI784049878271979520
aI785556435321184256
atp1196
Rp1197
sg12
I5
sg13
g14
(g15
tp1198
Rp1199
Vhttp://viid.me/qlTgxO
p1200
I1
sVhttp://viid.me/qlTfNr
p1201
I1
sVhttp://viid.me/qlTfB9
p1202
I10
sVhttp://viid.me/qlTeDQ
p1203
I5
sVhttp://viid.me/qlTfN2
p1204
I3
sVhttp://viid.me/qlTfSn
p1205
I1
sVhttp://viid.me/qlTfMQ
p1206
I1
sVhttp://viid.me/qlTfMM
p1207
I1
sVhttp://viid.me/qlTf2U
p1208
I1
sVhttp://viid.me/qlTfMH
p1209
I1
sVhttp://viid.me/qlTf1O
p1210
I1
sVhttp://viid.me/qlTf3T
p1211
I1
sVhttp://viid.me/qlTf1p
p1212
I1
sVhttp://viid.me/qlTeDA
p1213
I1
sVhttp://viid.me/qlTfNI
p1214
I2
sVhttp://viid.me/qlTfMA
p1215
I1
sVhttp://viid.me/qlTfBN
p1216
I1
ssg40
Vatomic test did what
p1217
sg42
I38
sg43
I9
sg44
I2
sa(dp1218
g2
(dp1219
g4
I0
sg5
I33
ssg6
I33
sg7
g8
((lp1220
I790611590320103424
aI827200680628719617
aI787828400744501250
aI803952837537464324
aI790895491294826496
aI727564171156570113
aI766307608743600128
aI799788453676417025
aI827207230890049536
aI772922637953667072
aI827215096791363585
aI786293784359219200
aI828093209834291201
aI827183165831798784
aI779789207447408641
aI787129103128358912
aI828089584785432577
aI826984595384053760
aI779461418861101056
aI828082540615458816
aI792529889991725057
aI787040661702864896
aI785195157712990208
aI779841027926528000
aI827177353344229377
aI240443742
aI797938751263555584
aI827910559760838657
aI802287999312678912
aI784049878271979520
aI785556435321184256
atp1221
Rp1222
sg12
I5
sg13
g14
(g15
tp1223
Rp1224
Vhttp://viid.me/qlTfBP
p1225
I1
sVhttp://viid.me/qlTfBZ
p1226
I1
sVhttp://viid.me/qlTgjS
p1227
I1
sVhttp://viid.me/qlTfCt
p1228
I1
sVhttp://viid.me/qlTfCz
p1229
I9
sVhttp://viid.me/qlTfIi
p1230
I1
sVhttp://viid.me/qlTfVW
p1231
I1
sVhttp://viid.me/qlTfV6
p1232
I5
sVhttp://viid.me/qlTfBy
p1233
I1
sVhttp://viid.me/qlTfVi
p1234
I3
sVhttp://viid.me/qlTfVC
p1235
I1
sVhttp://viid.me/qlTfVJ
p1236
I1
sVhttp://viid.me/qlTfXM
p1237
I1
sVhttp://viid.me/qlTfMw
p1238
I1
sVhttp://viid.me/qlTfCn
p1239
I1
sVhttp://viid.me/qlTfNo
p1240
I1
sVhttp://viid.me/qlTfCL
p1241
I2
sVhttp://viid.me/qlTfMc
p1242
I1
ssg40
Vpizza freebies here today
p1243
sg42
I39
sg43
I9
sg44
I2
sa(dp1244
g2
(dp1245
g4
I0
sg5
I33
ssg6
I33
sg7
g8
((lp1246
I828082540615458816
aI827910559760838657
aI787828400744501250
aI803952837537464324
aI790895491294826496
aI727564171156570113
aI766307608743600128
aI799788453676417025
aI786293784359219200
aI827207230890049536
aI772922637953667072
aI828089584785432577
aI790611590320103424
aI826984595384053760
aI828093209834291201
aI827183165831798784
aI827200680628719617
aI787129103128358912
aI779461418861101056
aI779789207447408641
aI787040661702864896
aI785195157712990208
aI779841027926528000
aI827177353344229377
aI240443742
aI792529889991725057
aI797938751263555584
aI827215096791363585
aI802287999312678912
aI784049878271979520
aI785556435321184256
atp1247
Rp1248
sg12
I5
sg13
g14
(g15
tp1249
Rp1250
Vhttp://viid.me/qlTf18
p1251
I1
sVhttp://viid.me/qlTf1L
p1252
I1
sVhttp://viid.me/qlTf6O
p1253
I1
sVhttp://viid.me/qlTf4r
p1254
I5
sVhttp://viid.me/qlTf2J
p1255
I3
sVhttp://viid.me/qlTf5s
p1256
I1
sVhttp://viid.me/qlTf60
p1257
I1
sVhttp://viid.me/qlTf21
p1258
I1
sVhttp://viid.me/qlTfKJ
p1259
I1
sVhttp://viid.me/qlTgof
p1260
I1
sVhttp://viid.me/qlTf3P
p1261
I1
sVhttp://viid.me/qlTf9f
p1262
I1
sVhttp://viid.me/qlTf2v
p1263
I1
sVhttp://viid.me/qlTf2e
p1264
I2
sVhttp://viid.me/qlTf6B
p1265
I1
sVhttp://viid.me/qlTf13
p1266
I9
sVhttp://viid.me/qlTf47
p1267
I1
sVhttp://viid.me/qlTf4D
p1268
I1
ssg40
V1000 iphone coming
p1269
sg42
I40
sg43
I9
sg44
I2
sa(dp1270
g2
(dp1271
g4
I0
sg5
I33
ssg6
I33
sg7
g8
((lp1272
I790895491294826496
aI828093209834291201
aI787828400744501250
aI803952837537464324
aI772922637953667072
aI827200680628719617
aI766307608743600128
aI799788453676417025
aI786293784359219200
aI827207230890049536
aI779841027926528000
aI827215096791363585
aI790611590320103424
aI826984595384053760
aI828082540615458816
aI779789207447408641
aI787040661702864896
aI828089584785432577
aI779461418861101056
aI827183165831798784
aI792529889991725057
aI787129103128358912
aI785195157712990208
aI827177353344229377
aI240443742
aI727564171156570113
aI797938751263555584
aI827910559760838657
aI802287999312678912
aI784049878271979520
aI785556435321184256
atp1273
Rp1274
sg12
I5
sg13
g14
(g15
tp1275
Rp1276
Vhttp://viid.me/qlTgyO
p1277
I3
sVhttp://viid.me/qlTg05
p1278
I10
sVhttp://viid.me/qlTgix
p1279
I1
sVhttp://viid.me/qlTglE
p1280
I1
sVhttp://viid.me/qlTgiT
p1281
I1
sVhttp://viid.me/qlTgrV
p1282
I2
sVhttp://viid.me/qlTgpA
p1283
I1
sVhttp://viid.me/qlTgrr
p1284
I1
sVhttp://viid.me/qlTgud
p1285
I1
sVhttp://viid.me/qlTfNE
p1286
I1
sVhttp://viid.me/qlTgpc
p1287
I1
sVhttp://viid.me/qlTgoV
p1288
I1
sVhttp://viid.me/qlTgtc
p1289
I1
sVhttp://viid.me/qlTgor
p1290
I1
sVhttp://viid.me/qlTgpY
p1291
I1
sVhttp://viid.me/qlTgy0
p1292
I5
sVhttp://viid.me/qlTgy3
p1293
I1
ssg40
Va heart attack at 28
p1294
sg42
I41
sg43
I9
sg44
I2
sa(dp1295
g2
(dp1296
g4
I0
sg5
I33
ssg6
I33
sg7
g8
((lp1297
I786293784359219200
aI790895491294826496
aI787828400744501250
aI803952837537464324
aI779841027926528000
aI779789207447408641
aI799788453676417025
aI827207230890049536
aI772922637953667072
aI727564171156570113
aI790611590320103424
aI800796470349688839
aI828093209834291201
aI828082540615458816
aI792529889991725057
aI787129103128358912
aI828089584785432577
aI826984595384053760
aI779461418861101056
aI827183165831798784
aI827200680628719617
aI787040661702864896
aI785195157712990208
aI827177353344229377
aI240443742
aI827215096791363585
aI797938751263555584
aI827910559760838657
aI802287999312678912
aI784049878271979520
aI785556435321184256
atp1298
Rp1299
sg12
I5
sg13
g14
(g15
tp1300
Rp1301
Vhttp://viid.me/qlR2yj
p1302
I1
sVhttp://viid.me/qlR2as
p1303
I2
sVhttp://viid.me/qlR2hY
p1304
I1
sVhttp://viid.me/qlR2fm
p1305
I1
sVhttp://viid.me/qlR2yM
p1306
I1
sVhttp://viid.me/qlR2yc
p1307
I1
sVhttp://viid.me/qlR2tV
p1308
I5
sVhttp://viid.me/qlR2p2
p1309
I1
sVhttp://viid.me/qlR3HG
p1310
I10
sVhttp://viid.me/qlR2hH
p1311
I1
sVhttp://viid.me/qlR2yX
p1312
I1
sVhttp://viid.me/qlRdM7
p1313
I1
sVhttp://viid.me/qlR2hA
p1314
I1
sVhttp://viid.me/qlR2ev
p1315
I1
sVhttp://viid.me/qlR2eW
p1316
I3
sVhttp://viid.me/qlR2tf
p1317
I1
sVhttp://viid.me/qlR2fT
p1318
I1
ssg40
Vtrump reaches out to chinas xi in letter instead of phone call
p1319
sg42
I42
sg43
I9
sg44
I2
sa(dp1320
g2
(dp1321
g4
I0
sg5
I33
ssg6
I33
sg7
g8
((lp1322
I772922637953667072
aI790895491294826496
aI787828400744501250
aI803952837537464324
aI779841027926528000
aI779789207447408641
aI766307608743600128
aI799788453676417025
aI827207230890049536
aI727564171156570113
aI790611590320103424
aI786293784359219200
aI828093209834291201
aI827183165831798784
aI792529889991725057
aI787129103128358912
aI828089584785432577
aI826984595384053760
aI779461418861101056
aI828082540615458816
aI827200680628719617
aI787040661702864896
aI784049878271979520
aI827177353344229377
aI240443742
aI827215096791363585
aI797938751263555584
aI827910559760838657
aI802287999312678912
aI785195157712990208
aI785556435321184256
atp1323
Rp1324
sg12
I5
sg13
g14
(g15
tp1325
Rp1326
Vhttp://viid.me/qlUodD
p1327
I1
sVhttp://viid.me/qlUiWi
p1328
I1
sVhttp://viid.me/qlUinV
p1329
I5
sVhttp://viid.me/qlUog8
p1330
I1
sVhttp://viid.me/qlUoYG
p1331
I10
sVhttp://viid.me/qlUims
p1332
I3
sVhttp://viid.me/qlUodE
p1333
I2
sVhttp://viid.me/qlUimu
p1334
I1
sVhttp://viid.me/qlUimw
p1335
I1
sVhttp://viid.me/qlUimH
p1336
I1
sVhttp://viid.me/qlUoaU
p1337
I1
sVhttp://viid.me/qlUohi
p1338
I1
sVhttp://viid.me/qlUimM
p1339
I1
sVhttp://viid.me/qlUofA
p1340
I1
sVhttp://viid.me/qlUodr
p1341
I1
sVhttp://viid.me/qlUodf
p1342
I1
sVhttp://viid.me/qlUcvM
p1343
I1
ssg40
Vsmiths mom let me see dannie
p1344
sg42
I43
sg43
I9
sg44
I2
sa(dp1345
g2
(dp1346
g4
I31
sg5
I2
ssg6
I33
sg7
g8
((lp1347
I801700916344852480
aI775510102518460416
aI1592596357
aI762095978220400640
aI729948338599010305
aI804987853486882816
aI1271389212
aI795115440594747392
aI824271584013778945
aI3166120358
aI777972916168171520
aI810737009186643968
aI819090064105816064
aI817433768415744000
aI773104008592490497
aI2824443195
aI790697316952842241
aI798386372717477888
aI3161477088
aI603517771
aI479533380
aI780602443184779264
aI809798290858508288
aI159377316
aI808036505700728832
aI2721299936
aI801484395840348160
aI744374376
aI704481725
aI786165728147808256
aI827225893617618944
aI781163013529231360
aI801358335685656576
atp1348
Rp1349
sg12
I5
sg13
g14
(g15
tp1350
Rp1351
Vhttp://viid.me/qqZXJr
p1352
I33
ssg40
V\u27a1   \u2b05 the hottiest
p1353
sg42
I44
sg43
I9
sg44
I2
sa(dp1354
g2
(dp1355
g4
I0
sg5
I33
ssg6
I33
sg7
g8
((lp1356
I787129103128358912
aI827910559760838657
aI787828400744501250
aI803952837537464324
aI828082540615458816
aI828093209834291201
aI766307608743600128
aI799788453676417025
aI786293784359219200
aI827207230890049536
aI779841027926528000
aI828089584785432577
aI790611590320103424
aI826984595384053760
aI827183165831798784
aI827200680628719617
aI787040661702864896
aI779461418861101056
aI779789207447408641
aI785195157712990208
aI790895491294826496
aI827177353344229377
aI240443742
aI792529889991725057
aI727564171156570113
aI772922637953667072
aI797938751263555584
aI827215096791363585
aI802287999312678912
aI784049878271979520
aI785556435321184256
atp1357
Rp1358
sg12
I5
sg13
g14
(g15
tp1359
Rp1360
Vhttp://viid.me/qlTg0w
p1361
I1
sVhttp://viid.me/qlTg0u
p1362
I1
sVhttp://viid.me/qlTf97
p1363
I1
sVhttp://viid.me/qlTf6t
p1364
I10
sVhttp://viid.me/qlTgeN
p1365
I1
sVhttp://viid.me/qlTgqn
p1366
I1
sVhttp://viid.me/qlTf6p
p1367
I1
sVhttp://viid.me/qlTf8y
p1368
I1
sVhttp://viid.me/qlTge4
p1369
I1
sVhttp://viid.me/qlTf8G
p1370
I5
sVhttp://viid.me/qlTf6L
p1371
I1
sVhttp://viid.me/qlTf9b
p1372
I1
sVhttp://viid.me/qlTga3
p1373
I1
sVhttp://viid.me/qlTf7e
p1374
I1
sVhttp://viid.me/qlTf5X
p1375
I2
sVhttp://viid.me/qlTf7C
p1376
I3
sVhttp://viid.me/qlTfXH
p1377
I1
ssg40
Vworst airlines ever
p1378
sg42
I45
sg43
I9
sg44
I2
sa(dp1379
g2
(dp1380
g4
I1
sg5
I32
ssg6
I33
sg7
g8
((lp1381
I802299026242736128
aI772922637953667072
aI805863343894523906
aI825086314076831747
aI829366975352668164
aI771538069723885573
aI792829665656377344
aI799714584307171329
aI816823302568214528
aI828260305973174275
aI790601488599027713
aI786293784359219200
aI809168093708697600
aI787799847915118592
aI792529889991725057
aI765273279389134848
aI788836153868845056
aI188504529
aI759795273937874944
aI796863876667207680
aI825207964072083456
aI787978290799775744
aI779461418861101056
aI802287999312678912
aI785195157712990208
aI785556435321184256
atp1382
Rp1383
sg12
I5
sg13
g14
(g15
tp1384
Rp1385
Vhttp://viid.me/qlUjxa
p1386
I1
sVhttp://viid.me/qlUjIp
p1387
I1
sVhttp://viid.me/qlUh8A
p1388
I1
sVhttp://viid.me/qlUjcE
p1389
I1
sVhttp://viid.me/qlUhYW
p1390
I1
sVhttp://viid.me/qlUjlt
p1391
I1
sVhttp://viid.me/qlUjgv
p1392
I1
sVhttp://viid.me/qlUjdH
p1393
I1
sVhttp://viid.me/qlUhnY
p1394
I5
sVhttp://viid.me/qlUhbo
p1395
I2
sVhttp://viid.me/qlUh5U
p1396
I1
sVhttp://viid.me/qlUh1x
p1397
I3
sVhttp://viid.me/qlUjlO
p1398
I2
sVhttp://viid.me/qlUjEO
p1399
I1
sVhttp://viid.me/qlUhFj
p1400
I7
sVhttp://viid.me/qlUjge
p1401
I1
sVhttp://viid.me/qlUjw7
p1402
I1
sVhttp://viid.me/qlUjl0
p1403
I1
sVhttp://viid.me/qlUjhN
p1404
I1
ssg40
Vdresden unveils controversial monument that looks like radical islamist fortification
p1405
sg42
I46
sg43
I9
sg44
I2
sa(dp1406
g2
(dp1407
g4
I0
sg5
I33
ssg6
I33
sg7
g8
((lp1408
I772922637953667072
aI779461418861101056
aI787828400744501250
aI803952837537464324
aI790895491294826496
aI727564171156570113
aI766307608743600128
aI799788453676417025
aI827207230890049536
aI779841027926528000
aI779789207447408641
aI790611590320103424
aI786293784359219200
aI828093209834291201
aI827183165831798784
aI792529889991725057
aI787040661702864896
aI828089584785432577
aI826984595384053760
aI828082540615458816
aI827200680628719617
aI787129103128358912
aI785195157712990208
aI827177353344229377
aI240443742
aI827910559760838657
aI797938751263555584
aI827215096791363585
aI802287999312678912
aI784049878271979520
aI785556435321184256
atp1409
Rp1410
sg12
I5
sg13
g14
(g15
tp1411
Rp1412
Vhttp://viid.me/qlUiEG
p1413
I1
sVhttp://viid.me/qlUiWd
p1414
I5
sVhttp://viid.me/qlUcmm
p1415
I1
sVhttp://viid.me/qlUiET
p1416
I3
sVhttp://viid.me/qlUiTM
p1417
I1
sVhttp://viid.me/qlUoO3
p1418
I1
sVhttp://viid.me/qlUoh6
p1419
I1
sVhttp://viid.me/qlUiTc
p1420
I1
sVhttp://viid.me/qlUozL
p1421
I1
sVhttp://viid.me/qlUiWS
p1422
I1
sVhttp://viid.me/qlUojZ
p1423
I1
sVhttp://viid.me/qlUojP
p1424
I2
sVhttp://viid.me/qlUoOz
p1425
I4
sVhttp://viid.me/qlUojN
p1426
I1
sVhttp://viid.me/qlUiRr
p1427
I1
sVhttp://viid.me/qlUoOL
p1428
I1
sVhttp://viid.me/qlUoOO
p1429
I1
sVhttp://viid.me/qlUoOB
p1430
I1
sVhttp://viid.me/qlUoOF
p1431
I1
sVhttp://viid.me/qlUojh
p1432
I1
sVhttp://viid.me/qlUohd
p1433
I1
sVhttp://viid.me/qlUoOR
p1434
I1
sVhttp://viid.me/qlUoz0
p1435
I1
ssg40
Vtweeterinchief trump hits senator for gorsuch leak vietnam \u2018lie
p1436
sg42
I47
sg43
I9
sg44
I2
sa(dp1437
g2
(dp1438
g4
I27
sg5
I5
ssg6
I32
sg7
g8
((lp1439
I805183090750619648
aI712162338019774464
aI736691435995435008
aI807601443632881665
aI770960855391272960
aI3251816994
aI2921970084
aI2392315910
aI3071185962
aI721175632839716864
aI2894044206
aI1139974460
aI3172353090
aI792356156463157248
aI803556688036929536
aI3099659209
aI813648136107241472
aI2329546706
aI758396497935396864
aI419986654
aI729635004884520960
aI3229820005
aI1401863281
aI776065619774943232
atp1440
Rp1441
sg12
I5
sg13
g14
(g15
tp1442
Rp1443
Vhttp://viid.me/qreLqe
p1444
I32
ssg40
V\u27a1     \u2b05 rt dindoyxtubesite visit our gay porn site for full videos \u2026
p1445
sg42
I48
sg43
I9
sg44
I2
sa(dp1446
g2
(dp1447
g4
I8
sg5
I24
ssg6
I32
sg7
g8
((lp1448
I797938751263555584
aI784049878271979520
aI787828400744501250
aI803952837537464324
aI790895491294826496
aI727564171156570113
aI766307608743600128
aI772922637953667072
aI799788453676417025
aI295965478
aI790611590320103424
aI786293784359219200
aI787040661702864896
aI803067436278763520
aI770681636874772480
aI792529889991725057
aI782286927793909760
aI153283018
aI779461418861101056
aI779789207447408641
aI787129103128358912
aI785195157712990208
aI779841027926528000
aI240443742
aI1085411936
aI1287022826
aI802287999312678912
aI121972853
aI785556435321184256
aI797370858570481664
atp1449
Rp1450
sg12
I5
sg13
g14
(g15
tp1451
Rp1452
Vhttp://viid.me/qlEHmv
p1453
I1
sVhttp://viid.me/qlEHng
p1454
I1
sVhttp://viid.me/qlEHmW
p1455
I3
sVhttp://viid.me/qlEHnB
p1456
I2
sVhttp://viid.me/qlEHQq
p1457
I1
sVhttp://viid.me/qlEHKc
p1458
I1
sVhttp://viid.me/qlEHnn
p1459
I3
sVhttp://viid.me/qlEHnO
p1460
I9
sVhttp://viid.me/qlEHRL
p1461
I1
sVhttp://viid.me/qlEHQT
p1462
I1
sVhttp://viid.me/qlEHn0
p1463
I1
sVhttp://viid.me/qlEHmk
p1464
I1
sVhttp://viid.me/qlENqj
p1465
I1
sVhttp://viid.me/qlEHQm
p1466
I1
sVhttp://viid.me/qlEHKs
p1467
I2
sVhttp://viid.me/qlEHbM
p1468
I1
sVhttp://viid.me/qlEHKQ
p1469
I2
ssg40
Vborder agents seize nearly 4000 pounds of marijuana hidden in fake key limes
p1470
sg42
I49
sg43
I9
sg44
I2
sa(dp1471
g2
(dp1472
g4
I1
sg5
I31
ssg6
I32
sg7
g8
((lp1473
I786293784359219200
aI799788453676417025
aI766307608743600128
aI803952837537464324
aI779841027926528000
aI827910559760838657
aI827207230890049536
aI790895491294826496
aI727564171156570113
aI826984595384053760
aI828093209834291201
aI827183165831798784
aI779789207447408641
aI787129103128358912
aI828089584785432577
aI779461418861101056
aI828082540615458816
aI827200680628719617
aI787040661702864896
aI784049878271979520
aI772922637953667072
aI827177353344229377
aI240443742
aI792529889991725057
aI798649464974151680
aI797938751263555584
aI827215096791363585
aI802287999312678912
aI785195157712990208
aI785556435321184256
atp1474
Rp1475
sg12
I5
sg13
g14
(g15
tp1476
Rp1477
Vhttp://viid.me/qlTfAY
p1478
I1
sVhttp://viid.me/qlTfyV
p1479
I1
sVhttp://viid.me/qlTfPI
p1480
I1
sVhttp://viid.me/qlTfAH
p1481
I1
sVhttp://viid.me/qlTghF
p1482
I1
sVhttp://viid.me/qlTfOZ
p1483
I10
sVhttp://viid.me/qlTfAu
p1484
I5
sVhttp://viid.me/qlTfAw
p1485
I2
sVhttp://viid.me/qlTfSR
p1486
I1
sVhttp://viid.me/qlTfDv
p1487
I1
sVhttp://viid.me/qlTfS0
p1488
I2
sVhttp://viid.me/qlTfAQ
p1489
I1
sVhttp://viid.me/qlTfON
p1490
I3
sVhttp://viid.me/qlTfS8
p1491
I1
sVhttp://viid.me/qlTfP2
p1492
I1
ssg40
Vjustin it broke me down
p1493
sg42
I50
sg43
I9
sg44
I2
sa(dp1494
g2
(dp1495
g4
I1
sg5
I30
ssg6
I31
sg7
g8
((lp1496
I756668572370436096
aI792443841789960193
aI825086314076831747
aI798521044646690820
aI764857474365132800
aI727564171156570113
aI796025831919386624
aI801533437534474240
aI819920470589968384
aI764560298086981633
aI822121521246310406
aI75388838
aI790611590320103424
aI716418247579549696
aI792529889991725057
aI784529318500245505
aI795786553985499136
aI764662496179421185
aI800039817652400128
aI772922637953667072
aI240443742
aI794025453333970944
aI794573977159143424
aI938122860
aI197257709
aI826216161733910528
aI815709962315898880
aI794581473009528833
aI795590737215836160
aI766307608743600128
atp1497
Rp1498
sg12
I5
sg13
g14
(g15
tp1499
Rp1500
Vhttp://viid.me/qlTl6F
p1501
I1
sVhttp://viid.me/qlTurm
p1502
I1
sVhttp://viid.me/qlTgbI
p1503
I1
sVhttp://viid.me/qlTlcj
p1504
I1
sVhttp://viid.me/qlTllJ
p1505
I1
sVhttp://viid.me/qlTyi5
p1506
I1
sVhttp://viid.me/qlTllU
p1507
I2
sVhttp://viid.me/qlTljM
p1508
I1
sVhttp://viid.me/qlTu4A
p1509
I1
sVhttp://viid.me/qlTyuf
p1510
I1
sVhttp://viid.me/qlTuYL
p1511
I1
sVhttp://viid.me/qlTu4s
p1512
I1
sVhttp://viid.me/qlTyyZ
p1513
I1
sVhttp://viid.me/qlTlz9
p1514
I1
sVhttp://viid.me/qlTyyN
p1515
I1
sVhttp://viid.me/qlTyic
p1516
I1
sVhttp://viid.me/qlTlzN
p1517
I1
sVhttp://viid.me/qlTuNc
p1518
I1
sVhttp://viid.me/qlTyti
p1519
I1
sVhttp://viid.me/qlTyij
p1520
I1
sVhttp://viid.me/qlTyiu
p1521
I1
sVhttp://viid.me/qlTlc5
p1522
I1
sVhttp://viid.me/qlTlzm
p1523
I1
sVhttp://viid.me/qlTlkn
p1524
I2
sVhttp://viid.me/qlTceS
p1525
I2
sVhttp://viid.me/qlTll6
p1526
I1
sVhttp://viid.me/qlTyuo
p1527
I2
ssg40
Vin letter to china trump says he wants \u2018constructive relationship\u2019
p1528
sg42
I51
sg43
I9
sg44
I2
sa(dp1529
g2
(dp1530
g4
I3
sg5
I28
ssg6
I31
sg7
g8
((lp1531
I815928899058147328
aI815923752919777281
aI819663263998869507
aI771538069723885573
aI784825705099956224
aI815924866637500417
aI115517851
aI786915319008854016
aI779841027926528000
aI764662496179421185
aI815925915100258304
aI1268438574
aI821375422583685120
aI778051538132594688
aI779789207447408641
aI791823307922374656
aI779461418861101056
aI787662472530493440
aI815927754482970624
aI796025831919386624
aI791086606597951488
aI727564171156570113
aI789113916102180864
aI795596174589829120
aI828957353928249344
aI827241553596973057
aI781733026824937472
aI736284043583590400
aI431183358
aI789266125485998080
atp1532
Rp1533
sg12
I5
sg13
g14
(g15
tp1534
Rp1535
Vhttp://viid.me/qlEq53
p1536
I1
sVhttp://viid.me/qlEiRq
p1537
I1
sVhttp://viid.me/qlEwuG
p1538
I1
sVhttp://viid.me/qlEqRK
p1539
I3
sVhttp://viid.me/qlEeld
p1540
I1
sVhttp://viid.me/qlEqTw
p1541
I6
sVhttp://viid.me/qlEc5a
p1542
I2
sVhttp://viid.me/qlEqTu
p1543
I1
sVhttp://viid.me/qlEqCU
p1544
I1
sVhttp://viid.me/qlEeuX
p1545
I1
sVhttp://viid.me/qlEiWt
p1546
I1
sVhttp://viid.me/qlEqH3
p1547
I1
sVhttp://viid.me/qlEogs
p1548
I1
sVhttp://viid.me/qlEqTj
p1549
I1
sVhttp://viid.me/qlEodN
p1550
I1
sVhttp://viid.me/qlEiWB
p1551
I1
sVhttp://viid.me/qlEc3t
p1552
I3
sVhttp://viid.me/qlEqRV
p1553
I1
sVhttp://viid.me/qlEbJy
p1554
I1
sVhttp://viid.me/qlEwz8
p1555
I1
sVhttp://viid.me/qlEq8l
p1556
I1
ssg40
Vtrump vs nordstrom the latest bout raising ethical concerns
p1557
sg42
I52
sg43
I9
sg44
I2
sa(dp1558
g2
(dp1559
g4
I1
sg5
I28
ssg6
I29
sg7
g8
((lp1560
I802061220186587136
aI785556435321184256
aI819663263998869507
aI803952837537464324
aI779841027926528000
aI727564171156570113
aI786915319008854016
aI784825705099956224
aI815923752919777281
aI795596174589829120
aI815709962315898880
aI821375422583685120
aI828838674884222976
aI815924866637500417
aI791823307922374656
aI543775569
aI821048044238045184
aI764662496179421185
aI815927754482970624
aI796025831919386624
aI791086606597951488
aI789113916102180864
aI815928899058147328
aI828957353928249344
aI778051538132594688
aI790611590320103424
aI827241553596973057
aI815925915100258304
aI789266125485998080
atp1561
Rp1562
sg12
I5
sg13
g14
(g15
tp1563
Rp1564
Vhttp://viid.me/qlRUYD
p1565
I1
sVhttp://viid.me/qlRlSJ
p1566
I1
sVhttp://viid.me/qlRE3f
p1567
I1
sVhttp://viid.me/qlRE3K
p1568
I1
sVhttp://viid.me/qlRnw9
p1569
I4
sVhttp://viid.me/qlRnrc
p1570
I1
sVhttp://viid.me/qlRE3D
p1571
I1
sVhttp://viid.me/qlRne2
p1572
I1
sVhttp://viid.me/qlREA0
p1573
I5
sVhttp://viid.me/qq9cqd
p1574
I1
sVhttp://viid.me/qlREDx
p1575
I1
sVhttp://viid.me/qlRmDS
p1576
I1
sVhttp://viid.me/qlREG5
p1577
I1
sVhttp://viid.me/qlREHg
p1578
I1
sVhttp://viid.me/qlRlGA
p1579
I1
sVhttp://viid.me/qlRneD
p1580
I2
sVhttp://viid.me/qlRlPX
p1581
I1
sVhttp://viid.me/qlYTRB
p1582
I1
sVhttp://viid.me/qlRmG7
p1583
I1
sVhttp://ift.tt/eA8V8J
p1584
I1
sVhttp://viid.me/qlRb9w
p1585
I1
sVhttp://viid.me/qlRneb
p1586
I1
ssg40
Vlas vegas trial starting for 6 in bundy ranch standoff
p1587
sg42
I53
sg43
I9
sg44
I2
sa(dp1588
g2
(dp1589
g4
I4
sg5
I25
ssg6
I29
sg7
g8
((lp1590
I769236122375430144
aI828082540615458816
aI825826173485740036
aI771538069723885573
aI801533437534474240
aI827910559760838657
aI770745098
aI766663994362986501
aI827207230890049536
aI827200680628719617
aI795596174589829120
aI826984595384053760
aI1346954671
aI3598959794
aI828093209834291201
aI793527224225890305
aI827183165831798784
aI828089584785432577
aI813445430654697472
aI772789868858597376
aI786375441766461440
aI787799847915118592
aI816044810574426112
aI827177353344229377
aI727564171156570113
aI747144457741606912
aI827215096791363585
aI795590737215836160
aI818141195595640832
atp1591
Rp1592
sg12
I5
sg13
g14
(g15
tp1593
Rp1594
Vhttp://viid.me/qlYVIO
p1595
I4
sVhttp://viid.me/qlYVUQ
p1596
I1
sVhttp://viid.me/qlYVnW
p1597
I1
sVhttp://viid.me/qlYUnc
p1598
I1
sVhttp://viid.me/qlYVUX
p1599
I1
sVhttp://viid.me/qlYVIB
p1600
I1
sVhttp://viid.me/qlYVPm
p1601
I1
sVhttp://viid.me/qlYVUA
p1602
I1
sVhttp://viid.me/qlYVXK
p1603
I2
sVhttp://viid.me/qlYWf7
p1604
I1
sVhttp://viid.me/qlYVEt
p1605
I1
sVhttp://viid.me/qlYWjv
p1606
I10
sVhttp://viid.me/qlYVE8
p1607
I2
sVhttp://viid.me/qlYVUY
p1608
I1
sVhttp://viid.me/qlYVPT
p1609
I1
ssg40
Vtrump blumenthal lied about vietnam misrepresents what gorsuch said
p1610
sg42
I54
sg43
I9
sg44
I2
sa(dp1611
g2
(dp1612
g4
I0
sg5
I29
ssg6
I29
sg7
g8
((lp1613
I790611590320103424
aI821375422583685120
aI829144862393982978
aI828761013143076865
aI75388838
aI819920470589968384
aI829464358921060353
aI829154356436021248
aI126050157
aI820461975478161408
aI824089961905397760
aI828957353928249344
aI800039817652400128
aI766307608743600128
aI824096145463013376
aI828838674884222976
aI794229280326746112
atp1614
Rp1615
sg12
I5
sg13
g14
(g15
tp1616
Rp1617
Vhttp://viid.me/qlEGby
p1618
I1
sVhttp://viid.me/qlEGnr
p1619
I1
sVhttp://viid.me/qlEGvU
p1620
I1
sVhttp://viid.me/qlEmUC
p1621
I1
sVhttp://viid.me/qlEGnf
p1622
I1
sVhttp://viid.me/qlE78w
p1623
I1
sVhttp://viid.me/qlEnE3
p1624
I1
sVhttp://viid.me/qlEGvJ
p1625
I1
sVhttp://viid.me/qlEGno
p1626
I1
sVhttp://viid.me/qlEGbP
p1627
I1
sVhttp://viid.me/qlRgTS
p1628
I1
sVhttp://viid.me/qlEGbN
p1629
I1
sVhttp://viid.me/qlEGvi
p1630
I1
sVhttp://viid.me/qlEGbq
p1631
I1
sVhttp://viid.me/qlRgUf
p1632
I1
sVhttp://viid.me/qlRgYh
p1633
I1
sVhttp://viid.me/qlRgYa
p1634
I1
sVhttp://viid.me/qlRgT1
p1635
I1
sVhttp://viid.me/qlRgYx
p1636
I1
sVhttp://viid.me/qlRgUr
p1637
I2
sVhttp://viid.me/qlRgUE
p1638
I1
sVhttp://viid.me/qlRgYN
p1639
I1
sVhttp://viid.me/qlEGv6
p1640
I2
sVhttp://viid.me/qlRgYG
p1641
I1
sVhttp://viid.me/qlELjD
p1642
I2
sVhttp://viid.me/qlRgYP
p1643
I1
ssg40
Vwashingtons new lows
p1644
sg42
I55
sg43
I9
sg44
I2
sa(dp1645
g2
(dp1646
g4
I2
sg5
I27
ssg6
I29
sg7
g8
((lp1647
I783543477212774400
aI827183165831798784
aI819663263998869507
aI826984595384053760
aI817790422235967493
aI828082540615458816
aI827215096791363585
aI824806953645916164
aI827207230890049536
aI784825705099956224
aI828089584785432577
aI822121521246310406
aI829154356436021248
aI4844017714
aI828093209834291201
aI828761013143076865
aI3012586039
aI827200680628719617
aI825204167287386112
aI820412392030892032
aI820392090966327296
aI829128255038959616
aI489991894
aI800039817652400128
aI827177353344229377
aI794229280326746112
aI791086606597951488
aI819623494505918465
aI827910559760838657
atp1648
Rp1649
sg12
I5
sg13
g14
(g15
tp1650
Rp1651
Vhttp://viid.me/qlUrpR
p1652
I1
sVhttp://viid.me/qlY2BJ
p1653
I2
sVhttp://viid.me/qlY2Mo
p1654
I1
sVhttp://viid.me/qlYYYQ
p1655
I1
sVhttp://viid.me/qlUozF
p1656
I1
sVhttp://viid.me/qlY2V3
p1657
I1
sVhttp://viid.me/qlUocx
p1658
I1
sVhttp://viid.me/qlY21s
p1659
I1
sVhttp://viid.me/qlY2kc
p1660
I12
sVhttp://viid.me/qlYLi6
p1661
I1
sVhttp://viid.me/qlUoxU
p1662
I1
sVhttp://viid.me/qlUoxi
p1663
I2
sVhttp://viid.me/qlY2Na
p1664
I1
sVhttp://viid.me/qlY2BS
p1665
I1
sVhttp://viid.me/qlUogO
p1666
I2
ssg40
Vtwitter quarterly loss widens to 167m
p1667
sg42
I56
sg43
I9
sg44
I2
sa(dp1668
g2
(dp1669
g4
I8
sg5
I21
ssg6
I29
sg7
g8
((lp1670
I785195157712990208
aI799714584307171329
aI787828400744501250
aI772922637953667072
aI779789207447408641
aI794229280326746112
aI3228508546
aI526346146
aI823343596917112833
aI824089961905397760
aI786293784359219200
aI809168093708697600
aI720800661500203009
aI222505018
aI782286927793909760
aI864927037
aI779461418861101056
aI433792330
aI4839403219
aI764662496179421185
aI800039817652400128
aI796025831919386624
aI847633508
aI3003471994
aI44377087
aI785354015043452928
atp1671
Rp1672
sg12
I5
sg13
g14
(g15
tp1673
Rp1674
Vhttp://viid.me/qlRVUk
p1675
I1
sVhttp://viid.me/qlRVRf
p1676
I4
sVhttp://viid.me/qlRVY8
p1677
I3
sVhttp://viid.me/qlRVYB
p1678
I1
sVhttp://viid.me/qlRVIa
p1679
I1
sVhttp://viid.me/qlRVYn
p1680
I11
sVhttp://viid.me/qlRVIZ
p1681
I2
sVhttp://viid.me/qlRVIx
p1682
I1
sVhttp://viid.me/qlRVU6
p1683
I1
sVhttp://viid.me/qlRVUv
p1684
I3
sVhttp://viid.me/qlRVUU
p1685
I1
ssg40
Vsan bernardino victims petition trump to fix health care roadblocks
p1686
sg42
I57
sg43
I9
sg44
I2
sa(dp1687
g2
(dp1688
g4
I4
sg5
I25
ssg6
I29
sg7
g8
((lp1689
I828082540615458816
aI828093209834291201
aI825826173485740036
aI766663994362986501
aI795596174589829120
aI827177353344229377
aI771538069723885573
aI827207230890049536
aI727564171156570113
aI769236122375430144
aI826984595384053760
aI798206012964618240
aI827910559760838657
aI793527224225890305
aI787799847915118592
aI827200680628719617
aI759795273937874944
aI81189820
aI828089584785432577
aI813445430654697472
aI827183165831798784
aI786375441766461440
aI816044810574426112
aI192959969
aI801533437534474240
aI827215096791363585
aI795590737215836160
aI772789868858597376
aI818141195595640832
atp1690
Rp1691
sg12
I5
sg13
g14
(g15
tp1692
Rp1693
Vhttp://viid.me/qlUouZ
p1694
I10
sVhttp://viid.me/qlUp1z
p1695
I1
sVhttp://viid.me/qlUpJg
p1696
I1
sVhttp://viid.me/qlUpzy
p1697
I2
sVhttp://viid.me/qlUp1F
p1698
I1
sVhttp://viid.me/qlUp1O
p1699
I1
sVhttp://viid.me/qlUjOU
p1700
I2
sVhttp://viid.me/qlUp4o
p1701
I1
sVhttp://viid.me/qlUp1R
p1702
I1
sVhttp://viid.me/qlUp3Z
p1703
I3
sVhttp://viid.me/qlUaea
p1704
I1
sVhttp://viid.me/qlUpHc
p1705
I1
sVhttp://viid.me/qlUp3T
p1706
I2
sVhttp://viid.me/qlUpdR
p1707
I1
sVhttp://viid.me/qlUp3q
p1708
I1
ssg40
Vconway completely false that white house cant fill communications director job
p1709
sg42
I58
sg43
I9
sg44
I2
sa(dp1710
g2
(dp1711
g4
I26
sg5
I2
ssg6
I28
sg7
g8
((lp1712
I801700916344852480
aI809798290858508288
aI3194933120
aI816473343595450368
aI801964163392225281
aI2499051537
aI819090064105816064
aI814039896478334976
aI1271389212
aI1517261215
aI756555906415026177
aI3166120358
aI786165728147808256
aI825334606815707136
aI790802394049314816
aI808225616075984896
aI2901809222
aI780602443184779264
aI487232082
aI3380883028
aI637157080
aI159377316
aI729948338599010305
aI808036505700728832
aI740231615641620480
aI801484395840348160
aI825974001100992512
aI749250457348902912
atp1713
Rp1714
sg12
I5
sg13
g14
(g15
tp1715
Rp1716
Vhttp://viid.me/qqZXJr
p1717
I28
ssg40
V\u27a1   \u2b05 locker room situasion
p1718
sg42
I59
sg43
I9
sg44
I2
sa(dp1719
g2
(dp1720
g4
I26
sg5
I2
ssg6
I28
sg7
g8
((lp1721
I801700916344852480
aI775510102518460416
aI799625212320944128
aI756555906415026177
aI809798290858508288
aI1141482516
aI2852960664
aI193075741
aI780602443184779264
aI159377316
aI777972916168171520
aI762200544148467712
aI2663500206
aI819817125623648256
aI603517771
aI479533380
aI779511249511952384
aI3142849111
aI2893543002
aI725712360619438080
aI2955780231
aI729948338599010305
aI812431454
aI826412002667069440
aI1319300096
aI801484395840348160
aI757446747232673792
aI817869284105854977
atp1722
Rp1723
sg12
I5
sg13
g14
(g15
tp1724
Rp1725
Vhttp://viid.me/qqZXJr
p1726
I28
ssg40
V\u27a1   \u2b05 house frat boys
p1727
sg42
I60
sg43
I9
sg44
I2
sa(dp1728
g2
(dp1729
g4
I2
sg5
I26
ssg6
I28
sg7
g8
((lp1730
I756668572370436096
aI764560298086981633
aI755151444605534210
aI825086314076831747
aI798521044646690820
aI738856920937861120
aI794581473009528833
aI801533437534474240
aI772922637953667072
aI764662496179421185
aI822121521246310406
aI75388838
aI790611590320103424
aI792529889991725057
aI792443841789960193
aI795786553985499136
aI764857474365132800
aI570224711
aI800039817652400128
aI819920470589968384
aI240443742
aI796025831919386624
aI794573977159143424
aI784529318500245505
aI197257709
aI826216161733910528
aI815709962315898880
aI766307608743600128
atp1731
Rp1732
sg12
I5
sg13
g14
(g15
tp1733
Rp1734
Vhttp://viid.me/qlTt1a
p1735
I1
sVhttp://viid.me/qlTtNF
p1736
I1
sVhttp://viid.me/qlTlRa
p1737
I1
sVhttp://viid.me/qlTk5P
p1738
I1
sVhttp://viid.me/qlTtNO
p1739
I1
sVhttp://viid.me/qlE10h
p1740
I1
sVhttp://viid.me/qlTk5m
p1741
I1
sVhttp://viid.me/qlTk5h
p1742
I1
sVhttp://viid.me/qlTk3F
p1743
I1
sVhttp://viid.me/qlTk7u
p1744
I1
sVhttp://viid.me/qlTtNn
p1745
I1
sVhttp://viid.me/qlTk3L
p1746
I1
sVhttp://viid.me/qlTtMW
p1747
I1
sVhttp://viid.me/qlTk2s
p1748
I1
sVhttp://viid.me/qlTt2l
p1749
I1
sVhttp://viid.me/qlTk6E
p1750
I1
sVhttp://viid.me/qlTxh4
p1751
I2
sVhttp://viid.me/qlTk4d
p1752
I2
sVhttp://viid.me/qlTtN3
p1753
I1
sVhttp://viid.me/qlTtN0
p1754
I1
sVhttp://viid.me/qlTk4v
p1755
I2
sVhttp://viid.me/qlTyR1
p1756
I1
sVhttp://viid.me/qlTtVI
p1757
I3
ssg40
Vparent trap a secret of many urban 20somethings their parents help with the rent
p1758
sg42
I61
sg43
I9
sg44
I2
sa(dp1759
g2
(dp1760
g4
I28
sg5
I0
ssg6
I28
sg7
g8
((lp1761
I752164765187932160
aI787174086749200384
aI229965698
aI2558247172
aI795761129465126912
aI723442281521377281
aI1279364652
aI2217208087
aI814703864813420548
aI814689889346195456
aI761474082
aI795338600577724417
aI153868710
aI430424359
aI2347853737
aI709134764
aI806142454218903552
aI4850166793
aI785008235405152256
aI3331477319
aI814371333836419072
aI2188979796
aI1463822372
aI813018137830400001
aI1121122531
aI1545908857
aI801779475742531585
aI314188542
atp1762
Rp1763
sg12
I5
sg13
g14
(g15
tp1764
Rp1765
Vhttp://viid.me/qqZXJr
p1766
I28
ssg40
Vrt supersebasxxx \u27a1   \u2b05 superdioses
p1767
sg42
I62
sg43
I9
sg44
I2
sa(dp1768
g2
(dp1769
g4
I12
sg5
I15
ssg6
I27
sg7
g8
((lp1770
I770355908056588288
aI800944784928108544
aI821842280172650498
aI789856799625191429
aI784825705099956224
aI796181322872094721
aI796025831919386624
aI796881152
aI796941226578743296
aI782025943032397824
aI526346146
aI726119923886469121
aI785831730913484800
aI797994514837291008
aI57985206
aI349027514
aI530786358
aI764662496179421185
aI627062744
aI741426407599833088
aI802299026242736128
aI791086606597951488
aI703389199139938304
aI788910707869945856
aI796999539085504512
atp1771
Rp1772
sg12
I5
sg13
g14
(g15
tp1773
Rp1774
Vhttp://viid.me/qlEfXW
p1775
I1
sVhttp://viid.me/qlEfoE
p1776
I1
sVhttp://viid.me/qlEdb6
p1777
I2
sVhttp://viid.me/qlEfih
p1778
I1
sVhttp://viid.me/qlEfpX
p1779
I1
sVhttp://viid.me/qlEfkT
p1780
I1
sVhttp://viid.me/qlEflD
p1781
I15
sVhttp://viid.me/qlEgPx
p1782
I1
sVhttp://viid.me/qlEgdX
p1783
I1
sVhttp://viid.me/qlEf5k
p1784
I1
sVhttp://viid.me/qlEfi9
p1785
I1
sVhttp://viid.me/qlEs6I
p1786
I1
ssg40
Vcruz slams democrats calls them \u2018the party of the ku klux klan\u2019
p1787
sg42
I63
sg43
I9
sg44
I2
sa(dp1788
g2
(dp1789
g4
I2
sg5
I25
ssg6
I27
sg7
g8
((lp1790
I794229280326746112
aI819623494505918465
aI819663263998869507
aI829154356436021248
aI817790422235967493
aI828082540615458816
aI827910559760838657
aI824806953645916164
aI316161690
aI827207230890049536
aI784825705099956224
aI828093209834291201
aI822121521246310406
aI826984595384053760
aI828761013143076865
aI827183165831798784
aI827200680628719617
aI825204167287386112
aI705605218277285888
aI828089584785432577
aI820392090966327296
aI829128255038959616
aI489991894
aI800039817652400128
aI827177353344229377
aI791086606597951488
aI827215096791363585
atp1791
Rp1792
sg12
I5
sg13
g14
(g15
tp1793
Rp1794
Vhttp://viid.me/qlTozT
p1795
I1
sVhttp://viid.me/qlTrvp
p1796
I2
sVhttp://viid.me/qlTrxK
p1797
I1
sVhttp://viid.me/qlTrYA
p1798
I1
sVhttp://viid.me/qlTrcA
p1799
I2
sVhttp://viid.me/qlToxf
p1800
I1
sVhttp://viid.me/qlTrxr
p1801
I1
sVhttp://viid.me/qlTozN
p1802
I1
sVhttp://viid.me/qlToxb
p1803
I2
sVhttp://viid.me/qlTrYY
p1804
I11
sVhttp://viid.me/qlTrDi
p1805
I1
sVhttp://viid.me/qlTld0
p1806
I1
sVhttp://viid.me/qlToxo
p1807
I1
sVhttp://viid.me/qlToxl
p1808
I1
ssg40
Vfrance nuclear power explosion rocks flamanville plant
p1809
sg42
I64
sg43
I9
sg44
I2
sa(dp1810
g2
(dp1811
g4
I3
sg5
I24
ssg6
I27
sg7
g8
((lp1812
I819343861118017536
aI790312111272591361
aI797950746553683970
aI790339051496890368
aI815923752919777281
aI825207964072083456
aI2264947340
aI565501978
aI790385458840731648
aI815313447667765248
aI783374858579218433
aI794149651062595584
aI789266125485998080
aI815924866637500417
aI813445430654697472
aI2882972224
aI4237277387
aI815927754482970624
aI794189004077985792
aI794151742502010880
aI794174399595352064
aI815925915100258304
aI794224446634676224
aI754802590664290304
aI788535135687892992
aI799104738470096896
aI794209402131771392
atp1813
Rp1814
sg12
I5
sg13
g14
(g15
tp1815
Rp1816
Vhttp://viid.me/qlRcrr
p1817
I1
sVhttp://viid.me/qlRYZ0
p1818
I4
sVhttp://viid.me/qlRv9Z
p1819
I1
sVhttp://viid.me/qlRAhR
p1820
I1
sVhttp://viid.me/qlRURe
p1821
I1
sVhttp://viid.me/qlRbw8
p1822
I1
sVhttp://viid.me/qlRYJT
p1823
I1
sVhttp://viid.me/qlRceh
p1824
I1
sVhttp://viid.me/qlRv8i
p1825
I13
sVhttp://viid.me/qlRUR1
p1826
I1
sVhttp://viid.me/qlRv9G
p1827
I1
sVhttp://viid.me/qlREI9
p1828
I1
ssg40
Vbehna chuck schumer lies about hhs nominee tom price\u2019s record on healthcare video
p1829
sg42
I65
sg43
I9
sg44
I2
sa(dp1830
g2
(dp1831
g4
I2
sg5
I25
ssg6
I27
sg7
g8
((lp1832
I756668572370436096
aI792443841789960193
aI825086314076831747
aI798521044646690820
aI766307608743600128
aI794581473009528833
aI801533437534474240
aI772922637953667072
aI764560298086981633
aI822121521246310406
aI75388838
aI815709962315898880
aI792529889991725057
aI784529318500245505
aI795786553985499136
aI764857474365132800
aI433792330
aI764662496179421185
aI46236196
aI800039817652400128
aI819920470589968384
aI240443742
aI796025831919386624
aI794573977159143424
aI197257709
aI826216161733910528
aI790611590320103424
atp1833
Rp1834
sg12
I5
sg13
g14
(g15
tp1835
Rp1836
Vhttp://viid.me/qlTyo0
p1837
I1
sVhttp://viid.me/qlTlRy
p1838
I1
sVhttp://viid.me/qlTyaT
p1839
I1
sVhttp://viid.me/qlTysl
p1840
I1
sVhttp://viid.me/qlTlcA
p1841
I1
sVhttp://viid.me/qlTlb1
p1842
I1
sVhttp://viid.me/qlTlcu
p1843
I1
sVhttp://viid.me/qlTuIN
p1844
I1
sVhttp://viid.me/qlTyam
p1845
I1
sVhttp://viid.me/qlTlx2
p1846
I2
sVhttp://viid.me/qlTyot
p1847
I1
sVhttp://viid.me/qlTl9o
p1848
I1
sVhttp://viid.me/qlTyu2
p1849
I1
sVhttp://viid.me/qlTlbv
p1850
I2
sVhttp://viid.me/qlTlxl
p1851
I2
sVhttp://viid.me/qlTyiA
p1852
I1
sVhttp://viid.me/qlTya9
p1853
I1
sVhttp://viid.me/qlTlxf
p1854
I1
sVhttp://viid.me/qlTcr9
p1855
I3
sVhttp://viid.me/qlTlQX
p1856
I1
sVhttp://viid.me/qlTyiH
p1857
I1
sVhttp://viid.me/qlTlbS
p1858
I1
ssg40
Velizabeth warren neil gorsuch east coast storm your thursday briefing
p1859
sg42
I66
sg43
I9
sg44
I2
sa(dp1860
g2
(dp1861
g4
I26
sg5
I1
ssg6
I27
sg7
g8
((lp1862
I772082749381365760
aI826756141967355904
aI753712169720680452
aI726209067224440832
aI821714710513020929
aI803282795321761800
aI2817495311
aI814214181909954560
aI824143548131971072
aI159377316
aI3170799786
aI755600219727736832
aI816244168037048320
aI2966270772
aI751889569205854209
aI1531070528
aI4528033475
aI213503825
aI4798355412
aI1047047510
aI811250735933337601
aI777891537170538496
aI2852872938
aI2815474796
aI2830042232
aI4634519292
aI718808726195478529
atp1863
Rp1864
sg12
I5
sg13
g14
(g15
tp1865
Rp1866
Vhttp://viid.me/qwZm44
p1867
I27
sVhttp://viid.me/qqZXJr
p1868
I27
ssg40
V\u27a1   \u2b05 rt realkrisxxx \u27a1   \u2b05 oh yeah baby fucked me
p1869
sg42
I67
sg43
I9
sg44
I2
sa(dp1870
g2
(dp1871
g4
I2
sg5
I25
ssg6
I27
sg7
g8
((lp1872
I827207230890049536
aI769236122375430144
aI825826173485740036
aI771538069723885573
aI801533437534474240
aI827177353344229377
aI766663994362986501
aI828082540615458816
aI827215096791363585
aI795596174589829120
aI826984595384053760
aI793527224225890305
aI828093209834291201
aI827183165831798784
aI827200680628719617
aI828089584785432577
aI813445430654697472
aI787799847915118592
aI786375441766461440
aI23691853
aI816044810574426112
aI727564171156570113
aI60668989
aI827910559760838657
aI795590737215836160
aI772789868858597376
aI818141195595640832
atp1873
Rp1874
sg12
I5
sg13
g14
(g15
tp1875
Rp1876
Vhttp://viid.me/qlTWnn
p1877
I1
sVhttp://viid.me/qlTWn0
p1878
I1
sVhttp://viid.me/qlTWb5
p1879
I1
sVhttp://viid.me/qlTWnR
p1880
I1
sVhttp://viid.me/qlTWn3
p1881
I1
sVhttp://viid.me/qlTWUl
p1882
I1
sVhttp://viid.me/qlTWbM
p1883
I1
sVhttp://viid.me/qlTWAa
p1884
I2
sVhttp://viid.me/qlTWPS
p1885
I2
sVhttp://viid.me/qlTo4D
p1886
I1
sVhttp://viid.me/qlTWxi
p1887
I2
sVhttp://viid.me/qlTWxd
p1888
I2
sVhttp://viid.me/qlTo4o
p1889
I1
sVhttp://viid.me/qlTo3T
p1890
I10
ssg40
Vdurbin demands senate hearings on trumps immigration orders
p1891
sg42
I68
sg43
I9
sg44
I2
sa(dp1892
g2
(dp1893
g4
I2
sg5
I25
ssg6
I27
sg7
g8
((lp1894
I829154356436021248
aI784825705099956224
aI819663263998869507
aI825204167287386112
aI817790422235967493
aI828082540615458816
aI827215096791363585
aI824806953645916164
aI827207230890049536
aI828761013143076865
aI822121521246310406
aI826984595384053760
aI1268438574
aI827910559760838657
aI828093209834291201
aI827183165831798784
aI827200680628719617
aI828089584785432577
aI820392090966327296
aI829128255038959616
aI812418303310213120
aI489991894
aI800039817652400128
aI827177353344229377
aI794229280326746112
aI791086606597951488
aI819623494505918465
atp1895
Rp1896
sg12
I5
sg13
g14
(g15
tp1897
Rp1898
Vhttp://viid.me/qlTov8
p1899
I1
sVhttp://viid.me/qlTYIG
p1900
I1
sVhttp://viid.me/qlTovz
p1901
I1
sVhttp://viid.me/qlTonT
p1902
I1
sVhttp://viid.me/qlTYFo
p1903
I2
sVhttp://viid.me/qlTovR
p1904
I1
sVhttp://viid.me/qlTYSJ
p1905
I1
sVhttp://viid.me/qlTobk
p1906
I3
sVhttp://viid.me/qlTYOD
p1907
I1
sVhttp://viid.me/qlTYDa
p1908
I1
sVhttp://viid.me/qlTYLE
p1909
I1
sVhttp://viid.me/qlTliF
p1910
I1
sVhttp://viid.me/qlToRm
p1911
I11
sVhttp://viid.me/qlTovB
p1912
I1
ssg40
Vmerkel seeks to ramp up failed asylum seeker deportations
p1913
sg42
I69
sg43
I9
sg44
I2
sa(dp1914
g2
(dp1915
g4
I25
sg5
I2
ssg6
I27
sg7
g8
((lp1916
I801700916344852480
aI809798290858508288
aI816473343595450368
aI817576143285092353
aI1141482516
aI2852960664
aI1271389212
aI795115440594747392
aI824271584013778945
aI3166120358
aI777972916168171520
aI807213915432042496
aI3606420913
aI3306791229
aI4528033475
aI2901809222
aI603517771
aI487232082
aI3174992215
aI808036505700728832
aI3342895973
aI801484395840348160
aI825974001100992512
aI786165728147808256
aI796543560308969472
aI790252010314489856
aI3437175292
atp1917
Rp1918
sg12
I5
sg13
g14
(g15
tp1919
Rp1920
Vhttp://viid.me/qqZXJr
p1921
I27
ssg40
V\u27a1   \u2b05 goddamn fucking hot
p1922
sg42
I70
sg43
I9
sg44
I2
sa(dp1923
g2
(dp1924
g4
I0
sg5
I26
ssg6
I26
sg7
g8
((lp1925
I756668572370436096
aI792443841789960193
aI825086314076831747
aI798521044646690820
aI794573977159143424
aI764560298086981633
aI772922637953667072
aI794581473009528833
aI822121521246310406
aI75388838
aI790611590320103424
aI792529889991725057
aI784529318500245505
aI795786553985499136
aI764857474365132800
aI764662496179421185
aI800039817652400128
aI819920470589968384
aI240443742
aI796025831919386624
aI801533437534474240
aI197257709
aI826216161733910528
aI815709962315898880
aI766307608743600128
atp1926
Rp1927
sg12
I5
sg13
g14
(g15
tp1928
Rp1929
Vhttp://viid.me/qlTyrt
p1930
I1
sVhttp://viid.me/qlTyur
p1931
I1
sVhttp://viid.me/qlTucp
p1932
I1
sVhttp://viid.me/qlTld8
p1933
I2
sVhttp://viid.me/qlTyt1
p1934
I1
sVhttp://viid.me/qlTlhE
p1935
I1
sVhttp://viid.me/qlTlp4
p1936
I1
sVhttp://viid.me/qlR6PG
p1937
I2
sVhttp://viid.me/qlTljs
p1938
I1
sVhttp://viid.me/qlTlhr
p1939
I1
sVhttp://viid.me/qlTyyG
p1940
I1
sVhttp://viid.me/qlTlhl
p1941
I1
sVhttp://viid.me/qlTlk3
p1942
I1
sVhttp://viid.me/qlTyej
p1943
I1
sVhttp://viid.me/qlTlfv
p1944
I2
sVhttp://viid.me/qlTyw7
p1945
I1
sVhttp://viid.me/qlTx7p
p1946
I2
sVhttp://viid.me/qlTyq9
p1947
I1
sVhttp://viid.me/qlTlli
p1948
I1
sVhttp://viid.me/qlTyeY
p1949
I1
sVhttp://viid.me/qlTytW
p1950
I1
sVhttp://viid.me/qlTl3h
p1951
I1
ssg40
Vfeature 600 miles in a coffinshaped bus campaigning against death itself
p1952
sg42
I71
sg43
I9
sg44
I2
sa(dp1953
g2
(dp1954
g4
I0
sg5
I26
ssg6
I26
sg7
g8
((lp1955
I784825705099956224
aI829154356436021248
aI819663263998869507
aI826984595384053760
aI817790422235967493
aI829128255038959616
aI827910559760838657
aI824806953645916164
aI827207230890049536
aI828761013143076865
aI822121521246310406
aI825204167287386112
aI828093209834291201
aI3012586039
aI827200680628719617
aI828089584785432577
aI820392090966327296
aI828082540615458816
aI489991894
aI800039817652400128
aI827177353344229377
aI794229280326746112
aI791086606597951488
aI819623494505918465
aI827215096791363585
aI827183165831798784
atp1956
Rp1957
sg12
I5
sg13
g14
(g15
tp1958
Rp1959
Vhttp://viid.me/qlYYSz
p1960
I1
sVhttp://viid.me/qlYZ1r
p1961
I2
sVhttp://viid.me/qlYYS8
p1962
I1
sVhttp://viid.me/qlYYA5
p1963
I1
sVhttp://viid.me/qlYBDN
p1964
I1
sVhttp://viid.me/qlYYSR
p1965
I1
sVhttp://viid.me/qlYZNi
p1966
I1
sVhttp://viid.me/qlYYSt
p1967
I2
sVhttp://viid.me/qlYG9J
p1968
I1
sVhttp://viid.me/qlYZN6
p1969
I2
sVhttp://viid.me/qlYYSL
p1970
I1
sVhttp://viid.me/qlYO5F
p1971
I10
sVhttp://viid.me/qlYLr9
p1972
I1
sVhttp://viid.me/qlYZ2M
p1973
I1
ssg40
Vaustralian man stuck in a dam for hours recounts ordeal
p1974
sg42
I72
sg43
I9
sg44
I2
sa(dp1975
g2
(dp1976
g4
I1
sg5
I25
ssg6
I26
sg7
g8
((lp1977
I779841027926528000
aI779789207447408641
aI819663263998869507
aI791086606597951488
aI815924866637500417
aI787662472530493440
aI784825705099956224
aI815923752919777281
aI795596174589829120
aI789266125485998080
aI821375422583685120
aI754743870462783488
aI779461418861101056
aI786915319008854016
aI764662496179421185
aI815927754482970624
aI796025831919386624
aI727564171156570113
aI789113916102180864
aI815928899058147328
aI828957353928249344
aI827241553596973057
aI815925915100258304
aI791823307922374656
aI778051538132594688
atp1978
Rp1979
sg12
I5
sg13
g14
(g15
tp1980
Rp1981
Vhttp://viid.me/qlE4NH
p1982
I1
sVhttp://viid.me/qlE9Wi
p1983
I1
sVhttp://viid.me/qlE9Je
p1984
I1
sVhttp://viid.me/qlE9mQ
p1985
I5
sVhttp://viid.me/qlE6lJ
p1986
I1
sVhttp://viid.me/qlE6v0
p1987
I1
sVhttp://viid.me/qlE9Em
p1988
I1
sVhttp://viid.me/qlE9H3
p1989
I1
sVhttp://viid.me/qlE6vp
p1990
I1
sVhttp://viid.me/qlE9H8
p1991
I1
sVhttp://viid.me/qlE6cX
p1992
I5
sVhttp://viid.me/qlE9HB
p1993
I1
sVhttp://viid.me/qlE6vz
p1994
I1
sVhttp://viid.me/qlE4BV
p1995
I3
sVhttp://viid.me/qlE4B7
p1996
I1
sVhttp://viid.me/qlE6v8
p1997
I1
ssg40
Vking letter and statement criticize sessions prosecution
p1998
sg42
I73
sg43
I9
sg44
I2
sa(dp1999
g2
(dp2000
g4
I26
sg5
I0
ssg6
I26
sg7
g8
((lp2001
I707753739835211776
aI799983662263627777
aI760098153307701250
aI770087627550756869
aI801665544931934208
aI750676833075625985
aI4895611785
aI37272075
aI2945681430
aI2892835481
aI550487203
aI4452612260
aI712634960281223168
aI2564812464
aI1679672113
aI25065023
aI481304417
aI1020304968
aI81192266
aI4896383055
aI4847689937
aI1400943320
aI4393282401
aI77187046
aI763843440887013376
aI228736760
atp2002
Rp2003
sg12
I5
sg13
g14
(g15
tp2004
Rp2005
Vhttp://viid.me/qln86E
p2006
I25
sVhttp://viid.me/qln86K
p2007
I1
ssg40
Vbreaking new poll  trump is seen as more trusted and truthful than liberal news media
p2008
sg42
I74
sg43
I9
sg44
I2
sa(dp2009
g2
(dp2010
g4
I0
sg5
I26
ssg6
I26
sg7
g8
((lp2011
I708470362426593280
aI756668572370436096
aI825086314076831747
aI798521044646690820
aI764857474365132800
aI792443841789960193
aI801533437534474240
aI772922637953667072
aI764560298086981633
aI822121521246310406
aI75388838
aI790611590320103424
aI792529889991725057
aI784529318500245505
aI795786553985499136
aI764662496179421185
aI800039817652400128
aI819920470589968384
aI240443742
aI796025831919386624
aI794573977159143424
aI197257709
aI826216161733910528
aI815709962315898880
aI794581473009528833
aI766307608743600128
atp2012
Rp2013
sg12
I5
sg13
g14
(g15
tp2014
Rp2015
Vhttp://viid.me/qlTt6T
p2016
I1
sVhttp://viid.me/qlTt6G
p2017
I1
sVhttp://viid.me/qlTxTG
p2018
I2
sVhttp://viid.me/qlTy0v
p2019
I1
sVhttp://viid.me/qlTlyo
p2020
I1
sVhttp://viid.me/qlTlZI
p2021
I1
sVhttp://viid.me/qlTleL
p2022
I1
sVhttp://viid.me/qlTt72
p2023
I1
sVhttp://viid.me/qlTlyb
p2024
I1
sVhttp://viid.me/qlTlo1
p2025
I1
sVhttp://viid.me/qlTyXl
p2026
I1
sVhttp://viid.me/qlTt8u
p2027
I1
sVhttp://viid.me/qlTt5W
p2028
I1
sVhttp://viid.me/qlTluc
p2029
I1
sVhttp://viid.me/qlTle0
p2030
I2
sVhttp://viid.me/qlTt7D
p2031
I1
sVhttp://viid.me/qlTltq
p2032
I1
sVhttp://viid.me/qlTlqo
p2033
I1
sVhttp://viid.me/qlRGZb
p2034
I1
sVhttp://viid.me/qlTt8H
p2035
I1
sVhttp://viid.me/qlTlre
p2036
I2
sVhttp://viid.me/qlTt7o
p2037
I1
sVhttp://viid.me/qlTlph
p2038
I1
ssg40
Vbest of late night elizabeth warren slams gop on \u2018daily show\u2019 and colbert pounces too
p2039
sg42
I75
sg43
I9
sg44
I2
sa(dp2040
g2
(dp2041
g4
I2
sg5
I24
ssg6
I26
sg7
g8
((lp2042
I827183165831798784
aI828093209834291201
aI825826173485740036
aI766663994362986501
aI801533437534474240
aI827910559760838657
aI827207230890049536
aI828089584785432577
aI795596174589829120
aI826984595384053760
aI793527224225890305
aI828082540615458816
aI827200680628719617
aI813445430654697472
aI787799847915118592
aI710812512732614656
aI786375441766461440
aI816044810574426112
aI827177353344229377
aI727564171156570113
aI460629863
aI769236122375430144
aI827215096791363585
aI795590737215836160
aI772789868858597376
aI818141195595640832
atp2043
Rp2044
sg12
I5
sg13
g14
(g15
tp2045
Rp2046
Vhttp://viid.me/qlURJR
p2047
I1
sVhttp://viid.me/qlURC8
p2048
I1
sVhttp://viid.me/qlURG7
p2049
I2
sVhttp://viid.me/qlURB9
p2050
I1
sVhttp://viid.me/qlURBx
p2051
I1
sVhttp://viid.me/qlURBZ
p2052
I1
sVhttp://viid.me/qlURVk
p2053
I1
sVhttp://viid.me/qlURB4
p2054
I2
sVhttp://viid.me/qlURV6
p2055
I1
sVhttp://viid.me/qlURVW
p2056
I1
sVhttp://viid.me/qlURCL
p2057
I1
sVhttp://viid.me/qlURBa
p2058
I1
sVhttp://viid.me/qlURBG
p2059
I1
sVhttp://viid.me/qlURT2
p2060
I11
ssg40
Vkellyanne conway go buy ivankas stuff
p2061
sg42
I76
sg43
I9
sg44
I2
sa(dp2062
g2
(dp2063
g4
I5
sg5
I21
ssg6
I26
sg7
g8
((lp2064
I785354015043452928
aI772922637953667072
aI787828400744501250
aI794229280326746112
aI764662496179421185
aI823343596917112833
aI824089961905397760
aI786293784359219200
aI809168093708697600
aI799714584307171329
aI779789207447408641
aI222505018
aI782286927793909760
aI779461418861101056
aI818117343100420097
aI737756573196529664
aI785195157712990208
aI796025831919386624
aI757117204198490112
aI3300931691
aI800039817652400128
aI4093089513
aI3003471994
atp2065
Rp2066
sg12
I5
sg13
g14
(g15
tp2067
Rp2068
Vhttp://viid.me/qlRRyk
p2069
I2
sVhttp://viid.me/qlYt4A
p2070
I1
sVhttp://viid.me/qlRRja
p2071
I1
sVhttp://viid.me/qlRRkI
p2072
I1
sVhttp://viid.me/qlRRhS
p2073
I2
sVhttp://viid.me/qlRRyd
p2074
I1
sVhttp://viid.me/qlRRye
p2075
I1
sVhttp://viid.me/qlRRum
p2076
I1
sVhttp://viid.me/qlRRko
p2077
I1
sVhttp://viid.me/qlRRjx
p2078
I6
sVhttp://viid.me/qlRRtF
p2079
I4
sVhttp://viid.me/qlRRyW
p2080
I4
sVhttp://viid.me/qlRRtB
p2081
I1
ssg40
Vpoisoned putin critic out of coma wife says
p2082
sg42
I77
sg43
I9
sg44
I2
sa(dp2083
g2
(dp2084
g4
I1
sg5
I25
ssg6
I26
sg7
g8
((lp2085
I827207230890049536
aI827910559760838657
aI825826173485740036
aI771538069723885573
aI795596174589829120
aI828093209834291201
aI766663994362986501
aI827215096791363585
aI769236122375430144
aI826984595384053760
aI793527224225890305
aI828082540615458816
aI827200680628719617
aI828089584785432577
aI813445430654697472
aI787799847915118592
aI786375441766461440
aI816044810574426112
aI827177353344229377
aI801533437534474240
aI727564171156570113
aI60668989
aI795590737215836160
aI772789868858597376
aI827183165831798784
aI818141195595640832
atp2086
Rp2087
sg12
I5
sg13
g14
(g15
tp2088
Rp2089
Vhttp://viid.me/qlTWA4
p2090
I1
sVhttp://viid.me/qlTplo
p2091
I1
sVhttp://viid.me/qlTWFg
p2092
I1
sVhttp://viid.me/qlTppu
p2093
I1
sVhttp://viid.me/qlTWvr
p2094
I2
sVhttp://viid.me/qlTpyL
p2095
I10
sVhttp://viid.me/qlTWQ4
p2096
I1
sVhttp://viid.me/qlTWQq
p2097
I1
sVhttp://viid.me/qlTWQP
p2098
I1
sVhttp://viid.me/qlTWWo
p2099
I1
sVhttp://viid.me/qlTWFt
p2100
I2
sVhttp://viid.me/qlTWQy
p2101
I1
sVhttp://viid.me/qlTWQx
p2102
I1
sVhttp://viid.me/qlTWvo
p2103
I2
ssg40
Vgop senator to offer bills on womens economic issues
p2104
sg42
I78
sg43
I9
sg44
I2
sa(dp2105
g2
(dp2106
g4
I1
sg5
I25
ssg6
I26
sg7
g8
((lp2107
I827207230890049536
aI827177353344229377
aI819663263998869507
aI829154356436021248
aI817790422235967493
aI829128255038959616
aI828093209834291201
aI509384598
aI824806953645916164
aI791086606597951488
aI784825705099956224
aI827200680628719617
aI822121521246310406
aI826984595384053760
aI828761013143076865
aI828082540615458816
aI825204167287386112
aI828089584785432577
aI820392090966327296
aI827183165831798784
aI827215096791363585
aI489991894
aI800039817652400128
aI794229280326746112
aI827910559760838657
aI819623494505918465
atp2108
Rp2109
sg12
I5
sg13
g14
(g15
tp2110
Rp2111
Vhttp://viid.me/qlYYPf
p2112
I2
sVhttp://viid.me/qlYZCf
p2113
I2
sVhttp://viid.me/qlYZXP
p2114
I1
sVhttp://viid.me/qlYYPb
p2115
I1
sVhttp://viid.me/qlYYPK
p2116
I1
sVhttp://viid.me/qlYG6V
p2117
I1
sVhttp://viid.me/qlYZVu
p2118
I2
sVhttp://viid.me/qlYYP7
p2119
I1
sVhttp://viid.me/qlYT5y
p2120
I11
sVhttp://viid.me/qlYYPr
p2121
I1
sVhttp://viid.me/qlYZNW
p2122
I1
sVhttp://viid.me/qlYBAB
p2123
I1
sVhttp://viid.me/qlYYAu
p2124
I1
ssg40
Vhero or villain
p2125
sg42
I79
sg43
I9
sg44
I2
sa(dp2126
g2
(dp2127
g4
I24
sg5
I2
ssg6
I26
sg7
g8
((lp2128
I801700916344852480
aI775510102518460416
aI810062299247640581
aI780602443184779264
aI756555906415026177
aI809798290858508288
aI1141482516
aI1271389212
aI193075741
aI795115440594747392
aI159377316
aI3166120358
aI786165728147808256
aI829330243932401664
aI798386372717477888
aI479533380
aI2901809222
aI603517771
aI487232082
aI3174992215
aI826412002667069440
aI3083026273
aI743130848988303360
aI801484395840348160
aI825974001100992512
aI3246667901
atp2129
Rp2130
sg12
I5
sg13
g14
(g15
tp2131
Rp2132
Vhttp://viid.me/qqZXJr
p2133
I26
ssg40
V\u27a1   \u2b05 my brothers hot friend
p2134
sg42
I80
sg43
I9
sg44
I2
sa(dp2135
g2
(dp2136
g4
I0
sg5
I26
ssg6
I26
sg7
g8
((lp2137
I827207230890049536
aI828093209834291201
aI819663263998869507
aI826984595384053760
aI817790422235967493
aI828082540615458816
aI819623494505918465
aI824806953645916164
aI791086606597951488
aI784825705099956224
aI828089584785432577
aI822121521246310406
aI829154356436021248
aI828761013143076865
aI3012586039
aI827200680628719617
aI825204167287386112
aI820392090966327296
aI827183165831798784
aI829128255038959616
aI489991894
aI800039817652400128
aI827177353344229377
aI794229280326746112
aI827910559760838657
aI827215096791363585
atp2138
Rp2139
sg12
I5
sg13
g14
(g15
tp2140
Rp2141
Vhttp://viid.me/qlYZ2u
p2142
I1
sVhttp://viid.me/qlY22z
p2143
I1
sVhttp://viid.me/qlY228
p2144
I2
sVhttp://viid.me/qlUrz3
p2145
I1
sVhttp://viid.me/qlY22p
p2146
I1
sVhttp://viid.me/qlYBJv
p2147
I1
sVhttp://viid.me/qlYLaX
p2148
I1
sVhttp://viid.me/qlYZ2c
p2149
I2
sVhttp://viid.me/qlY23k
p2150
I1
sVhttp://viid.me/qlYZ3B
p2151
I2
sVhttp://viid.me/qlYZ6b
p2152
I1
sVhttp://viid.me/qlYZXm
p2153
I10
sVhttp://viid.me/qlY22B
p2154
I1
sVhttp://viid.me/qlY23C
p2155
I1
ssg40
Vsix nations 2017 george north and dan biggar in wales team v england
p2156
sg42
I81
sg43
I9
sg44
I2
sa(dp2157
g2
(dp2158
g4
I0
sg5
I26
ssg6
I26
sg7
g8
((lp2159
I820392090966327296
aI794229280326746112
aI819663263998869507
aI824806953645916164
aI817790422235967493
aI827183165831798784
aI819623494505918465
aI827207230890049536
aI784825705099956224
aI827910559760838657
aI822121521246310406
aI829154356436021248
aI828093209834291201
aI828761013143076865
aI828082540615458816
aI827200680628719617
aI825204167287386112
aI828089584785432577
aI826984595384053760
aI829128255038959616
aI3012586039
aI489991894
aI800039817652400128
aI827177353344229377
aI791086606597951488
aI827215096791363585
atp2160
Rp2161
sg12
I5
sg13
g14
(g15
tp2162
Rp2163
Vhttp://viid.me/qlUomC
p2164
I1
sVhttp://viid.me/qlUdLE
p2165
I1
sVhttp://viid.me/qlUdCk
p2166
I1
sVhttp://viid.me/qlUonF
p2167
I1
sVhttp://viid.me/qlUomi
p2168
I1
sVhttp://viid.me/qlURX5
p2169
I1
sVhttp://viid.me/qlUd4w
p2170
I1
sVhttp://viid.me/qlUojT
p2171
I2
sVhttp://viid.me/qlUdCS
p2172
I2
sVhttp://viid.me/qlUfBF
p2173
I1
sVhttp://viid.me/qlUcUQ
p2174
I1
sVhttp://viid.me/qlUfVX
p2175
I1
sVhttp://viid.me/qlUonR
p2176
I2
sVhttp://viid.me/qlUoAx
p2177
I10
ssg40
Vfences
p2178
sg42
I82
sg43
I9
sg44
I2
sa(dp2179
g2
(dp2180
g4
I0
sg5
I25
ssg6
I25
sg7
g8
((lp2181
I756668572370436096
aI794581473009528833
aI825086314076831747
aI798521044646690820
aI794573977159143424
aI792443841789960193
aI764560298086981633
aI772922637953667072
aI784529318500245505
aI822121521246310406
aI75388838
aI826216161733910528
aI815709962315898880
aI792529889991725057
aI795786553985499136
aI764857474365132800
aI764662496179421185
aI800039817652400128
aI819920470589968384
aI240443742
aI796025831919386624
aI801533437534474240
aI197257709
aI790611590320103424
aI766307608743600128
atp2182
Rp2183
sg12
I5
sg13
g14
(g15
tp2184
Rp2185
Vhttp://viid.me/qlTKQM
p2186
I1
sVhttp://viid.me/qlTIsY
p2187
I1
sVhttp://viid.me/qlTKWn
p2188
I2
sVhttp://viid.me/qlTKQY
p2189
I2
sVhttp://viid.me/qlTIen
p2190
I1
sVhttp://viid.me/qlTIsH
p2191
I1
sVhttp://viid.me/qlTKmV
p2192
I1
sVhttp://viid.me/qlTIeg
p2193
I1
sVhttp://viid.me/qlTIaK
p2194
I1
sVhttp://viid.me/qlTKQc
p2195
I1
sVhttp://viid.me/qlTIgP
p2196
I1
sVhttp://viid.me/qlTKWp
p2197
I1
sVhttp://viid.me/qlTKWt
p2198
I1
sVhttp://viid.me/qlTKWz
p2199
I1
sVhttp://viid.me/qlTBWm
p2200
I2
sVhttp://viid.me/qlTKRq
p2201
I1
sVhttp://viid.me/qlTKEe
p2202
I1
sVhttp://viid.me/qlTIdp
p2203
I1
sVhttp://viid.me/qlTIsu
p2204
I1
sVhttp://viid.me/qlTIfW
p2205
I1
sVhttp://viid.me/qlTKW0
p2206
I1
sVhttp://viid.me/qlTIfC
p2207
I1
ssg40
Vtake a spin through the disco era
p2208
sg42
I83
sg43
I9
sg44
I2
sa(dp2209
g2
(dp2210
g4
I0
sg5
I25
ssg6
I25
sg7
g8
((lp2211
I826984595384053760
aI827183165831798784
aI819663263998869507
aI829154356436021248
aI817790422235967493
aI828082540615458816
aI827177353344229377
aI824806953645916164
aI791086606597951488
aI827207230890049536
aI784825705099956224
aI819623494505918465
aI822121521246310406
aI829128255038959616
aI828093209834291201
aI828761013143076865
aI827200680628719617
aI825204167287386112
aI828089584785432577
aI820392090966327296
aI489991894
aI800039817652400128
aI794229280326746112
aI827215096791363585
aI827910559760838657
atp2212
Rp2213
sg12
I5
sg13
g14
(g15
tp2214
Rp2215
Vhttp://viid.me/qlYYUB
p2216
I1
sVhttp://viid.me/qlYvSZ
p2217
I2
sVhttp://viid.me/qlYYU8
p2218
I2
sVhttp://viid.me/qlYYI6
p2219
I1
sVhttp://viid.me/qlYvDE
p2220
I1
sVhttp://viid.me/qlYvFM
p2221
I1
sVhttp://viid.me/qlYodc
p2222
I10
sVhttp://viid.me/qlYYUL
p2223
I1
sVhttp://viid.me/qlYvSa
p2224
I1
sVhttp://viid.me/qlYYUO
p2225
I1
sVhttp://viid.me/qlYvDr
p2226
I1
sVhttp://viid.me/qlYgRo
p2227
I1
sVhttp://viid.me/qlYYUg
p2228
I1
sVhttp://viid.me/qlYvFX
p2229
I1
ssg40
Vsyria war turkish forces push into isheld albab
p2230
sg42
I84
sg43
I9
sg44
I2
sa(dp2231
g2
(dp2232
g4
I2
sg5
I23
ssg6
I25
sg7
g8
((lp2233
I802061220186587136
aI828838674884222976
aI797852908553375746
aI806600011756818437
aI772922637953667072
aI823343596917112833
aI796025831919386624
aI787828400744501250
aI799714584307171329
aI824089961905397760
aI786293784359219200
aI809168093708697600
aI779789207447408641
aI222505018
aI782286927793909760
aI864927037
aI779461418861101056
aI764662496179421185
aI1383470294
aI785195157712990208
aI794229280326746112
aI800039817652400128
aI3003471994
aI785354015043452928
atp2234
Rp2235
sg12
I5
sg13
g14
(g15
tp2236
Rp2237
Vhttp://viid.me/qlTUkD
p2238
I1
sVhttp://viid.me/qlTSkD
p2239
I2
sVhttp://ift.tt/eA8V8J
p2240
I1
sVhttp://viid.me/qlTSzF
p2241
I1
sVhttp://viid.me/qlTSjq
p2242
I1
sVhttp://viid.me/qlTSja
p2243
I1
sVhttp://viid.me/qlTSkf
p2244
I1
sVhttp://viid.me/qlTSjN
p2245
I1
sVhttp://viid.me/qq9cqd
p2246
I1
sVhttp://viid.me/qlTSjP
p2247
I1
sVhttp://viid.me/qlTShk
p2248
I4
sVhttp://viid.me/qlTSjT
p2249
I4
sVhttp://viid.me/qlTxE8
p2250
I1
sVhttp://viid.me/qlTxnk
p2251
I1
sVhttp://viid.me/qlTSjy
p2252
I3
sVhttp://viid.me/qlTSjx
p2253
I1
sVhttp://viid.me/qlTSjZ
p2254
I1
ssg40
Vturkey detains 4 is suspects planning sensational attack
p2255
sg42
I85
sg43
I9
sg44
I2
sa(dp2256
g2
(dp2257
g4
I0
sg5
I25
ssg6
I25
sg7
g8
((lp2258
I756668572370436096
aI794581473009528833
aI825086314076831747
aI798521044646690820
aI794573977159143424
aI764560298086981633
aI772922637953667072
aI784529318500245505
aI822121521246310406
aI75388838
aI826216161733910528
aI815709962315898880
aI792529889991725057
aI792443841789960193
aI795786553985499136
aI764857474365132800
aI764662496179421185
aI800039817652400128
aI819920470589968384
aI240443742
aI796025831919386624
aI801533437534474240
aI197257709
aI790611590320103424
aI766307608743600128
atp2259
Rp2260
sg12
I5
sg13
g14
(g15
tp2261
Rp2262
Vhttp://viid.me/qlYNRB
p2263
I1
sVhttp://viid.me/qlYMcA
p2264
I1
sVhttp://viid.me/qlYMcM
p2265
I1
sVhttp://viid.me/qlYMxK
p2266
I1
sVhttp://viid.me/qlY8IT
p2267
I1
sVhttp://viid.me/qlY8U6
p2268
I1
sVhttp://viid.me/qlYMxD
p2269
I1
sVhttp://viid.me/qlYLd6
p2270
I1
sVhttp://viid.me/qlYMcs
p2271
I1
sVhttp://viid.me/qlY8Pw
p2272
I1
sVhttp://viid.me/qlYMvB
p2273
I1
sVhttp://viid.me/qlY6mn
p2274
I1
sVhttp://viid.me/qlY8Ia
p2275
I1
sVhttp://viid.me/qlYLdC
p2276
I1
sVhttp://viid.me/qlY8Ue
p2277
I1
sVhttp://viid.me/qlY8Uk
p2278
I2
sVhttp://viid.me/qlYMx7
p2279
I1
sVhttp://viid.me/qlY8Ix
p2280
I2
sVhttp://viid.me/qlYMbe
p2281
I1
sVhttp://viid.me/qlY8IG
p2282
I1
sVhttp://viid.me/qlY8UW
p2283
I1
sVhttp://viid.me/qlYNWl
p2284
I1
sVhttp://viid.me/qlY8UC
p2285
I1
ssg40
Vthe grammys fumble hiphop and rampb here\u2019s how to fix it
p2286
sg42
I86
sg43
I9
sg44
I2
sa(dp2287
g2
(dp2288
g4
I0
sg5
I25
ssg6
I25
sg7
g8
((lp2289
I828082540615458816
aI827215096791363585
aI825826173485740036
aI771538069723885573
aI801533437534474240
aI828089584785432577
aI766663994362986501
aI827910559760838657
aI769236122375430144
aI826984595384053760
aI828093209834291201
aI793527224225890305
aI827183165831798784
aI827200680628719617
aI813445430654697472
aI787799847915118592
aI827207230890049536
aI786375441766461440
aI816044810574426112
aI827177353344229377
aI727564171156570113
aI795596174589829120
aI795590737215836160
aI772789868858597376
aI818141195595640832
atp2290
Rp2291
sg12
I5
sg13
g14
(g15
tp2292
Rp2293
Vhttps://twitter.com/i/web/status/829665768379854848
p2294
I1
sVhttps://twitter.com/i/web/status/829665779163410432
p2295
I1
sVhttps://twitter.com/i/web/status/829665783923908608
p2296
I1
sVhttps://twitter.com/i/web/status/829665785744232450
p2297
I1
sVhttps://twitter.com/i/web/status/829665773358440451
p2298
I1
sVhttps://twitter.com/i/web/status/829672429718904832
p2299
I1
sVhttps://twitter.com/i/web/status/829672454565924864
p2300
I1
sVhttps://twitter.com/i/web/status/829665802685128704
p2301
I1
sVhttps://twitter.com/i/web/status/829672500837572608
p2302
I1
sVhttps://twitter.com/i/web/status/829665780157476866
p2303
I1
sVhttps://twitter.com/i/web/status/829672445111984129
p2304
I1
sVhttps://twitter.com/i/web/status/829672436421398529
p2305
I1
sVhttps://twitter.com/i/web/status/829672434047426560
p2306
I1
sVhttps://twitter.com/i/web/status/829672467983589380
p2307
I1
sVhttps://twitter.com/i/web/status/829665789770756096
p2308
I1
sVhttps://twitter.com/i/web/status/829665779838652419
p2309
I1
sVhttps://twitter.com/i/web/status/829673715457683457
p2310
I1
sVhttps://twitter.com/i/web/status/829672440129212420
p2311
I1
sVhttps://twitter.com/i/web/status/829665788327923713
p2312
I1
sVhttps://twitter.com/i/web/status/829673708608294912
p2313
I1
sVhttps://twitter.com/i/web/status/829672434278162437
p2314
I1
sVhttps://twitter.com/i/web/status/829672410102128640
p2315
I1
sVhttps://twitter.com/i/web/status/829672433552482304
p2316
I1
sVhttps://twitter.com/i/web/status/829665784980844544
p2317
I1
sVhttps://twitter.com/i/web/status/829667884196454401
p2318
I1
ssg40
Vnewsflash why dc will continue to face gridlock  who tulsi met with in syria  reince struggles to fill comms\u2026\u2026
p2319
sg42
I87
sg43
I9
sg44
I2
sa(dp2320
g2
(dp2321
g4
I0
sg5
I25
ssg6
I25
sg7
g8
((lp2322
I756668572370436096
aI794581473009528833
aI825086314076831747
aI798521044646690820
aI764857474365132800
aI784529318500245505
aI801533437534474240
aI772922637953667072
aI764560298086981633
aI822121521246310406
aI75388838
aI790611590320103424
aI792529889991725057
aI792443841789960193
aI795786553985499136
aI764662496179421185
aI800039817652400128
aI819920470589968384
aI240443742
aI796025831919386624
aI794573977159143424
aI197257709
aI826216161733910528
aI815709962315898880
aI766307608743600128
atp2323
Rp2324
sg12
I5
sg13
g14
(g15
tp2325
Rp2326
Vhttp://viid.me/qlTxaP
p2327
I2
sVhttp://viid.me/qlTkBL
p2328
I2
sVhttp://viid.me/qlTkBO
p2329
I1
sVhttp://viid.me/qlTkNe
p2330
I2
sVhttp://viid.me/qlTkNU
p2331
I1
sVhttp://viid.me/qlTtX6
p2332
I1
sVhttp://viid.me/qlTtX1
p2333
I1
sVhttp://viid.me/qlTk1b
p2334
I1
sVhttp://viid.me/qlTkM9
p2335
I1
sVhttp://viid.me/qlTkVQ
p2336
I1
sVhttp://viid.me/qlTkMN
p2337
I1
sVhttp://viid.me/qlTyQK
p2338
I1
sVhttp://viid.me/qlTlbi
p2339
I1
sVhttp://viid.me/qlTtVr
p2340
I1
sVhttp://viid.me/qlTk2j
p2341
I1
sVhttp://viid.me/qlTtK7
p2342
I1
sVhttp://viid.me/qlTtLw
p2343
I1
sVhttp://viid.me/qlTtCa
p2344
I1
sVhttp://viid.me/qlTtCm
p2345
I1
sVhttp://viid.me/qlTtCh
p2346
I1
sVhttp://viid.me/qlTkB3
p2347
I1
sVhttp://viid.me/qlTtXk
p2348
I1
ssg40
Vpersonal health getting specific about dizziness
p2349
sg42
I88
sg43
I9
sg44
I2
sa(dp2350
g2
(dp2351
g4
I24
sg5
I1
ssg6
I25
sg7
g8
((lp2352
I828026402377256960
aI813655933876174848
aI829134586823127043
aI811111660731572224
aI742983267008303105
aI819090064105816064
aI791844333460652032
aI792874717111652352
aI828965251504758785
aI3643455013
aI2826470447
aI817433768415744000
aI786206226417717249
aI1517261215
aI761583168721858560
aI4046029635
aI809060201584177152
aI828193477007536129
aI103665618
aI739045395356061696
aI820630845975363584
aI775097486260244480
aI3315314404
aI709311533558341632
aI295383787
atp2353
Rp2354
sg12
I5
sg13
g14
(g15
tp2355
Rp2356
Vhttp://v.gd/RMmzq3
p2357
I25
sVhttp://viid.me/qkawhJ
p2358
I25
ssg40
V\u27a1     \u2b05 \u25b6\ufe0f\u25b6\ufe0f cock suckers   \u2666\ufe0f \u2666\ufe0f   gaycams
p2359
sg42
I89
sg43
I9
sg44
I2
sa(dp2360
g2
(dp2361
g4
I1
sg5
I24
ssg6
I25
sg7
g8
((lp2362
I786293784359219200
aI779789207447408641
aI787828400744501250
aI772922637953667072
aI823343596917112833
aI794229280326746112
aI787662472530493440
aI779841027926528000
aI799714584307171329
aI824089961905397760
aI809168093708697600
aI222505018
aI782286927793909760
aI791823307922374656
aI736284043583590400
aI764662496179421185
aI800039817652400128
aI796025831919386624
aI779461418861101056
aI785195157712990208
aI3003471994
aI785354015043452928
atp2363
Rp2364
sg12
I5
sg13
g14
(g15
tp2365
Rp2366
Vhttp://viid.me/qlEouk
p2367
I1
sVhttp://viid.me/qlEiGl
p2368
I1
sVhttp://viid.me/qlEc38
p2369
I3
sVhttp://viid.me/qlEoqL
p2370
I1
sVhttp://viid.me/qlEiFZ
p2371
I3
sVhttp://viid.me/qlEool
p2372
I2
sVhttp://viid.me/qlEoq0
p2373
I1
sVhttp://viid.me/qlEiGr
p2374
I4
sVhttp://viid.me/qlEbLM
p2375
I1
sVhttp://viid.me/qlEoGz
p2376
I1
sVhttp://viid.me/qlEc5Z
p2377
I2
sVhttp://viid.me/qlEo3Q
p2378
I1
sVhttp://viid.me/qlEoof
p2379
I1
sVhttp://viid.me/qlEoDf
p2380
I3
ssg40
Vformer knick oakley ejected arrested after msg altercation
p2381
sg42
I90
sg43
I9
sg44
I2
sa(dp2382
g2
(dp2383
g4
I1
sg5
I24
ssg6
I25
sg7
g8
((lp2384
I826984595384053760
aI827177353344229377
aI825826173485740036
aI766663994362986501
aI769236122375430144
aI827910559760838657
aI827207230890049536
aI828082540615458816
aI827200680628719617
aI795596174589829120
aI4844017714
aI793527224225890305
aI828093209834291201
aI787799847915118592
aI828089584785432577
aI813445430654697472
aI772789868858597376
aI786375441766461440
aI816044810574426112
aI801533437534474240
aI727564171156570113
aI827215096791363585
aI795590737215836160
aI827183165831798784
aI818141195595640832
atp2385
Rp2386
sg12
I5
sg13
g14
(g15
tp2387
Rp2388
Vhttp://viid.me/qlURXj
p2389
I1
sVhttp://viid.me/qlURCR
p2390
I1
sVhttp://viid.me/qlUROh
p2391
I2
sVhttp://viid.me/qlUn0T
p2392
I11
sVhttp://viid.me/qlURZI
p2393
I1
sVhttp://viid.me/qlURH5
p2394
I1
sVhttp://viid.me/qlURCt
p2395
I1
sVhttp://viid.me/qlURXX
p2396
I1
sVhttp://viid.me/qlURLG
p2397
I1
sVhttp://viid.me/qlURZV
p2398
I1
sVhttp://viid.me/qlURCO
p2399
I1
sVhttp://viid.me/qlURCn
p2400
I1
sVhttp://viid.me/qlURSR
p2401
I1
sVhttp://viid.me/qlURVd
p2402
I1
ssg40
Vtrump mccain doesnt know how to win anymore
p2403
sg42
I91
sg43
I9
sg44
I2
sa(dp2404
g2
(dp2405
g4
I0
sg5
I25
ssg6
I25
sg7
g8
((lp2406
I827207230890049536
aI827910559760838657
aI819663263998869507
aI829154356436021248
aI817790422235967493
aI822121521246310406
aI819623494505918465
aI824806953645916164
aI784825705099956224
aI827215096791363585
aI826984595384053760
aI828093209834291201
aI828761013143076865
aI828082540615458816
aI827200680628719617
aI825204167287386112
aI828089584785432577
aI820392090966327296
aI827183165831798784
aI829128255038959616
aI489991894
aI800039817652400128
aI827177353344229377
aI794229280326746112
aI791086606597951488
atp2407
Rp2408
sg12
I5
sg13
g14
(g15
tp2409
Rp2410
Vhttp://viid.me/qlTYQO
p2411
I10
sVhttp://viid.me/qlTAr9
p2412
I2
sVhttp://viid.me/qlTAVa
p2413
I1
sVhttp://viid.me/qlTYW1
p2414
I2
sVhttp://viid.me/qlTALI
p2415
I1
sVhttp://viid.me/qlTAKN
p2416
I1
sVhttp://viid.me/qlTYEZ
p2417
I2
sVhttp://viid.me/qlTArN
p2418
I1
sVhttp://viid.me/qlTYGX
p2419
I1
sVhttp://viid.me/qlTYWJ
p2420
I1
sVhttp://viid.me/qlTALK
p2421
I1
sVhttp://viid.me/qlTCdb
p2422
I1
sVhttp://viid.me/qlTYR7
p2423
I1
ssg40
Vwelcome to toilet valley
p2424
sg42
I92
sg43
I9
sg44
I2
sa(dp2425
g2
(dp2426
g4
I0
sg5
I25
ssg6
I25
sg7
g8
((lp2427
I827207230890049536
aI827177353344229377
aI819663263998869507
aI826984595384053760
aI817790422235967493
aI820392090966327296
aI827910559760838657
aI824806953645916164
aI791086606597951488
aI784825705099956224
aI828093209834291201
aI822121521246310406
aI829154356436021248
aI828761013143076865
aI828082540615458816
aI827200680628719617
aI825204167287386112
aI828089584785432577
aI827183165831798784
aI829128255038959616
aI489991894
aI800039817652400128
aI794229280326746112
aI827215096791363585
aI819623494505918465
atp2428
Rp2429
sg12
I5
sg13
g14
(g15
tp2430
Rp2431
Vhttp://viid.me/qlTA5R
p2432
I1
sVhttp://viid.me/qlTYCS
p2433
I10
sVhttp://viid.me/qlTCv7
p2434
I1
sVhttp://viid.me/qlTS0g
p2435
I1
sVhttp://viid.me/qlTAaQ
p2436
I1
sVhttp://viid.me/qlTY6W
p2437
I1
sVhttp://viid.me/qlTAau
p2438
I2
sVhttp://viid.me/qlTA9M
p2439
I1
sVhttp://viid.me/qlTY32
p2440
I2
sVhttp://viid.me/qlTY6J
p2441
I2
sVhttp://viid.me/qlTA5L
p2442
I1
sVhttp://viid.me/qlTY3r
p2443
I1
sVhttp://viid.me/qlTY9H
p2444
I1
ssg40
Vcheick tiote newcastle midfielder joins chinese second division side
p2445
sg42
I93
sg43
I9
sg44
I2
sa(dp2446
g2
(dp2447
g4
I0
sg5
I25
ssg6
I25
sg7
g8
((lp2448
I827207230890049536
aI827910559760838657
aI819663263998869507
aI826984595384053760
aI817790422235967493
aI822121521246310406
aI819623494505918465
aI824806953645916164
aI784825705099956224
aI827177353344229377
aI829154356436021248
aI828761013143076865
aI828093209834291201
aI828082540615458816
aI827200680628719617
aI825204167287386112
aI828089584785432577
aI820392090966327296
aI827183165831798784
aI829128255038959616
aI489991894
aI800039817652400128
aI794229280326746112
aI791086606597951488
aI827215096791363585
atp2449
Rp2450
sg12
I5
sg13
g14
(g15
tp2451
Rp2452
Vhttp://viid.me/qlTY1e
p2453
I2
sVhttp://viid.me/qlTAMp
p2454
I1
sVhttp://viid.me/qlTCzn
p2455
I1
sVhttp://viid.me/qlTAMF
p2456
I1
sVhttp://viid.me/qlTYAn
p2457
I10
sVhttp://viid.me/qlTYXB
p2458
I2
sVhttp://viid.me/qlTANM
p2459
I1
sVhttp://viid.me/qlTA11
p2460
I1
sVhttp://viid.me/qlTY3V
p2461
I1
sVhttp://viid.me/qlTAiW
p2462
I2
sVhttp://viid.me/qlTAiU
p2463
I1
sVhttp://viid.me/qlTYXz
p2464
I1
sVhttp://viid.me/qlTYVa
p2465
I1
ssg40
Vrow over indian textbook that tells children how to kill kittens
p2466
sg42
I94
sg43
I9
sg44
I2
sa(dp2467
g2
(dp2468
g4
I0
sg5
I25
ssg6
I25
sg7
g8
((lp2469
I756668572370436096
aI794581473009528833
aI825086314076831747
aI798521044646690820
aI801533437534474240
aI792443841789960193
aI764560298086981633
aI772922637953667072
aI784529318500245505
aI822121521246310406
aI75388838
aI815709962315898880
aI792529889991725057
aI795786553985499136
aI764857474365132800
aI764662496179421185
aI800039817652400128
aI819920470589968384
aI240443742
aI796025831919386624
aI794573977159143424
aI197257709
aI826216161733910528
aI790611590320103424
aI766307608743600128
atp2470
Rp2471
sg12
I5
sg13
g14
(g15
tp2472
Rp2473
Vhttp://viid.me/qlTU9U
p2474
I1
sVhttp://viid.me/qlTKv8
p2475
I1
sVhttp://viid.me/qlTU9J
p2476
I1
sVhttp://viid.me/qlTKnq
p2477
I1
sVhttp://viid.me/qlTIr1
p2478
I1
sVhttp://viid.me/qlTIyo
p2479
I1
sVhttp://viid.me/qlTIeL
p2480
I1
sVhttp://viid.me/qlTBbf
p2481
I2
sVhttp://viid.me/qlTIrd
p2482
I1
sVhttp://viid.me/qlTIe3
p2483
I1
sVhttp://viid.me/qlTKbJ
p2484
I1
sVhttp://viid.me/qlTKvg
p2485
I1
sVhttp://viid.me/qlTKbS
p2486
I1
sVhttp://viid.me/qlTKvz
p2487
I1
sVhttp://viid.me/qlTIrJ
p2488
I1
sVhttp://viid.me/qlTKvL
p2489
I1
sVhttp://viid.me/qlTIrv
p2490
I1
sVhttp://viid.me/qlTKbi
p2491
I2
sVhttp://viid.me/qlTKvF
p2492
I1
sVhttp://viid.me/qlTKv3
p2493
I2
sVhttp://viid.me/qlTKbv
p2494
I1
sVhttp://viid.me/qlTIrk
p2495
I1
ssg40
Vnew york police take on a problem decades in the making overloaded investigators
p2496
sg42
I95
sg43
I9
sg44
I2
sa(dp2497
g2
(dp2498
g4
I0
sg5
I25
ssg6
I25
sg7
g8
((lp2499
I827207230890049536
aI827910559760838657
aI819663263998869507
aI826984595384053760
aI817790422235967493
aI822121521246310406
aI819623494505918465
aI824806953645916164
aI784825705099956224
aI828089584785432577
aI829154356436021248
aI828761013143076865
aI828093209834291201
aI828082540615458816
aI827200680628719617
aI825204167287386112
aI820392090966327296
aI827183165831798784
aI829128255038959616
aI489991894
aI800039817652400128
aI827177353344229377
aI794229280326746112
aI791086606597951488
aI827215096791363585
atp2500
Rp2501
sg12
I5
sg13
g14
(g15
tp2502
Rp2503
Vhttp://viid.me/qlTAV4
p2504
I1
sVhttp://viid.me/qlTAu0
p2505
I1
sVhttp://viid.me/qlTAup
p2506
I1
sVhttp://viid.me/qlTABl
p2507
I1
sVhttp://viid.me/qlTAN5
p2508
I1
sVhttp://viid.me/qlTYUW
p2509
I10
sVhttp://viid.me/qlTYHO
p2510
I1
sVhttp://viid.me/qlTCjm
p2511
I1
sVhttp://viid.me/qlTYLo
p2512
I1
sVhttp://viid.me/qlTAug
p2513
I1
sVhttp://viid.me/qlTYLI
p2514
I1
sVhttp://viid.me/qlTYG5
p2515
I1
sVhttp://viid.me/qlTAC6
p2516
I1
sVhttp://viid.me/qlTYZw
p2517
I2
sVhttp://viid.me/qlTYNc
p2518
I1
ssg40
Vsomalias mr cheese president has a lot on his plate
p2519
sg42
I96
sg43
I9
sg44
I2
sa(dp2520
g2
(dp2521
g4
I2
sg5
I22
ssg6
I24
sg7
g8
((lp2522
I796025831919386624
aI823343596917112833
aI787828400744501250
aI799714584307171329
aI772922637953667072
aI764662496179421185
aI779461418861101056
aI794229280326746112
aI786293784359219200
aI4883801255
aI809168093708697600
aI824089961905397760
aI823431491845836800
aI782286927793909760
aI785195157712990208
aI805192187034169344
aI779789207447408641
aI222505018
aI800039817652400128
aI3003471994
aI785354015043452928
atp2523
Rp2524
sg12
I5
sg13
g14
(g15
tp2525
Rp2526
Vhttp://viid.me/qlEh8r
p2527
I4
sVhttp://viid.me/qlEh3b
p2528
I1
sVhttp://viid.me/qlEh6v
p2529
I4
sVhttp://viid.me/qlEh61
p2530
I1
sVhttp://viid.me/qlYyyi
p2531
I1
sVhttp://viid.me/qlEh5F
p2532
I1
sVhttp://viid.me/qlEh7G
p2533
I1
sVhttp://viid.me/qlT6x1
p2534
I1
sVhttp://viid.me/qlEh5B
p2535
I1
sVhttp://viid.me/qlEh6d
p2536
I5
sVhttp://viid.me/qlEh5L
p2537
I2
sVhttp://viid.me/qlEjQT
p2538
I1
sVhttp://viid.me/qlRVOf
p2539
I1
ssg40
Vexny knick charles oakley arrested after altercation
p2540
sg42
I97
sg43
I9
sg44
I2
sa(dp2541
g2
(dp2542
g4
I0
sg5
I24
ssg6
I24
sg7
g8
((lp2543
I827207230890049536
aI795596174589829120
aI825826173485740036
aI766663994362986501
aI828082540615458816
aI828089584785432577
aI827910559760838657
aI769236122375430144
aI826984595384053760
aI793527224225890305
aI828093209834291201
aI787799847915118592
aI827200680628719617
aI813445430654697472
aI772789868858597376
aI786375441766461440
aI816044810574426112
aI827177353344229377
aI801533437534474240
aI727564171156570113
aI827215096791363585
aI795590737215836160
aI827183165831798784
aI818141195595640832
atp2544
Rp2545
sg12
I5
sg13
g14
(g15
tp2546
Rp2547
Vhttp://viid.me/qlURZr
p2548
I1
sVhttp://viid.me/qlURlU
p2549
I10
sVhttp://viid.me/qlURJ0
p2550
I1
sVhttp://viid.me/qlURLP
p2551
I1
sVhttp://viid.me/qlURk8
p2552
I2
sVhttp://viid.me/qlURAj
p2553
I1
sVhttp://viid.me/qlURF9
p2554
I1
sVhttp://viid.me/qlURHH
p2555
I1
sVhttp://viid.me/qlURcM
p2556
I1
sVhttp://viid.me/qlURHM
p2557
I1
sVhttp://viid.me/qlURHQ
p2558
I1
sVhttp://viid.me/qlURFm
p2559
I1
sVhttp://viid.me/qlURGI
p2560
I1
sVhttp://viid.me/qlURJg
p2561
I1
ssg40
Vtrump travel ban lawsuits pile up
p2562
sg42
I98
sg43
I9
sg44
I2
sa(dp2563
g2
(dp2564
g4
I0
sg5
I24
ssg6
I24
sg7
g8
((lp2565
I790895491294826496
aI799788453676417025
aI787828400744501250
aI803952837537464324
aI772922637953667072
aI779789207447408641
aI779841027926528000
aI727564171156570113
aI790611590320103424
aI786293784359219200
aI787040661702864896
aI792529889991725057
aI787129103128358912
aI779461418861101056
aI782286927793909760
aI784049878271979520
aI240443742
aI797938751263555584
aI785556435321184256
aI802287999312678912
aI785195157712990208
aI766307608743600128
atp2566
Rp2567
sg12
I5
sg13
g14
(g15
tp2568
Rp2569
Vhttp://viid.me/qlEYc4
p2570
I1
sVhttp://viid.me/qlEYmS
p2571
I1
sVhttp://viid.me/qlEYvl
p2572
I1
sVhttp://viid.me/qlEYvo
p2573
I1
sVhttp://viid.me/qlEYWI
p2574
I1
sVhttp://viid.me/qlEYvb
p2575
I1
sVhttp://viid.me/qlEYcT
p2576
I1
sVhttp://viid.me/qlEYbw
p2577
I1
sVhttp://viid.me/qlEYvf
p2578
I5
sVhttp://viid.me/qlEYcG
p2579
I3
sVhttp://viid.me/qlEYmk
p2580
I1
sVhttp://viid.me/qlEYcx
p2581
I1
sVhttp://viid.me/qlESV1
p2582
I1
sVhttp://viid.me/qlEYcN
p2583
I1
sVhttp://viid.me/qlEYcm
p2584
I2
sVhttp://viid.me/qlEYQq
p2585
I1
sVhttp://viid.me/qlEYvV
p2586
I1
ssg40
Vprotests erupt outside phoenix ice office after arrest of illegal immigrant
p2587
sg42
I99
sg43
I9
sg44
I2
sa(dp2588
g2
(dp2589
g4
I3
sg5
I21
ssg6
I24
sg7
g8
((lp2590
I785634369444515840
aI786293784359219200
aI787828400744501250
aI772922637953667072
aI335348476
aI794229280326746112
aI807706268874002433
aI779461418861101056
aI809514657237057536
aI3897626072
aI3844164275
aI787129103128358912
aI800039817652400128
aI785556435321184256
aI809168093708697600
aI785195157712990208
aI779841027926528000
aI792829665656377344
aI792842880008192000
atp2591
Rp2592
sg12
I5
sg13
g14
(g15
tp2593
Rp2594
Vhttp://viid.me/qlYW1Z
p2595
I7
sVhttp://viid.me/qlYW1y
p2596
I1
sVhttp://viid.me/qlYWMU
p2597
I10
sVhttp://viid.me/qlYEpv
p2598
I1
sVhttp://viid.me/qlYWLs
p2599
I1
sVhttp://viid.me/qlYEpJ
p2600
I1
sVhttp://viid.me/qlYW1h
p2601
I2
sVhttp://viid.me/qlYW14
p2602
I1
ssg40
Vtrump slams sen blumenthal in gorsuch tweet
p2603
sg42
I100
sg43
I9
sg44
I2
sa(dp2604
g2
(dp2605
g4
I0
sg5
I24
ssg6
I24
sg7
g8
((lp2606
I784049878271979520
aI797938751263555584
aI787828400744501250
aI779841027926528000
aI803952837537464324
aI727564171156570113
aI787040661702864896
aI799788453676417025
aI792529889991725057
aI786293784359219200
aI782286927793909760
aI790611590320103424
aI802287999312678912
aI787129103128358912
aI240443742
aI785556435321184256
aI779789207447408641
aI785195157712990208
aI772922637953667072
aI790895491294826496
aI779461418861101056
atp2607
Rp2608
sg12
I5
sg13
g14
(g15
tp2609
Rp2610
Vhttp://viid.me/qlEHxS
p2611
I2
sVhttp://viid.me/qlEHcT
p2612
I1
sVhttp://viid.me/qlEHx6
p2613
I3
sVhttp://viid.me/qlR2bZ
p2614
I1
sVhttp://viid.me/qlEHcP
p2615
I5
sVhttp://viid.me/qlEHHa
p2616
I1
sVhttp://viid.me/qlEHv7
p2617
I1
sVhttp://viid.me/qlEHcx
p2618
I1
sVhttp://viid.me/qlEHHy
p2619
I1
sVhttp://viid.me/qlEHvo
p2620
I1
sVhttp://viid.me/qlEHRt
p2621
I1
sVhttp://viid.me/qlEHxd
p2622
I1
sVhttp://viid.me/qlEHvD
p2623
I1
sVhttp://viid.me/qlEHvE
p2624
I1
sVhttp://viid.me/qlEHcm
p2625
I1
sVhttp://viid.me/qlEHxi
p2626
I1
sVhttp://viid.me/qlEHHx
p2627
I1
ssg40
Vchicago woman retracts statements claiming her boyfriends innocent in bali killing
p2628
sg42
I101
sg43
I9
sg44
I2
sa(dp2629
g2
(dp2630
g4
I4
sg5
I20
ssg6
I24
sg7
g8
((lp2631
I795596174589829120
aI727564171156570113
aI819663263998869507
aI784825705099956224
aI815924866637500417
aI634873873
aI2659475605
aI786915319008854016
aI815923752919777281
aI815925915100258304
aI821375422583685120
aI791823307922374656
aI4851587909
aI815927754482970624
aI764662496179421185
aI778051538132594688
aI796025831919386624
aI791086606597951488
aI789113916102180864
aI815928899058147328
aI828957353928249344
aI827241553596973057
aI1498573814
aI789266125485998080
atp2632
Rp2633
sg12
I5
sg13
g14
(g15
tp2634
Rp2635
Vhttp://viid.me/qlYZBF
p2636
I1
sVhttp://viid.me/qlY47M
p2637
I1
sVhttp://viid.me/qlY3D9
p2638
I5
sVhttp://viid.me/qlYZX9
p2639
I6
sVhttp://viid.me/qlYZCK
p2640
I2
sVhttp://viid.me/qlYZVj
p2641
I1
sVhttp://viid.me/qlY3jB
p2642
I1
sVhttp://viid.me/qlY47Y
p2643
I1
sVhttp://viid.me/qlYZHP
p2644
I1
sVhttp://viid.me/qlY48t
p2645
I1
sVhttp://viid.me/qlYZC2
p2646
I1
sVhttp://viid.me/qlYsHA
p2647
I1
sVhttp://viid.me/qlY5qK
p2648
I2
ssg40
Vtom price nears senate confirmation as donald trumps health secretary
p2649
sg42
I102
sg43
I9
sg44
I2
sa(dp2650
g2
(dp2651
g4
I0
sg5
I24
ssg6
I24
sg7
g8
((lp2652
I827207230890049536
aI828093209834291201
aI782718474695090180
aI826984595384053760
aI828089584785432577
aI787662472530493440
aI815923752919777281
aI815928899058147328
aI701830446334738433
aI788353148792496128
aI815924866637500417
aI788133591242928128
aI791823307922374656
aI828082540615458816
aI827200680628719617
aI782286927793909760
aI815927754482970624
aI827177353344229377
aI827910559760838657
aI827215096791363585
aI828957353928249344
aI827183165831798784
aI818141195595640832
aI789266125485998080
atp2653
Rp2654
sg12
I5
sg13
g14
(g15
tp2655
Rp2656
Vhttp://viid.me/qlTitt
p2657
I10
sVhttp://viid.me/qlTluY
p2658
I1
sVhttp://viid.me/qlTlit
p2659
I1
sVhttp://viid.me/qlYW6x
p2660
I1
sVhttp://viid.me/qlYEAo
p2661
I1
sVhttp://viid.me/qlTlip
p2662
I1
sVhttp://viid.me/qlTluu
p2663
I1
sVhttp://viid.me/qlYW7l
p2664
I1
sVhttp://viid.me/qlYEPN
p2665
I1
sVhttp://viid.me/qlTluA
p2666
I1
sVhttp://viid.me/qlYW5J
p2667
I1
sVhttp://viid.me/qlYEfz
p2668
I4
ssg40
Vdespite his lies donald trump is a potent truthteller  james s gordon
p2669
sg42
I103
sg43
I9
sg44
I2
sa(dp2670
g2
(dp2671
g4
I0
sg5
I24
ssg6
I24
sg7
g8
((lp2672
I827207230890049536
aI827177353344229377
aI819663263998869507
aI829154356436021248
aI817790422235967493
aI820392090966327296
aI828093209834291201
aI824806953645916164
aI791086606597951488
aI784825705099956224
aI827215096791363585
aI822121521246310406
aI826984595384053760
aI828761013143076865
aI828082540615458816
aI827200680628719617
aI825204167287386112
aI828089584785432577
aI827183165831798784
aI489991894
aI800039817652400128
aI794229280326746112
aI827910559760838657
aI819623494505918465
atp2673
Rp2674
sg12
I5
sg13
g14
(g15
tp2675
Rp2676
Vhttp://viid.me/qlTYBV
p2677
I1
sVhttp://viid.me/qlTYJS
p2678
I10
sVhttp://viid.me/qlTY2h
p2679
I1
sVhttp://viid.me/qlTAoP
p2680
I2
sVhttp://viid.me/qlTAoN
p2681
I1
sVhttp://viid.me/qlTY7m
p2682
I1
sVhttp://viid.me/qlTA2h
p2683
I1
sVhttp://viid.me/qlTY4w
p2684
I2
sVhttp://viid.me/qlTA2T
p2685
I1
sVhttp://viid.me/qlTA3o
p2686
I1
sVhttp://viid.me/qlTYNM
p2687
I2
sVhttp://viid.me/qlTA4c
p2688
I1
ssg40
Vgaleries lafayette apologises for barring cancer victim
p2689
sg42
I104
sg43
I9
sg44
I2
sa(dp2690
g2
(dp2691
g4
I0
sg5
I24
ssg6
I24
sg7
g8
((lp2692
I779841027926528000
aI772922637953667072
aI787828400744501250
aI803952837537464324
aI790895491294826496
aI727564171156570113
aI799788453676417025
aI790611590320103424
aI787129103128358912
aI786293784359219200
aI792529889991725057
aI787040661702864896
aI779461418861101056
aI779789207447408641
aI782286927793909760
aI784049878271979520
aI240443742
aI797938751263555584
aI785556435321184256
aI802287999312678912
aI785195157712990208
aI766307608743600128
atp2693
Rp2694
sg12
I5
sg13
g14
(g15
tp2695
Rp2696
Vhttp://viid.me/qlEgWY
p2697
I1
sVhttp://viid.me/qlEhR2
p2698
I1
sVhttp://viid.me/qlEkOy
p2699
I1
sVhttp://viid.me/qlEgRC
p2700
I1
sVhttp://viid.me/qlEgTZ
p2701
I1
sVhttp://viid.me/qlEfCq
p2702
I2
sVhttp://viid.me/qlEgSY
p2703
I1
sVhttp://viid.me/qlEfAU
p2704
I1
sVhttp://viid.me/qlEhc8
p2705
I1
sVhttp://viid.me/qlEfZF
p2706
I1
sVhttp://viid.me/qlEfAi
p2707
I5
sVhttp://viid.me/qlR2yH
p2708
I1
sVhttp://viid.me/qlEfCh
p2709
I1
sVhttp://viid.me/qlEfZO
p2710
I1
sVhttp://viid.me/qlEfZL
p2711
I1
sVhttp://viid.me/qlElfD
p2712
I1
sVhttp://viid.me/qlEfDV
p2713
I3
ssg40
Vincoming oakland police chief to receive historic salary
p2714
sg42
I105
sg43
I9
sg44
I2
sa(dp2715
g2
(dp2716
g4
I24
sg5
I0
ssg6
I24
sg7
g8
((lp2717
I789171072847351808
aI816841594175451136
aI741729249560694784
aI2274988838
aI824086818886823936
aI781589868988235777
aI3089352615
aI793845554497236992
aI818789083501604864
aI3137762260
aI810449344969240576
aI828520428285026304
aI2829847384
aI3008033471
aI827487276649156608
aI816884409278332928
atp2718
Rp2719
sg12
I5
sg13
g14
(g15
tp2720
Rp2721
Vhttp://viid.me/q08Xpb
p2722
I24
ssg40
V\u27a1   \u2b05 rt homocoven
p2723
sg42
I106
sg43
I9
sg44
I2
sa(dp2724
g2
(dp2725
g4
I2
sg5
I22
ssg6
I24
sg7
g8
((lp2726
I802061220186587136
aI816113556454133760
aI828082540615458816
aI827215096791363585
aI822121521246310406
aI827910559760838657
aI753057780383166464
aI4215256394
aI826984595384053760
aI705061292
aI816088439363956737
aI4306732883
aI827200680628719617
aI828093209834291201
aI827183165831798784
aI4379138233
aI3003471994
aI828838674884222976
aI827177353344229377
aI828089584785432577
aI827207230890049536
atp2727
Rp2728
sg12
I5
sg13
g14
(g15
tp2729
Rp2730
Vhttp://viid.me/qlYqAx
p2731
I1
sVhttp://ift.tt/eA8V8J
p2732
I1
sVhttp://viid.me/qlYpJC
p2733
I3
sVhttp://viid.me/qlYyR3
p2734
I1
sVhttp://viid.me/qq9cqd
p2735
I1
sVhttp://viid.me/qlYAre
p2736
I1
sVhttp://viid.me/qlYfyq
p2737
I10
sVhttp://viid.me/qlYmhC
p2738
I1
sVhttp://viid.me/qlYtUW
p2739
I5
sVhttp://viid.me/qlYtHt
p2740
I1
ssg40
Vpope says at peace confronting vatican corruption sex abuse
p2741
sg42
I107
sg43
I9
sg44
I2
sa(dp2742
g2
(dp2743
g4
I0
sg5
I23
ssg6
I23
sg7
g8
((lp2744
I808527165704830976
aI784359087148404736
aI762850186607460352
aI822118908249444353
aI268239505
aI2154234135
aI1324982552
aI801533437534474240
aI503295649
aI825400270070935553
aI795596174589829120
aI821375422583685120
aI222505018
aI785538339961204736
aI330121407
aI2972084937
aI774486797606907904
aI793612476789231616
aI376823079
aI300763628
aI66378989
aI815709962315898880
aI785354015043452928
atp2745
Rp2746
sg12
I5
sg13
g14
(g15
tp2747
Rp2748
Vhttp://viid.me/qlY6y8
p2749
I1
sVhttp://viid.me/qlY6rK
p2750
I1
sVhttp://viid.me/qlY6oI
p2751
I1
sVhttp://viid.me/qlY6im
p2752
I1
sVhttp://viid.me/qlY6tw
p2753
I1
sVhttp://viid.me/qlY6ts
p2754
I1
sVhttp://viid.me/qlY6oo
p2755
I1
sVhttp://viid.me/qlY6yL
p2756
I1
sVhttp://viid.me/qlY6iy
p2757
I1
sVhttp://viid.me/qlY6ix
p2758
I1
sVhttp://viid.me/qlY6uW
p2759
I1
sVhttp://viid.me/qlY6yt
p2760
I1
sVhttp://viid.me/qlY6em
p2761
I1
sVhttp://viid.me/qlY6nH
p2762
I1
sVhttp://viid.me/qlY6eZ
p2763
I1
sVhttp://viid.me/qlY6eG
p2764
I1
sVhttp://viid.me/qlY6yB
p2765
I1
sVhttp://viid.me/qlY6yO
p2766
I1
sVhttp://viid.me/qlY6eP
p2767
I1
sVhttp://viid.me/qlY6i9
p2768
I1
sVhttp://viid.me/qlY6eT
p2769
I1
sVhttp://viid.me/qlY6yF
p2770
I1
sVhttp://viid.me/qlY6nc
p2771
I1
ssg40
Vwhen her friends reveal theyre pregnant this woman loses her shit
p2772
sg42
I108
sg43
I9
sg44
I2
sa(dp2773
g2
(dp2774
g4
I4
sg5
I19
ssg6
I23
sg7
g8
((lp2775
I826984595384053760
aI827207230890049536
aI825086314076831747
aI138520965
aI827183165831798784
aI828093209834291201
aI828260305973174275
aI781960790702161920
aI30266529
aI779841027926528000
aI827910559760838657
aI458849957
aI537370534
aI818973474341404672
aI828082540615458816
aI783374858579218433
aI785538339961204736
aI828089584785432577
aI792794115729686528
aI827200680628719617
aI827177353344229377
aI2261785573
aI827215096791363585
atp2776
Rp2777
sg12
I5
sg13
g14
(g15
tp2778
Rp2779
Vhttp://viid.me/qlTHgf
p2780
I1
sVhttp://viid.me/qlTHDy
p2781
I1
sVhttp://viid.me/qlTHc8
p2782
I1
sVhttp://viid.me/qlTHms
p2783
I2
sVhttp://viid.me/qlTHgr
p2784
I1
sVhttp://viid.me/qlTRDf
p2785
I12
sVhttp://viid.me/qlTHfa
p2786
I2
sVhttp://viid.me/qlTHfG
p2787
I1
sVhttp://viid.me/qlTHbq
p2788
I1
sVhttp://viid.me/qlTHbP
p2789
I1
ssg40
Vantitrump leaders press goal of making america \u2018ungovernable\u2019
p2790
sg42
I109
sg43
I9
sg44
I2
sa(dp2791
g2
(dp2792
g4
I0
sg5
I23
ssg6
I23
sg7
g8
((lp2793
I762850186607460352
aI822118908249444353
aI784359087148404736
aI825400270070935553
aI268239505
aI2154234135
aI1324982552
aI793612476789231616
aI503295649
aI815709962315898880
aI821375422583685120
aI222505018
aI785538339961204736
aI330121407
aI2972084937
aI774486797606907904
aI808527165704830976
aI801533437534474240
aI376823079
aI300763628
aI66378989
aI795596174589829120
aI785354015043452928
atp2794
Rp2795
sg12
I5
sg13
g14
(g15
tp2796
Rp2797
Vhttp://viid.me/qlYtGs
p2798
I1
sVhttp://viid.me/qlYtF7
p2799
I1
sVhttp://viid.me/qlYtGc
p2800
I1
sVhttp://viid.me/qlYtIh
p2801
I1
sVhttp://viid.me/qlYtTM
p2802
I1
sVhttp://viid.me/qlYtR7
p2803
I1
sVhttp://viid.me/qlYtGM
p2804
I1
sVhttp://viid.me/qlYtH0
p2805
I1
sVhttp://viid.me/qlYtTQ
p2806
I1
sVhttp://viid.me/qlYtWi
p2807
I1
sVhttp://viid.me/qlYtA3
p2808
I1
sVhttp://viid.me/qlYtDm
p2809
I1
sVhttp://viid.me/qlYtRD
p2810
I1
sVhttp://viid.me/qlYtRE
p2811
I1
sVhttp://viid.me/qlYtPs
p2812
I1
sVhttp://viid.me/qlYtDT
p2813
I1
sVhttp://viid.me/qlYtFI
p2814
I1
sVhttp://viid.me/qlYtDP
p2815
I1
sVhttp://viid.me/qlYtDN
p2816
I1
sVhttp://viid.me/qlYtRK
p2817
I1
sVhttp://viid.me/qlYtRl
p2818
I1
sVhttp://viid.me/qlYtUU
p2819
I1
sVhttp://viid.me/qlYtRb
p2820
I1
ssg40
Vdog was alone and shivering in the snow until a good samaritan came to help
p2821
sg42
I110
sg43
I9
sg44
I2
sa(dp2822
g2
(dp2823
g4
I2
sg5
I21
ssg6
I23
sg7
g8
((lp2824
I794573977159143424
aI795786553985499136
aI825086314076831747
aI798521044646690820
aI766307608743600128
aI776025800470503425
aI772922637953667072
aI764662496179421185
aI822121521246310406
aI75388838
aI790611590320103424
aI828761013143076865
aI792529889991725057
aI823677081422688256
aI764857474365132800
aI800039817652400128
aI819920470589968384
aI22253022
aI796025831919386624
aI801533437534474240
aI197257709
aI826216161733910528
aI815709962315898880
atp2825
Rp2826
sg12
I5
sg13
g14
(g15
tp2827
Rp2828
Vhttp://viid.me/qlEtsr
p2829
I2
sVhttp://viid.me/qlEtoL
p2830
I2
sVhttp://viid.me/qlErbb
p2831
I1
sVhttp://viid.me/qlEtoF
p2832
I1
sVhttp://viid.me/qlEq7y
p2833
I1
sVhttp://viid.me/qlEtBv
p2834
I1
sVhttp://viid.me/qlEtoB
p2835
I1
sVhttp://viid.me/qlE0Ao
p2836
I1
sVhttp://viid.me/qlEwF0
p2837
I1
sVhttp://viid.me/qlEtBd
p2838
I1
sVhttp://viid.me/qlUQBe
p2839
I1
sVhttp://viid.me/qlEtpC
p2840
I1
sVhttp://viid.me/qlEunL
p2841
I1
sVhttp://viid.me/qlEq7h
p2842
I1
sVhttp://viid.me/qlEwOO
p2843
I2
sVhttp://viid.me/qlEtso
p2844
I1
sVhttp://viid.me/qlEqj8
p2845
I1
sVhttp://viid.me/qlEeez
p2846
I1
sVhttp://viid.me/qlEtsf
p2847
I2
ssg40
Vshe showed up yearly to meet immigration agents now they\u2019re deporting her
p2848
sg42
I111
sg43
I9
sg44
I2
sa(dp2849
g2
(dp2850
g4
I0
sg5
I23
ssg6
I23
sg7
g8
((lp2851
I771809397341294592
aI815924866637500417
aI782718474695090180
aI828082540615458816
aI827910559760838657
aI827207230890049536
aI815923752919777281
aI815928899058147328
aI826984595384053760
aI828093209834291201
aI701830446334738433
aI788353148792496128
aI827200680628719617
aI788133591242928128
aI828089584785432577
aI827183165831798784
aI782286927793909760
aI815927754482970624
aI827177353344229377
aI815925915100258304
aI827215096791363585
aI828957353928249344
aI789266125485998080
atp2852
Rp2853
sg12
I5
sg13
g14
(g15
tp2854
Rp2855
Vhttp://viid.me/qlT9nS
p2856
I1
sVhttp://viid.me/qlT9vY
p2857
I1
sVhttp://viid.me/qlYqY9
p2858
I10
sVhttp://viid.me/qlT9vu
p2859
I5
sVhttp://viid.me/qlY0kJ
p2860
I1
sVhttp://viid.me/qlT9vj
p2861
I1
sVhttp://viid.me/qlY0l9
p2862
I1
sVhttp://viid.me/qlTLGL
p2863
I1
sVhttp://viid.me/qlYgRr
p2864
I1
sVhttp://viid.me/qlT9ni
p2865
I1
ssg40
V19444 gallons of water in the desert how volunteers save lives at the us border
p2866
sg42
I112
sg43
I9
sg44
I2
sa(dp2867
g2
(dp2868
g4
I2
sg5
I21
ssg6
I23
sg7
g8
((lp2869
I805192187034169344
aI786293784359219200
aI787828400744501250
aI772922637953667072
aI823343596917112833
aI824089961905397760
aI799714584307171329
aI779461418861101056
aI796025831919386624
aI800039817652400128
aI790578828
aI809168093708697600
aI823677081422688256
aI794229280326746112
aI764662496179421185
aI779789207447408641
aI222505018
aI785195157712990208
aI3003471994
aI782286927793909760
aI785354015043452928
atp2870
Rp2871
sg12
I5
sg13
g14
(g15
tp2872
Rp2873
Vhttp://viid.me/qlEoKr
p2874
I1
sVhttp://viid.me/qlEiGK
p2875
I1
sVhttp://viid.me/qlEowv
p2876
I1
sVhttp://viid.me/qlEorE
p2877
I1
sVhttp://viid.me/qlEoD2
p2878
I3
sVhttp://viid.me/qlYI4N
p2879
I1
sVhttp://viid.me/qlEiGE
p2880
I4
sVhttp://viid.me/qlEopw
p2881
I1
sVhttp://viid.me/qlEtAr
p2882
I1
sVhttp://viid.me/qlEo6q
p2883
I1
sVhttp://viid.me/qlEoob
p2884
I5
sVhttp://viid.me/qlEopj
p2885
I2
sVhttp://viid.me/qlEoiq
p2886
I1
ssg40
Vreport el chapo guzmans sons wounded in cartel attack
p2887
sg42
I113
sg43
I9
sg44
I2
sa(dp2888
g2
(dp2889
g4
I2
sg5
I21
ssg6
I23
sg7
g8
((lp2890
I802061220186587136
aI827910559760838657
aI828082540615458816
aI828093209834291201
aI822121521246310406
aI827215096791363585
aI753057780383166464
aI4215256394
aI826984595384053760
aI790611590320103424
aI4306732883
aI827200680628719617
aI827183165831798784
aI4379138233
aI3003471994
aI827177353344229377
aI828838674884222976
aI828089584785432577
aI827207230890049536
atp2891
Rp2892
sg12
I5
sg13
g14
(g15
tp2893
Rp2894
Vhttp://viid.me/qlT2Sz
p2895
I4
sVhttp://viid.me/qlTVXM
p2896
I4
sVhttp://viid.me/qq9cqd
p2897
I1
sVhttp://viid.me/qlTV2e
p2898
I1
sVhttp://viid.me/qlT25Q
p2899
I10
sVhttp://viid.me/qlT5MO
p2900
I1
sVhttp://ift.tt/eA8V8J
p2901
I1
sVhttp://viid.me/qlTV1B
p2902
I1
sVhttp://viid.me/qlT53V
p2903
I1
ssg40
Vbangladesh says stopping rohingya militants allowing helpless refugees
p2904
sg42
I114
sg43
I9
sg44
I2
sa(dp2905
g2
(dp2906
g4
I2
sg5
I20
ssg6
I22
sg7
g8
((lp2907
I827207230890049536
aI827215096791363585
aI790895491294826496
aI827177353344229377
aI828082540615458816
aI827200680628719617
aI801168552
aI821048044238045184
aI826984595384053760
aI820461975478161408
aI786375441766461440
aI827910559760838657
aI3400552306
aI827193574785765376
aI828093209834291201
aI827183165831798784
aI818973474341404672
aI765273279389134848
aI815313447667765248
aI828089584785432577
aI806702031171977216
atp2908
Rp2909
sg12
I5
sg13
g14
(g15
tp2910
Rp2911
Vhttp://viid.me/qlYZD5
p2912
I1
sVhttp://viid.me/qlYZNJ
p2913
I2
sVhttp://viid.me/qlYZCI
p2914
I3
sVhttp://viid.me/qlYKha
p2915
I1
sVhttp://viid.me/qlYZXy
p2916
I1
sVhttp://viid.me/qlYRHR
p2917
I10
sVhttp://viid.me/qlYZLg
p2918
I1
sVhttp://viid.me/qlYZB0
p2919
I1
sVhttp://viid.me/qlYKcK
p2920
I1
sVhttp://viid.me/qlYKfz
p2921
I1
ssg40
Vtrump says being president is \u201csurreal\u201d but that \u201cthere\u2019s so much work to be done\u201d
p2922
sg42
I115
sg43
I9
sg44
I2
sa(dp2923
g2
(dp2924
g4
I2
sg5
I20
ssg6
I22
sg7
g8
((lp2925
I827207230890049536
aI827910559760838657
aI790895491294826496
aI827177353344229377
aI826984595384053760
aI828089584785432577
aI1617325224
aI806702031171977216
aI786375441766461440
aI820461975478161408
aI818973474341404672
aI827215096791363585
aI827193574785765376
aI828093209834291201
aI828082540615458816
aI827200680628719617
aI827183165831798784
aI765273279389134848
aI815313447667765248
aI801168552
aI821048044238045184
atp2926
Rp2927
sg12
I5
sg13
g14
(g15
tp2928
Rp2929
Vhttp://viid.me/qlYKUH
p2930
I1
sVhttp://viid.me/qlYIPT
p2931
I2
sVhttp://viid.me/qlYZKY
p2932
I1
sVhttp://viid.me/qlYZ2s
p2933
I1
sVhttp://viid.me/qlYKRd
p2934
I1
sVhttp://viid.me/qlYZ7s
p2935
I2
sVhttp://viid.me/qlYZ67
p2936
I1
sVhttp://viid.me/qlYZ7M
p2937
I1
sVhttp://viid.me/qlYIPm
p2938
I10
sVhttp://viid.me/qlYKYD
p2939
I1
sVhttp://viid.me/qlYZ6E
p2940
I1
ssg40
Vsen cotton releases plan to cut legal immigration in half
p2941
sg42
I116
sg43
I9
sg44
I2
sa(dp2942
g2
(dp2943
g4
I2
sg5
I20
ssg6
I22
sg7
g8
((lp2944
I802061220186587136
aI827910559760838657
aI828093209834291201
aI822121521246310406
aI826984595384053760
aI827200680628719617
aI4215256394
aI753057780383166464
aI827215096791363585
aI4306732883
aI828082540615458816
aI827183165831798784
aI4379138233
aI3003471994
aI828838674884222976
aI827177353344229377
aI828089584785432577
aI827207230890049536
atp2945
Rp2946
sg12
I5
sg13
g14
(g15
tp2947
Rp2948
Vhttp://ift.tt/eA8V8J
p2949
I1
sVhttp://viid.me/qlYO9c
p2950
I10
sVhttp://viid.me/qlYOOV
p2951
I4
sVhttp://viid.me/qq9cqd
p2952
I1
sVhttp://viid.me/qlYAqI
p2953
I1
sVhttp://viid.me/qlYP2j
p2954
I4
sVhttp://viid.me/qlYBsz
p2955
I1
sVhttp://viid.me/qlYAww
p2956
I1
ssg40
Vaid ship to help rohingyas arrives in myanmar greeted by protest
p2957
sg42
I117
sg43
I9
sg44
I2
sa(dp2958
g2
(dp2959
g4
I0
sg5
I22
ssg6
I22
sg7
g8
((lp2960
I820392090966327296
aI819623494505918465
aI829128255038959616
aI819663263998869507
aI824806953645916164
aI822121521246310406
aI794229280326746112
aI828761013143076865
aI829154356436021248
aI785556435321184256
aI825204167287386112
aI800039817652400128
aI489991894
aI753214996415340544
aI784825705099956224
aI779841027926528000
aI784049878271979520
aI772922637953667072
aI791086606597951488
aI817790422235967493
atp2961
Rp2962
sg12
I5
sg13
g14
(g15
tp2963
Rp2964
Vhttp://viid.me/qlRJqZ
p2965
I1
sVhttp://viid.me/qlRXGt
p2966
I1
sVhttp://viid.me/qlRZgy
p2967
I2
sVhttp://viid.me/qlRH9z
p2968
I1
sVhttp://viid.me/qlRXAS
p2969
I1
sVhttp://viid.me/qlRZgZ
p2970
I1
sVhttp://viid.me/qlRXUN
p2971
I1
sVhttp://viid.me/qlRZXs
p2972
I2
sVhttp://viid.me/qlRH9R
p2973
I2
sVhttp://viid.me/qlRZjY
p2974
I1
sVhttp://viid.me/qlR4vt
p2975
I1
sVhttp://viid.me/qlRJ0k
p2976
I1
sVhttp://viid.me/qlRJ0J
p2977
I3
sVhttp://viid.me/qlRXI2
p2978
I1
sVhttp://viid.me/qlR1Qo
p2979
I1
sVhttp://viid.me/qlRXUT
p2980
I1
sVhttp://viid.me/qlRXT0
p2981
I1
ssg40
Varsene wenger arsenal manager refuses to concede title fight is over
p2982
sg42
I118
sg43
I9
sg44
I2
sa(dp2983
g2
(dp2984
g4
I1
sg5
I21
ssg6
I22
sg7
g8
((lp2985
I815928899058147328
aI815923752919777281
aI782718474695090180
aI828082540615458816
aI827215096791363585
aI827207230890049536
aI771809397341294592
aI815924866637500417
aI826984595384053760
aI828093209834291201
aI701830446334738433
aI788353148792496128
aI827200680628719617
aI788133591242928128
aI828089584785432577
aI827183165831798784
aI815927754482970624
aI827177353344229377
aI111680876
aI827910559760838657
aI828957353928249344
aI789266125485998080
atp2986
Rp2987
sg12
I5
sg13
g14
(g15
tp2988
Rp2989
Vhttp://viid.me/qlTY9w
p2990
I1
sVhttp://viid.me/qlTLOj
p2991
I1
sVhttp://viid.me/qlTYKZ
p2992
I2
sVhttp://viid.me/qlTHcn
p2993
I10
sVhttp://viid.me/qlTUhe
p2994
I1
sVhttp://viid.me/qlTYVP
p2995
I1
sVhttp://viid.me/qlTY9X
p2996
I1
sVhttp://viid.me/qlTCa6
p2997
I1
sVhttp://viid.me/qlTYGu
p2998
I3
sVhttp://viid.me/qlTYGw
p2999
I1
ssg40
Vis obamas official white house photographer trolling donald trump
p3000
sg42
I119
sg43
I9
sg44
I2
sa(dp3001
g2
(dp3002
g4
I2
sg5
I20
ssg6
I22
sg7
g8
((lp3003
I828082540615458816
aI827200680628719617
aI753057780383166464
aI827177353344229377
aI822121521246310406
aI827215096791363585
aI3750989257
aI4215256394
aI826984595384053760
aI827910559760838657
aI4306732883
aI828093209834291201
aI827183165831798784
aI4379138233
aI3003471994
aI828838674884222976
aI828089584785432577
aI827207230890049536
atp3004
Rp3005
sg12
I5
sg13
g14
(g15
tp3006
Rp3007
Vhttp://viid.me/qlTLan
p3008
I1
sVhttps://twitter.com/trumphero4usa/status/829662875270541313
p3009
I1
sVhttp://viid.me/qlT5Br
p3010
I1
sVhttp://viid.me/qlTLpX
p3011
I1
sVhttp://viid.me/qlTV4f
p3012
I4
sVhttp://viid.me/qlTBpY
p3013
I11
sVhttp://viid.me/qlTLui
p3014
I4
ssg40
Vnato allies lock in us support for standoff with russia
p3015
sg42
I120
sg43
I9
sg44
I2
sa(dp3016
g2
(dp3017
g4
I0
sg5
I22
ssg6
I22
sg7
g8
((lp3018
I779841027926528000
aI786293784359219200
aI787828400744501250
aI772922637953667072
aI803952837537464324
aI785556435321184256
aI799788453676417025
aI766307608743600128
aI792529889991725057
aI797938751263555584
aI790611590320103424
aI802287999312678912
aI787040661702864896
aI784049878271979520
aI785195157712990208
aI779789207447408641
aI787129103128358912
aI790895491294826496
aI240443742
aI779461418861101056
atp3019
Rp3020
sg12
I5
sg13
g14
(g15
tp3021
Rp3022
Vhttp://viid.me/qlEkIk
p3023
I1
sVhttp://viid.me/qlEfLA
p3024
I1
sVhttp://viid.me/qlEf6T
p3025
I1
sVhttp://viid.me/qlEfZ0
p3026
I2
sVhttp://viid.me/qlEfID
p3027
I5
sVhttp://viid.me/qlEfLX
p3028
I1
sVhttp://viid.me/qlEfLY
p3029
I1
sVhttp://viid.me/qlEgW5
p3030
I1
sVhttp://viid.me/qlEfI2
p3031
I3
sVhttp://viid.me/qlEgWj
p3032
I1
sVhttp://viid.me/qlEfI7
p3033
I1
sVhttp://viid.me/qlEg2z
p3034
I1
sVhttp://viid.me/qlEfLH
p3035
I1
sVhttp://viid.me/qlEfS4
p3036
I1
sVhttp://viid.me/qlEgOJ
p3037
I1
ssg40
Vislamic state fighters reportedly calling trump travel ban the blessed ban
p3038
sg42
I121
sg43
I9
sg44
I2
sa(dp3039
g2
(dp3040
g4
I7
sg5
I15
ssg6
I22
sg7
g8
((lp3041
I770355908056588288
aI796181322872094721
aI821842280172650498
aI789856799625191429
aI796941226578743296
aI764662496179421185
aI800944784928108544
aI788910707869945856
aI2324475554
aI784825705099956224
aI2819619718
aI785831730913484800
aI3130927019
aI797994514837291008
aI725919213009797120
aI762744759710388224
aI796025831919386624
aI802299026242736128
aI791086606597951488
aI3458047347
aI789821479676502016
aI796999539085504512
atp3042
Rp3043
sg12
I5
sg13
g14
(g15
tp3044
Rp3045
Vhttps://twitter.com/i/web/status/829597983037497344
p3046
I1
sVhttps://twitter.com/i/web/status/829598007309983744
p3047
I4
sVhttps://twitter.com/i/web/status/829596102651416576
p3048
I1
sVhttps://twitter.com/i/web/status/829598269902770176
p3049
I1
sVhttps://twitter.com/i/web/status/829598006714392576
p3050
I1
sVhttps://twitter.com/i/web/status/829598005053382656
p3051
I1
sVhttps://twitter.com/i/web/status/829598008031318017
p3052
I3
sVhttps://twitter.com/i/web/status/829598008685711360
p3053
I2
sVhttps://twitter.com/i/web/status/829596104702332929
p3054
I1
sVhttps://twitter.com/i/web/status/829597985059147776
p3055
I2
sVhttps://twitter.com/i/web/status/829598007536390146
p3056
I1
sVhttps://twitter.com/i/web/status/829596104681361408
p3057
I1
sVhttps://twitter.com/i/web/status/829598005686702080
p3058
I1
sVhttps://twitter.com/i/web/status/829598008467558401
p3059
I1
sVhttps://twitter.com/i/web/status/829598301888471040
p3060
I1
ssg40
Vvideo tim scott destroys liberal philosophy \u201cthey\u2019re only tolerant with those who agree with them\u201d\u2026
p3061
sg42
I122
sg43
I9
sg44
I2
sa(dp3062
g2
(dp3063
g4
I0
sg5
I22
ssg6
I22
sg7
g8
((lp3064
I827183165831798784
aI828093209834291201
aI827215096791363585
aI815923752919777281
aI828082540615458816
aI827910559760838657
aI782718474695090180
aI808878545862819840
aI815924866637500417
aI826984595384053760
aI815928899058147328
aI828957353928249344
aI788133591242928128
aI788353148792496128
aI789266125485998080
aI827200680628719617
aI815925915100258304
aI815927754482970624
aI827177353344229377
aI828089584785432577
aI827207230890049536
atp3065
Rp3066
sg12
I5
sg13
g14
(g15
tp3067
Rp3068
Vhttps://twitter.com/i/web/status/829668876761698305
p3069
I1
sVhttps://twitter.com/i/web/status/829664271290163201
p3070
I1
sVhttps://twitter.com/i/web/status/829664273043333121
p3071
I1
sVhttps://twitter.com/i/web/status/829666002480746497
p3072
I1
sVhttps://twitter.com/i/web/status/829668115801706498
p3073
I1
sVhttps://twitter.com/i/web/status/829664272145735681
p3074
I1
sVhttps://twitter.com/i/web/status/829666272728059905
p3075
I1
sVhttps://twitter.com/i/web/status/829664279498420224
p3076
I1
sVhttps://twitter.com/i/web/status/829666001188904960
p3077
I1
sVhttps://twitter.com/i/web/status/829666005542580224
p3078
I1
sVhttps://twitter.com/i/web/status/829664284841947136
p3079
I1
sVhttps://twitter.com/i/web/status/829666266541494272
p3080
I1
sVhttps://twitter.com/i/web/status/829664284967784449
p3081
I1
sVhttps://twitter.com/i/web/status/829664284418322432
p3082
I1
sVhttps://twitter.com/i/web/status/829664289623412737
p3083
I1
sVhttps://twitter.com/i/web/status/829664270409297920
p3084
I2
sVhttps://twitter.com/i/web/status/829665993207066624
p3085
I1
sVhttps://twitter.com/i/web/status/829666003118219265
p3086
I1
sVhttps://twitter.com/i/web/status/829665996558344192
p3087
I1
sVhttps://twitter.com/i/web/status/829666002363232257
p3088
I1
sVhttps://twitter.com/i/web/status/829664293121449987
p3089
I1
ssg40
Venglish football\u2019s overseas arrivals who began with a gabriel jesusstyle bang  jamie jackson\u2026
p3090
sg42
I123
sg43
I9
sg44
I2
sa(dp3091
g2
(dp3092
g4
I2
sg5
I20
ssg6
I22
sg7
g8
((lp3093
I806702031171977216
aI815313447667765248
aI828082540615458816
aI790895491294826496
aI828093209834291201
aI820461975478161408
aI827215096791363585
aI827207230890049536
aI826984595384053760
aI786375441766461440
aI801168552
aI818973474341404672
aI827910559760838657
aI827193574785765376
aI765273279389134848
aI827183165831798784
aI827200680628719617
aI827177353344229377
aI1202053788
aI828089584785432577
aI821048044238045184
atp3094
Rp3095
sg12
I5
sg13
g14
(g15
tp3096
Rp3097
Vhttp://viid.me/qlYbzv
p3098
I2
sVhttp://viid.me/qlYvZ0
p3099
I2
sVhttp://viid.me/qlYby4
p3100
I1
sVhttp://viid.me/qlYbgi
p3101
I1
sVhttp://viid.me/qlYKeQ
p3102
I1
sVhttp://viid.me/qlYntI
p3103
I11
sVhttp://viid.me/qlYKew
p3104
I1
sVhttp://viid.me/qlYbdX
p3105
I1
sVhttp://viid.me/qlYbf0
p3106
I1
sVhttp://viid.me/qlYKis
p3107
I1
ssg40
Vhere\u2019s the 6thgrade lesson on islam that has parents furious
p3108
sg42
I124
sg43
I9
sg44
I2
sa(dp3109
g2
(dp3110
g4
I0
sg5
I22
ssg6
I22
sg7
g8
((lp3111
I802061220186587136
aI783543477212774400
aI819663263998869507
aI784825705099956224
aI727564171156570113
aI815928899058147328
aI786915319008854016
aI815923752919777281
aI795596174589829120
aI821375422583685120
aI815924866637500417
aI789113916102180864
aI815927754482970624
aI764662496179421185
aI778051538132594688
aI796025831919386624
aI791086606597951488
aI791823307922374656
aI815925915100258304
aI828957353928249344
aI827241553596973057
aI789266125485998080
atp3112
Rp3113
sg12
I5
sg13
g14
(g15
tp3114
Rp3115
Vhttp://viid.me/qlY4nL
p3116
I1
sVhttp://viid.me/qlY5k8
p3117
I1
sVhttp://ift.tt/eA8V8J
p3118
I1
sVhttp://viid.me/qlYZ5q
p3119
I1
sVhttp://viid.me/qlY3zD
p3120
I1
sVhttp://viid.me/qlY5b1
p3121
I1
sVhttp://viid.me/qlYZ8z
p3122
I1
sVhttp://viid.me/qq9cqd
p3123
I1
sVhttp://viid.me/qlYZ4S
p3124
I1
sVhttp://viid.me/qlYZ5y
p3125
I4
sVhttp://viid.me/qlYSRM
p3126
I1
sVhttp://viid.me/qlY4bQ
p3127
I5
sVhttp://viid.me/qlYZZU
p3128
I1
sVhttp://viid.me/qlY5zT
p3129
I1
sVhttp://viid.me/qlY5ss
p3130
I1
sVhttp://viid.me/qlYZ2H
p3131
I1
ssg40
Vuefa to ask fifa for 16 places at expanded 2026 world cup
p3132
sg42
I125
sg43
I9
sg44
I2
sa(dp3133
g2
(dp3134
g4
I21
sg5
I1
ssg6
I22
sg7
g8
((lp3135
I765543903252676608
aI808366047162208256
aI723339615009034243
aI735462639996899328
aI61777675
aI348988815
aI415936400
aI4760886682
aI12912542
aI760880653156089856
aI732388003
aI211990186
aI604856112
aI105379637
aI750239178
aI4195101027
aI211281752
aI745054993082945536
aI58794724
aI1090254055
aI152687079
aI88071033
atp3136
Rp3137
sg12
I5
sg13
g14
(g15
tp3138
Rp3139
Vhttp://viid.me/qlTzAv
p3140
I22
ssg40
Vswedish police detective warns america what refugees have done to sweden   \u27a5 rt \U0001f501 \U0001f64f
p3141
sg42
I126
sg43
I9
sg44
I2
sa(dp3142
g2
(dp3143
g4
I0
sg5
I21
ssg6
I21
sg7
g8
((lp3144
I785634369444515840
aI809514657237057536
aI787828400744501250
aI792829665656377344
aI809168093708697600
aI807706268874002433
aI792842880008192000
aI779461418861101056
aI786293784359219200
aI772922637953667072
aI787129103128358912
aI800039817652400128
aI785556435321184256
aI785195157712990208
aI779841027926528000
aI794229280326746112
atp3145
Rp3146
sg12
I5
sg13
g14
(g15
tp3147
Rp3148
Vhttp://viid.me/qlT9ha
p3149
I1
sVhttp://viid.me/qlT9d5
p3150
I1
sVhttp://viid.me/qlT9gd
p3151
I4
sVhttp://viid.me/qlT9zS
p3152
I1
sVhttp://viid.me/qlT9yN
p3153
I1
sVhttp://viid.me/qlT9f3
p3154
I2
sVhttp://viid.me/qlT9f0
p3155
I1
sVhttp://viid.me/qlT9yh
p3156
I10
ssg40
Vwinter storm takes hold in parts of the us
p3157
sg42
I127
sg43
I9
sg44
I2
sa(dp3158
g2
(dp3159
g4
I0
sg5
I21
ssg6
I21
sg7
g8
((lp3160
I809514657237057536
aI785634369444515840
aI787828400744501250
aI792829665656377344
aI786293784359219200
aI807706268874002433
aI779461418861101056
aI794229280326746112
aI809168093708697600
aI787129103128358912
aI800039817652400128
aI785556435321184256
aI779841027926528000
aI785195157712990208
aI772922637953667072
aI792842880008192000
atp3161
Rp3162
sg12
I5
sg13
g14
(g15
tp3163
Rp3164
Vhttp://viid.me/qlUd8K
p3165
I1
sVhttp://viid.me/qlUdQ3
p3166
I10
sVhttp://viid.me/qlUd9c
p3167
I1
sVhttp://viid.me/qlUd6S
p3168
I4
sVhttp://viid.me/qlUf0p
p3169
I2
sVhttp://viid.me/qlUdRr
p3170
I1
sVhttp://viid.me/qlUd7P
p3171
I1
sVhttp://viid.me/qlUd9X
p3172
I1
ssg40
Vspicer tries to squelch criticisms of
p3173
sg42
I128
sg43
I9
sg44
I2
sa(dp3174
g2
(dp3175
g4
I0
sg5
I21
ssg6
I21
sg7
g8
((lp3176
I785634369444515840
aI786293784359219200
aI787828400744501250
aI772922637953667072
aI785195157712990208
aI807706268874002433
aI779461418861101056
aI794229280326746112
aI809514657237057536
aI800039817652400128
aI785556435321184256
aI809168093708697600
aI787129103128358912
aI779841027926528000
aI792829665656377344
aI792842880008192000
atp3177
Rp3178
sg12
I5
sg13
g14
(g15
tp3179
Rp3180
Vhttp://viid.me/qlYWGL
p3181
I1
sVhttp://viid.me/qlYEyN
p3182
I1
sVhttp://viid.me/qlYWCT
p3183
I4
sVhttp://viid.me/qlYWZ8
p3184
I1
sVhttp://viid.me/qlYWCa
p3185
I1
sVhttp://viid.me/qlYEyZ
p3186
I1
sVhttp://viid.me/qlYWXi
p3187
I2
sVhttp://viid.me/qlYWLc
p3188
I10
ssg40
Vjoe presidents do not speak this way
p3189
sg42
I129
sg43
I9
sg44
I2
sa(dp3190
g2
(dp3191
g4
I2
sg5
I19
ssg6
I21
sg7
g8
((lp3192
I827207230890049536
aI828093209834291201
aI828082540615458816
aI752402040530149379
aI827910559760838657
aI815923752919777281
aI826984595384053760
aI827200680628719617
aI30266529
aI789266125485998080
aI815928899058147328
aI827215096791363585
aI828957353928249344
aI815927754482970624
aI788353148792496128
aI827183165831798784
aI815924866637500417
aI788133591242928128
aI827177353344229377
aI828089584785432577
aI782718474695090180
atp3193
Rp3194
sg12
I5
sg13
g14
(g15
tp3195
Rp3196
Vhttp://viid.me/qlTfQH
p3197
I12
sVhttp://viid.me/qlTUef
p3198
I1
sVhttp://viid.me/qlTYYz
p3199
I1
sVhttp://viid.me/qlTY4Q
p3200
I1
sVhttp://viid.me/qlTYPQ
p3201
I1
sVhttp://viid.me/qlTY1W
p3202
I1
sVhttp://viid.me/qlTYmj
p3203
I4
ssg40
Vexplosion at flamanville nuclear plant in western france
p3204
sg42
I130
sg43
I9
sg44
I2
sa(dp3205
g2
(dp3206
g4
I1
sg5
I20
ssg6
I21
sg7
g8
((lp3207
I795596174589829120
aI727564171156570113
aI784825705099956224
aI815924866637500417
aI815923752919777281
aI778051538132594688
aI764662496179421185
aI791823307922374656
aI796025831919386624
aI789266125485998080
aI828957353928249344
aI821375422583685120
aI815925915100258304
aI819663263998869507
aI827241553596973057
aI815928899058147328
aI789113916102180864
aI815927754482970624
aI890591978
aI791086606597951488
aI786915319008854016
atp3208
Rp3209
sg12
I5
sg13
g14
(g15
tp3210
Rp3211
Vhttp://viid.me/qlY5l6
p3212
I1
sVhttp://viid.me/qlYZ4d
p3213
I1
sVhttp://viid.me/qlYZ6r
p3214
I1
sVhttp://viid.me/qlY4Wb
p3215
I1
sVhttp://viid.me/qlYZVQ
p3216
I1
sVhttp://viid.me/qlY5cs
p3217
I1
sVhttp://viid.me/qlYZ6K
p3218
I5
sVhttp://viid.me/qlYZ6I
p3219
I1
sVhttp://viid.me/qlY3xQ
p3220
I1
sVhttp://viid.me/qlY4QG
p3221
I5
sVhttp://viid.me/qlY5d8
p3222
I1
sVhttp://viid.me/qlYZ9W
p3223
I1
sVhttp://viid.me/qlY5mo
p3224
I1
ssg40
Vdonald trump slams richard blumenthal after neil gorsuch meeting
p3225
sg42
I131
sg43
I9
sg44
I2
sa(dp3226
g2
(dp3227
g4
I0
sg5
I21
ssg6
I21
sg7
g8
((lp3228
I809514657237057536
aI785634369444515840
aI787828400744501250
aI792829665656377344
aI785556435321184256
aI807706268874002433
aI792842880008192000
aI794229280326746112
aI786293784359219200
aI772922637953667072
aI809168093708697600
aI800039817652400128
aI785195157712990208
aI787129103128358912
aI779841027926528000
aI779461418861101056
atp3229
Rp3230
sg12
I5
sg13
g14
(g15
tp3231
Rp3232
Vhttp://viid.me/qlY2sV
p3233
I1
sVhttp://viid.me/qlY2r3
p3234
I10
sVhttp://viid.me/qlY2s2
p3235
I1
sVhttp://viid.me/qlY2fB
p3236
I2
sVhttp://viid.me/qlY2fF
p3237
I1
sVhttp://viid.me/qlY2sK
p3238
I1
sVhttp://viid.me/qlY2tU
p3239
I1
sVhttp://viid.me/qlY2sb
p3240
I4
ssg40
Vsasse im a constitutional warrior before
p3241
sg42
I132
sg43
I9
sg44
I2
sa(dp3242
g2
(dp3243
g4
I0
sg5
I21
ssg6
I21
sg7
g8
((lp3244
I815928899058147328
aI815923752919777281
aI828082540615458816
aI827215096791363585
aI782718474695090180
aI788353148792496128
aI815924866637500417
aI827207230890049536
aI826984595384053760
aI815925915100258304
aI827910559760838657
aI828957353928249344
aI788133591242928128
aI701830446334738433
aI828093209834291201
aI827183165831798784
aI827200680628719617
aI815927754482970624
aI827177353344229377
aI828089584785432577
aI789266125485998080
atp3245
Rp3246
sg12
I5
sg13
g14
(g15
tp3247
Rp3248
Vhttp://viid.me/qlY2Dz
p3249
I1
sVhttp://viid.me/qlY2F1
p3250
I1
sVhttp://viid.me/qlY2DR
p3251
I1
sVhttp://viid.me/qlY2AD
p3252
I5
sVhttp://viid.me/qlY2Dn
p3253
I1
sVhttp://viid.me/qlUyCq
p3254
I1
sVhttp://viid.me/qlUoQh
p3255
I10
sVhttp://viid.me/qlY2Dg
p3256
I1
ssg40
Vknicks great charles oakley arrested after runin at madison square garden
p3257
sg42
I133
sg43
I9
sg44
I2
sa(dp3258
g2
(dp3259
g4
I1
sg5
I20
ssg6
I21
sg7
g8
((lp3260
I795596174589829120
aI778051538132594688
aI791086606597951488
aI815924866637500417
aI815923752919777281
aI796025831919386624
aI727564171156570113
aI786915319008854016
aI789113916102180864
aI789266125485998080
aI828957353928249344
aI821375422583685120
aI815928899058147328
aI823431491845836800
aI819663263998869507
aI827241553596973057
aI764662496179421185
aI784825705099956224
aI815925915100258304
aI815927754482970624
aI791823307922374656
atp3261
Rp3262
sg12
I5
sg13
g14
(g15
tp3263
Rp3264
Vhttp://viid.me/qlYwAA
p3265
I1
sVhttp://viid.me/qlYwdF
p3266
I5
sVhttp://viid.me/qlYwEC
p3267
I1
sVhttp://viid.me/qlYwDC
p3268
I1
sVhttp://viid.me/qlYwHH
p3269
I1
sVhttp://viid.me/qlT2LP
p3270
I1
sVhttp://viid.me/qlYwFN
p3271
I1
sVhttp://viid.me/qlT2XQ
p3272
I2
sVhttp://viid.me/qlYwHu
p3273
I1
sVhttp://viid.me/qlT2VW
p3274
I4
sVhttp://viid.me/qlT2Z2
p3275
I1
sVhttp://viid.me/qlT2DC
p3276
I1
sVhttp://viid.me/qlT2Cp
p3277
I1
ssg40
Vmagistrate sheriff under indictment cant get guns back
p3278
sg42
I134
sg43
I9
sg44
I2
sa(dp3279
g2
(dp3280
g4
I21
sg5
I0
ssg6
I21
sg7
g8
((lp3281
I746818726457122816
aI825058224592285697
aI761583168721858560
aI295383787
aI2998103364
aI805214794877911041
aI775097486260244480
aI709311533558341632
aI809060201584177152
aI816306324375945218
aI180257267
aI815633652814061568
aI817014433864183809
aI103665618
aI730166787552235520
aI4798355412
aI3449917814
aI795522534754107392
aI3300330842
aI55814623
aI723701212466413568
atp3282
Rp3283
sg12
I5
sg13
g14
(g15
tp3284
Rp3285
Vhttp://viid.me/qkawhJ
p3286
I21
ssg40
V\u27a1     \u2b05 \u25b6\ufe0f\u25b6\ufe0f woohoo 80k followers thanks fellas   \u2666\ufe0f \u2666\ufe0f
p3287
sg42
I135
sg43
I9
sg44
I2
sa(dp3288
g2
(dp3289
g4
I0
sg5
I21
ssg6
I21
sg7
g8
((lp3290
I809514657237057536
aI785634369444515840
aI787828400744501250
aI792829665656377344
aI786293784359219200
aI807706268874002433
aI779461418861101056
aI794229280326746112
aI809168093708697600
aI787129103128358912
aI800039817652400128
aI785556435321184256
aI779841027926528000
aI785195157712990208
aI772922637953667072
aI792842880008192000
atp3291
Rp3292
sg12
I5
sg13
g14
(g15
tp3293
Rp3294
Vhttp://viid.me/qlUdBl
p3295
I1
sVhttp://viid.me/qlUdZ5
p3296
I1
sVhttp://viid.me/qlUdQt
p3297
I10
sVhttp://viid.me/qlUdV4
p3298
I1
sVhttp://viid.me/qlUdXp
p3299
I1
sVhttp://viid.me/qlUdCU
p3300
I2
sVhttp://viid.me/qlUdET
p3301
I1
sVhttp://viid.me/qlUdZj
p3302
I4
ssg40
Vblumenthal attacks on the judiciary are
p3303
sg42
I136
sg43
I9
sg44
I2
sa(dp3304
g2
(dp3305
g4
I0
sg5
I21
ssg6
I21
sg7
g8
((lp3306
I809514657237057536
aI785634369444515840
aI787828400744501250
aI792829665656377344
aI809168093708697600
aI807706268874002433
aI792842880008192000
aI794229280326746112
aI786293784359219200
aI772922637953667072
aI800039817652400128
aI785195157712990208
aI785556435321184256
aI787129103128358912
aI779841027926528000
aI779461418861101056
atp3307
Rp3308
sg12
I5
sg13
g14
(g15
tp3309
Rp3310
Vhttp://viid.me/qlY2jV
p3311
I4
sVhttp://viid.me/qlY2ku
p3312
I1
sVhttp://viid.me/qlY2zd
p3313
I1
sVhttp://viid.me/qlY2ub
p3314
I1
sVhttp://viid.me/qlY2zW
p3315
I2
sVhttp://viid.me/qlY2x4
p3316
I1
sVhttp://viid.me/qlY2yZ
p3317
I10
sVhttp://viid.me/qlY2jK
p3318
I1
ssg40
Von civil rights republicans pick the
p3319
sg42
I137
sg43
I9
sg44
I2
sa(dp3320
g2
(dp3321
g4
I1
sg5
I20
ssg6
I21
sg7
g8
((lp3322
I796025831919386624
aI786915319008854016
aI784825705099956224
aI764662496179421185
aI815923752919777281
aI778051538132594688
aI727564171156570113
aI789113916102180864
aI789266125485998080
aI821375422583685120
aI795596174589829120
aI1969399538
aI828957353928249344
aI819663263998869507
aI827241553596973057
aI815928899058147328
aI815924866637500417
aI815925915100258304
aI815927754482970624
aI791086606597951488
aI791823307922374656
atp3323
Rp3324
sg12
I5
sg13
g14
(g15
tp3325
Rp3326
Vhttp://viid.me/qlTqkQ
p3327
I1
sVhttp://viid.me/qlTarz
p3328
I1
sVhttp://viid.me/qlTqg1
p3329
I1
sVhttp://viid.me/qlToPK
p3330
I5
sVhttp://viid.me/qlToAs
p3331
I1
sVhttp://viid.me/qlTqsf
p3332
I4
sVhttp://viid.me/qlTawE
p3333
I1
sVhttp://viid.me/qlToxD
p3334
I1
sVhttp://viid.me/qlTarn
p3335
I1
sVhttp://viid.me/qlTawl
p3336
I1
sVhttp://viid.me/qlTqIg
p3337
I1
sVhttp://viid.me/qlTqfO
p3338
I1
sVhttp://viid.me/qlTqIB
p3339
I2
ssg40
Vjefferson county school board approves safe haven proposal
p3340
sg42
I138
sg43
I9
sg44
I2
sa(dp3341
g2
(dp3342
g4
I0
sg5
I21
ssg6
I21
sg7
g8
((lp3343
I785634369444515840
aI786293784359219200
aI787828400744501250
aI772922637953667072
aI794229280326746112
aI807706268874002433
aI779461418861101056
aI809514657237057536
aI787129103128358912
aI800039817652400128
aI785556435321184256
aI809168093708697600
aI785195157712990208
aI779841027926528000
aI792829665656377344
aI792842880008192000
atp3344
Rp3345
sg12
I5
sg13
g14
(g15
tp3346
Rp3347
Vhttp://viid.me/qlYWN3
p3348
I1
sVhttp://viid.me/qlYEop
p3349
I1
sVhttp://viid.me/qlYWN0
p3350
I2
sVhttp://viid.me/qlYWVb
p3351
I10
sVhttp://viid.me/qlYEon
p3352
I1
sVhttp://viid.me/qlYWH6
p3353
I1
sVhttp://viid.me/qlYWMe
p3354
I4
sVhttp://viid.me/qlYWBH
p3355
I1
ssg40
Vmika warren could be a nightmare for gop
p3356
sg42
I139
sg43
I9
sg44
I2
sa(dp3357
g2
(dp3358
g4
I6
sg5
I15
ssg6
I21
sg7
g8
((lp3359
I800944784928108544
aI785831730913484800
aI821842280172650498
aI802299026242736128
aI796181322872094721
aI789856799625191429
aI791086606597951488
aI764662496179421185
aI318694851
aI16132256
aI788910707869945856
aI526346146
aI703389199139938304
aI797994514837291008
aI770355908056588288
aI747144457741606912
aI3458047347
aI784825705099956224
aI796999539085504512
aI796941226578743296
aI796025831919386624
atp3360
Rp3361
sg12
I5
sg13
g14
(g15
tp3362
Rp3363
Vhttp://viid.me/qlEcAy
p3364
I7
sVhttp://viid.me/qlEcOp
p3365
I1
sVhttp://viid.me/qlEE4z
p3366
I3
sVhttp://viid.me/qlEE5e
p3367
I1
sVhttp://viid.me/qlEcvo
p3368
I1
sVhttp://viid.me/qlEE4F
p3369
I1
sVhttp://viid.me/qlEcAT
p3370
I1
sVhttp://viid.me/qlEcIj
p3371
I1
sVhttp://viid.me/qlEvv0
p3372
I1
sVhttp://viid.me/qlEc33
p3373
I2
sVhttp://viid.me/qlEcmv
p3374
I1
sVhttp://viid.me/qlEc3L
p3375
I1
ssg40
Vconservative columnist compiles the media\u2019s fake news from the week and wow\u2026
p3376
sg42
I140
sg43
I9
sg44
I2
sa(dp3377
g2
(dp3378
g4
I0
sg5
I21
ssg6
I21
sg7
g8
((lp3379
I802061220186587136
aI826984595384053760
aI827215096791363585
aI827200680628719617
aI822121521246310406
aI828093209834291201
aI4215256394
aI705061292
aI827910559760838657
aI4306732883
aI828082540615458816
aI827183165831798784
aI4379138233
aI3003471994
aI828838674884222976
aI827177353344229377
aI828089584785432577
aI827207230890049536
atp3380
Rp3381
sg12
I5
sg13
g14
(g15
tp3382
Rp3383
Vhttp://viid.me/qlTALE
p3384
I1
sVhttp://viid.me/qlTALf
p3385
I10
sVhttp://ift.tt/eA8V8J
p3386
I1
sVhttp://viid.me/qlTAwp
p3387
I3
sVhttp://viid.me/qlTHOK
p3388
I1
sVhttp://viid.me/qlT5L7
p3389
I1
sVhttp://viid.me/qlTAFK
p3390
I3
sVhttp://viid.me/qq9cqd
p3391
I1
sVhttp://viid.me/qlTAL2
p3392
I1
ssg40
Vin french bellwether city scandal deepens election uncertainty
p3393
sg42
I141
sg43
I9
sg44
I2
sa(dp3394
g2
(dp3395
g4
I17
sg5
I4
ssg6
I21
sg7
g8
((lp3396
I789192504465772544
aI826022323803275264
aI785008235405152256
aI824046990484979713
aI810090397326331904
aI807440887638695936
aI2846231209
aI2427287499
aI788479636199972864
aI803598860278865920
aI815859840853475329
aI729635004884520960
aI726209067224440832
aI805183090750619648
atp3397
Rp3398
sg12
I5
sg13
g14
(g15
tp3399
Rp3400
Vhttp://youpornxtube.xyz
p3401
I21
sVhttp://viid.me/qreLqe
p3402
I21
ssg40
V\u27a1     \u2b05 visit our porn site for full videos     porn pornvide\u2026
p3403
sg42
I142
sg43
I9
sg44
I2
sa(dp3404
g2
(dp3405
g4
I0
sg5
I21
ssg6
I21
sg7
g8
((lp3406
I828082540615458816
aI827200680628719617
aI755151444605534210
aI827177353344229377
aI826984595384053760
aI827215096791363585
aI827910559760838657
aI828093209834291201
aI827183165831798784
aI828089584785432577
aI827207230890049536
atp3407
Rp3408
sg12
I5
sg13
g14
(g15
tp3409
Rp3410
Vhttp://viid.me/qlYoUc
p3411
I1
sVhttp://viid.me/qlTV8x
p3412
I20
ssg40
Vtory mps join criticism of amber rudd over child refugees
p3413
sg42
I143
sg43
I9
sg44
I2
sa(dp3414
g2
(dp3415
g4
I2
sg5
I19
ssg6
I21
sg7
g8
((lp3416
I826984595384053760
aI827200680628719617
aI827910559760838657
aI828093209834291201
aI828082540615458816
aI828089584785432577
aI820461975478161408
aI806702031171977216
aI786375441766461440
aI829665914073276417
aI821048044238045184
aI818973474341404672
aI827215096791363585
aI827193574785765376
aI827183165831798784
aI815313447667765248
aI765273279389134848
aI790895491294826496
aI827177353344229377
aI801168552
aI827207230890049536
atp3417
Rp3418
sg12
I5
sg13
g14
(g15
tp3419
Rp3420
Vhttp://viid.me/qlYZMN
p3421
I1
sVhttp://viid.me/qlYZVY
p3422
I2
sVhttp://viid.me/qlYZBB
p3423
I1
sVhttp://viid.me/qlYZHa
p3424
I1
sVhttp://viid.me/qlYKbz
p3425
I1
sVhttp://viid.me/qlYR3r
p3426
I10
sVhttp://viid.me/qlYZ3g
p3427
I2
sVhttp://viid.me/qlYKEB
p3428
I1
sVhttp://viid.me/qlYZ3O
p3429
I1
sVhttp://viid.me/qlYKbL
p3430
I1
ssg40
Vplanned parenthood offered pizza parties to branches that killed certain number of babies
p3431
sg42
I144
sg43
I9
sg44
I2
sa(dp3432
g2
(dp3433
g4
I1
sg5
I20
ssg6
I21
sg7
g8
((lp3434
I795596174589829120
aI796025831919386624
aI791086606597951488
aI815924866637500417
aI815923752919777281
aI786915319008854016
aI727564171156570113
aI789113916102180864
aI789266125485998080
aI815927754482970624
aI1719331698
aI828957353928249344
aI821375422583685120
aI815928899058147328
aI827241553596973057
aI819663263998869507
aI764662496179421185
aI784825705099956224
aI815925915100258304
aI778051538132594688
aI791823307922374656
atp3435
Rp3436
sg12
I5
sg13
g14
(g15
tp3437
Rp3438
Vhttp://viid.me/qlRE2T
p3439
I1
sVhttp://viid.me/qlREDa
p3440
I1
sVhttp://viid.me/qlRn08
p3441
I1
sVhttp://viid.me/qlRn0t
p3442
I1
sVhttp://viid.me/qlRb9H
p3443
I5
sVhttp://viid.me/qlRn0n
p3444
I1
sVhttp://viid.me/qlRE1v
p3445
I1
sVhttp://viid.me/qlREFV
p3446
I1
sVhttp://viid.me/qlRnqi
p3447
I1
sVhttp://viid.me/qlRb8b
p3448
I1
sVhttp://viid.me/qlRE11
p3449
I1
sVhttp://viid.me/qlREOI
p3450
I5
sVhttp://viid.me/qlREA8
p3451
I1
ssg40
Vmayor opposes making fairbanks a sanctuary city
p3452
sg42
I145
sg43
I9
sg44
I2
sa(dp3453
g2
(dp3454
g4
I21
sg5
I0
ssg6
I21
sg7
g8
((lp3455
I745973480303144960
aI778936125415120897
aI3020455940
aI160570053
aI3852497896
aI476995113
aI26801386
aI3296734251
aI2915879950
aI33930479
aI3047424912
aI3192848121
aI3093898739
aI80310070
aI3845857817
aI921994520
aI4182066809
aI80397412
aI68732027
aI232699516
aI3797194522
atp3456
Rp3457
sg12
I5
sg13
g14
(g15
tp3458
Rp3459
Vhttp://viid.me/qlW047
p3460
I21
ssg40
Vbombshell  obama gave refugees \u201cloans\u201d of up to 15k did not track defaults   \u27a5 rt \U0001f501 \U0001f64f
p3461
sg42
I146
sg43
I9
sg44
I2
sa(dp3462
g2
(dp3463
g4
I1
sg5
I20
ssg6
I21
sg7
g8
((lp3464
I796025831919386624
aI786915319008854016
aI784825705099956224
aI764662496179421185
aI815923752919777281
aI778051538132594688
aI727564171156570113
aI789113916102180864
aI815924866637500417
aI789266125485998080
aI821375422583685120
aI795596174589829120
aI828957353928249344
aI819663263998869507
aI827241553596973057
aI815928899058147328
aI600447897
aI815925915100258304
aI815927754482970624
aI791086606597951488
aI791823307922374656
atp3465
Rp3466
sg12
I5
sg13
g14
(g15
tp3467
Rp3468
Vhttps://twitter.com/i/web/status/829650466136920064
p3469
I1
sVhttps://twitter.com/i/web/status/829650426865651712
p3470
I1
sVhttps://twitter.com/i/web/status/829647506795433986
p3471
I1
sVhttps://twitter.com/i/web/status/829647520519249924
p3472
I1
sVhttps://twitter.com/i/web/status/829650472239722496
p3473
I1
sVhttps://twitter.com/i/web/status/829650848804270080
p3474
I1
sVhttps://twitter.com/i/web/status/829650827702775808
p3475
I1
sVhttps://twitter.com/i/web/status/829647626823823362
p3476
I1
sVhttps://twitter.com/i/web/status/829647529646055424
p3477
I1
sVhttps://twitter.com/i/web/status/829647540408590336
p3478
I1
sVhttps://twitter.com/i/web/status/829650471333752832
p3479
I1
sVhttps://twitter.com/i/web/status/829650848879775744
p3480
I1
sVhttps://twitter.com/i/web/status/829650472554229760
p3481
I1
sVhttps://twitter.com/i/web/status/829650471321112577
p3482
I1
sVhttps://twitter.com/i/web/status/829650428346273792
p3483
I1
sVhttps://twitter.com/i/web/status/829650474248790016
p3484
I1
sVhttps://twitter.com/i/web/status/829650405038526464
p3485
I1
sVhttps://twitter.com/i/web/status/829650828101242881
p3486
I1
sVhttps://twitter.com/i/web/status/829647619207024640
p3487
I2
sVhttps://twitter.com/i/web/status/829650388307501056
p3488
I1
ssg40
Vneil gorsuch trump supreme court pick says presidents tweets attacking judges are demoralizing\u2026
p3489
sg42
I147
sg43
I9
sg44
I2
sa.