(lp0
(dp1
S'status'
p2
(dp3
S'retweet'
p4
I172
sS'original'
p5
I143
ssS'count'
p6
I315
sS'user_ids'
p7
c__builtin__
set
p8
((lp9
I803633839264460800
aI809814675546378241
aI810480003666296834
aI784005256938033155
aI801424012811366404
aI804569908277190661
aI717257147998978048
aI731905637022613505
aI816982721692045315
aI814866686721617920
aI825837674086936580
aI781535841621569541
aI823959952427454464
aI814692937439346689
aI4190186997
aI826049766375055360
aI803254313736773632
aI2196617912
aI823922299359363073
aI750317561238196224
aI757401082070900736
aI829594139562037248
aI821790533110665216
aI2572074103
aI757887081121255424
aI822164998512328704
aI2824475503
aI817774037761986560
aI826771176764690433
aI3977041573
aI785131061013520384
aI712846651870695424
aI801358335685656576
aI3053290668
aI4835936439
aI1656888504
aI743510396254949377
aI829485969380241408
aI3994988753
aI705468543568109568
aI809052637907849219
aI1344745201
aI823157571745935360
aI776833052936986624
aI753977563043815424
aI814128460964708352
aI3333223713
aI755569550809243649
aI797999082568646656
aI1032590124
aI3347569966
aI2949653301
aI829024677783826432
aI3091046206
aI758418705122484224
aI827502006638100480
aI829344741431111681
aI2441797960
aI316407627
aI788038648809811968
aI794706454246780928
aI810553740239441920
aI807994776049987585
aI817984964297969664
aI816789240201691136
aI808043949457895424
aI717122362311909377
aI438892926
aI821369972333178880
aI1660152714
aI827564109566722048
aI788279198
aI825642486836101120
aI804364311342837761
aI712629980463775744
aI702143658598879232
aI4898747831
aI770638645690793984
aI557580746
aI731686524417392640
aI1891280348
aI729354793035169792
aI805462177100525569
aI2355658218
aI2565737144
aI715687943390818305
aI796677112337985536
aI778738540825894912
aI804284546166521856
atp10
Rp11
sS'hour'
p12
I17
sS'url'
p13
ccollections
defaultdict
p14
(c__builtin__
int
p15
tp16
Rp17
Vhttp://ift.tt/2ixbY2a
p18
I1
sVhttp://ift.tt/2if38oW
p19
I1
sVhttp://ift.tt/2jyG75j
p20
I3
sVhttp://ift.tt/2iX36nD
p21
I1
sVhttp://ift.tt/2jIz0qS
p22
I1
sVhttp://ift.tt/2j5OZ10
p23
I1
sVhttp://ift.tt/2jtBQwT
p24
I1
sVhttp://ift.tt/2jHsQmS
p25
I3
sVhttp://ift.tt/2jxBvMM
p26
I2
sVhttp://ift.tt/2jIj3Og
p27
I1
sVhttp://ift.tt/2izBWWN
p28
I2
sVhttp://ift.tt/2j4TIQz
p29
I2
sVhttp://ift.tt/2jmcCj1
p30
I1
sVhttp://ift.tt/2jI2QuO
p31
I4
sVhttp://ift.tt/2jwlZQR
p32
I1
sVhttp://ift.tt/2jajKPO
p33
I1
sVhttp://ift.tt/2jBXT7U
p34
I1
sVhttp://ift.tt/2jXwx97
p35
I1
sVhttp://ift.tt/2jPvyrs
p36
I1
sVhttp://ift.tt/2ienwtp
p37
I1
sVhttp://ift.tt/2jhZmg6
p38
I1
sVhttp://ift.tt/2iQ4EOs
p39
I1
sVhttp://ift.tt/2ie9yrC
p40
I4
sVhttp://ift.tt/2iFYkMI
p41
I1
sVhttp://ift.tt/2ijH8hu
p42
I2
sVhttp://ift.tt/2jMyJjT
p43
I1
sVhttp://ift.tt/2iZeKQj
p44
I1
sVhttp://ift.tt/2jdrYd1
p45
I1
sVhttp://ift.tt/2j8wXeS
p46
I1
sVhttp://ift.tt/2jyGgoZ
p47
I1
sVhttp://ift.tt/2jePTGm
p48
I2
sVhttp://ift.tt/2k2xNeA
p49
I1
sVhttp://ift.tt/2jXDPK1
p50
I1
sVhttp://ift.tt/2iFj3xQ
p51
I2
sVhttp://ift.tt/2kaIrvu
p52
I1
sVhttp://ift.tt/2jvDuRo
p53
I5
sVhttp://ift.tt/2iZ7ftp
p54
I1
sVhttp://ift.tt/2j0WcQR
p55
I2
sVhttp://ift.tt/2jo5ZzA
p56
I1
sVhttp://ift.tt/2jXfW4n
p57
I1
sVhttp://ift.tt/2jizsJ5
p58
I2
sVhttp://ift.tt/2k591KO
p59
I1
sVhttp://ift.tt/2jJ6jtv
p60
I4
sVhttp://ift.tt/2jfYpVD
p61
I3
sVhttp://ift.tt/2jaENm5
p62
I3
sVhttp://ift.tt/2j38mGp
p63
I2
sVhttp://ift.tt/2jhfWN9
p64
I1
sVhttp://ift.tt/2iykKRC
p65
I1
sVhttp://ift.tt/2iviGVs
p66
I3
sVhttp://ift.tt/2j7sHcG
p67
I1
sVhttp://ift.tt/2jzSr1n
p68
I2
sVhttp://ift.tt/2jjUBFw
p69
I4
sVhttp://ift.tt/2jpK08A
p70
I1
sVhttp://ift.tt/2iGMbc5
p71
I1
sVhttp://ift.tt/2iZxAXD
p72
I1
sVhttp://ift.tt/2k2BZL8
p73
I2
sVhttp://ift.tt/2j6OS2y
p74
I1
sVhttp://ift.tt/2jl5PsR
p75
I3
sVhttp://ift.tt/2j43ClD
p76
I5
sVhttp://ift.tt/2j26hfS
p77
I1
sVhttp://ift.tt/2iYvlnX
p78
I2
sVhttp://ift.tt/2i7ftjK
p79
I1
sVhttp://ift.tt/2if50CQ
p80
I2
sVhttp://ift.tt/2jlgXDR
p81
I1
sVhttp://ift.tt/2idBHii
p82
I2
sVhttp://ift.tt/2iYMT3f
p83
I1
sVhttp://ift.tt/2jusdQt
p84
I1
sVhttp://ift.tt/2iju5Ic
p85
I1
sVhttp://ift.tt/2iTyLYF
p86
I2
sVhttp://ift.tt/2jLSDKp
p87
I5
sVhttp://ift.tt/2iEKR5e
p88
I1
sVhttp://ift.tt/2k25IUK
p89
I1
sVhttp://ift.tt/2jD6o2l
p90
I2
sVhttp://ift.tt/2iKRaU7
p91
I1
sVhttp://ift.tt/2jjLOAG
p92
I1
sVhttp://ift.tt/2jcQLOt
p93
I1
sVhttp://ift.tt/2jbGwXR
p94
I1
sVhttp://ift.tt/2inryBn
p95
I1
sVhttp://ift.tt/2iR28uw
p96
I1
sVhttp://ift.tt/2ivqzdx
p97
I1
sVhttp://ift.tt/2jEbV8U
p98
I1
sVhttp://ift.tt/2jNWgmX
p99
I1
sVhttp://ift.tt/2k8wlYa
p100
I1
sVhttp://ift.tt/2iGYhhc
p101
I1
sVhttp://ift.tt/2jNEXzR
p102
I1
sVhttp://ift.tt/2iQn8BL
p103
I1
sVhttp://ift.tt/2jCVj0i
p104
I1
sVhttp://ift.tt/2jn0uOK
p105
I2
sVhttp://ift.tt/2j5ItaX
p106
I1
sVhttp://ift.tt/2kdIZRD
p107
I3
sVhttp://ift.tt/2jzDgFr
p108
I3
sVhttp://ift.tt/2iQIonR
p109
I1
sVhttp://ift.tt/2jr4oFO
p110
I2
sVhttp://ift.tt/2jgBlpT
p111
I1
sVhttp://ift.tt/2iy0knz
p112
I1
sVhttp://ift.tt/2j4GWD0
p113
I4
sVhttp://ift.tt/2iPHDQw
p114
I2
sVhttp://ift.tt/2jlleYj
p115
I1
sVhttp://ift.tt/2iGF2Zm
p116
I1
sVhttp://ift.tt/2iHfeqS
p117
I2
sVhttp://ift.tt/2jRSBlp
p118
I1
sVhttp://ift.tt/2iyk4HO
p119
I1
sVhttp://ift.tt/2ioogfC
p120
I1
sVhttp://ift.tt/2iNBHHO
p121
I1
sVhttp://ift.tt/2kcHwe5
p122
I1
sVhttp://ift.tt/2jvFvxa
p123
I2
sVhttp://ift.tt/2iYxTSu
p124
I1
sVhttp://ift.tt/2kgwWqx
p125
I4
sVhttp://ift.tt/2jYqbpZ
p126
I3
sVhttp://ift.tt/2jxOEEI
p127
I3
sVhttp://ift.tt/2j3e917
p128
I1
sVhttp://ift.tt/2iWJVfD
p129
I3
sVhttp://ift.tt/2jJEf9r
p130
I1
sVhttp://ift.tt/2jpJmt3
p131
I3
sVhttp://ift.tt/2jlADHp
p132
I4
sVhttp://ift.tt/2jaY9Kk
p133
I1
sVhttp://ift.tt/2ieG21z
p134
I1
sVhttp://ift.tt/2iAqWo0
p135
I1
sVhttp://ift.tt/2iTIZIC
p136
I1
sVhttp://ift.tt/2jhtTOb
p137
I2
sVhttp://ift.tt/2jL5fTa
p138
I1
sVhttp://ift.tt/2j89OGr
p139
I2
sVhttp://ift.tt/2jcgBPU
p140
I3
sVhttp://ift.tt/2j9KdjX
p141
I3
sVhttp://ift.tt/2iKunsn
p142
I1
sVhttp://ift.tt/2iwH2OR
p143
I1
sVhttp://ift.tt/2jBKB7j
p144
I2
sVhttp://ift.tt/2jxaRUk
p145
I1
sVhttp://ift.tt/2ihwCWe
p146
I2
sVhttp://ift.tt/2iYUkUv
p147
I3
sVhttp://ift.tt/2jZWdRE
p148
I1
sVhttp://ift.tt/2kqPXTP
p149
I3
sVhttp://ift.tt/2ib3dd5
p150
I1
sVhttp://ift.tt/2jBBVxC
p151
I1
sVhttp://ift.tt/2jvlbbN
p152
I1
sVhttp://ift.tt/2jycDEK
p153
I2
sVhttp://ift.tt/2iVwhps
p154
I2
sVhttp://ift.tt/2iHPw5W
p155
I5
sVhttp://ift.tt/2jMjQh1
p156
I3
sVhttp://ift.tt/2iAWaea
p157
I1
sVhttp://ift.tt/2jlAtQE
p158
I5
sVhttp://ift.tt/2kc51oG
p159
I3
sVhttp://ift.tt/2jz69pi
p160
I1
sVhttp://ift.tt/2iZsaMC
p161
I1
sVhttp://ift.tt/2ju050N
p162
I1
sVhttp://ift.tt/2i9YGYq
p163
I1
sVhttp://ift.tt/2ioD4YD
p164
I2
sVhttp://ift.tt/2j85zxg
p165
I1
sVhttp://ift.tt/2jLCUyL
p166
I2
sVhttp://ift.tt/2iibWiP
p167
I1
sVhttp://ift.tt/2j259oI
p168
I1
sVhttp://ift.tt/2jYuAZm
p169
I2
sVhttp://ift.tt/2h4v662
p170
I1
sVhttp://ift.tt/2jT4Q18
p171
I1
sVhttp://ift.tt/2jr0cqj
p172
I4
sVhttp://ift.tt/2kiEsxO
p173
I1
sVhttp://ift.tt/2iR8n1v
p174
I2
sVhttp://ift.tt/2iPVIcR
p175
I1
sVhttp://ift.tt/2jKL7nN
p176
I1
sVhttp://ift.tt/2iZ2QV9
p177
I8
sVhttp://ift.tt/2iMl3Z6
p178
I1
sVhttp://ift.tt/2ixb3Pu
p179
I2
sVhttp://ift.tt/2iAobpo
p180
I3
sVhttp://ift.tt/2idkNSz
p181
I2
sVhttp://ift.tt/2jngn9e
p182
I2
sVhttp://ift.tt/2kdBUod
p183
I1
sVhttp://ift.tt/2iwjPj6
p184
I2
sVhttp://ift.tt/2ibIiKg
p185
I2
sVhttp://ift.tt/2k6ncM8
p186
I2
sVhttp://ift.tt/2jeOx0A
p187
I2
sVhttp://ift.tt/2jKS2tJ
p188
I5
sVhttp://ift.tt/2i6ZHW4
p189
I1
sVhttp://ift.tt/2irGjOZ
p190
I1
sVhttp://ift.tt/2iNptuL
p191
I1
sVhttp://ift.tt/2jdRFHk
p192
I1
sVhttp://ift.tt/2jLXOer
p193
I1
sVhttp://ift.tt/2j4MSdA
p194
I2
sVhttp://ift.tt/2k2Ogzh
p195
I2
sVhttp://ift.tt/2igSpxs
p196
I1
sVhttp://ift.tt/2iKEf9R
p197
I1
sVhttp://ift.tt/2iEILTa
p198
I2
ssS'text'
p199
Vview the full video clip here
p200
sS'id'
p201
I1
sS'day'
p202
I9
sS'month'
p203
I2
sa(dp204
g2
(dp205
g4
I167
sg5
I55
ssg6
I222
sg7
g8
((lp206
I825723797219209216
aI748602701500473345
aI828926578872627202
aI950674308
aI804569908277190661
aI819947055972028416
aI810399082422398977
aI4264861834
aI828989739411845122
aI829020337660571649
aI3293951503
aI804364311342837761
aI816585564656988160
aI3272159767
aI1252275992
aI714422641445175300
aI847356698
aI1537939867
aI795587622664081408
aI828664410331770885
aI766280670796713984
aI810510676766507009
aI829024481851084806
aI770214548120932352
aI807357579911372800
aI822675797605371904
aI827154292196913152
aI373197104
aI809150798575697921
aI893650099
aI701039336926523394
aI4835936439
aI2565737144
aI757589440239923200
aI826049766375055360
aI793484482116485120
aI785448295606935552
aI824566754542116866
aI828265596911390720
aI825336626767392768
aI825338660392312832
aI713261491437305856
aI790283294587793408
aI1305674190
aI829326955325558786
aI797633008572329984
aI826352431005069312
aI705468543568109568
aI2985081688
aI4729386586
aI825803467830784000
aI810759313908174848
aI795621124189069312
aI801473825871433728
aI756396163620831232
aI829594139562037248
aI2824475503
aI822346479406817280
aI755440674036707329
aI795919523354464256
aI819115931393785857
aI746758132387373056
aI3179672567
aI801769277955207168
aI773687855713546240
aI799620932922998784
atp207
Rp208
sg12
I17
sg13
g14
(g15
tp209
Rp210
Vhttp://ift.tt/2iF0UA9
p211
I4
sVhttp://ift.tt/2jma9Gz
p212
I1
sVhttp://ift.tt/2j8RmOK
p213
I3
sVhttp://ift.tt/2jpUqFk
p214
I1
sVhttp://ift.tt/2joLbVO
p215
I1
sVhttp://ift.tt/2j3v83c
p216
I1
sVhttp://ift.tt/2iVSya2
p217
I1
sVhttp://ift.tt/2iY0DLQ
p218
I5
sVhttp://ift.tt/2jIYuRi
p219
I1
sVhttp://ift.tt/2jDrBGm
p220
I1
sVhttp://ift.tt/2k36bBQ
p221
I4
sVhttp://ift.tt/2iJnYg9
p222
I5
sVhttp://ift.tt/2ibz40D
p223
I2
sVhttp://ift.tt/2iHfeMx
p224
I1
sVhttp://ift.tt/2j7bEdZ
p225
I1
sVhttp://ift.tt/2j00BiA
p226
I1
sVhttp://ift.tt/2j1Fpuk
p227
I1
sVhttp://ift.tt/2iX3iDg
p228
I1
sVhttp://ift.tt/2jF95jN
p229
I1
sVhttp://ift.tt/2khmnnb
p230
I3
sVhttp://ift.tt/2jJ5sce
p231
I1
sVhttp://ift.tt/2jA80pv
p232
I1
sVhttp://ift.tt/2iX3Qay
p233
I2
sVhttp://ift.tt/2jbRjRV
p234
I1
sVhttp://ift.tt/2jXRIr1
p235
I1
sVhttp://ift.tt/2jjR9uK
p236
I3
sVhttp://ift.tt/2jvH12q
p237
I1
sVhttp://ift.tt/2iH1r4w
p238
I1
sVhttp://ift.tt/2iMXkUw
p239
I3
sVhttp://ift.tt/2jKjNFj
p240
I2
sVhttp://ift.tt/2k6y4go
p241
I1
sVhttp://ift.tt/2jA5AZ3
p242
I2
sVhttp://ift.tt/2jyulrN
p243
I1
sVhttp://ift.tt/2jvjzSK
p244
I2
sVhttp://ift.tt/2iQS1Ti
p245
I1
sVhttp://ift.tt/2iV8upr
p246
I1
sVhttp://ift.tt/2iAiuoX
p247
I3
sVhttp://ift.tt/2k7UDhU
p248
I3
sVhttp://ift.tt/2jNxUuq
p249
I7
sVhttp://ift.tt/2jqinx8
p250
I2
sVhttp://ift.tt/2j80hiT
p251
I2
sVhttp://ift.tt/2iC1eje
p252
I1
sVhttp://ift.tt/2jcCIWu
p253
I1
sVhttp://ift.tt/2j6yLEG
p254
I1
sVhttp://ift.tt/2izZRWi
p255
I2
sVhttp://ift.tt/2i8o4m6
p256
I1
sVhttp://ift.tt/2ipUDuw
p257
I1
sVhttp://ift.tt/2jIJ9Ri
p258
I1
sVhttp://ift.tt/2ikgaot
p259
I1
sVhttp://ift.tt/2iDL1d8
p260
I1
sVhttp://ift.tt/2jrF1UU
p261
I1
sVhttp://ift.tt/2jr7OKJ
p262
I1
sVhttp://ift.tt/2jJLlv6
p263
I4
sVhttp://ift.tt/2jzPLV2
p264
I3
sVhttp://ift.tt/2jGhliY
p265
I2
sVhttp://ift.tt/2iBDNq9
p266
I1
sVhttp://ift.tt/2k21eKw
p267
I1
sVhttp://ift.tt/2j7tgGV
p268
I1
sVhttp://ift.tt/2j1U4YX
p269
I5
sVhttp://ift.tt/2iVP43K
p270
I2
sVhttp://ift.tt/2k0ZzE8
p271
I2
sVhttp://ift.tt/2jCN3OQ
p272
I5
sVhttp://ift.tt/2jrqha0
p273
I1
sVhttp://ift.tt/2jzld5a
p274
I2
sVhttp://ift.tt/2jvGSJg
p275
I1
sVhttp://ift.tt/2jtj9Ml
p276
I1
sVhttp://ift.tt/2iBKHhq
p277
I3
sVhttp://ift.tt/2k30ub6
p278
I2
sVhttp://ift.tt/2jmf5dI
p279
I3
sVhttp://ift.tt/2jyiV4z
p280
I1
sVhttp://ift.tt/2iS1IB5
p281
I1
sVhttp://ift.tt/2jZcnec
p282
I6
sVhttp://ift.tt/2j4QxIB
p283
I2
sVhttp://ift.tt/2jJgIFx
p284
I3
sVhttp://ift.tt/2ieBonm
p285
I3
sVhttp://ift.tt/2jXvcy6
p286
I1
sVhttp://ift.tt/2jf1Bkt
p287
I3
sVhttp://ift.tt/2iMPgFI
p288
I2
sVhttp://ift.tt/2j7bsZa
p289
I2
sVhttp://ift.tt/2iDoocU
p290
I3
sVhttp://ift.tt/2i8jeFz
p291
I1
sVhttp://ift.tt/2izqj2f
p292
I5
sVhttp://ift.tt/2iS9fD8
p293
I2
sVhttp://ift.tt/2jx27K1
p294
I1
sVhttp://ift.tt/2jaXIN9
p295
I2
sVhttp://ift.tt/2kam21A
p296
I1
sVhttp://ift.tt/2jq5VxL
p297
I3
sVhttp://ift.tt/2jcsNCy
p298
I1
sVhttp://ift.tt/2jziKIN
p299
I1
sVhttp://ift.tt/2iU0LeS
p300
I3
sVhttp://ift.tt/2j2VQsP
p301
I2
sVhttp://ift.tt/2jOUjnz
p302
I1
sVhttp://ift.tt/2jwDhxB
p303
I2
sVhttp://ift.tt/2k5UZEq
p304
I2
sVhttp://ift.tt/2jXanD1
p305
I5
sVhttp://ift.tt/2jB3HOQ
p306
I1
sVhttp://ift.tt/2joMpk7
p307
I1
sVhttp://ift.tt/2iEpzZF
p308
I1
sVhttp://ift.tt/2jbAlCL
p309
I2
sVhttp://ift.tt/2ifMN6t
p310
I1
sVhttp://ift.tt/2jta1nk
p311
I1
sVhttp://ift.tt/2k8jxxZ
p312
I2
sVhttp://ift.tt/2jtVo3w
p313
I3
sVhttp://ift.tt/2iZHevc
p314
I1
sVhttp://ift.tt/2jYtpc6
p315
I1
sVhttp://ift.tt/2iYP84E
p316
I5
sVhttp://ift.tt/2jFcQp4
p317
I1
sVhttp://ift.tt/2jQbbdY
p318
I2
sVhttp://ift.tt/2k218FT
p319
I3
sVhttp://ift.tt/2jlfJsR
p320
I3
sVhttp://ift.tt/2jykyl5
p321
I1
sVhttp://ift.tt/2iltGto
p322
I3
ssg199
Vget the full video here \u2665\u2661\u2665     \u2665\u2661\u2665\u2661
p323
sg201
I2
sg202
I9
sg203
I2
sa(dp324
g2
(dp325
g4
I0
sg5
I134
ssg6
I134
sg7
g8
((lp326
I720624236814016512
aI819069775703744513
aI141875715
aI3313768454
aI702633543718080513
aI180690953
aI230658061
aI528306520
aI1648332547
aI215707157
aI74922013
aI2511132193
aI190826530
aI760288366185287680
aI784348694401384449
aI22214183
aI122154024
aI740767280
aI86035515
aI1131237216
aI49838662
aI740696302779027456
aI627503197
aI191781221
aI804812699507036160
aI2513305190
aI49233000
aI760517738
aI2586231403
aI473779825
aI280327286
aI293029992
aI817411766984577024
aI60374659
aI769134278714068992
aI9409672
aI16147598
aI80822931
aI977540246
aI3675489437
aI17856158
aI3611873440
aI2872488099
aI580329124
aI22746278
aI725354313833390080
aI110013097
aI390781102
aI1708260019
aI759546529715740672
aI1712075965
aI43696324
aI2759754440
aI720769124910018560
aI102948047
aI16548560
aI55517393
aI4133610197
aI4543434455
aI349824730
aI425481286
aI5918432
aI29867233
aI17643749
aI392945619
aI2175647482
aI51625723
aI15178753
aI2391758079
aI3535402755
aI2252437764
aI804223760706379776
aI416273680
aI113537305
aI1418725147
aI88356128
aI789792999186149376
aI729159624969101313
aI2852043557
aI55203625
aI74410288
aI174363444
aI561918266
aI276544322
aI36403524
aI1177878342
aI41369927
aI2940596558
aI24772952
aI2809541977
aI747932927439208448
aI33100128
aI245916003
aI363311973
aI194658150
aI1487714155
aI4583187314
aI16403322
aI110566780
aI1648194985
aI589118341
aI842309510
aI39791499
aI529156492
aI1104448322
aI2511660434
aI516982165
aI707248108455985152
aI765300133
aI172669353
aI1654102442
aI713637256477687808
aI919658930
aI64566784
aI746758738695061504
aI28193730
aI1438066627
aI26516426
aI22797771
aI126399441
aI2989902802
aI1408557523
aI262374356
aI397979093
aI3907653083
aI2580397032
aI200659435
aI3480132076
aI92677101
aI4833969134
aI4205612713
aI306494969
aI81159423
atp327
Rp328
sg12
I17
sg13
g14
(g15
tp329
Rp330
Vhttp://ift.tt/2kMEDSW
p331
I133
sVhttp://ift.tt/2kY0tFc
p332
I1
ssg199
Va bilingual cameroon teeters after english speakers protest treatment by francois essomba and dionne searcey via\u2026
p333
sg201
I3
sg202
I9
sg203
I2
sa(dp334
g2
(dp335
g4
I78
sg5
I54
ssg6
I132
sg7
g8
((lp336
I807630791781924864
aI797449326435958784
aI810480003666296834
aI773954913890078721
aI819299827607552006
aI823566663270498305
aI827289102181609472
aI824242140754624512
aI827614179662163969
aI822420547833397249
aI288961785
aI4890264125
aI764392316224307200
atp337
Rp338
sg12
I17
sg13
g14
(g15
tp339
Rp340
Vhttp://ift.tt/2jZ5I3p
p341
I1
sVhttp://ift.tt/2jwYqou
p342
I3
sVhttp://ift.tt/2iPkXOS
p343
I1
sVhttp://ift.tt/2jqnyfT
p344
I2
sVhttp://ift.tt/2jmwbcq
p345
I1
sVhttp://ift.tt/2iYBNra
p346
I1
sVhttp://ift.tt/2jnalDO
p347
I1
sVhttp://ift.tt/2iF0CIR
p348
I1
sVhttp://ift.tt/2jKIyhf
p349
I1
sVhttp://ift.tt/2jY0MzH
p350
I1
sVhttp://ift.tt/2k1GUcg
p351
I1
sVhttp://ift.tt/2jxQuU4
p352
I1
sVhttp://ift.tt/2ivsKhz
p353
I1
sVhttp://ift.tt/2kiwlAy
p354
I1
sVhttp://ift.tt/2jJw5vg
p355
I1
sVhttp://ift.tt/2jlR2LX
p356
I1
sVhttp://ift.tt/2iQrKEG
p357
I1
sVhttp://ift.tt/2ipMW9l
p358
I1
sVhttp://ift.tt/2jf3kXf
p359
I2
sVhttp://ift.tt/2iouePn
p360
I1
sVhttp://ift.tt/2jcsxRd
p361
I1
sVhttp://ift.tt/2jbx9rW
p362
I1
sVhttp://ift.tt/2jMwAV6
p363
I1
sVhttp://ift.tt/2jyHcaj
p364
I1
sVhttp://ift.tt/2jWVGEd
p365
I1
sVhttp://ift.tt/2jFoRep
p366
I1
sVhttp://ift.tt/2kkhg1G
p367
I1
sVhttp://ift.tt/2jKBvZ2
p368
I1
sVhttp://ift.tt/2jOFSzm
p369
I1
sVhttp://ift.tt/2iuW5so
p370
I1
sVhttp://ift.tt/2iK7oSi
p371
I1
sVhttp://ift.tt/2jjF1K1
p372
I1
sVhttp://ift.tt/2jpVaKQ
p373
I1
sVhttp://ift.tt/2jYTdVc
p374
I1
sVhttp://ift.tt/2jvaMxI
p375
I1
sVhttp://ift.tt/2kDnOvz
p376
I1
sVhttp://ift.tt/2iFsegV
p377
I1
sVhttp://ift.tt/2iWZund
p378
I1
sVhttp://ift.tt/2kgEoBX
p379
I1
sVhttp://ift.tt/2jdxDiB
p380
I1
sVhttp://ift.tt/2jvt0BF
p381
I1
sVhttp://ift.tt/2jiJcVZ
p382
I1
sVhttp://ift.tt/2iJdYZa
p383
I1
sVhttp://ift.tt/2jlKWOI
p384
I1
sVhttp://ift.tt/2izMZxK
p385
I1
sVhttp://ift.tt/2j7UZnh
p386
I1
sVhttp://ift.tt/2jll45l
p387
I1
sVhttp://ift.tt/2jPmbLr
p388
I1
sVhttp://ift.tt/2k9U72s
p389
I1
sVhttp://ift.tt/2k5MBZQ
p390
I2
sVhttp://ift.tt/2jwOOtT
p391
I1
sVhttp://ift.tt/2iBarMw
p392
I1
sVhttp://ift.tt/2jiYMAP
p393
I1
sVhttp://ift.tt/2jEaR4t
p394
I1
sVhttp://ift.tt/2kz8kZQ
p395
I1
sVhttp://ift.tt/2jO149i
p396
I1
sVhttp://ift.tt/2jRfU23
p397
I1
sVhttp://ift.tt/2ju6gyR
p398
I1
sVhttp://ift.tt/2j2v6p3
p399
I1
sVhttp://ift.tt/2iMxgLL
p400
I1
sVhttp://ift.tt/2jrRECy
p401
I1
sVhttp://ift.tt/2k96iMm
p402
I1
sVhttp://ift.tt/2ioXJAl
p403
I1
sVhttp://ift.tt/2jaSuRl
p404
I2
sVhttp://ift.tt/2jIKI4k
p405
I1
sVhttp://ift.tt/2jLyWTt
p406
I2
sVhttp://ift.tt/2jhJvks
p407
I2
sVhttp://ift.tt/2jqwlSA
p408
I1
sVhttp://ift.tt/2jciZGO
p409
I1
sVhttp://ift.tt/2iADv5v
p410
I1
sVhttp://ift.tt/2kG20fr
p411
I1
sVhttp://ift.tt/2jOFiF3
p412
I1
sVhttp://ift.tt/2jFiYv6
p413
I1
sVhttp://ift.tt/2l8e21o
p414
I1
sVhttp://ift.tt/2jjDG31
p415
I1
sVhttp://ift.tt/2jhqwn9
p416
I1
sVhttp://ift.tt/2jLRnIp
p417
I1
sVhttp://ift.tt/2jk78ce
p418
I1
sVhttp://ift.tt/2j0AcSP
p419
I1
sVhttp://ift.tt/2jOJzpr
p420
I1
sVhttp://ift.tt/2k67TTb
p421
I1
sVhttp://ift.tt/2kCa6dg
p422
I2
sVhttp://ift.tt/2jFfTNQ
p423
I1
sVhttp://ift.tt/2iBSeNw
p424
I1
sVhttp://ift.tt/2jPqYJB
p425
I1
sVhttp://ift.tt/2jHTOLY
p426
I1
sVhttp://ift.tt/2jUeKQG
p427
I1
sVhttp://ift.tt/2jIU8JA
p428
I3
sVhttp://ift.tt/2in9dEv
p429
I2
sVhttp://ift.tt/2jI1woD
p430
I1
sVhttp://ift.tt/2kbPxEo
p431
I1
sVhttp://ift.tt/2jAFUuV
p432
I1
sVhttp://ift.tt/2jBQvJ8
p433
I1
sVhttp://ift.tt/2jLImlq
p434
I1
sVhttp://ift.tt/2jq6h5Z
p435
I1
sVhttp://ift.tt/2jfJona
p436
I1
sVhttp://ift.tt/2iOiq7n
p437
I1
sVhttp://ift.tt/2jeXRPA
p438
I1
sVhttp://ift.tt/2l3PZER
p439
I1
sVhttp://ift.tt/2jypmHe
p440
I1
sVhttp://ift.tt/2jktAlJ
p441
I3
sVhttp://ift.tt/2jJ7Yg9
p442
I1
sVhttp://ift.tt/2kkD4OC
p443
I4
sVhttp://ift.tt/2jMs6gl
p444
I1
sVhttp://ift.tt/2jhIU2t
p445
I1
sVhttp://ift.tt/2iUy17f
p446
I1
sVhttp://ift.tt/2jTPeek
p447
I1
sVhttp://ift.tt/2iS6WzY
p448
I1
sVhttp://ift.tt/2l7wfNC
p449
I1
sVhttp://ift.tt/2jVr4Qc
p450
I1
sVhttp://ift.tt/2iVmNud
p451
I1
sVhttp://ift.tt/2isrTTt
p452
I1
sVhttp://ift.tt/2jvyegL
p453
I1
sVhttp://ift.tt/2iNHUSu
p454
I1
sVhttp://ift.tt/2j6Q3iD
p455
I1
ssg199
V\u2665\u2665\u2665\u2665\u2665\u2665\u2665\u2665\u2665\u2665 full video clips here \u300b\u300b
p456
sg201
I4
sg202
I9
sg203
I2
sa(dp457
g2
(dp458
g4
I1
sg5
I122
ssg6
I123
sg7
g8
((lp459
I804812699507036160
aI702633543718080513
aI141875715
aI707248108455985152
aI15178753
aI180690953
aI230658061
aI15765520
aI528306520
aI1648332547
aI215707157
aI74922013
aI2511132193
aI190826530
aI760288366185287680
aI22214183
aI122154024
aI740767280
aI86035515
aI1131237216
aI49838662
aI740696302779027456
aI191781221
aI817411766984577024
aI2513305190
aI49233000
aI760517738
aI2586231403
aI293029992
aI280327286
aI60374659
aI769134278714068992
aI9409672
aI16147598
aI80822931
aI977540246
aI3675489437
aI17856158
aI3611873440
aI2872488099
aI580329124
aI22746278
aI725354313833390080
aI110013097
aI759546529715740672
aI1712075965
aI43696324
aI2759754440
aI720769124910018560
aI102948047
aI16548560
aI55517393
aI4133610197
aI4543434455
aI349824730
aI819069775703744513
aI5918432
aI29867233
aI17643749
aI1408557523
aI51625723
aI81159423
aI3535402755
aI804223760706379776
aI416273680
aI113537305
aI1418725147
aI88356128
aI789792999186149376
aI729159624969101313
aI2852043557
aI55203625
aI74410288
aI174363444
aI561918266
aI276544322
aI36403524
aI1177878342
aI41369927
aI2940596558
aI24772952
aI2809541977
aI33100128
aI245916003
aI363311973
aI194658150
aI1487714155
aI4583187314
aI16403322
aI110566780
aI1648194985
aI589118341
aI842309510
aI39791499
aI529156492
aI1104448322
aI2511660434
aI516982165
aI765300133
aI172669353
aI1654102442
aI713637256477687808
aI919658930
aI64566784
aI473779825
aI746758738695061504
aI28193730
aI1438066627
aI26516426
aI22797771
aI126399441
aI2989902802
aI392945619
aI262374356
aI397979093
aI3907653083
aI2580397032
aI3480132076
aI4833969134
aI4205612713
aI306494969
aI2391758079
atp460
Rp461
sg12
I17
sg13
g14
(g15
tp462
Rp463
Vhttp://ift.tt/2lov3c2
p464
I123
ssg199
Vdutch get creative to solve prison problem too many empty cells by dan bilefsky via nyt the new york times
p465
sg201
I5
sg202
I9
sg203
I2
sa(dp466
g2
(dp467
g4
I0
sg5
I111
ssg6
I111
sg7
g8
((lp468
I759546529715740672
aI729159624969101313
aI141875715
aI713637256477687808
aI15178753
aI180690953
aI230658061
aI528306520
aI1648332547
aI215707157
aI74922013
aI2511132193
aI190826530
aI760288366185287680
aI22214183
aI122154024
aI740767280
aI86035515
aI49838662
aI740696302779027456
aI191781221
aI817411766984577024
aI2513305190
aI49233000
aI760517738
aI2586231403
aI293029992
aI280327286
aI60374659
aI804812699507036160
aI9409672
aI16147598
aI80822931
aI977540246
aI3675489437
aI17856158
aI3611873440
aI702633543718080513
aI22746278
aI725354313833390080
aI110013097
aI842309510
aI1712075965
aI43696324
aI789792999186149376
aI102948047
aI16548560
aI55517393
aI4133610197
aI349824730
aI5918432
aI29867233
aI17643749
aI51625723
aI2391758079
aI3535402755
aI804223760706379776
aI113537305
aI1418725147
aI88356128
aI2852043557
aI55203625
aI74410288
aI174363444
aI561918266
aI276544322
aI36403524
aI1177878342
aI41369927
aI2940596558
aI24772952
aI33100128
aI245916003
aI363311973
aI1487714155
aI4583187314
aI16403322
aI110566780
aI1648194985
aI589118341
aI720769124910018560
aI39791499
aI529156492
aI1104448322
aI2511660434
aI516982165
aI707248108455985152
aI769134278714068992
aI172669353
aI1654102442
aI919658930
aI64566784
aI473779825
aI746758738695061504
aI28193730
aI1438066627
aI26516426
aI22797771
aI126399441
aI2989902802
aI392945619
aI262374356
aI397979093
aI580329124
aI3907653083
aI2580397032
aI3480132076
aI4833969134
aI4205612713
aI306494969
aI81159423
atp469
Rp470
sg12
I17
sg13
g14
(g15
tp471
Rp472
Vhttp://ift.tt/2k8sW6X
p473
I111
ssg199
Vtrump may turn to arab allies for help with israelipalestinian relations by peter baker and mark landler via ny\u2026
p474
sg201
I6
sg202
I9
sg203
I2
sa(dp475
g2
(dp476
g4
I0
sg5
I107
ssg6
I107
sg7
g8
((lp477
I759546529715740672
aI729159624969101313
aI141875715
aI707248108455985152
aI15178753
aI180690953
aI230658061
aI528306520
aI1648332547
aI215707157
aI74922013
aI2511132193
aI760288366185287680
aI22214183
aI122154024
aI740767280
aI86035515
aI49838662
aI740696302779027456
aI191781221
aI817411766984577024
aI2513305190
aI49233000
aI760517738
aI2586231403
aI293029992
aI280327286
aI60374659
aI804812699507036160
aI9409672
aI16147598
aI80822931
aI977540246
aI3675489437
aI17856158
aI3611873440
aI702633543718080513
aI22746278
aI725354313833390080
aI110013097
aI1712075965
aI43696324
aI720769124910018560
aI102948047
aI16548560
aI55517393
aI4133610197
aI349824730
aI5918432
aI29867233
aI17643749
aI17624304
aI51625723
aI2391758079
aI3535402755
aI804223760706379776
aI113537305
aI1418725147
aI88356128
aI789792999186149376
aI2852043557
aI55203625
aI74410288
aI174363444
aI561918266
aI276544322
aI36403524
aI1177878342
aI41369927
aI2940596558
aI24772952
aI33100128
aI245916003
aI363311973
aI1487714155
aI4583187314
aI16403322
aI110566780
aI1648194985
aI589118341
aI842309510
aI39791499
aI1104448322
aI2511660434
aI769134278714068992
aI172669353
aI1654102442
aI713637256477687808
aI919658930
aI473779825
aI746758738695061504
aI28193730
aI1438066627
aI26516426
aI126399441
aI2989902802
aI392945619
aI262374356
aI397979093
aI580329124
aI3907653083
aI2580397032
aI3480132076
aI4833969134
aI4205612713
aI306494969
aI81159423
atp478
Rp479
sg12
I17
sg13
g14
(g15
tp480
Rp481
Vhttp://ift.tt/2kqROYE
p482
I107
ssg199
Vus general seeks \u2018a few thousand\u2019 more troops in afghanistan by michael r gordon via nyt the new york times
p483
sg201
I7
sg202
I9
sg203
I2
sa(dp484
g2
(dp485
g4
I43
sg5
I56
ssg6
I99
sg7
g8
((lp486
I781292763560148992
aI815891630196715520
aI1284283363
aI812884359690801156
aI819115931393785857
aI3379631343
aI2949653301
aI3099694330
aI1242203132
aI4729386586
aI3330366910
atp487
Rp488
sg12
I17
sg13
g14
(g15
tp489
Rp490
Vhttp://ift.tt/2jefS12
p491
I2
sVhttp://ift.tt/2jnewA6
p492
I2
sVhttp://ift.tt/2igtFH4
p493
I2
sVhttp://ift.tt/2jbh4Sl
p494
I3
sVhttp://ift.tt/2j1r9mU
p495
I7
sVhttp://ift.tt/2iOC14s
p496
I2
sVhttp://ift.tt/2ieHRPh
p497
I2
sVhttp://ift.tt/2idAEyQ
p498
I1
sVhttp://ift.tt/2ielFGy
p499
I1
sVhttp://ift.tt/2j1csBk
p500
I1
sVhttp://ift.tt/2j1c3OF
p501
I1
sVhttp://ift.tt/2iccJzT
p502
I1
sVhttp://ift.tt/2jELkZi
p503
I1
sVhttp://ift.tt/2jFCyKe
p504
I1
sVhttp://ift.tt/2jTNl0C
p505
I3
sVhttp://ift.tt/2ion10a
p506
I1
sVhttp://ift.tt/2jH4tch
p507
I1
sVhttp://ift.tt/2jq6eYT
p508
I2
sVhttp://ift.tt/2jyWL1g
p509
I2
sVhttp://ift.tt/2jk6A69
p510
I1
sVhttp://ift.tt/2ibjI9e
p511
I1
sVhttp://ift.tt/2iWs0oM
p512
I2
sVhttp://ift.tt/2iHghas
p513
I2
sVhttp://ift.tt/2juDei0
p514
I1
sVhttp://ift.tt/2jN5QE8
p515
I1
sVhttp://ift.tt/2jaXJ3T
p516
I1
sVhttp://ift.tt/2jx8m08
p517
I2
sVhttp://ift.tt/2iZj1BI
p518
I2
sVhttp://ift.tt/2jxNB80
p519
I2
sVhttp://ift.tt/2j4ohUG
p520
I2
sVhttp://ift.tt/2irasmd
p521
I2
sVhttp://ift.tt/2iaQex1
p522
I1
sVhttp://ift.tt/2jxiVEC
p523
I2
sVhttp://ift.tt/2jr4oJs
p524
I2
sVhttp://ift.tt/2jTbBjv
p525
I2
sVhttp://ift.tt/2jAMKzX
p526
I1
sVhttp://ift.tt/2jxnejn
p527
I2
sVhttp://ift.tt/2jPtvn8
p528
I2
sVhttp://ift.tt/2iEfM1B
p529
I2
sVhttp://ift.tt/2j1avF0
p530
I1
sVhttp://ift.tt/2jCUZzb
p531
I2
sVhttp://ift.tt/2k5hhuk
p532
I1
sVhttp://ift.tt/2jyoB0t
p533
I2
sVhttp://ift.tt/2jbZQUW
p534
I2
sVhttp://ift.tt/2kwCmcW
p535
I1
sVhttp://ift.tt/2iToCLL
p536
I2
sVhttp://ift.tt/2j48W93
p537
I2
sVhttp://ift.tt/2k4kNnH
p538
I2
sVhttp://ift.tt/2jM9u17
p539
I2
sVhttp://ift.tt/2iZWFQR
p540
I3
sVhttp://ift.tt/2iCCP0W
p541
I2
sVhttp://ift.tt/2jkW4J9
p542
I1
sVhttp://ift.tt/2jCYGoB
p543
I1
sVhttp://ift.tt/2jaVdKw
p544
I1
sVhttp://ift.tt/2i9O010
p545
I2
sVhttp://ift.tt/2iSV25M
p546
I2
sVhttp://ift.tt/2k1p1t7
p547
I1
ssg199
Vxxx sex best porn clips updated daily for full videos
p548
sg201
I8
sg202
I9
sg203
I2
sa(dp549
g2
(dp550
g4
I1
sg5
I98
ssg6
I99
sg7
g8
((lp551
I820327322188451840
aI828732908689055745
aI257937410
aI741156263841693696
aI704953706752708609
aI205592598
aI34730520
aI769861153
aI826089343706075136
aI1511831046
aI321270313
aI2673756716
aI370269230
aI16336435
aI51116599
aI2289354302
aI478606913
aI2430921283
aI1050470983
aI102758473
aI2827391562
aI2816577612
aI2299857158
aI61419092
aI44106837
aI578277980
aI750431844424945664
aI683113
aI70150255
aI17711729
aI440015991
aI16432771
aI814041918652829696
aI51481228
aI14206093
aI28888215
aI4234732696
aI21228698
aI18500764
aI33448100
aI2973190324
aI261944010
aI23214285
aI3119178447
aI408933587
aI252154320
aI3381988578
aI19028707
aI102998244
aI1934287598
aI24770807
aI4536039677
aI1574200574
aI50067714
aI728289555162357760
aI2891013388
aI4775702286
aI127800081
aI1118982426
aI15250716
aI2842637086
aI33416490
aI3270476594
aI3750263606
aI2305445690
aI3074543943
aI2915496267
aI369897187
aI1258861399
aI2823759708
aI5493562
aI2612462942
aI3803265377
aI428713827
aI1524221287
aI747632153891078144
aI2566049137
aI216895354
aI274997124
aI2914752390
aI178626452
aI227369367
aI804812699507036160
aI3073438634
aI2783113644
aI1730932657
aI539055029
aI806944698
aI1695010238
aI737064097703952384
aI9473472
aI100599241
aI277008844
aI1118130128
aI2797699025
aI128711646
aI3986600297
aI622857704
aI3846134775
atp552
Rp553
sg12
I17
sg13
g14
(g15
tp554
Rp555
Vhttp://ift.tt/2lsRAQH
p556
I1
sVhttp://makemakego.com
p557
I1
sVhttp://ift.tt/2k8uFsR
p558
I1
sVhttp://ift.tt/2kTbcB9
p559
I1
sVhttp://ift.tt/2kMO3h5
p560
I1
sVhttp://ift.tt/2kY0h8J
p561
I95
ssg199
Vpeanut is a tinderlike app for making new mom friends
p562
sg201
I9
sg202
I9
sg203
I2
sa(dp563
g2
(dp564
g4
I44
sg5
I54
ssg6
I98
sg7
g8
((lp565
I810189922153828352
aI826709611055108096
aI828926578872627202
aI827441300714688512
aI775616832166322176
aI770638645690793984
aI819973179749924864
aI4894852078
aI814170408714846208
aI2567700849
aI1632004146
aI816982721692045315
aI790217944085229568
aI812390300052320256
aI4012544375
aI2961995225
aI3099694330
aI768423439
aI3111466270
aI792763823853797376
atp566
Rp567
sg12
I17
sg13
g14
(g15
tp568
Rp569
Vhttp://ift.tt/2iMOCs4
p570
I2
sVhttp://ift.tt/2ka6vig
p571
I2
sVhttp://ift.tt/2jPxP67
p572
I1
sVhttp://ift.tt/2jKIqzc
p573
I1
sVhttp://ift.tt/2joG1JQ
p574
I1
sVhttp://ift.tt/2jBHOyI
p575
I1
sVhttp://ift.tt/2izrrPf
p576
I1
sVhttp://ift.tt/2iyGZ9U
p577
I1
sVhttp://ift.tt/2jWlCf1
p578
I1
sVhttp://ift.tt/2jlBJTN
p579
I1
sVhttp://ift.tt/2icDUL4
p580
I2
sVhttp://ift.tt/2jHwk9k
p581
I1
sVhttp://ift.tt/2jYaoql
p582
I1
sVhttp://ift.tt/2iSPSKg
p583
I1
sVhttp://ift.tt/2jvxA2B
p584
I5
sVhttp://ift.tt/2kjw7NQ
p585
I1
sVhttp://ift.tt/2iMwnzE
p586
I1
sVhttp://ift.tt/2iAcArY
p587
I2
sVhttp://ift.tt/2juO4bd
p588
I1
sVhttp://ift.tt/2iKILjx
p589
I2
sVhttp://ift.tt/2jFgmR0
p590
I3
sVhttp://ift.tt/2iXB4bu
p591
I1
sVhttp://ift.tt/2jDMVOZ
p592
I1
sVhttp://ift.tt/2klGlsM
p593
I2
sVhttp://ift.tt/2iDjvg0
p594
I2
sVhttp://ift.tt/2jyBown
p595
I1
sVhttp://ift.tt/2iHR9Ry
p596
I3
sVhttp://ift.tt/2iosKTt
p597
I1
sVhttp://ift.tt/2jDfkAI
p598
I1
sVhttp://ift.tt/2jDD1Ni
p599
I1
sVhttp://ift.tt/2jYrogi
p600
I2
sVhttp://ift.tt/2jDwTUu
p601
I1
sVhttp://ift.tt/2klSOwE
p602
I1
sVhttp://ift.tt/2iLo5wT
p603
I2
sVhttp://ift.tt/2jDpem4
p604
I3
sVhttp://ift.tt/2iQeS4A
p605
I3
sVhttp://ift.tt/2iSlZq3
p606
I1
sVhttp://ift.tt/2jmEwwJ
p607
I1
sVhttp://ift.tt/2kdiaRq
p608
I1
sVhttp://ift.tt/2jKabYC
p609
I1
sVhttp://ift.tt/2jvTUd8
p610
I1
sVhttp://ift.tt/2j7NpMo
p611
I1
sVhttp://ift.tt/2j7fnVy
p612
I3
sVhttp://ift.tt/2jdnkJ9
p613
I1
sVhttp://ift.tt/2iQqDIl
p614
I2
sVhttp://ift.tt/2ibQtGo
p615
I2
sVhttp://ift.tt/2itmhIE
p616
I1
sVhttp://ift.tt/2jFbpaa
p617
I1
sVhttp://ift.tt/2jiTG58
p618
I1
sVhttp://ift.tt/2j4WupC
p619
I1
sVhttp://ift.tt/2jiWXS6
p620
I1
sVhttp://ift.tt/2impjN1
p621
I2
sVhttp://ift.tt/2iSoxEH
p622
I1
sVhttp://ift.tt/2jlNxpi
p623
I1
sVhttp://ift.tt/2juMhTH
p624
I3
sVhttp://ift.tt/2iddCZb
p625
I1
sVhttp://ift.tt/2jBNaKE
p626
I1
sVhttp://ift.tt/2jGyfOx
p627
I1
sVhttp://ift.tt/2jwT3bU
p628
I4
sVhttp://ift.tt/2j9dlHJ
p629
I2
sVhttp://ift.tt/2i9SzDr
p630
I2
sVhttp://ift.tt/2iR24v2
p631
I1
sVhttp://ift.tt/2jQwAEb
p632
I1
sVhttp://ift.tt/2ihDyQf
p633
I1
sVhttp://ift.tt/2ikiKHJ
p634
I1
ssg199
Vview the full videos here
p635
sg201
I10
sg202
I9
sg203
I2
sa(dp636
g2
(dp637
g4
I0
sg5
I97
ssg6
I97
sg7
g8
((lp638
I780335463617867776
atp639
Rp640
sg12
I17
sg13
g14
(g15
tp641
Rp642
Vhttp://ift.tt/2kT8qfg
p643
I1
sVhttp://ift.tt/2lvhlRk
p644
I1
sVhttp://ift.tt/2kqPO2G
p645
I1
sVhttp://ift.tt/2lvHvDB
p646
I1
sVhttp://ift.tt/2loByM2
p647
I1
sVhttp://ift.tt/2lvxNB8
p648
I1
sVhttp://ift.tt/2kMrtFt
p649
I1
sVhttp://ift.tt/2kTgGMe
p650
I1
sVhttp://ift.tt/2k7JEbp
p651
I1
sVhttp://ift.tt/2kr14vX
p652
I1
sVhttp://ift.tt/2kqWNc1
p653
I1
sVhttp://ift.tt/2k7FznR
p654
I1
sVhttp://ift.tt/2k8sJkg
p655
I1
sVhttp://ift.tt/2k7PSbj
p656
I1
sVhttp://ift.tt/2kr4Bu0
p657
I1
sVhttp://ift.tt/2kTlqkZ
p658
I1
sVhttp://ift.tt/2kqVqK3
p659
I1
sVhttp://ift.tt/2k7BCzx
p660
I1
sVhttp://ift.tt/2lozwvk
p661
I1
sVhttp://ift.tt/2k8xslP
p662
I1
sVhttp://ift.tt/2kqJEj2
p663
I1
sVhttp://ift.tt/2loJs87
p664
I1
sVhttp://ift.tt/2kr3IBP
p665
I1
sVhttp://ift.tt/2k7TNVA
p666
I1
sVhttp://ift.tt/2kqLC32
p667
I1
sVhttp://ift.tt/2k7ADPX
p668
I1
sVhttp://ift.tt/2k8pQju
p669
I1
sVhttp://ift.tt/2k7KDZa
p670
I1
sVhttp://ift.tt/2kXDf1W
p671
I1
sVhttp://ift.tt/2loFkVH
p672
I1
sVhttp://ift.tt/2lvx2b5
p673
I1
sVhttp://ift.tt/2lvtdCU
p674
I1
sVhttp://ift.tt/2loG511
p675
I1
sVhttp://ift.tt/2k7KRQe
p676
I1
sVhttp://ift.tt/2k7TV7w
p677
I1
sVhttp://ift.tt/2kr6xmg
p678
I1
sVhttp://ift.tt/2lsF3wH
p679
I1
sVhttp://ift.tt/2lsByq7
p680
I1
sVhttp://ift.tt/2kXN00a
p681
I1
sVhttp://ift.tt/2k8xKJL
p682
I1
sVhttp://ift.tt/2kMLprT
p683
I1
sVhttp://ift.tt/2k8nb9m
p684
I1
sVhttp://ift.tt/2k7T0UO
p685
I1
sVhttp://ift.tt/2kr6WFx
p686
I1
sVhttp://ift.tt/2kTdgJt
p687
I1
sVhttp://ift.tt/2kr7Cut
p688
I1
sVhttp://ift.tt/2kqW2j8
p689
I1
sVhttp://ift.tt/2kwGDjw
p690
I1
sVhttp://ift.tt/2lvItQg
p691
I1
sVhttp://ift.tt/2k8xHxz
p692
I1
sVhttp://ift.tt/2kr4XAN
p693
I1
sVhttp://ift.tt/2k7JjWp
p694
I1
sVhttp://ift.tt/2lvAJxH
p695
I1
sVhttp://ift.tt/2lsNokf
p696
I1
sVhttp://ift.tt/2kwKYDk
p697
I1
sVhttp://ift.tt/2kwDjF7
p698
I1
sVhttp://ift.tt/2lvzGxD
p699
I1
sVhttp://ift.tt/2lvtLc7
p700
I1
sVhttp://ift.tt/2kwCn3r
p701
I1
sVhttp://ift.tt/2lvuGsR
p702
I1
sVhttp://ift.tt/2kMpLUt
p703
I1
sVhttp://ift.tt/2kXLKK6
p704
I1
sVhttp://ift.tt/2lvbRGa
p705
I1
sVhttp://ift.tt/2kMFove
p706
I1
sVhttp://ift.tt/2kXYXmh
p707
I1
sVhttp://ift.tt/2kXBAt7
p708
I1
sVhttp://ift.tt/2k7ADiQ
p709
I1
sVhttp://ift.tt/2kT1sqk
p710
I1
sVhttp://ift.tt/2kqWMVl
p711
I1
sVhttp://ift.tt/2kThlNL
p712
I1
sVhttp://ift.tt/2kr39YN
p713
I1
sVhttp://ift.tt/2k7MZr8
p714
I1
sVhttp://ift.tt/2kqZMky
p715
I1
sVhttp://ift.tt/2lsE3sy
p716
I1
sVhttp://ift.tt/2lsz3nU
p717
I1
sVhttp://ift.tt/2kqZRoj
p718
I1
sVhttp://ift.tt/2kMDWsS
p719
I1
sVhttp://ift.tt/2lvAP8x
p720
I1
sVhttp://ift.tt/2kr5J0R
p721
I1
sVhttp://ift.tt/2kXx3a2
p722
I1
sVhttp://ift.tt/2kwOGNd
p723
I1
sVhttp://ift.tt/2loBEDe
p724
I1
sVhttp://ift.tt/2lsJ709
p725
I1
sVhttp://ift.tt/2kqLArO
p726
I1
sVhttp://ift.tt/2k7DJTQ
p727
I1
sVhttp://ift.tt/2louSgH
p728
I1
sVhttp://ift.tt/2kr4df7
p729
I1
sVhttp://ift.tt/2loEFn6
p730
I1
sVhttp://ift.tt/2k7CMek
p731
I1
sVhttp://ift.tt/2k7wSK5
p732
I1
sVhttp://ift.tt/2k7GbKe
p733
I1
sVhttp://ift.tt/2lvK7kL
p734
I1
sVhttp://ift.tt/2lozqUC
p735
I1
sVhttp://ift.tt/2kTiyED
p736
I1
sVhttp://ift.tt/2krjSLp
p737
I1
sVhttp://ift.tt/2kqRF7E
p738
I1
sVhttp://ift.tt/2kMvI3R
p739
I1
ssg199
Vjust pinned to seo and ppc just pinned to seo and ppc just pinned to seo and ppc just p\u2026
p740
sg201
I11
sg202
I9
sg203
I2
sa(dp741
g2
(dp742
g4
I43
sg5
I48
ssg6
I91
sg7
g8
((lp743
I799329629752479744
aI795880896930844672
aI814589871146811394
aI795587622664081408
aI819115931393785857
aI813835741729959944
aI819503875107487744
aI701039336926523394
aI807482394852945920
aI827561436436103168
aI785131061013520384
aI1091292589
aI735413724232581120
aI811485554344763392
aI765900701700587520
aI4860092747
aI793475317490941952
aI825336626767392768
aI806015101845307392
aI764897985721470976
aI793484482116485120
aI770638645690793984
aI288961785
aI501150203
atp744
Rp745
sg12
I17
sg13
g14
(g15
tp746
Rp747
Vhttp://ift.tt/2jligmu
p748
I3
sVhttp://ift.tt/2jSsYDH
p749
I1
sVhttp://ift.tt/2jNKtCs
p750
I1
sVhttp://ift.tt/2itCj0q
p751
I1
sVhttp://ift.tt/2iUPHOD
p752
I2
sVhttp://ift.tt/2jS6FdT
p753
I1
sVhttp://ift.tt/2jIPmwM
p754
I1
sVhttp://ift.tt/2jCt5Ql
p755
I1
sVhttp://ift.tt/2iRpGzs
p756
I1
sVhttp://ift.tt/2jJt7Xj
p757
I1
sVhttp://ift.tt/2j0dsBo
p758
I2
sVhttp://ift.tt/2kwlBP9
p759
I2
sVhttp://ift.tt/2il7gaa
p760
I2
sVhttp://ift.tt/2iMDzyO
p761
I1
sVhttp://ift.tt/2jPqaYd
p762
I1
sVhttp://ift.tt/2jJs60M
p763
I3
sVhttp://ift.tt/2jeHkgL
p764
I1
sVhttp://ift.tt/2jj0pPN
p765
I1
sVhttp://ift.tt/2iFll3S
p766
I1
sVhttp://ift.tt/2jfdTsJ
p767
I1
sVhttp://ift.tt/2iynA7y
p768
I2
sVhttp://ift.tt/2iHRurF
p769
I1
sVhttp://ift.tt/2j8DypL
p770
I6
sVhttp://ift.tt/2iOK15e
p771
I1
sVhttp://ift.tt/2iMxf7v
p772
I2
sVhttp://ift.tt/2igpPMw
p773
I1
sVhttp://ift.tt/2iKY7JV
p774
I1
sVhttp://ift.tt/2jAI6Cy
p775
I1
sVhttp://ift.tt/2k6JJva
p776
I2
sVhttp://ift.tt/2j0FYVo
p777
I1
sVhttp://ift.tt/2jsqVCJ
p778
I1
sVhttp://ift.tt/2jO7t4t
p779
I2
sVhttp://ift.tt/2jVsk8B
p780
I1
sVhttp://ift.tt/2isO1gD
p781
I1
sVhttp://ift.tt/2ip02yB
p782
I1
sVhttp://ift.tt/2jXp4cz
p783
I1
sVhttp://ift.tt/2k6uzmP
p784
I3
sVhttp://ift.tt/2kT6W4w
p785
I2
sVhttp://ift.tt/2juJ0DS
p786
I3
sVhttp://ift.tt/2iXSir5
p787
I1
sVhttp://ift.tt/2j7g6X8
p788
I4
sVhttp://ift.tt/2jGfT14
p789
I1
sVhttp://ift.tt/2ihrsvn
p790
I1
sVhttp://ift.tt/2jFjlGa
p791
I3
sVhttp://ift.tt/2iKuq7B
p792
I3
sVhttp://ift.tt/2iF7TZ5
p793
I2
sVhttp://ift.tt/2k4oZke
p794
I1
sVhttp://ift.tt/2k9Q3hM
p795
I1
sVhttp://ift.tt/2iht2s8
p796
I1
sVhttp://ift.tt/2k9SeGn
p797
I1
sVhttp://ift.tt/2iTVqnD
p798
I1
sVhttp://ift.tt/2jdCpNY
p799
I1
sVhttp://ift.tt/2jHCzhb
p800
I1
sVhttp://ift.tt/2isMt6p
p801
I1
sVhttp://ift.tt/2iMBsIT
p802
I4
sVhttp://ift.tt/2j8Uz3u
p803
I2
sVhttp://ift.tt/2jKTKvn
p804
I1
ssg199
Vview the full clip here source
p805
sg201
I12
sg202
I9
sg203
I2
sa(dp806
g2
(dp807
g4
I40
sg5
I49
ssg6
I89
sg7
g8
((lp808
I810225586824060928
aI761884765830123520
aI825000679462801408
aI804364311342837761
aI800270323996164096
aI818575555083767808
aI751449787048820737
aI769327864030175232
aI342275115
aI4793327150
aI2336953526
aI825642165309149185
aI757589440239923200
aI770638645690793984
aI818848732292616192
aI557580746
aI775047616753086464
aI813576645403639809
aI127438812
aI4836690029
aI785131061013520384
aI790598135181561856
aI819122657010610176
aI438892926
atp809
Rp810
sg12
I17
sg13
g14
(g15
tp811
Rp812
Vhttp://ift.tt/2ijFqYt
p813
I2
sVhttp://ift.tt/2i7D6Zt
p814
I2
sVhttp://ift.tt/2jXGr9T
p815
I1
sVhttp://ift.tt/2jrEKkP
p816
I1
sVhttp://ift.tt/2izIjJZ
p817
I2
sVhttp://ift.tt/2jf7bFD
p818
I1
sVhttp://ift.tt/2jEq7hC
p819
I1
sVhttp://ift.tt/2jARpW0
p820
I1
sVhttp://ift.tt/2jh7s8X
p821
I3
sVhttp://ift.tt/2jto5xp
p822
I1
sVhttp://ift.tt/2jKQX8C
p823
I1
sVhttp://ift.tt/2iW7WRP
p824
I1
sVhttp://ift.tt/2jJNCXd
p825
I2
sVhttp://ift.tt/2k3z3y3
p826
I1
sVhttp://ift.tt/2iMT2ww
p827
I1
sVhttp://ift.tt/2k3bHby
p828
I2
sVhttp://ift.tt/2jrZtpL
p829
I1
sVhttp://ift.tt/2ir2OrW
p830
I2
sVhttp://ift.tt/2jF9GS2
p831
I1
sVhttp://ift.tt/2jy0ik5
p832
I3
sVhttp://ift.tt/2iMZALM
p833
I2
sVhttp://ift.tt/2jjIoOx
p834
I1
sVhttp://ift.tt/2izVD0G
p835
I1
sVhttp://ift.tt/2k3iouo
p836
I1
sVhttp://ift.tt/2j784Aa
p837
I1
sVhttp://ift.tt/2jxYTtA
p838
I2
sVhttp://ift.tt/2jEmbxZ
p839
I1
sVhttp://ift.tt/2jJ6RQW
p840
I1
sVhttp://ift.tt/2ikucpV
p841
I1
sVhttp://ift.tt/2jLlB0K
p842
I1
sVhttp://ift.tt/2igXHWh
p843
I1
sVhttp://ift.tt/2i8YxcI
p844
I1
sVhttp://ift.tt/2jCZQkw
p845
I1
sVhttp://ift.tt/2jBNQiR
p846
I1
sVhttp://ift.tt/2j3QWaS
p847
I1
sVhttp://ift.tt/2iUZ9RP
p848
I2
sVhttp://ift.tt/2jUTcpF
p849
I1
sVhttp://ift.tt/2jXdPgU
p850
I2
sVhttp://ift.tt/2k0adLo
p851
I1
sVhttp://ift.tt/2ihBcUv
p852
I1
sVhttp://ift.tt/2jITc99
p853
I1
sVhttp://ift.tt/2j1wIm5
p854
I2
sVhttp://ift.tt/2iNCA1l
p855
I1
sVhttp://ift.tt/2iyjXOZ
p856
I2
sVhttp://ift.tt/2jO26ot
p857
I2
sVhttp://ift.tt/2jnTUIc
p858
I1
sVhttp://ift.tt/2j7AJT2
p859
I1
sVhttp://ift.tt/2jOvzvJ
p860
I2
sVhttp://ift.tt/2j7ZbpY
p861
I2
sVhttp://ift.tt/2j3jOjE
p862
I1
sVhttp://ift.tt/2iZaHnQ
p863
I2
sVhttp://ift.tt/2j75o5R
p864
I1
sVhttp://ift.tt/2jJZgSb
p865
I3
sVhttp://ift.tt/2iXpjC9
p866
I1
sVhttp://ift.tt/2iIHni5
p867
I2
sVhttp://ift.tt/2iXAbls
p868
I1
sVhttp://ift.tt/2itARet
p869
I2
sVhttp://ift.tt/2j4aa1E
p870
I1
sVhttp://ift.tt/2iAjZHH
p871
I1
sVhttp://ift.tt/2idvUcA
p872
I1
sVhttp://ift.tt/2jbzRgw
p873
I1
sVhttp://ift.tt/2jMybN0
p874
I1
sVhttp://ift.tt/2iO6WP4
p875
I1
sVhttp://ift.tt/2jjPG4N
p876
I1
sVhttp://ift.tt/2jcCzVj
p877
I1
ssg199
Vfor the full porn video
p878
sg201
I13
sg202
I9
sg203
I2
sa(dp879
g2
(dp880
g4
I28
sg5
I59
ssg6
I87
sg7
g8
((lp881
I810172145275805696
aI778496538637111296
aI825344201340682241
aI827338451859161088
aI824687257349033985
aI2377989324
aI2336372751
aI2565737144
aI2859502903
aI474811768
aI243540088
atp882
Rp883
sg12
I17
sg13
g14
(g15
tp884
Rp885
Vhttp://ift.tt/2iEelzv
p886
I2
sVhttp://ift.tt/2iAluE8
p887
I1
sVhttp://ift.tt/2jX2VvJ
p888
I1
sVhttp://ift.tt/2iQLw6g
p889
I2
sVhttp://ift.tt/2ituN8U
p890
I1
sVhttp://ift.tt/2jx4eRo
p891
I1
sVhttp://ift.tt/2ipmpJ7
p892
I2
sVhttp://ift.tt/2iN15ZD
p893
I3
sVhttp://ift.tt/2iijfC9
p894
I1
sVhttp://ift.tt/2jPF4yh
p895
I2
sVhttp://ift.tt/2jw3fk1
p896
I2
sVhttp://ift.tt/2jw9iWr
p897
I3
sVhttp://ift.tt/2jwhiXv
p898
I1
sVhttp://ift.tt/2j3suu3
p899
I1
sVhttp://ift.tt/2idpNGV
p900
I1
sVhttp://ift.tt/2jnKSy7
p901
I1
sVhttp://ift.tt/2j0Toj6
p902
I1
sVhttp://ift.tt/2jDvIob
p903
I1
sVhttp://ift.tt/2jCkekY
p904
I1
sVhttp://ift.tt/2inph7I
p905
I1
sVhttp://ift.tt/2iR573Z
p906
I1
sVhttp://ift.tt/2iHUeQS
p907
I1
sVhttp://ift.tt/2iThX1z
p908
I2
sVhttp://ift.tt/2iM9Ztn
p909
I1
sVhttp://ift.tt/2jy2pR5
p910
I1
sVhttp://ift.tt/2kkAN2T
p911
I1
sVhttp://ift.tt/2j1EABE
p912
I1
sVhttp://ift.tt/2jsLW0N
p913
I1
sVhttp://ift.tt/2ij2n1i
p914
I1
sVhttp://ift.tt/2iF0GeL
p915
I1
sVhttp://ift.tt/2jHGOGr
p916
I1
sVhttp://ift.tt/2ihVgbb
p917
I1
sVhttp://ift.tt/2jgzCkp
p918
I4
sVhttp://ift.tt/2izTySu
p919
I1
sVhttp://ift.tt/2izwRsI
p920
I1
sVhttp://ift.tt/2jsekj1
p921
I2
sVhttp://ift.tt/2im0KQk
p922
I1
sVhttp://ift.tt/2kPwK1G
p923
I1
sVhttp://ift.tt/2jZ9NoB
p924
I3
sVhttp://ift.tt/2jmsLWP
p925
I2
sVhttp://ift.tt/2iT4ruG
p926
I1
sVhttp://ift.tt/2iXfPWu
p927
I1
sVhttp://ift.tt/2jndLKO
p928
I1
sVhttp://ift.tt/2iMzwQL
p929
I1
sVhttp://ift.tt/2iMinGT
p930
I1
sVhttp://ift.tt/2jCOR6q
p931
I1
sVhttp://ift.tt/2ijt7LI
p932
I2
sVhttp://ift.tt/2jsSBZ6
p933
I2
sVhttp://ift.tt/2jlkOkK
p934
I1
sVhttp://ift.tt/2jJUxMa
p935
I1
sVhttp://ift.tt/2jcsJRo
p936
I1
sVhttp://ift.tt/2ifzzmW
p937
I1
sVhttp://ift.tt/2j3VuBx
p938
I1
sVhttp://ift.tt/2iFjDf1
p939
I1
sVhttp://ift.tt/2k1hk9A
p940
I1
sVhttp://ift.tt/2j5Fux2
p941
I1
sVhttp://ift.tt/2jAMvcn
p942
I1
sVhttp://ift.tt/2iR9Q89
p943
I1
sVhttp://ift.tt/2jdR4c0
p944
I2
sVhttp://ift.tt/2jkEaZn
p945
I2
sVhttp://ift.tt/2keP3ue
p946
I1
sVhttp://ift.tt/2jWuUIU
p947
I1
sVhttp://ift.tt/2jim6zA
p948
I2
sVhttp://ift.tt/2jgTXsg
p949
I1
sVhttp://ift.tt/2jJckqK
p950
I1
ssg199
Vbest porn videos full video here
p951
sg201
I14
sg202
I9
sg203
I2
sa(dp952
g2
(dp953
g4
I34
sg5
I53
ssg6
I87
sg7
g8
((lp954
I807268221921492992
aI825474146368778240
aI809455297383141376
aI797944739169505280
aI753855828428402689
aI3421408648
aI825043684420788224
aI4793327150
aI3994988753
aI1605589080
aI796036909143298048
aI706637849899040768
atp955
Rp956
sg12
I17
sg13
g14
(g15
tp957
Rp958
Vhttp://ift.tt/2iYMSfm
p959
I1
sVhttp://ift.tt/2ibdvKr
p960
I2
sVhttp://ift.tt/2jV3vaj
p961
I1
sVhttp://ift.tt/2ijEvYc
p962
I1
sVhttp://ift.tt/2jnGZpQ
p963
I1
sVhttp://ift.tt/2jsL64S
p964
I1
sVhttp://ift.tt/2kaMZWS
p965
I1
sVhttp://ift.tt/2iYNty5
p966
I1
sVhttp://ift.tt/2jN1OM6
p967
I1
sVhttp://ift.tt/2ixSxJ4
p968
I2
sVhttp://ift.tt/2jEdMtX
p969
I1
sVhttp://ift.tt/2iznN87
p970
I1
sVhttp://ift.tt/2jHXhh7
p971
I1
sVhttp://ift.tt/2jsAgf0
p972
I1
sVhttp://ift.tt/2jxhvXG
p973
I3
sVhttp://ift.tt/2iX9hdr
p974
I1
sVhttp://ift.tt/2lsWw8g
p975
I1
sVhttp://ift.tt/2iJbNkF
p976
I2
sVhttp://ift.tt/2jBgMUv
p977
I1
sVhttp://ift.tt/2jjRmeO
p978
I1
sVhttp://ift.tt/2iMa28M
p979
I1
sVhttp://ift.tt/2iz1mzH
p980
I1
sVhttp://ift.tt/2jRVq6a
p981
I2
sVhttp://ift.tt/2jQsICt
p982
I2
sVhttp://ift.tt/2iR79Do
p983
I1
sVhttp://ift.tt/2jGcXkq
p984
I1
sVhttp://ift.tt/2ixf869
p985
I2
sVhttp://ift.tt/2ju1oKM
p986
I1
sVhttp://ift.tt/2jloG7g
p987
I1
sVhttp://ift.tt/2k24yIQ
p988
I1
sVhttp://ift.tt/2jsCAkR
p989
I1
sVhttp://ift.tt/2iD8viF
p990
I2
sVhttp://ift.tt/2jfi3nh
p991
I1
sVhttp://ift.tt/2jCid51
p992
I2
sVhttp://ift.tt/2ib8Z3a
p993
I1
sVhttp://ift.tt/2j1KGEw
p994
I2
sVhttp://ift.tt/2j3HANV
p995
I1
sVhttp://ift.tt/2jhQpn4
p996
I1
sVhttp://ift.tt/2j7wCt6
p997
I1
sVhttp://ift.tt/2iXf5S6
p998
I1
sVhttp://ift.tt/2jyMXau
p999
I1
sVhttp://ift.tt/2j4Px7B
p1000
I1
sVhttp://ift.tt/2ietnM3
p1001
I1
sVhttp://ift.tt/2ilkL7a
p1002
I1
sVhttp://ift.tt/2iXE1dN
p1003
I2
sVhttp://ift.tt/2iRSGsH
p1004
I1
sVhttp://ift.tt/2iYuiSS
p1005
I1
sVhttp://ift.tt/2jGiLdS
p1006
I1
sVhttp://ift.tt/2jzR4mL
p1007
I1
sVhttp://ift.tt/2idn4vE
p1008
I1
sVhttp://ift.tt/2jfQ2LF
p1009
I1
sVhttp://ift.tt/2j8aEWK
p1010
I1
sVhttp://ift.tt/2jvXCAD
p1011
I1
sVhttp://ift.tt/2jHC43l
p1012
I1
sVhttp://ift.tt/2jpWA8U
p1013
I1
sVhttp://ift.tt/2jI5TRo
p1014
I2
sVhttp://ift.tt/2kld81Q
p1015
I1
sVhttp://ift.tt/2iWh3Av
p1016
I1
sVhttp://ift.tt/2jvIaqT
p1017
I1
sVhttp://ift.tt/2iJ1wUB
p1018
I1
sVhttp://ift.tt/2iOgawV
p1019
I1
sVhttp://ift.tt/2k6aosn
p1020
I1
sVhttp://ift.tt/2jo62c1
p1021
I1
sVhttp://ift.tt/2ka0YML
p1022
I1
sVhttp://ift.tt/2jmaCHB
p1023
I2
sVhttp://ift.tt/2iC0RFc
p1024
I1
sVhttp://ift.tt/2ibjDSG
p1025
I1
sVhttp://ift.tt/2i9qS2I
p1026
I1
sVhttp://ift.tt/2kITRIf
p1027
I1
sVhttp://ift.tt/2iORAfA
p1028
I1
sVhttp://ift.tt/2jKuiVH
p1029
I1
sVhttp://ift.tt/2jkiADP
p1030
I1
sVhttp://ift.tt/2jaYIRu
p1031
I1
ssg199
Vfor the full video amp more go to   \u2661\u2665   \u2661\u2665
p1032
sg201
I15
sg202
I9
sg203
I2
sa(dp1033
g2
(dp1034
g4
I26
sg5
I58
ssg6
I84
sg7
g8
((lp1035
I795587622664081408
aI810222045401214977
aI821970479468711938
aI816930413851480064
aI819115931393785857
aI761412041076727808
aI813576645403639809
aI760661179081654272
aI828989739411845122
aI826352431005069312
aI816585564656988160
aI205097751
aI3864994872
aI92340212
aI797936313269940224
aI705468543568109568
atp1036
Rp1037
sg12
I17
sg13
g14
(g15
tp1038
Rp1039
Vhttp://ift.tt/2ieHZeA
p1040
I2
sVhttp://ift.tt/2jXujJo
p1041
I1
sVhttp://ift.tt/2j5EpYB
p1042
I1
sVhttp://ift.tt/2j7UKcd
p1043
I1
sVhttp://ift.tt/2ib4RjR
p1044
I1
sVhttp://ift.tt/2jvH0f4
p1045
I1
sVhttp://ift.tt/2iQnnK1
p1046
I1
sVhttp://ift.tt/2iDDzPe
p1047
I1
sVhttp://ift.tt/2iLxqRi
p1048
I3
sVhttp://ift.tt/2ijsT7z
p1049
I1
sVhttp://ift.tt/2j9TE1K
p1050
I1
sVhttp://ift.tt/2jy7hcN
p1051
I1
sVhttp://ift.tt/2kr3qdO
p1052
I1
sVhttp://ift.tt/2jAToGs
p1053
I1
sVhttp://ift.tt/2i8U4GQ
p1054
I1
sVhttp://ift.tt/2jLPr60
p1055
I1
sVhttp://ift.tt/2j5f3JU
p1056
I1
sVhttp://ift.tt/2lgPHGV
p1057
I2
sVhttp://ift.tt/2jngSPY
p1058
I1
sVhttp://ift.tt/2kkIPvU
p1059
I1
sVhttp://ift.tt/2jtQo2g
p1060
I1
sVhttp://ift.tt/2jycX62
p1061
I1
sVhttp://ift.tt/2k0DoOu
p1062
I1
sVhttp://ift.tt/2jsCkTG
p1063
I3
sVhttp://ift.tt/2iysMGc
p1064
I1
sVhttp://ift.tt/2iYPg69
p1065
I3
sVhttp://ift.tt/2jJ4TyZ
p1066
I1
sVhttp://ift.tt/2iEPyLw
p1067
I1
sVhttp://ift.tt/2jlnZZo
p1068
I2
sVhttp://ift.tt/2jcLCDr
p1069
I1
sVhttp://ift.tt/2iXC4ML
p1070
I1
sVhttp://ift.tt/2jVcMTt
p1071
I2
sVhttp://ift.tt/2k7s874
p1072
I1
sVhttp://ift.tt/2jckxmz
p1073
I1
sVhttp://ift.tt/2jEmAAz
p1074
I1
sVhttp://ift.tt/2jDyBpM
p1075
I1
sVhttp://ift.tt/2j2SlBV
p1076
I1
sVhttp://ift.tt/2iGRtQF
p1077
I1
sVhttp://ift.tt/2iZ4poa
p1078
I2
sVhttp://ift.tt/2iF0GZO
p1079
I1
sVhttp://ift.tt/2iYqtiK
p1080
I1
sVhttp://ift.tt/2j2yfYY
p1081
I1
sVhttp://ift.tt/2iKryqr
p1082
I1
sVhttp://ift.tt/2jqla8Y
p1083
I1
sVhttp://ift.tt/2iVPsB2
p1084
I1
sVhttp://ift.tt/2iewO5r
p1085
I1
sVhttp://ift.tt/2j96bBf
p1086
I1
sVhttp://ift.tt/2ibNX2O
p1087
I1
sVhttp://ift.tt/2jPrvM0
p1088
I2
sVhttp://ift.tt/2jq6BlX
p1089
I1
sVhttp://ift.tt/2iEozAB
p1090
I2
sVhttp://ift.tt/2iC4gYM
p1091
I1
sVhttp://ift.tt/2ja3rT2
p1092
I1
sVhttp://ift.tt/2ihu3U9
p1093
I1
sVhttp://ift.tt/2jCmvNJ
p1094
I3
sVhttp://ift.tt/2i71sTf
p1095
I1
sVhttp://ift.tt/2j1Xfjr
p1096
I1
sVhttp://ift.tt/2jbaf5Z
p1097
I1
sVhttp://ift.tt/2jml3xI
p1098
I2
sVhttp://ift.tt/2iWybcH
p1099
I1
sVhttp://ift.tt/2iePuGZ
p1100
I1
sVhttp://ift.tt/2iD3nLj
p1101
I1
sVhttp://ift.tt/2jVvgzs
p1102
I2
sVhttp://ift.tt/2josYI2
p1103
I1
sVhttp://ift.tt/2iO5gHv
p1104
I1
sVhttp://ift.tt/2jF6KVl
p1105
I1
sVhttp://ift.tt/2jwoe6e
p1106
I1
ssg199
Vmore free video clips here
p1107
sg201
I16
sg202
I9
sg203
I2
sa(dp1108
g2
(dp1109
g4
I29
sg5
I53
ssg6
I82
sg7
g8
((lp1110
I809955169937006592
aI825803467830784000
aI810480003666296834
aI810759313908174848
aI793193949246685188
aI770269560603811840
aI745586874429865984
aI729354793035169792
atp1111
Rp1112
sg12
I17
sg13
g14
(g15
tp1113
Rp1114
Vhttp://ift.tt/2jmzij3
p1115
I2
sVhttp://ift.tt/2iZzDJx
p1116
I1
sVhttp://ift.tt/2kaltor
p1117
I1
sVhttp://ift.tt/2jD59QC
p1118
I3
sVhttp://ift.tt/2ix3NW0
p1119
I1
sVhttp://ift.tt/2j4vCFT
p1120
I1
sVhttp://ift.tt/2ibb6nV
p1121
I2
sVhttp://ift.tt/2jt0ZrZ
p1122
I1
sVhttp://ift.tt/2k7nPsb
p1123
I1
sVhttp://ift.tt/2jF9h2w
p1124
I1
sVhttp://ift.tt/2k2eXQv
p1125
I2
sVhttp://ift.tt/2i8XUjl
p1126
I1
sVhttp://ift.tt/2j12XSA
p1127
I1
sVhttp://ift.tt/2jINabb
p1128
I1
sVhttp://ift.tt/2jCH0G7
p1129
I1
sVhttp://ift.tt/2jyhBP8
p1130
I1
sVhttp://ift.tt/2jRVRjB
p1131
I1
sVhttp://ift.tt/2j5Ivzs
p1132
I1
sVhttp://ift.tt/2jmxDdq
p1133
I1
sVhttp://ift.tt/2klu8Vi
p1134
I2
sVhttp://ift.tt/2jQ6pNl
p1135
I1
sVhttp://ift.tt/2juEqWa
p1136
I2
sVhttp://ift.tt/2jojo7V
p1137
I1
sVhttp://ift.tt/2iRQVdb
p1138
I1
sVhttp://ift.tt/2jdLpmn
p1139
I2
sVhttp://ift.tt/2iL5FYc
p1140
I1
sVhttp://ift.tt/2iDSjSl
p1141
I1
sVhttp://ift.tt/2jv8IWk
p1142
I1
sVhttp://ift.tt/2jxGNYp
p1143
I1
sVhttp://ift.tt/2iXvHZL
p1144
I1
sVhttp://ift.tt/2jlXoMm
p1145
I1
sVhttp://ift.tt/2ihiuhD
p1146
I1
sVhttp://ift.tt/2iLDr4e
p1147
I1
sVhttp://ift.tt/2itvz5T
p1148
I1
sVhttp://ift.tt/2jgzSCt
p1149
I1
sVhttp://ift.tt/2iVZOAV
p1150
I1
sVhttp://ift.tt/2jwvxf9
p1151
I1
sVhttp://ift.tt/2imrDoR
p1152
I1
sVhttp://ift.tt/2jwD51E
p1153
I2
sVhttp://ift.tt/2jyMcMb
p1154
I2
sVhttp://ift.tt/2j3zIhT
p1155
I2
sVhttp://ift.tt/2iDG0pa
p1156
I1
sVhttp://ift.tt/2iyhmop
p1157
I1
sVhttp://ift.tt/2ieJ8Tl
p1158
I1
sVhttp://ift.tt/2iVX6eI
p1159
I1
sVhttp://ift.tt/2jHuTst
p1160
I1
sVhttp://ift.tt/2jkgbHe
p1161
I1
sVhttp://ift.tt/2k2c4zn
p1162
I1
sVhttp://ift.tt/2jiyCfx
p1163
I1
sVhttp://ift.tt/2impXu5
p1164
I2
sVhttp://ift.tt/2iiOk8D
p1165
I1
sVhttp://ift.tt/2jerwst
p1166
I1
sVhttp://ift.tt/2jbcWlw
p1167
I2
sVhttp://ift.tt/2iXVQLp
p1168
I1
sVhttp://ift.tt/2iAO48m
p1169
I1
sVhttp://ift.tt/2k7Vj5B
p1170
I1
sVhttp://ift.tt/2jm4u1S
p1171
I1
sVhttp://ift.tt/2j18A3i
p1172
I1
sVhttp://ift.tt/2iXD9T6
p1173
I1
sVhttp://ift.tt/2j2ANpV
p1174
I1
sVhttp://ift.tt/2jwSkDI
p1175
I2
sVhttp://ift.tt/2i6XauZ
p1176
I1
sVhttp://ift.tt/2j4WTYh
p1177
I1
sVhttp://ift.tt/2ifujof
p1178
I2
sVhttp://ift.tt/2iNoZqO
p1179
I1
sVhttp://ift.tt/2jXN254
p1180
I1
sVhttp://ift.tt/2j7tNoZ
p1181
I1
ssg199
Vhd porn videos for the full clips visit our site
p1182
sg201
I17
sg202
I9
sg203
I2
sa(dp1183
g2
(dp1184
g4
I0
sg5
I82
ssg6
I82
sg7
g8
((lp1185
I516214458
atp1186
Rp1187
sg12
I17
sg13
g14
(g15
tp1188
Rp1189
Vhttp://ift.tt/2k9v4yx
p1190
I82
ssg199
Vthis is its nitty gritty
p1191
sg201
I18
sg202
I9
sg203
I2
sa(dp1192
g2
(dp1193
g4
I28
sg5
I50
ssg6
I78
sg7
g8
((lp1194
I751286718897221632
aI819673032851619841
aI828989739411845122
aI2199980580
aI800950862659067904
aI797900135321649153
aI770638645690793984
aI2494178432
aI500610958
aI731686524417392640
aI1625531792
aI3078270739
aI363905911
aI2588404282
aI814896234506911744
atp1195
Rp1196
sg12
I17
sg13
g14
(g15
tp1197
Rp1198
Vhttp://ift.tt/2jtTgrT
p1199
I2
sVhttp://ift.tt/2knD9Al
p1200
I2
sVhttp://ift.tt/2jl7HTT
p1201
I2
sVhttp://ift.tt/2kmedtb
p1202
I1
sVhttp://ift.tt/2jpNuaH
p1203
I1
sVhttp://ift.tt/2kehfjs
p1204
I1
sVhttp://ift.tt/2l5rhUL
p1205
I1
sVhttp://ift.tt/2kGXdum
p1206
I1
sVhttp://ift.tt/2kr3FWB
p1207
I1
sVhttp://ift.tt/2kWvqtW
p1208
I1
sVhttp://ift.tt/2klUtnb
p1209
I2
sVhttp://ift.tt/2jLw5tk
p1210
I5
sVhttp://ift.tt/2kDo6jE
p1211
I1
sVhttp://ift.tt/2l7xZpn
p1212
I1
sVhttp://ift.tt/2jFVWHS
p1213
I1
sVhttp://ift.tt/2l7vwzd
p1214
I4
sVhttp://ift.tt/2l3JFgR
p1215
I1
sVhttp://ift.tt/2k5AsBl
p1216
I1
sVhttp://ift.tt/2k7ArNl
p1217
I1
sVhttp://ift.tt/2jFLVFG
p1218
I1
sVhttp://ift.tt/2kF8P0R
p1219
I1
sVhttp://ift.tt/2kgJX2J
p1220
I1
sVhttp://ift.tt/2kILo8l
p1221
I1
sVhttp://ift.tt/2kqMrf2
p1222
I1
sVhttp://ift.tt/2k7GcO9
p1223
I1
sVhttp://ift.tt/2ksIdmr
p1224
I1
sVhttp://ift.tt/2keIfON
p1225
I1
sVhttp://ift.tt/2k4bFxn
p1226
I1
sVhttp://ift.tt/2kbO3sv
p1227
I1
sVhttp://ift.tt/2l4UoYb
p1228
I1
sVhttp://ift.tt/2kHavv1
p1229
I1
sVhttp://ift.tt/2k4ilyL
p1230
I3
sVhttp://ift.tt/2lc3E9R
p1231
I4
sVhttp://ift.tt/2koSte9
p1232
I1
sVhttp://ift.tt/2jr2V2E
p1233
I1
sVhttp://ift.tt/2jJbF7z
p1234
I1
sVhttp://ift.tt/2jKWgQG
p1235
I1
sVhttp://ift.tt/2jVuFgz
p1236
I2
sVhttp://ift.tt/2jz3hZG
p1237
I1
sVhttp://ift.tt/2kuCA5E
p1238
I1
sVhttp://ift.tt/2kO8kSn
p1239
I1
sVhttp://ift.tt/2kGkfWd
p1240
I1
sVhttp://ift.tt/2kU0qXw
p1241
I1
sVhttp://ift.tt/2l89Dvm
p1242
I1
sVhttp://ift.tt/2jANJTE
p1243
I1
sVhttp://ift.tt/2juoe8p
p1244
I1
sVhttp://ift.tt/2l9BCLf
p1245
I1
sVhttp://ift.tt/2k2dPfp
p1246
I1
sVhttp://ift.tt/2kGsBgF
p1247
I1
sVhttp://ift.tt/2kGCXsS
p1248
I1
sVhttp://ift.tt/2jJL2wC
p1249
I1
sVhttp://ift.tt/2kRzpVt
p1250
I1
sVhttp://ift.tt/2l3oZlP
p1251
I1
sVhttp://ift.tt/2kCfeec
p1252
I1
sVhttp://ift.tt/2l9DVPl
p1253
I1
sVhttp://ift.tt/2jXk8Eb
p1254
I1
sVhttp://ift.tt/2kGK098
p1255
I1
sVhttp://ift.tt/2jEJZk6
p1256
I4
ssg199
Vhere is the full view
p1257
sg201
I19
sg202
I9
sg203
I2
sa(dp1258
g2
(dp1259
g4
I20
sg5
I58
ssg6
I78
sg7
g8
((lp1260
I813487506641584128
aI803674653088628737
aI810759313908174848
aI824653851441537025
aI809795041568968709
aI788698811581526016
aI824687257349033985
aI821982879064424448
aI781025379628843008
aI3333223713
aI828672921233092609
aI1394616217
aI753247415466127360
aI748316955036225541
aI768813043581157376
atp1261
Rp1262
sg12
I17
sg13
g14
(g15
tp1263
Rp1264
Vhttp://ift.tt/2iHwWiS
p1265
I2
sVhttp://ift.tt/2ixCTuK
p1266
I1
sVhttp://ift.tt/2ilRc4w
p1267
I1
sVhttp://ift.tt/2iaRbAm
p1268
I1
sVhttp://ift.tt/2ieWELH
p1269
I1
sVhttp://ift.tt/2jyEzV9
p1270
I1
sVhttp://ift.tt/2idPXId
p1271
I1
sVhttp://ift.tt/2jQOKIy
p1272
I1
sVhttp://ift.tt/2iiK9tH
p1273
I2
sVhttp://ift.tt/2ikM6G1
p1274
I2
sVhttp://ift.tt/2jlwF29
p1275
I1
sVhttp://ift.tt/2jrXGBf
p1276
I1
sVhttp://ift.tt/2juBKEo
p1277
I1
sVhttp://ift.tt/2k6czZg
p1278
I1
sVhttp://ift.tt/2jvfABI
p1279
I1
sVhttp://ift.tt/2jX572l
p1280
I2
sVhttp://ift.tt/2jaLfZB
p1281
I2
sVhttp://ift.tt/2jEqHvL
p1282
I1
sVhttp://ift.tt/2izOCgl
p1283
I1
sVhttp://ift.tt/2juikDf
p1284
I1
sVhttp://ift.tt/2iBV3M3
p1285
I1
sVhttp://ift.tt/2javHs5
p1286
I1
sVhttp://ift.tt/2j8Zpuh
p1287
I2
sVhttp://ift.tt/2jgz5yo
p1288
I2
sVhttp://ift.tt/2jXIPNM
p1289
I1
sVhttp://ift.tt/2ipOm1T
p1290
I1
sVhttp://ift.tt/2iWREKn
p1291
I1
sVhttp://ift.tt/2iPvypz
p1292
I2
sVhttp://ift.tt/2jkJ9qn
p1293
I1
sVhttp://ift.tt/2iFRW4V
p1294
I1
sVhttp://ift.tt/2iza0T2
p1295
I1
sVhttp://ift.tt/2jurMn4
p1296
I1
sVhttp://ift.tt/2k3VYFh
p1297
I1
sVhttp://ift.tt/2jpCYBR
p1298
I1
sVhttp://ift.tt/2ivzNtT
p1299
I1
sVhttp://ift.tt/2k4e368
p1300
I1
sVhttp://ift.tt/2jd0lk1
p1301
I1
sVhttp://ift.tt/2jI5Ckl
p1302
I1
sVhttp://ift.tt/2jARvNl
p1303
I1
sVhttp://ift.tt/2ixuAir
p1304
I1
sVhttp://ift.tt/2jjAmHN
p1305
I1
sVhttp://ift.tt/2jBz4Vs
p1306
I1
sVhttp://ift.tt/2iZ5bRA
p1307
I1
sVhttp://ift.tt/2iWkudF
p1308
I1
sVhttp://ift.tt/2jx4igE
p1309
I1
sVhttp://ift.tt/2k46Cjv
p1310
I1
sVhttp://ift.tt/2j30On2
p1311
I1
sVhttp://ift.tt/2jm1y5G
p1312
I1
sVhttp://ift.tt/2ioPM9N
p1313
I1
sVhttp://ift.tt/2jhNc9n
p1314
I1
sVhttp://ift.tt/2j9fWBM
p1315
I1
sVhttp://ift.tt/2k5To5w
p1316
I1
sVhttp://ift.tt/2j6T9q4
p1317
I1
sVhttp://ift.tt/2j7uNwp
p1318
I2
sVhttp://ift.tt/2jttqpg
p1319
I3
sVhttp://ift.tt/2iyogYd
p1320
I3
sVhttp://ift.tt/2iiyr7b
p1321
I1
sVhttp://ift.tt/2iRDU0f
p1322
I1
sVhttp://ift.tt/2imeXNs
p1323
I1
sVhttp://ift.tt/2j8hFXr
p1324
I1
sVhttp://ift.tt/2jFL78j
p1325
I1
sVhttp://ift.tt/2juVlVW
p1326
I1
sVhttp://ift.tt/2jx5Vy3
p1327
I2
sVhttp://ift.tt/2jPQ3UQ
p1328
I1
ssg199
Venjoy our daily updated porn clips full clips here
p1329
sg201
I20
sg202
I9
sg203
I2
sa(dp1330
g2
(dp1331
g4
I18
sg5
I58
ssg6
I76
sg7
g8
((lp1332
I705468543568109568
aI795621124189069312
aI810224899390205954
aI1319467940
aI817880451205435392
aI2942757681
aI4013703275
aI3994988753
aI255090422
aI363905911
aI3864994872
aI778289778362114048
aI3484955057
atp1333
Rp1334
sg12
I17
sg13
g14
(g15
tp1335
Rp1336
Vhttp://ift.tt/2jHOAju
p1337
I1
sVhttp://ift.tt/2jAL11I
p1338
I1
sVhttp://ift.tt/2iWfxzY
p1339
I1
sVhttp://ift.tt/2iEoHAd
p1340
I1
sVhttp://ift.tt/2in9oOR
p1341
I1
sVhttp://ift.tt/2ieG2nf
p1342
I1
sVhttp://ift.tt/2jnNFHr
p1343
I1
sVhttp://ift.tt/2jEHXRQ
p1344
I1
sVhttp://ift.tt/2kHfXLa
p1345
I1
sVhttp://ift.tt/2iBvp9Y
p1346
I2
sVhttp://ift.tt/2jgZRHd
p1347
I1
sVhttp://ift.tt/2izn9aN
p1348
I1
sVhttp://ift.tt/2i9WobI
p1349
I1
sVhttp://ift.tt/2iBJyUU
p1350
I1
sVhttp://ift.tt/2iMYkYc
p1351
I1
sVhttp://ift.tt/2ivaUOV
p1352
I2
sVhttp://ift.tt/2jQn07b
p1353
I1
sVhttp://ift.tt/2jirp1v
p1354
I1
sVhttp://ift.tt/2j9XTeK
p1355
I2
sVhttp://ift.tt/2ilY99l
p1356
I1
sVhttp://ift.tt/2loBGuQ
p1357
I1
sVhttp://ift.tt/2iylrGq
p1358
I1
sVhttp://ift.tt/2iUT5Wi
p1359
I1
sVhttp://ift.tt/2ilZMUd
p1360
I1
sVhttp://ift.tt/2iZySSn
p1361
I1
sVhttp://ift.tt/2ijlyou
p1362
I1
sVhttp://ift.tt/2iJsIU5
p1363
I2
sVhttp://ift.tt/2j6BI9j
p1364
I1
sVhttp://ift.tt/2jmHXU4
p1365
I1
sVhttp://ift.tt/2jxHgpF
p1366
I2
sVhttp://ift.tt/2if1Z42
p1367
I1
sVhttp://ift.tt/2jykqSw
p1368
I1
sVhttp://ift.tt/2jt0rom
p1369
I2
sVhttp://ift.tt/2jkJ1I5
p1370
I2
sVhttp://ift.tt/2jxNhpS
p1371
I1
sVhttp://ift.tt/2iYeVLK
p1372
I1
sVhttp://ift.tt/2jMxSzE
p1373
I1
sVhttp://ift.tt/2jIPu1x
p1374
I1
sVhttp://ift.tt/2jvN0UY
p1375
I2
sVhttp://ift.tt/2jm4krR
p1376
I1
sVhttp://ift.tt/2jiNEEU
p1377
I2
sVhttp://ift.tt/2jvKyOf
p1378
I1
sVhttp://ift.tt/2jChO5S
p1379
I1
sVhttp://ift.tt/2iX5Ao5
p1380
I2
sVhttp://ift.tt/2jHwTDk
p1381
I1
sVhttp://ift.tt/2jDfnAN
p1382
I1
sVhttp://ift.tt/2j3r0hi
p1383
I1
sVhttp://ift.tt/2ixVLKi
p1384
I1
sVhttp://ift.tt/2juv22g
p1385
I1
sVhttp://ift.tt/2jBIxAi
p1386
I2
sVhttp://ift.tt/2k2npTW
p1387
I1
sVhttp://ift.tt/2jD7zP2
p1388
I1
sVhttp://ift.tt/2ibi2kW
p1389
I1
sVhttp://ift.tt/2i8FBur
p1390
I1
sVhttp://ift.tt/2jXG8vL
p1391
I1
sVhttp://ift.tt/2kkaBaV
p1392
I1
sVhttp://ift.tt/2ixXQ90
p1393
I1
sVhttp://ift.tt/2irKSJ1
p1394
I1
sVhttp://ift.tt/2jdrWSU
p1395
I1
sVhttp://ift.tt/2iH4QiZ
p1396
I2
sVhttp://ift.tt/2iQAJFO
p1397
I1
sVhttp://ift.tt/2iQyXVs
p1398
I1
sVhttp://ift.tt/2jlaMjd
p1399
I2
ssg199
Vsex boobs ass full video clip visit our site \u300b\u300b
p1400
sg201
I21
sg202
I9
sg203
I2
sa(dp1401
g2
(dp1402
g4
I1
sg5
I74
ssg6
I75
sg7
g8
((lp1403
I804812699507036160
aI130760193
aI786556215778119682
aI2570976043
aI48645833
aI703443658217926661
aI699559319629467648
aI128711646
aI567279883
aI512791682
aI23389277
aI106763540
aI159919257
aI773761560
aI196554521
aI21228698
aI18500764
aI3831039261
aI26599200
aI1202690977
aI2975196322
aI716104896961843200
aI1314568100
aI2654636455
aI538164008
aI3253409564
aI3073438634
aI15946795
aI64740140
aI370269230
aI821218809134465024
aI14584447
aI2449434162
aI814041918652829696
aI18138164
aI932647518
aI2364501961
aI2723469882
aI205322555
aI296493118
aI737064097703952384
aI28888215
aI478606913
aI165672130
aI396395718
aI1570200775
aI14309193
aI62321738
aI1318104631
aI2816577612
aI4871674146
aI1118130128
aI2501572945
aI2342644182
aI13633572
aI2766182874
aI15655899
aI578277980
aI45860154
aI2612462942
aI76908897
aI115412965
aI2797699025
aI622857704
aI3404498409
aI1574200574
aI2827582710
aI2494506104
aI2793191290
aI797450293814456320
aI2419449980
aI906942590
aI330429183
atp1404
Rp1405
sg12
I17
sg13
g14
(g15
tp1406
Rp1407
Vhttp://ift.tt/15FcaC4
p1408
I1
sVhttp://ift.tt/2lsCjPS
p1409
I22
sVhttp://ift.tt/2kwwIdU
p1410
I17
sVhttp://ift.tt/2k7MZHE
p1411
I1
sVhttp://ift.tt/2lsDkYm
p1412
I1
sVhttp://ift.tt/2kwQ3f1
p1413
I34
ssg199
Vobamas official white house photographer is instatrolling trump
p1414
sg201
I22
sg202
I9
sg203
I2
sa(dp1415
g2
(dp1416
g4
I10
sg5
I65
ssg6
I75
sg7
g8
((lp1417
I810226406038917120
aI815947182700380160
aI784426838223228928
aI802505334015266817
aI849370801
aI790217944085229568
aI2859502903
aI816585564656988160
atp1418
Rp1419
sg12
I17
sg13
g14
(g15
tp1420
Rp1421
Vhttp://ift.tt/2jNL7jv
p1422
I1
sVhttp://ift.tt/2jbH93Z
p1423
I1
sVhttp://ift.tt/2ja8arq
p1424
I1
sVhttp://ift.tt/2k4ry5V
p1425
I1
sVhttp://ift.tt/2jpHiQn
p1426
I1
sVhttp://ift.tt/2jIPzj5
p1427
I1
sVhttp://ift.tt/2jaNfRY
p1428
I1
sVhttp://ift.tt/2kmtevJ
p1429
I1
sVhttp://ift.tt/2jqOq1L
p1430
I1
sVhttp://ift.tt/2jpzkXs
p1431
I1
sVhttp://ift.tt/2kgixYz
p1432
I1
sVhttp://ift.tt/2j4yi6I
p1433
I2
sVhttp://ift.tt/2j9yQsj
p1434
I1
sVhttp://ift.tt/2jTrA4x
p1435
I1
sVhttp://ift.tt/2iYaVtl
p1436
I1
sVhttp://ift.tt/2iWQwGI
p1437
I1
sVhttp://ift.tt/2iJcfzm
p1438
I1
sVhttp://ift.tt/2jHoDji
p1439
I1
sVhttp://ift.tt/2jmWk9L
p1440
I1
sVhttp://ift.tt/2jz1K5e
p1441
I1
sVhttp://ift.tt/2j4xv3f
p1442
I1
sVhttp://ift.tt/2j1TLgJ
p1443
I2
sVhttp://ift.tt/2jxpHX3
p1444
I1
sVhttp://ift.tt/2jnoySI
p1445
I1
sVhttp://ift.tt/2iLTKJA
p1446
I1
sVhttp://ift.tt/2iFqIA6
p1447
I1
sVhttp://ift.tt/2iIyRni
p1448
I1
sVhttp://ift.tt/2jqO746
p1449
I1
sVhttp://ift.tt/2juDVeH
p1450
I1
sVhttp://ift.tt/2j7Suou
p1451
I1
sVhttp://ift.tt/2km9DvH
p1452
I1
sVhttp://ift.tt/2k1MnyH
p1453
I1
sVhttp://ift.tt/2iX0Hsp
p1454
I1
sVhttp://ift.tt/2kdinjq
p1455
I1
sVhttp://ift.tt/2jwWIWe
p1456
I1
sVhttp://ift.tt/2jH1tKM
p1457
I1
sVhttp://ift.tt/2jlPAKt
p1458
I1
sVhttp://ift.tt/2iZfWns
p1459
I2
sVhttp://ift.tt/2iFMvmA
p1460
I1
sVhttp://ift.tt/2jfGhya
p1461
I2
sVhttp://ift.tt/2jNaJx1
p1462
I1
sVhttp://ift.tt/2iTOpTM
p1463
I2
sVhttp://ift.tt/2ijlVmo
p1464
I1
sVhttp://ift.tt/2igPZ3v
p1465
I1
sVhttp://ift.tt/2i7BleI
p1466
I1
sVhttp://ift.tt/2jxCYyS
p1467
I1
sVhttp://ift.tt/2jBEtz8
p1468
I1
sVhttp://ift.tt/2jEt0j8
p1469
I1
sVhttp://ift.tt/2jvMQMY
p1470
I1
sVhttp://ift.tt/2jFalQ3
p1471
I1
sVhttp://ift.tt/2jhyXSF
p1472
I1
sVhttp://ift.tt/2iTUkIK
p1473
I1
sVhttp://ift.tt/2jQSppO
p1474
I1
sVhttp://ift.tt/2jocnoY
p1475
I1
sVhttp://ift.tt/2iQwLy4
p1476
I1
sVhttp://ift.tt/2i76iQv
p1477
I1
sVhttp://ift.tt/2jmLbpx
p1478
I1
sVhttp://ift.tt/2jdtKuq
p1479
I1
sVhttp://ift.tt/2jvpCTA
p1480
I1
sVhttp://ift.tt/2jPO2bs
p1481
I1
sVhttp://ift.tt/2jwDAIr
p1482
I1
sVhttp://ift.tt/2iGQFun
p1483
I2
sVhttp://ift.tt/2k7Q5do
p1484
I1
sVhttp://ift.tt/2iUjkwO
p1485
I1
sVhttp://ift.tt/2j6hcFQ
p1486
I1
sVhttp://ift.tt/2jNHtpU
p1487
I1
sVhttp://ift.tt/2jyCtoo
p1488
I1
sVhttp://ift.tt/2k7lkST
p1489
I1
sVhttp://ift.tt/2js5fHk
p1490
I1
ssg199
Vfor the full video visit go to
p1491
sg201
I23
sg202
I9
sg203
I2
sa(dp1492
g2
(dp1493
g4
I17
sg5
I58
ssg6
I75
sg7
g8
((lp1494
I793889565455024128
aI790598135181561856
aI817774037761986560
aI800033987141976064
aI828314303849709568
aI320790512
aI1086004212
aI4872378132
aI747079373950455808
aI3383633054
aI729354793035169792
atp1495
Rp1496
sg12
I17
sg13
g14
(g15
tp1497
Rp1498
Vhttp://ift.tt/2jBFd40
p1499
I1
sVhttp://ift.tt/2iEngBa
p1500
I1
sVhttp://ift.tt/2iTizna
p1501
I1
sVhttp://ift.tt/2jcvzrE
p1502
I1
sVhttp://ift.tt/2iS9cHr
p1503
I1
sVhttp://ift.tt/2jw0akG
p1504
I1
sVhttp://ift.tt/2jl0hwJ
p1505
I1
sVhttp://ift.tt/2k3lOgJ
p1506
I1
sVhttp://ift.tt/2jLO448
p1507
I1
sVhttp://ift.tt/2iUbdCS
p1508
I1
sVhttp://ift.tt/2jx1bIE
p1509
I1
sVhttp://ift.tt/2j9jfId
p1510
I1
sVhttp://ift.tt/2jc8in9
p1511
I1
sVhttp://ift.tt/2jHv9dh
p1512
I1
sVhttp://ift.tt/2jprK0x
p1513
I1
sVhttp://ift.tt/2iwGf0n
p1514
I1
sVhttp://ift.tt/2ibKWRR
p1515
I1
sVhttp://ift.tt/2k2ui7F
p1516
I1
sVhttp://ift.tt/2jHj7R6
p1517
I1
sVhttp://ift.tt/2k0jiDY
p1518
I1
sVhttp://ift.tt/2jbt59W
p1519
I1
sVhttp://ift.tt/2iRgMlK
p1520
I1
sVhttp://ift.tt/2jfO7YA
p1521
I2
sVhttp://ift.tt/2jz4ShN
p1522
I1
sVhttp://ift.tt/2jhKn5i
p1523
I1
sVhttp://ift.tt/2j1exfx
p1524
I1
sVhttp://ift.tt/2k6nmGJ
p1525
I1
sVhttp://ift.tt/2j9nJw0
p1526
I1
sVhttp://ift.tt/2jvqIPn
p1527
I1
sVhttp://ift.tt/2k0dn1N
p1528
I2
sVhttp://ift.tt/2jzU0QX
p1529
I1
sVhttp://ift.tt/2j5pU6W
p1530
I1
sVhttp://ift.tt/2jIg6NY
p1531
I1
sVhttp://ift.tt/2iLHyvw
p1532
I1
sVhttp://ift.tt/2jMkWwp
p1533
I1
sVhttp://ift.tt/2iLupmu
p1534
I1
sVhttp://ift.tt/2jGMqzP
p1535
I2
sVhttp://ift.tt/2iGhAq1
p1536
I1
sVhttp://ift.tt/2iX65L6
p1537
I1
sVhttp://ift.tt/2jcUqMm
p1538
I1
sVhttp://ift.tt/2jKbZDm
p1539
I1
sVhttp://ift.tt/2jFpVv2
p1540
I1
sVhttp://ift.tt/2j62yxX
p1541
I1
sVhttp://ift.tt/2iF8fzB
p1542
I1
sVhttp://ift.tt/2ibZOzD
p1543
I1
sVhttp://ift.tt/2iBXiTt
p1544
I1
sVhttp://ift.tt/2iEMsZ2
p1545
I1
sVhttp://ift.tt/2j6w9HJ
p1546
I1
sVhttp://ift.tt/2ixJ69V
p1547
I1
sVhttp://ift.tt/2jpghQn
p1548
I1
sVhttp://ift.tt/2iGGXJf
p1549
I1
sVhttp://ift.tt/2jnNFnq
p1550
I1
sVhttp://ift.tt/2jwcVeS
p1551
I1
sVhttp://ift.tt/2jjfmOy
p1552
I1
sVhttp://ift.tt/2iXYRKB
p1553
I2
sVhttp://ift.tt/2j4GzqB
p1554
I1
sVhttp://ift.tt/2jZCtkV
p1555
I2
sVhttp://ift.tt/2jjTy8Q
p1556
I1
sVhttp://ift.tt/2j2OMfU
p1557
I1
sVhttp://ift.tt/2jezXXK
p1558
I1
sVhttp://ift.tt/2jCmtFm
p1559
I1
sVhttp://ift.tt/2jBcPBY
p1560
I1
sVhttp://ift.tt/2jAdQL5
p1561
I1
sVhttp://ift.tt/2iXNxdB
p1562
I2
sVhttp://ift.tt/2jCzGhB
p1563
I2
sVhttp://ift.tt/2jJ0tWC
p1564
I1
sVhttp://ift.tt/2iMmrqL
p1565
I2
ssg199
V\u2665\u2665\u2665\u2665\u2665\u2665\u2665\u2665\u2665\u2665 find over 23k erotic videos visit our site \u300b\u300b  \u2665\u2665\u2665\u2665\u2665\u2665\u2665\u2665\u2665\u2665
p1566
sg201
I24
sg202
I9
sg203
I2
sa(dp1567
g2
(dp1568
g4
I11
sg5
I60
ssg6
I71
sg7
g8
((lp1569
I820029927613431808
aI827687232140038145
aI4891016803
aI794706454246780928
aI1461325358
aI723580950207160320
aI2397301338
atp1570
Rp1571
sg12
I17
sg13
g14
(g15
tp1572
Rp1573
Vhttp://ift.tt/2j9cN1r
p1574
I1
sVhttp://ift.tt/2jkXeXE
p1575
I1
sVhttp://ift.tt/2kkwwLW
p1576
I1
sVhttp://ift.tt/2k26RY4
p1577
I1
sVhttp://ift.tt/2iEUJjx
p1578
I1
sVhttp://ift.tt/2jhAtE2
p1579
I1
sVhttp://ift.tt/2k2Gbd9
p1580
I1
sVhttp://ift.tt/2jCK4EY
p1581
I2
sVhttp://ift.tt/2iywsXG
p1582
I1
sVhttp://ift.tt/2jNRPoT
p1583
I1
sVhttp://ift.tt/2jonNv5
p1584
I1
sVhttp://ift.tt/2jWFHSD
p1585
I1
sVhttp://ift.tt/2jJCAkd
p1586
I1
sVhttp://ift.tt/2k3NAp9
p1587
I1
sVhttp://ift.tt/2jJrVWM
p1588
I1
sVhttp://ift.tt/2k4W6V1
p1589
I1
sVhttp://ift.tt/2jlHvYa
p1590
I2
sVhttp://ift.tt/2jq9V38
p1591
I1
sVhttp://ift.tt/2iMkKMo
p1592
I1
sVhttp://ift.tt/2jXkhp4
p1593
I1
sVhttp://ift.tt/2iJg3zC
p1594
I1
sVhttp://ift.tt/2jz2xAM
p1595
I1
sVhttp://ift.tt/2iFPAHS
p1596
I1
sVhttp://ift.tt/2k1YY61
p1597
I1
sVhttp://ift.tt/2jP6vHM
p1598
I1
sVhttp://ift.tt/2jQB8Jk
p1599
I2
sVhttp://ift.tt/2ixuCWW
p1600
I1
sVhttp://ift.tt/2j4ehJs
p1601
I1
sVhttp://ift.tt/2iqhL94
p1602
I1
sVhttp://ift.tt/2jRmQMf
p1603
I1
sVhttp://ift.tt/2jV3Ufv
p1604
I1
sVhttp://ift.tt/2jwjo6A
p1605
I1
sVhttp://ift.tt/2iQbNTY
p1606
I1
sVhttp://ift.tt/2jutuoA
p1607
I1
sVhttp://ift.tt/2jJlHmB
p1608
I2
sVhttp://ift.tt/2k3wHit
p1609
I1
sVhttp://ift.tt/2iSApHq
p1610
I1
sVhttp://ift.tt/2jPUQZl
p1611
I1
sVhttp://ift.tt/2jJg9ZG
p1612
I1
sVhttp://ift.tt/2jlytsh
p1613
I1
sVhttp://ift.tt/2jJkcYA
p1614
I1
sVhttp://ift.tt/2klxF6y
p1615
I1
sVhttp://ift.tt/2jxcrW3
p1616
I1
sVhttp://ift.tt/2jjhh8B
p1617
I1
sVhttp://ift.tt/2iAQ1hP
p1618
I1
sVhttp://ift.tt/2k7LyFK
p1619
I1
sVhttp://ift.tt/2jzG6LJ
p1620
I1
sVhttp://ift.tt/2jmzmD8
p1621
I1
sVhttp://ift.tt/2jJ9I8m
p1622
I1
sVhttp://ift.tt/2jw3SYu
p1623
I1
sVhttp://ift.tt/2jzaGoc
p1624
I1
sVhttp://ift.tt/2iFMEcL
p1625
I1
sVhttp://ift.tt/2kbgac3
p1626
I1
sVhttp://ift.tt/2is8zku
p1627
I2
sVhttp://ift.tt/2jwYBTx
p1628
I1
sVhttp://ift.tt/2jFgNrs
p1629
I1
sVhttp://ift.tt/2jzhxB5
p1630
I1
sVhttp://ift.tt/2iwFkAl
p1631
I1
sVhttp://ift.tt/2iomHQy
p1632
I1
sVhttp://ift.tt/2ix8Ju1
p1633
I2
sVhttp://ift.tt/2joDBhC
p1634
I1
sVhttp://ift.tt/2jPCJ5g
p1635
I1
sVhttp://ift.tt/2j9NjDy
p1636
I1
sVhttp://ift.tt/2jrqvQn
p1637
I1
sVhttp://ift.tt/2jbDPpX
p1638
I1
ssg199
Vfull video here
p1639
sg201
I25
sg202
I9
sg203
I2
sa(dp1640
g2
(dp1641
g4
I5
sg5
I64
ssg6
I69
sg7
g8
((lp1642
I821100453152727040
aI704785830573899776
aI816982721692045315
atp1643
Rp1644
sg12
I17
sg13
g14
(g15
tp1645
Rp1646
Vhttp://ift.tt/2jug7Yo
p1647
I1
sVhttp://ift.tt/2jtP7bE
p1648
I1
sVhttp://ift.tt/2koQXYH
p1649
I1
sVhttp://ift.tt/2j8B1ci
p1650
I1
sVhttp://ift.tt/2kxSnCK
p1651
I1
sVhttp://ift.tt/2kj9buZ
p1652
I1
sVhttp://ift.tt/2kbAZ7y
p1653
I1
sVhttp://ift.tt/2iSDI5C
p1654
I1
sVhttp://ift.tt/2kCzaNd
p1655
I1
sVhttp://ift.tt/2iF5hKU
p1656
I1
sVhttp://ift.tt/2jdHS4e
p1657
I1
sVhttp://ift.tt/2kpQt88
p1658
I1
sVhttp://ift.tt/2iNchZg
p1659
I1
sVhttp://ift.tt/2k1Unjd
p1660
I1
sVhttp://ift.tt/2kj2bxb
p1661
I1
sVhttp://ift.tt/2l2eFcU
p1662
I1
sVhttp://ift.tt/2kCZ7jS
p1663
I1
sVhttp://ift.tt/2kboOrf
p1664
I1
sVhttp://ift.tt/2kmp5DU
p1665
I1
sVhttp://ift.tt/2iILM3O
p1666
I1
sVhttp://ift.tt/2jTQEou
p1667
I1
sVhttp://ift.tt/2iTyV2o
p1668
I1
sVhttp://ift.tt/2kcdSGL
p1669
I1
sVhttp://ift.tt/2k0hsmw
p1670
I1
sVhttp://ift.tt/2iUPyw6
p1671
I1
sVhttp://ift.tt/2iFCAQW
p1672
I2
sVhttp://ift.tt/2jJk0c9
p1673
I1
sVhttp://ift.tt/2jyiDKN
p1674
I1
sVhttp://ift.tt/2jufVsp
p1675
I1
sVhttp://ift.tt/2jZWKGm
p1676
I1
sVhttp://ift.tt/2jlkmmN
p1677
I1
sVhttp://ift.tt/2jsfaMS
p1678
I1
sVhttp://ift.tt/2jz0vT8
p1679
I1
sVhttp://ift.tt/2k6LNke
p1680
I1
sVhttp://ift.tt/2jWzvtI
p1681
I1
sVhttp://ift.tt/2k1LgiK
p1682
I1
sVhttp://ift.tt/2jh9wNx
p1683
I1
sVhttp://ift.tt/2jSwhHU
p1684
I1
sVhttp://ift.tt/2j6OgtQ
p1685
I1
sVhttp://ift.tt/2jATEZF
p1686
I1
sVhttp://ift.tt/2kn73FP
p1687
I1
sVhttp://ift.tt/2kgvMqV
p1688
I1
sVhttp://ift.tt/2j7o7v8
p1689
I1
sVhttp://ift.tt/2k1pr3z
p1690
I1
sVhttp://ift.tt/2jgh6bu
p1691
I1
sVhttp://ift.tt/2jT8vi4
p1692
I1
sVhttp://ift.tt/2jh4Wz5
p1693
I1
sVhttp://ift.tt/2kaJwaH
p1694
I1
sVhttp://ift.tt/2jcbtdx
p1695
I1
sVhttp://ift.tt/2iLTHxx
p1696
I1
sVhttp://ift.tt/2j1ivFd
p1697
I1
sVhttp://ift.tt/2jbHK57
p1698
I1
sVhttp://ift.tt/2jlRjRz
p1699
I1
sVhttp://ift.tt/2iApK3e
p1700
I1
sVhttp://ift.tt/2jubY6S
p1701
I1
sVhttp://ift.tt/2iBzHm4
p1702
I1
sVhttp://ift.tt/2iMIos9
p1703
I1
sVhttp://ift.tt/2j3ZjTU
p1704
I1
sVhttp://ift.tt/2jxgelI
p1705
I1
sVhttp://ift.tt/2kd9J5j
p1706
I1
sVhttp://ift.tt/2iDw3rF
p1707
I1
sVhttp://ift.tt/2k0PYAK
p1708
I1
sVhttp://ift.tt/2j8i7l0
p1709
I1
sVhttp://ift.tt/2jDItQc
p1710
I1
sVhttp://ift.tt/2k3MRYW
p1711
I1
sVhttp://ift.tt/2iGmbJ3
p1712
I1
sVhttp://ift.tt/2iZ1KvQ
p1713
I1
sVhttp://ift.tt/2iF5vBt
p1714
I1
ssg199
Vfull video here \u23e9 \u23e9
p1715
sg201
I26
sg202
I9
sg203
I2
sa(dp1716
g2
(dp1717
g4
I8
sg5
I59
ssg6
I67
sg7
g8
((lp1718
I809942222930055168
aI727866725358829568
aI3306129478
aI707248259270582272
aI819115931393785857
atp1719
Rp1720
sg12
I17
sg13
g14
(g15
tp1721
Rp1722
Vhttp://ift.tt/2iEube5
p1723
I1
sVhttp://ift.tt/2jO3nt5
p1724
I1
sVhttp://ift.tt/2jlbnkY
p1725
I1
sVhttp://ift.tt/2i8LXKB
p1726
I1
sVhttp://ift.tt/2i97um7
p1727
I1
sVhttp://ift.tt/2j1RVfj
p1728
I1
sVhttp://ift.tt/2iW3937
p1729
I1
sVhttp://ift.tt/2jKI5fT
p1730
I1
sVhttp://ift.tt/2k7yRJV
p1731
I2
sVhttp://ift.tt/2jd6UDG
p1732
I1
sVhttp://ift.tt/2iPkI6q
p1733
I1
sVhttp://ift.tt/2jJv325
p1734
I1
sVhttp://ift.tt/2jneYhK
p1735
I1
sVhttp://ift.tt/2iUntn6
p1736
I1
sVhttp://ift.tt/2jx3mwp
p1737
I1
sVhttp://ift.tt/2jaPPdN
p1738
I1
sVhttp://ift.tt/2jHaZgH
p1739
I1
sVhttp://ift.tt/2iLhMVg
p1740
I1
sVhttp://ift.tt/2iRr59a
p1741
I1
sVhttp://ift.tt/2j2zy88
p1742
I1
sVhttp://ift.tt/2jxjo9H
p1743
I1
sVhttp://ift.tt/2iPrglD
p1744
I1
sVhttp://ift.tt/2k66Li3
p1745
I1
sVhttp://ift.tt/2iyUKla
p1746
I1
sVhttp://ift.tt/2jLQ2o3
p1747
I1
sVhttp://ift.tt/2k1xc9t
p1748
I1
sVhttp://ift.tt/2iULGv2
p1749
I1
sVhttp://ift.tt/2j2IU68
p1750
I1
sVhttp://ift.tt/2jY7li0
p1751
I1
sVhttp://ift.tt/2j5Cgbg
p1752
I1
sVhttp://ift.tt/2jbNPBO
p1753
I1
sVhttp://ift.tt/2juTZwi
p1754
I1
sVhttp://ift.tt/2jzKdKj
p1755
I1
sVhttp://ift.tt/2kkvXov
p1756
I1
sVhttp://ift.tt/2j7CzTL
p1757
I1
sVhttp://ift.tt/2jwnBpP
p1758
I1
sVhttp://ift.tt/2k0XYy7
p1759
I1
sVhttp://ift.tt/2iXc16P
p1760
I1
sVhttp://ift.tt/2iacMZO
p1761
I1
sVhttp://ift.tt/2jkoH8b
p1762
I1
sVhttp://ift.tt/2iYSg2c
p1763
I1
sVhttp://ift.tt/2jzuffv
p1764
I1
sVhttp://ift.tt/2iQ1o5V
p1765
I1
sVhttp://ift.tt/2iTFYrF
p1766
I1
sVhttp://ift.tt/2jQPOeS
p1767
I1
sVhttp://ift.tt/2jxWZIU
p1768
I1
sVhttp://ift.tt/2io7gWL
p1769
I1
sVhttp://ift.tt/2iXYeOX
p1770
I2
sVhttp://ift.tt/2j9415T
p1771
I1
sVhttp://ift.tt/2jEeGH7
p1772
I1
sVhttp://ift.tt/2juqY4v
p1773
I1
sVhttp://ift.tt/2iXtxtg
p1774
I1
sVhttp://ift.tt/2jlzQXS
p1775
I1
sVhttp://ift.tt/2ipTMd7
p1776
I2
sVhttp://ift.tt/2iLBp2t
p1777
I1
sVhttp://ift.tt/2jKn3jL
p1778
I1
sVhttp://ift.tt/2jBVB80
p1779
I1
sVhttp://ift.tt/2jjiiej
p1780
I1
sVhttp://ift.tt/2j5XXfD
p1781
I1
sVhttp://ift.tt/2jq5qUo
p1782
I1
sVhttp://ift.tt/2jLirHK
p1783
I1
sVhttp://ift.tt/2jzf5Le
p1784
I1
sVhttp://ift.tt/2iPCk1Q
p1785
I1
sVhttp://ift.tt/2iD3Tc8
p1786
I1
ssg199
Vhd sex videos view full clips on our site
p1787
sg201
I27
sg202
I9
sg203
I2
sa(dp1788
g2
(dp1789
g4
I13
sg5
I54
ssg6
I67
sg7
g8
((lp1790
I810207421922557952
aI789594766816243712
aI770317238809354240
aI761595320471912449
aI731686524417392640
aI2859502903
aI308956505
aI501150203
atp1791
Rp1792
sg12
I17
sg13
g14
(g15
tp1793
Rp1794
Vhttp://ift.tt/2iEKx5Q
p1795
I1
sVhttp://ift.tt/2ie3hbW
p1796
I1
sVhttp://ift.tt/2ihKmwZ
p1797
I1
sVhttp://ift.tt/2jsXfph
p1798
I1
sVhttp://ift.tt/2ipKsaX
p1799
I1
sVhttp://ift.tt/2jcQysr
p1800
I1
sVhttp://ift.tt/2j69qf7
p1801
I1
sVhttp://ift.tt/2jsqZT2
p1802
I1
sVhttp://ift.tt/2isSBX2
p1803
I1
sVhttp://ift.tt/2iEqQMt
p1804
I1
sVhttp://ift.tt/2inPgbV
p1805
I2
sVhttp://ift.tt/2j6PMw7
p1806
I1
sVhttp://ift.tt/2iSK2bG
p1807
I1
sVhttp://ift.tt/2jlP9zi
p1808
I1
sVhttp://ift.tt/2iMzTgN
p1809
I1
sVhttp://ift.tt/2jISMzQ
p1810
I1
sVhttp://ift.tt/2iZ3gLn
p1811
I1
sVhttp://ift.tt/2jmFOqr
p1812
I1
sVhttp://ift.tt/2iNb6Js
p1813
I1
sVhttp://ift.tt/2ij06TG
p1814
I1
sVhttp://ift.tt/2iCwwqb
p1815
I1
sVhttp://ift.tt/2iDfUTc
p1816
I1
sVhttp://ift.tt/2ihPczc
p1817
I1
sVhttp://ift.tt/2jCHYWe
p1818
I1
sVhttp://ift.tt/2isinhK
p1819
I1
sVhttp://ift.tt/2jNOMNx
p1820
I1
sVhttp://ift.tt/2kdXSHE
p1821
I1
sVhttp://ift.tt/2jDsf9T
p1822
I1
sVhttp://ift.tt/2iEhMGe
p1823
I1
sVhttp://ift.tt/2jogcdj
p1824
I1
sVhttp://ift.tt/2jCq3zK
p1825
I1
sVhttp://ift.tt/2j8plsE
p1826
I1
sVhttp://ift.tt/2iWi0Mr
p1827
I1
sVhttp://ift.tt/2jCl2q4
p1828
I1
sVhttp://ift.tt/2jxqmYa
p1829
I1
sVhttp://ift.tt/2ig6ew1
p1830
I1
sVhttp://ift.tt/2igRSIJ
p1831
I1
sVhttp://ift.tt/2jEN2ZS
p1832
I1
sVhttp://ift.tt/2jHGSZj
p1833
I1
sVhttp://ift.tt/2jlRo6g
p1834
I2
sVhttp://ift.tt/2iFO70g
p1835
I1
sVhttp://ift.tt/2jxBpCg
p1836
I1
sVhttp://ift.tt/2jmC2Rj
p1837
I1
sVhttp://ift.tt/2jl4iB7
p1838
I1
sVhttp://ift.tt/2jMPWtd
p1839
I1
sVhttp://ift.tt/2j2ln2X
p1840
I1
sVhttp://ift.tt/2khM7Qh
p1841
I1
sVhttp://ift.tt/2iOIOLt
p1842
I1
sVhttp://ift.tt/2juZ85F
p1843
I1
sVhttp://ift.tt/2iLEiAx
p1844
I1
sVhttp://ift.tt/2igU8Tv
p1845
I1
sVhttp://ift.tt/2jP6VLD
p1846
I1
sVhttp://ift.tt/2jbGOOQ
p1847
I1
sVhttp://ift.tt/2ixDfUC
p1848
I1
sVhttp://ift.tt/2jFhLWY
p1849
I1
sVhttp://ift.tt/2jDFJ4E
p1850
I1
sVhttp://ift.tt/2jioJ1e
p1851
I1
sVhttp://ift.tt/2iQ8vew
p1852
I1
sVhttp://ift.tt/2itCz48
p1853
I3
sVhttp://ift.tt/2jjG6hS
p1854
I2
sVhttp://ift.tt/2j9ySQJ
p1855
I1
sVhttp://ift.tt/2ifFR6g
p1856
I1
ssg199
Vhere is the full video clip
p1857
sg201
I28
sg202
I9
sg203
I2
sa(dp1858
g2
(dp1859
g4
I2
sg5
I64
ssg6
I66
sg7
g8
((lp1860
I820327322188451840
aI828732908689055745
aI274997124
aI1511831046
aI704953706752708609
aI1602320521
aI159836939
aI2532366948
aI4775702286
aI127800081
aI1559325745
aI308981134
aI227369367
aI4234732696
aI769301803968057348
aI21228698
aI48983579
aI28888215
aI804812699507036160
aI3015832494
aI826089343706075136
aI33448100
aI27333626
aI2566049137
aI321270313
aI2673756716
aI370269230
aI1730932657
aI814041918652829696
aI2973190324
aI3750263606
aI1318104631
aI194358329
aI806944698
aI9473472
aI478606913
aI2430921283
aI1050470983
aI335987017
aI18934090
aI31190199
aI277008844
aI23214285
aI3119178447
aI1340534352
aI61419092
aI44106837
aI1258861399
aI786193049260920832
aI102998244
aI2305445690
aI47886560
aI3803265377
aI1335885452
aI428713827
aI296193636
aI622857704
aI3986600297
aI1390737643
aI1934287598
aI70150255
aI17711729
aI216895354
aI4536039677
aI1574200574
atp1861
Rp1862
sg12
I17
sg13
g14
(g15
tp1863
Rp1864
Vhttp://ift.tt/2k7DOHi
p1865
I62
sVhttp://ift.tt/2kTguMI
p1866
I1
sVhttp://ift.tt/2lsL4cS
p1867
I2
sVhttp://ift.tt/2kMHn2G
p1868
I1
ssg199
Vthe analogue nt mini is the perfect nes console for video game lovers
p1869
sg201
I29
sg202
I9
sg203
I2
sa(dp1870
g2
(dp1871
g4
I0
sg5
I66
ssg6
I66
sg7
g8
((lp1872
I820327322188451840
aI828732908689055745
aI16432771
aI274997124
aI1511831046
aI227369367
aI2891013388
aI14206093
aI4775702286
aI127800081
aI205592598
aI28888215
aI4234732696
aI21228698
aI15250716
aI1118982426
aI804812699507036160
aI33448100
aI2914752390
aI2566049137
aI321270313
aI1050470983
aI2673756716
aI370269230
aI612721501
aI1730932657
aI3270476594
aI814041918652829696
aI2973190324
aI2842637086
aI3750263606
aI51116599
aI806944698
aI24770807
aI9473472
aI478606913
aI2430921283
aI3074543943
aI750431844424945664
aI261944010
aI3846134775
aI277008844
aI23214285
aI3119178447
aI61419092
aI44106837
aI1258861399
aI578277980
aI2305445690
aI741156263841693696
aI3803265377
aI428713827
aI102998244
aI34730520
aI1524221287
aI622857704
aI3986600297
aI1934287598
aI70150255
aI17711729
aI440015991
aI216895354
aI18500764
aI4536039677
aI1574200574
atp1873
Rp1874
sg12
I17
sg13
g14
(g15
tp1875
Rp1876
Vhttp://ift.tt/2kTfwQP
p1877
I1
sVhttp://ift.tt/2k7CT9S
p1878
I1
sVhttp://ift.tt/2kXW9Wh
p1879
I63
sVhttp://makemakego.com
p1880
I1
sVhttp://ift.tt/2kXKeb7
p1881
I1
ssg199
Vmott amp bow are looking into your jeans
p1882
sg201
I30
sg202
I9
sg203
I2
sa(dp1883
g2
(dp1884
g4
I9
sg5
I53
ssg6
I62
sg7
g8
((lp1885
I810153266315038720
aI705468543568109568
aI768441572048441344
aI723520673763610624
aI791555075932037120
atp1886
Rp1887
sg12
I17
sg13
g14
(g15
tp1888
Rp1889
Vhttp://ift.tt/2j9OnWh
p1890
I1
sVhttp://ift.tt/2jwryOT
p1891
I1
sVhttp://ift.tt/2icUISc
p1892
I1
sVhttp://ift.tt/2ic5EvT
p1893
I2
sVhttp://ift.tt/2jcSP6P
p1894
I1
sVhttp://ift.tt/2kk61qL
p1895
I2
sVhttp://ift.tt/2ikGFa5
p1896
I1
sVhttp://ift.tt/2ibhuXk
p1897
I1
sVhttp://ift.tt/2j1exNs
p1898
I2
sVhttp://ift.tt/2iLhJZD
p1899
I1
sVhttp://ift.tt/2k0Nty1
p1900
I2
sVhttp://ift.tt/2iGlkI2
p1901
I1
sVhttp://ift.tt/2k2pbnW
p1902
I1
sVhttp://ift.tt/2jtZs7d
p1903
I1
sVhttp://ift.tt/2jumFTp
p1904
I1
sVhttp://ift.tt/2jlaoBE
p1905
I1
sVhttp://ift.tt/2i8JFuK
p1906
I1
sVhttp://ift.tt/2i7B6Al
p1907
I1
sVhttp://ift.tt/2jHKMPc
p1908
I1
sVhttp://ift.tt/2ixFRQ4
p1909
I1
sVhttp://ift.tt/2jjwxmA
p1910
I3
sVhttp://ift.tt/2jxiSZ8
p1911
I1
sVhttp://ift.tt/2js2Mxd
p1912
I1
sVhttp://ift.tt/2iM0Oa6
p1913
I1
sVhttp://ift.tt/2jMdq49
p1914
I1
sVhttp://ift.tt/2iFmwjY
p1915
I1
sVhttp://ift.tt/2iku0Uo
p1916
I1
sVhttp://ift.tt/2j3fEMK
p1917
I1
sVhttp://ift.tt/2jb5Ygm
p1918
I1
sVhttp://ift.tt/2j4II6F
p1919
I1
sVhttp://ift.tt/2ip5Mf0
p1920
I1
sVhttp://ift.tt/2jxszq6
p1921
I1
sVhttp://ift.tt/2jnd4O4
p1922
I1
sVhttp://ift.tt/2jBJnNc
p1923
I1
sVhttp://ift.tt/2ioztwM
p1924
I1
sVhttp://ift.tt/2j36KhK
p1925
I2
sVhttp://ift.tt/2iX6mPC
p1926
I1
sVhttp://ift.tt/2iWE8EE
p1927
I1
sVhttp://ift.tt/2jXnhnV
p1928
I1
sVhttp://ift.tt/2jrKR8K
p1929
I1
sVhttp://ift.tt/2ipIerX
p1930
I1
sVhttp://ift.tt/2iXTfOb
p1931
I1
sVhttp://ift.tt/2jmxJSi
p1932
I1
sVhttp://ift.tt/2jHXyxg
p1933
I1
sVhttp://ift.tt/2kqQFjo
p1934
I1
sVhttp://ift.tt/2iJ16h4
p1935
I1
sVhttp://ift.tt/2idH1nM
p1936
I1
sVhttp://ift.tt/2imrimk
p1937
I1
sVhttp://ift.tt/2iZNi3h
p1938
I1
sVhttp://ift.tt/2jm6d8S
p1939
I1
sVhttp://ift.tt/2jwfV7j
p1940
I1
sVhttp://ift.tt/2jB3pqj
p1941
I1
sVhttp://ift.tt/2iZO6nk
p1942
I1
sVhttp://ift.tt/2j8v7I4
p1943
I2
ssg199
Vview the full video here source
p1944
sg201
I31
sg202
I9
sg203
I2
sa(dp1945
g2
(dp1946
g4
I9
sg5
I49
ssg6
I58
sg7
g8
((lp1947
I809899043732262912
aI750810176849051649
aI810759313908174848
aI809758076266020864
aI3354027057
aI4240760195
aI2859502903
atp1948
Rp1949
sg12
I17
sg13
g14
(g15
tp1950
Rp1951
Vhttp://ift.tt/2jpsUsT
p1952
I1
sVhttp://ift.tt/2jhep9z
p1953
I1
sVhttp://ift.tt/2ikkwMf
p1954
I1
sVhttp://ift.tt/2jGcQmm
p1955
I1
sVhttp://ift.tt/2j2wpaO
p1956
I1
sVhttp://ift.tt/2jt9W3o
p1957
I1
sVhttp://ift.tt/2iSnEk9
p1958
I1
sVhttp://ift.tt/2j5bcNr
p1959
I1
sVhttp://ift.tt/2iW4XJe
p1960
I1
sVhttp://ift.tt/2k6pWcZ
p1961
I1
sVhttp://ift.tt/2jLGhW9
p1962
I1
sVhttp://ift.tt/2jntKov
p1963
I1
sVhttp://ift.tt/2jUxO0J
p1964
I1
sVhttp://ift.tt/2jWx9ew
p1965
I1
sVhttp://ift.tt/2kyHAFd
p1966
I1
sVhttp://ift.tt/2jocwLo
p1967
I1
sVhttp://ift.tt/2jqbvjw
p1968
I2
sVhttp://ift.tt/2jH1IbE
p1969
I1
sVhttp://ift.tt/2kqvsHc
p1970
I1
sVhttp://ift.tt/2jmWCyJ
p1971
I1
sVhttp://ift.tt/2jHyZ3i
p1972
I1
sVhttp://ift.tt/2kagtjR
p1973
I1
sVhttp://ift.tt/2jF6nKF
p1974
I1
sVhttp://ift.tt/2iQcvit
p1975
I1
sVhttp://ift.tt/2jd0MbB
p1976
I1
sVhttp://ift.tt/2iHF1iF
p1977
I1
sVhttp://ift.tt/2jM5HDb
p1978
I1
sVhttp://ift.tt/2i8ofy0
p1979
I1
sVhttp://ift.tt/2jJX0ad
p1980
I1
sVhttp://ift.tt/2jsBWVQ
p1981
I1
sVhttp://ift.tt/2jOflST
p1982
I1
sVhttp://ift.tt/2jQ0NBO
p1983
I1
sVhttp://ift.tt/2iPoBby
p1984
I1
sVhttp://ift.tt/2jyJ8lh
p1985
I1
sVhttp://ift.tt/2j4cO9C
p1986
I1
sVhttp://ift.tt/2jDxHJb
p1987
I1
sVhttp://ift.tt/2jlV1J2
p1988
I1
sVhttp://ift.tt/2jdq0a5
p1989
I1
sVhttp://ift.tt/2iTqxQ9
p1990
I1
sVhttp://ift.tt/2ibKZNs
p1991
I1
sVhttp://ift.tt/2iWcdVG
p1992
I1
sVhttp://ift.tt/2iIcQAm
p1993
I1
sVhttp://ift.tt/2j0vs3m
p1994
I1
sVhttp://ift.tt/2jlOYmj
p1995
I1
sVhttp://ift.tt/2j3iDEU
p1996
I1
sVhttp://ift.tt/2jOixRt
p1997
I1
sVhttp://ift.tt/2kgqo78
p1998
I1
sVhttp://ift.tt/2jboNjC
p1999
I1
sVhttp://ift.tt/2jzUmXo
p2000
I1
sVhttp://ift.tt/2k5Wcjd
p2001
I1
sVhttp://ift.tt/2kbozfY
p2002
I2
sVhttp://ift.tt/2iGuRjg
p2003
I1
sVhttp://ift.tt/2ihOJf1
p2004
I1
sVhttp://ift.tt/2jPYnH2
p2005
I1
sVhttp://ift.tt/2iLJkOS
p2006
I1
sVhttp://ift.tt/2jUfrsP
p2007
I1
ssg199
V\u2665\u2665\u2665\u2665\u2665\u2665\u2665\u2665\u2665\u2665\u2665\u2665\u2665 enjoy our best erotic videos view full video here \u300b\u300b\u300b
p2008
sg201
I32
sg202
I9
sg203
I2
sa(dp2009
g2
(dp2010
g4
I5
sg5
I53
ssg6
I58
sg7
g8
((lp2011
I818179831728848899
aI827119085444022273
aI3453925755
atp2012
Rp2013
sg12
I17
sg13
g14
(g15
tp2014
Rp2015
Vhttp://ift.tt/2j3Nq3J
p2016
I1
sVhttp://ift.tt/2igoZ40
p2017
I1
sVhttp://ift.tt/2iinf5v
p2018
I1
sVhttp://ift.tt/2juAKRN
p2019
I1
sVhttp://ift.tt/2k1ExFh
p2020
I1
sVhttp://ift.tt/2j2Z0wc
p2021
I1
sVhttp://ift.tt/2jMpCj4
p2022
I1
sVhttp://ift.tt/2jpiic4
p2023
I1
sVhttp://ift.tt/2jqZIjo
p2024
I1
sVhttp://ift.tt/2jFiR5h
p2025
I1
sVhttp://ift.tt/2jocH7h
p2026
I1
sVhttp://ift.tt/2jTi9Pd
p2027
I1
sVhttp://ift.tt/2iEEQpj
p2028
I1
sVhttp://ift.tt/2icOL7V
p2029
I1
sVhttp://ift.tt/2jxAELD
p2030
I1
sVhttp://ift.tt/2jwNUNV
p2031
I1
sVhttp://ift.tt/2kcFUkG
p2032
I1
sVhttp://ift.tt/2jxq5Il
p2033
I1
sVhttp://ift.tt/2jwWRcT
p2034
I1
sVhttp://ift.tt/2j0nLZC
p2035
I1
sVhttp://ift.tt/2jz3OtH
p2036
I1
sVhttp://ift.tt/2jCoeCG
p2037
I1
sVhttp://ift.tt/2iSHXN5
p2038
I1
sVhttp://ift.tt/2jmQ5Tr
p2039
I1
sVhttp://ift.tt/2jnctNJ
p2040
I1
sVhttp://ift.tt/2jraS9E
p2041
I1
sVhttp://ift.tt/2iiRt8l
p2042
I1
sVhttp://ift.tt/2jzJFUr
p2043
I2
sVhttp://ift.tt/2jv2CoP
p2044
I1
sVhttp://ift.tt/2iTuTsn
p2045
I1
sVhttp://ift.tt/2j1Jdhk
p2046
I1
sVhttp://ift.tt/2im5Jk3
p2047
I1
sVhttp://ift.tt/2imwdC5
p2048
I1
sVhttp://ift.tt/2jx7ufq
p2049
I1
sVhttp://ift.tt/2jrxxl0
p2050
I1
sVhttp://ift.tt/2jxCMDo
p2051
I1
sVhttp://ift.tt/2iCpyl4
p2052
I1
sVhttp://ift.tt/2iWUBJl
p2053
I1
sVhttp://ift.tt/2j4bLVs
p2054
I1
sVhttp://ift.tt/2jvXJvo
p2055
I1
sVhttp://ift.tt/2idcIbC
p2056
I1
sVhttp://ift.tt/2jCTw9P
p2057
I1
sVhttp://ift.tt/2jnF85j
p2058
I1
sVhttp://ift.tt/2khDbGB
p2059
I1
sVhttp://ift.tt/2iGaqlW
p2060
I1
sVhttp://ift.tt/2jSeVfc
p2061
I1
sVhttp://ift.tt/2iDh0hO
p2062
I1
sVhttp://ift.tt/2jcvhPa
p2063
I1
sVhttp://ift.tt/2kfGO3z
p2064
I1
sVhttp://ift.tt/2k2byBb
p2065
I1
sVhttp://ift.tt/2jmkXTP
p2066
I1
sVhttp://ift.tt/2iYZaCQ
p2067
I1
sVhttp://ift.tt/2iITlaI
p2068
I1
sVhttp://ift.tt/2jEJRln
p2069
I1
sVhttp://ift.tt/2iGuogk
p2070
I1
sVhttp://ift.tt/2jwi0UF
p2071
I1
sVhttp://ift.tt/2ix0onW
p2072
I1
ssg199
V\u2665\u2665\u2665\u2665\u2665\u2665\u2665\u2665\u2665\u2665 get the full video source \u25b6 \u25b6
p2073
sg201
I33
sg202
I9
sg203
I2
sa(dp2074
g2
(dp2075
g4
I3
sg5
I55
ssg6
I58
sg7
g8
((lp2076
I821098235636813824
aI2545041689
aI92340212
atp2077
Rp2078
sg12
I17
sg13
g14
(g15
tp2079
Rp2080
Vhttp://ift.tt/2ksdL9x
p2081
I1
sVhttp://ift.tt/2kf2CZt
p2082
I3
sVhttp://ift.tt/2iYKjtA
p2083
I1
sVhttp://ift.tt/2iFyOno
p2084
I1
sVhttp://ift.tt/2iKhi1s
p2085
I1
sVhttp://ift.tt/2jidcPT
p2086
I1
sVhttp://ift.tt/2j2QdXq
p2087
I1
sVhttp://ift.tt/2iPKA3z
p2088
I1
sVhttp://ift.tt/2j6ePiV
p2089
I1
sVhttp://ift.tt/2jOng5S
p2090
I1
sVhttp://ift.tt/2j1GeFj
p2091
I1
sVhttp://ift.tt/2iN1FcN
p2092
I1
sVhttp://ift.tt/2kmN4GQ
p2093
I2
sVhttp://ift.tt/2iGh37K
p2094
I1
sVhttp://ift.tt/2jS3ELz
p2095
I1
sVhttp://ift.tt/2iZ0E1q
p2096
I1
sVhttp://ift.tt/2jEIkJP
p2097
I1
sVhttp://ift.tt/2iKxPTh
p2098
I1
sVhttp://ift.tt/2k8Lt3J
p2099
I1
sVhttp://ift.tt/2jE1Mqc
p2100
I1
sVhttp://ift.tt/2jtDJwh
p2101
I1
sVhttp://ift.tt/2kADgsZ
p2102
I1
sVhttp://ift.tt/2jMN9CH
p2103
I1
sVhttp://ift.tt/2jUfSTS
p2104
I1
sVhttp://ift.tt/2iQBunj
p2105
I1
sVhttp://ift.tt/2jDS7lJ
p2106
I1
sVhttp://ift.tt/2kojZIl
p2107
I1
sVhttp://ift.tt/2jlRACv
p2108
I1
sVhttp://ift.tt/2jAiSHi
p2109
I1
sVhttp://ift.tt/2k3GEJH
p2110
I1
sVhttp://ift.tt/2jUKIfj
p2111
I1
sVhttp://ift.tt/2jAfYSN
p2112
I1
sVhttp://ift.tt/2jW48mz
p2113
I1
sVhttp://ift.tt/2jccwgD
p2114
I1
sVhttp://ift.tt/2jwFucb
p2115
I1
sVhttp://ift.tt/2j94S6P
p2116
I1
sVhttp://ift.tt/2jPe9hm
p2117
I1
sVhttp://ift.tt/2jG5qQp
p2118
I1
sVhttp://ift.tt/2jRTjPF
p2119
I1
sVhttp://ift.tt/2jnzJet
p2120
I1
sVhttp://ift.tt/2jcuXi0
p2121
I1
sVhttp://ift.tt/2iJY9By
p2122
I1
sVhttp://ift.tt/2iNlI7P
p2123
I1
sVhttp://ift.tt/2k1ypjV
p2124
I1
sVhttp://ift.tt/2iYgFlc
p2125
I1
sVhttp://ift.tt/2joF5aN
p2126
I1
sVhttp://ift.tt/2juH7H6
p2127
I1
sVhttp://ift.tt/2kpm6KQ
p2128
I1
sVhttp://ift.tt/2jBy6MB
p2129
I1
sVhttp://ift.tt/2iPdSiL
p2130
I1
sVhttp://ift.tt/2jdLnHD
p2131
I1
sVhttp://ift.tt/2k8cJSs
p2132
I1
sVhttp://ift.tt/2jHAw9x
p2133
I1
sVhttp://ift.tt/2ivrFuJ
p2134
I1
sVhttp://ift.tt/2kdQd85
p2135
I1
ssg199
Vhere is the complete video \u23e9 \u23e9
p2136
sg201
I34
sg202
I9
sg203
I2
sa(dp2137
g2
(dp2138
g4
I52
sg5
I3
ssg6
I55
sg7
g8
((lp2139
I763068697099534336
aI756851185479393280
aI796102407252037634
aI3225979268
aI374579973
aI708536047030775808
aI3226892167
aI3225835656
aI3227902178
aI372667787
aI756120321292328961
aI3223176930
aI452113680
aI3069722388
aI364900378
aI712210908341075968
aI380791456
aI3226918561
aI3226085924
aI466616870
aI2687168168
aI711126662117601280
aI3227889583
aI3225950900
aI2842615221
aI373425844
aI3223230782
aI3227833920
aI3223264321
aI199152706
aI3226139587
aI2167974980
aI710777573760831489
aI756847787086532610
aI3226108747
aI2689611084
aI3225882829
aI3225937358
aI2567079122
aI3227880404
aI3227860568
aI3225961124
aI1030087898
aI3225838556
aI365931229
aI2179990879
aI3225946081
aI3225808098
aI3069760706
aI1552389500
aI2877468304
aI364930004
aI3225844220
aI3226021118
aI371647743
atp2140
Rp2141
sg12
I17
sg13
g14
(g15
tp2142
Rp2143
Vhttp://ift.tt/2kMIQpE
p2144
I55
ssg199
V911 mastermind dispels \u2018they hate us for our freedom\u2019 myth in letter to obama
p2145
sg201
I35
sg202
I9
sg203
I2
sa(dp2146
g2
(dp2147
g4
I2
sg5
I53
ssg6
I55
sg7
g8
((lp2148
I814222037736509440
aI1462258946
aI3007340283
atp2149
Rp2150
sg12
I17
sg13
g14
(g15
tp2151
Rp2152
Vhttp://ift.tt/2j0APM1
p2153
I1
sVhttp://ift.tt/2k3sA6i
p2154
I1
sVhttp://ift.tt/2jXPqvf
p2155
I1
sVhttp://ift.tt/2jJwCjZ
p2156
I1
sVhttp://ift.tt/2jJmp3F
p2157
I1
sVhttp://ift.tt/2jAQmG8
p2158
I1
sVhttp://ift.tt/2j6HMKN
p2159
I1
sVhttp://ift.tt/2jIVQ1o
p2160
I1
sVhttp://ift.tt/2iQqfd5
p2161
I1
sVhttp://ift.tt/2jIO5pB
p2162
I1
sVhttp://ift.tt/2iBdXGX
p2163
I1
sVhttp://ift.tt/2j80YbP
p2164
I1
sVhttp://ift.tt/2j9zqHj
p2165
I1
sVhttp://ift.tt/2jpGJqX
p2166
I1
sVhttp://ift.tt/2j5NdLF
p2167
I1
sVhttp://ift.tt/2jZQM5l
p2168
I1
sVhttp://ift.tt/2jGgqwP
p2169
I1
sVhttp://ift.tt/2klQ9nG
p2170
I1
sVhttp://ift.tt/2jvfyNV
p2171
I1
sVhttp://ift.tt/2kb1bfj
p2172
I1
sVhttp://ift.tt/2insMaS
p2173
I1
sVhttp://ift.tt/2iN3CpA
p2174
I1
sVhttp://ift.tt/2iDGJF6
p2175
I1
sVhttp://ift.tt/2iO1y0J
p2176
I1
sVhttp://ift.tt/2kLLX3n
p2177
I1
sVhttp://ift.tt/2iIfvKZ
p2178
I1
sVhttp://ift.tt/2k8psl9
p2179
I1
sVhttp://ift.tt/2jNGkOl
p2180
I1
sVhttp://ift.tt/2k4ezFs
p2181
I1
sVhttp://ift.tt/2ieeE3M
p2182
I1
sVhttp://ift.tt/2j7yj6H
p2183
I1
sVhttp://ift.tt/2iMyqEF
p2184
I1
sVhttp://ift.tt/2j3nu8j
p2185
I1
sVhttp://ift.tt/2jmkt3X
p2186
I1
sVhttp://ift.tt/2jsFffz
p2187
I1
sVhttp://ift.tt/2jZtOLE
p2188
I1
sVhttp://ift.tt/2idmmQz
p2189
I1
sVhttp://ift.tt/2iSZSTz
p2190
I1
sVhttp://ift.tt/2j96LOt
p2191
I1
sVhttp://ift.tt/2jCMAvX
p2192
I1
sVhttp://ift.tt/2iMspqO
p2193
I1
sVhttp://ift.tt/2jjbRIp
p2194
I1
sVhttp://ift.tt/2jcQZoX
p2195
I1
sVhttp://ift.tt/2khuJLJ
p2196
I1
sVhttp://ift.tt/2juMxyn
p2197
I1
sVhttp://ift.tt/2jS7Ta2
p2198
I1
sVhttp://ift.tt/2jFIzHx
p2199
I1
sVhttp://ift.tt/2j79LhA
p2200
I1
sVhttp://ift.tt/2jd0lwJ
p2201
I1
sVhttp://ift.tt/2kT1wGx
p2202
I1
sVhttp://ift.tt/2igXkyy
p2203
I1
sVhttp://ift.tt/2k2BhwC
p2204
I1
sVhttp://ift.tt/2jjXqnj
p2205
I1
sVhttp://ift.tt/2jm4kJh
p2206
I2
ssg199
Vwant more  view the full video here
p2207
sg201
I36
sg202
I9
sg203
I2
sa(dp2208
g2
(dp2209
g4
I3
sg5
I50
ssg6
I53
sg7
g8
((lp2210
I820327322188451840
aI828732908689055745
aI274997124
aI1511831046
aI31510410
aI28888215
aI4775702286
aI127800081
aI227369367
aI4234732696
aI21228698
aI10479
aI804812699507036160
aI4280192419
aI33448100
aI17711729
aI321270313
aI2673756716
aI370269230
aI1730932657
aI3830372658
aI814041918652829696
aI2973190324
aI3750263606
aI806944698
aI9473472
aI478606913
aI2430921283
aI1050470983
aI277008844
aI23214285
aI3119178447
aI1321749074
aI61419092
aI44106837
aI1258861399
aI3436819535
aI2305445690
aI3803265377
aI428713827
aI102998244
aI622857704
aI3986600297
aI5493562
aI1934287598
aI70150255
aI2566049137
aI1460071028
aI627369577
aI216895354
aI4536039677
aI1574200574
atp2211
Rp2212
sg12
I17
sg13
g14
(g15
tp2213
Rp2214
Vhttp://ift.tt/2lowmYy
p2215
I3
sVhttp://ift.tt/2lsTZLp
p2216
I1
sVhttp://ift.tt/2kSYlPa
p2217
I1
sVhttp://ift.tt/2kTdIHp
p2218
I47
sVhttp://ift.tt/2kr3cUt
p2219
I1
ssg199
Vsap adds ai and integrated analytics in latest cloud release
p2220
sg201
I37
sg202
I9
sg203
I2
sa(dp2221
g2
(dp2222
g4
I8
sg5
I45
ssg6
I53
sg7
g8
((lp2223
I790283294587793408
aI793561348173074433
aI810049343424229376
aI753040701605105664
aI788769203033604097
atp2224
Rp2225
sg12
I17
sg13
g14
(g15
tp2226
Rp2227
Vhttp://ift.tt/2ih8h39
p2228
I2
sVhttp://ift.tt/2iemgTY
p2229
I1
sVhttp://ift.tt/2iVUcXf
p2230
I1
sVhttp://ift.tt/2kCUNye
p2231
I1
sVhttp://ift.tt/2k6RQsk
p2232
I2
sVhttp://ift.tt/2kh5k4t
p2233
I2
sVhttp://ift.tt/2jbihZF
p2234
I1
sVhttp://ift.tt/2jry1s1
p2235
I1
sVhttp://ift.tt/2iz7SH2
p2236
I1
sVhttp://ift.tt/2k8mTR8
p2237
I1
sVhttp://ift.tt/2jKcOvO
p2238
I1
sVhttp://ift.tt/2iaDWj9
p2239
I1
sVhttp://ift.tt/2jzL75A
p2240
I1
sVhttp://ift.tt/2iaN7QT
p2241
I1
sVhttp://ift.tt/2iUQKOh
p2242
I2
sVhttp://ift.tt/2izaKn9
p2243
I1
sVhttp://ift.tt/2jAlLnN
p2244
I1
sVhttp://ift.tt/2jtZPit
p2245
I1
sVhttp://ift.tt/2j0WzIy
p2246
I1
sVhttp://ift.tt/2jyeKZh
p2247
I1
sVhttp://ift.tt/2k2dLRs
p2248
I1
sVhttp://ift.tt/2iX6Dk7
p2249
I2
sVhttp://ift.tt/2jITr6i
p2250
I2
sVhttp://ift.tt/2jxcNeI
p2251
I1
sVhttp://ift.tt/2k1Dh5c
p2252
I2
sVhttp://ift.tt/2iVb2nG
p2253
I1
sVhttp://ift.tt/2iyHRYm
p2254
I1
sVhttp://ift.tt/2jSRj9V
p2255
I1
sVhttp://ift.tt/2jbT55m
p2256
I1
sVhttp://ift.tt/2jamsY2
p2257
I1
sVhttp://ift.tt/2iZzwzw
p2258
I1
sVhttp://ift.tt/2jsNgQ0
p2259
I2
sVhttp://ift.tt/2jbakGY
p2260
I1
sVhttp://ift.tt/2j1unYz
p2261
I1
sVhttp://ift.tt/2j7PJjT
p2262
I1
sVhttp://ift.tt/2iVT0Vq
p2263
I1
sVhttp://ift.tt/2jdfkZi
p2264
I1
sVhttp://ift.tt/2iqfSOi
p2265
I1
sVhttp://ift.tt/2ie9NmE
p2266
I1
sVhttp://ift.tt/2jn7Ra0
p2267
I1
sVhttp://ift.tt/2jctiKN
p2268
I1
sVhttp://ift.tt/2jhym2f
p2269
I1
sVhttp://ift.tt/2iDlTTU
p2270
I1
sVhttp://ift.tt/2iM88Ck
p2271
I1
sVhttp://ift.tt/2kmQb0F
p2272
I1
ssg199
Vfor move video clips visit our site \u300b\u300b\u300b  \u300a\u300a\u300a   \u2665\u2665\u2665\u2665\u2665\u2665\u2665\u2665\u2665\u2665\u2665\u2665\u2665
p2273
sg201
I38
sg202
I9
sg203
I2
sa(dp2274
g2
(dp2275
g4
I0
sg5
I52
ssg6
I52
sg7
g8
((lp2276
I777826986345594880
atp2277
Rp2278
sg12
I17
sg13
g14
(g15
tp2279
Rp2280
Vhttp://ift.tt/2dZFcG0
p2281
I52
ssg199
Vi will invite you to 350 pinterest boards with 10 million followers
p2282
sg201
I39
sg202
I9
sg203
I2
sa(dp2283
g2
(dp2284
g4
I1
sg5
I48
ssg6
I49
sg7
g8
((lp2285
I814041918652829696
aI820327322188451840
aI274997124
aI1511831046
aI828732908689055745
aI28888215
aI4775702286
aI127800081
aI4781942894
aI227369367
aI4234732696
aI21228698
aI804812699507036160
aI33448100
aI27333626
aI17711729
aI159836939
aI321270313
aI2673756716
aI370269230
aI1730932657
aI2973190324
aI3750263606
aI1318104631
aI806944698
aI9473472
aI478606913
aI2430921283
aI1050470983
aI277008844
aI23214285
aI3119178447
aI61419092
aI44106837
aI1258861399
aI2305445690
aI3803265377
aI428713827
aI102998244
aI622857704
aI3986600297
aI1390737643
aI1934287598
aI70150255
aI2566049137
aI216895354
aI4536039677
aI1574200574
atp2286
Rp2287
sg12
I17
sg13
g14
(g15
tp2288
Rp2289
Vhttp://ift.tt/2lvuoSV
p2290
I1
sVhttp://ift.tt/2k8qz45
p2291
I1
sVhttp://ift.tt/2kXNTpb
p2292
I1
sVhttp://ift.tt/2loEpo1
p2293
I46
ssg199
Vthe nba is creating its own esports league for the basketball game nba 2k
p2294
sg201
I40
sg202
I9
sg203
I2
sa(dp2295
g2
(dp2296
g4
I3
sg5
I46
ssg6
I49
sg7
g8
((lp2297
I1001367944
aI820083716982788097
aI790217944085229568
aI802638569210712064
atp2298
Rp2299
sg12
I17
sg13
g14
(g15
tp2300
Rp2301
Vhttp://ift.tt/2j4ctAU
p2302
I1
sVhttp://ift.tt/2kFAvH3
p2303
I1
sVhttp://ift.tt/2ixaBTx
p2304
I1
sVhttp://ift.tt/2jNgGfI
p2305
I1
sVhttp://ift.tt/2kfPzqr
p2306
I1
sVhttp://ift.tt/2inNA79
p2307
I1
sVhttp://ift.tt/2k63ZcF
p2308
I1
sVhttp://ift.tt/2jRV42E
p2309
I1
sVhttp://ift.tt/2k2YwUh
p2310
I1
sVhttp://ift.tt/2iADEpf
p2311
I1
sVhttp://ift.tt/2iUbtC3
p2312
I1
sVhttp://ift.tt/2iW9wm9
p2313
I1
sVhttp://ift.tt/2iAwYaO
p2314
I1
sVhttp://ift.tt/2iZ48AV
p2315
I1
sVhttp://ift.tt/2iDT6mi
p2316
I1
sVhttp://ift.tt/2izkzpd
p2317
I1
sVhttp://ift.tt/2jNS5oA
p2318
I1
sVhttp://ift.tt/2jcUqcH
p2319
I1
sVhttp://ift.tt/2ispJys
p2320
I1
sVhttp://ift.tt/2jOgnlE
p2321
I1
sVhttp://ift.tt/2iPD734
p2322
I1
sVhttp://ift.tt/2iv94xj
p2323
I1
sVhttp://ift.tt/2j8nrYO
p2324
I1
sVhttp://ift.tt/2iTRFyM
p2325
I1
sVhttp://ift.tt/2k8b5BL
p2326
I1
sVhttp://ift.tt/2iE7WZR
p2327
I2
sVhttp://ift.tt/2k2k832
p2328
I1
sVhttp://ift.tt/2jJXuj7
p2329
I1
sVhttp://ift.tt/2jC2GD2
p2330
I1
sVhttp://ift.tt/2jrXMvj
p2331
I1
sVhttp://ift.tt/2iRUwW8
p2332
I1
sVhttp://ift.tt/2kFxVNl
p2333
I1
sVhttp://ift.tt/2j8mtJO
p2334
I1
sVhttp://ift.tt/2iLOYMm
p2335
I1
sVhttp://ift.tt/2k0GWAT
p2336
I1
sVhttp://ift.tt/2jwFjLe
p2337
I1
sVhttp://ift.tt/2iz2lUY
p2338
I2
sVhttp://ift.tt/2jdoMv8
p2339
I1
sVhttp://ift.tt/2iHg9wD
p2340
I1
sVhttp://ift.tt/2iVomJv
p2341
I1
sVhttp://ift.tt/2jb0bIa
p2342
I1
sVhttp://ift.tt/2iRStWc
p2343
I1
sVhttp://ift.tt/2ipKZtt
p2344
I1
sVhttp://ift.tt/2jBoAJ9
p2345
I1
sVhttp://ift.tt/2iWBk90
p2346
I1
sVhttp://ift.tt/2jlby26
p2347
I1
sVhttp://ift.tt/2jSEkIz
p2348
I1
ssg199
Vview full more full erotic vids \u27a1\ufe0f \u27a1\ufe0f
p2349
sg201
I41
sg202
I9
sg203
I2
sa(dp2350
g2
(dp2351
g4
I14
sg5
I33
ssg6
I47
sg7
g8
((lp2352
I794891882312691712
aI712243487467511808
aI768846044754907138
aI4651338916
aI770720365396066304
aI784816347180109825
aI4013703275
aI474067756
aI4922041517
aI912346350
aI211267565
aI2151173312
aI248677201
aI711563937553076224
aI551593678
aI257202487
aI731686524417392640
aI4922263930
atp2353
Rp2354
sg12
I17
sg13
g14
(g15
tp2355
Rp2356
Vhttp://ift.tt/1V5FXed
p2357
I1
sVhttp://ift.tt/1V17OfB
p2358
I1
sVhttp://ift.tt/1LDDmc5
p2359
I2
sVhttp://ift.tt/1ODsQgu
p2360
I1
sVhttp://ift.tt/2bgThkd
p2361
I1
sVhttp://ift.tt/1Ryqwy5
p2362
I1
sVhttp://ift.tt/1LFvvuy
p2363
I1
sVhttp://ift.tt/1LfEi09
p2364
I5
sVhttp://ift.tt/1V5Cr3s
p2365
I1
sVhttp://ift.tt/1n6ninq
p2366
I2
sVhttp://ift.tt/2aLzVmu
p2367
I1
sVhttp://ift.tt/1Sspe72
p2368
I1
sVhttp://ift.tt/2aZDHpV
p2369
I1
sVhttp://ift.tt/1OtJdhF
p2370
I1
sVhttp://ift.tt/1nhUaKH
p2371
I1
sVhttp://ift.tt/1T33i09
p2372
I1
sVhttp://ift.tt/2aTGJgf
p2373
I1
sVhttp://ift.tt/2bgCzxk
p2374
I2
sVhttp://ift.tt/1QaQKCB
p2375
I3
sVhttp://ift.tt/1PsKtij
p2376
I2
sVhttp://ift.tt/1VCFItU
p2377
I1
sVhttp://ift.tt/1NgLb0R
p2378
I1
sVhttp://ift.tt/1UihZju
p2379
I1
sVhttp://ift.tt/2aTzZC6
p2380
I1
sVhttp://ift.tt/2bgYsfW
p2381
I1
sVhttp://ift.tt/1S0D2Ea
p2382
I1
sVhttp://ift.tt/1KoCQbz
p2383
I1
sVhttp://ift.tt/2b7SaRw
p2384
I2
sVhttp://ift.tt/1L8m6es
p2385
I1
sVhttp://ift.tt/2aVxa3t
p2386
I1
sVhttp://ift.tt/1RyjeJM
p2387
I1
sVhttp://ift.tt/1PojrbT
p2388
I1
sVhttp://ift.tt/1P1Wi3n
p2389
I2
sVhttp://ift.tt/1Pp6AWF
p2390
I1
sVhttp://ift.tt/2aTBvnw
p2391
I1
ssg199
Vclick here for more pictures   add me on snapchat imjuicyass
p2392
sg201
I42
sg202
I9
sg203
I2
sa(dp2393
g2
(dp2394
g4
I0
sg5
I45
ssg6
I45
sg7
g8
((lp2395
I804812699507036160
aI814041918652829696
aI2914752390
aI816727168222973953
aI3251439340
aI28888215
aI69108492
aI15009550
aI8234132
aI227369367
aI2352123547
aI981526172
aI184003357
aI216788638
aI107201568
aI703150652009000961
aI622857704
aI9623582
aI3032838059
aI3831039261
aI854828467
aI4259171380
aI2673532213
aI31190199
aI1034411449
aI111383105
aI165672130
aI15326918
aI1570200775
aI2220766280
aI44627402
aI2776044757
aI1318077786
aI40716763
aI800409601
aI1321709928
aI47555948
aI241802605
aI70150255
aI2566049137
aI3828430581
aI2827582710
aI106763540
aI27302266
aI330429183
atp2396
Rp2397
sg12
I17
sg13
g14
(g15
tp2398
Rp2399
Vhttp://ift.tt/15FcaC4
p2400
I1
sVhttp://ift.tt/2kr0xda
p2401
I43
sVhttp://makemakego.com
p2402
I1
sVhttp://ift.tt/2lvCIC1
p2403
I1
ssg199
Vthree myths about snap and \u201cfood stamps\u201d debunked
p2404
sg201
I43
sg202
I9
sg203
I2
sa(dp2405
g2
(dp2406
g4
I0
sg5
I45
ssg6
I45
sg7
g8
((lp2407
I804812699507036160
aI703150652009000961
aI2914752390
aI816727168222973953
aI47555948
aI227369367
aI69108492
aI15009550
aI106763540
aI28888215
aI2352123547
aI981526172
aI3831039261
aI216788638
aI107201568
aI814041918652829696
aI3032838059
aI184003357
aI1321709928
aI854828467
aI4259171380
aI9623582
aI31190199
aI1034411449
aI2673532213
aI111383105
aI165672130
aI15326918
aI1570200775
aI2220766280
aI335987017
aI44627402
aI1318077786
aI40716763
aI800409601
aI622857704
aI3251439340
aI241802605
aI70150255
aI2566049137
aI3828430581
aI2827582710
aI8234132
aI27302266
aI330429183
atp2408
Rp2409
sg12
I17
sg13
g14
(g15
tp2410
Rp2411
Vhttp://ift.tt/2k8i88S
p2412
I42
sVhttp://ift.tt/15FcaC4
p2413
I1
sVhttp://makemakego.com
p2414
I1
sVhttp://ift.tt/2k7FWPa
p2415
I2
ssg199
Vmake this diy gym bench to level up your home gym
p2416
sg201
I44
sg202
I9
sg203
I2
sa(dp2417
g2
(dp2418
g4
I31
sg5
I14
ssg6
I45
sg7
g8
((lp2419
I712385994985578496
aI803649111278895105
aI827364042444505090
aI790283294587793408
aI798262580494143488
aI829200708280913921
aI4835936439
aI824242140754624512
aI703927203738710016
aI3484955057
aI142098133
aI794706454246780928
aI1725196052
aI818315881684070400
aI2715004279
aI1394616217
aI798692049968984064
aI755447666180435968
aI4890264125
aI789838463990435840
aI759379208909062144
atp2420
Rp2421
sg12
I17
sg13
g14
(g15
tp2422
Rp2423
Vhttp://ift.tt/2kqHDqC
p2424
I3
sVhttp://ift.tt/2j7Cqz7
p2425
I1
sVhttp://ift.tt/2iolHu0
p2426
I4
sVhttp://ift.tt/2iZuC2S
p2427
I1
sVhttp://ift.tt/2iG0V5Z
p2428
I1
sVhttp://ift.tt/2jwLYHS
p2429
I1
sVhttp://ift.tt/2jyFt7x
p2430
I2
sVhttp://ift.tt/2jF5e2q
p2431
I1
sVhttp://ift.tt/2j8R8X8
p2432
I2
sVhttp://ift.tt/2jxKTwY
p2433
I2
sVhttp://ift.tt/2ikbHPa
p2434
I4
sVhttp://ift.tt/2kgz2Ts
p2435
I3
sVhttp://ift.tt/2ijRL2b
p2436
I1
sVhttp://ift.tt/2ig59kQ
p2437
I1
sVhttp://ift.tt/2jcs70h
p2438
I1
sVhttp://ift.tt/2jvHb6z
p2439
I3
sVhttp://ift.tt/2khYUT0
p2440
I1
sVhttp://ift.tt/2jnhTaD
p2441
I1
sVhttp://ift.tt/2jIpxjf
p2442
I1
sVhttp://ift.tt/2k4gHgo
p2443
I3
sVhttp://ift.tt/2j4KKnc
p2444
I1
sVhttp://ift.tt/2iSQukK
p2445
I1
sVhttp://ift.tt/2iMevWo
p2446
I2
sVhttp://ift.tt/2jD31bG
p2447
I1
sVhttp://ift.tt/2jC1J0E
p2448
I1
sVhttp://ift.tt/2jx0Be8
p2449
I2
ssg199
V\u2665\u2665\u2665\u2665 view the full porn video clip here \u2665\u2665\u2665\u2665\u2665 \u300b4 \u300b
p2450
sg201
I45
sg202
I9
sg203
I2
sa(dp2451
g2
(dp2452
g4
I0
sg5
I44
ssg6
I44
sg7
g8
((lp2453
I804812699507036160
aI816727168222973953
aI2914752390
aI800409601
aI3251439340
aI28888215
aI69108492
aI15009550
aI8234132
aI227369367
aI2352123547
aI981526172
aI184003357
aI9623582
aI107201568
aI703150652009000961
aI622857704
aI814041918652829696
aI3032838059
aI3831039261
aI854828467
aI4259171380
aI2673532213
aI1034411449
aI818593517958209537
aI111383105
aI165672130
aI15326918
aI1570200775
aI2220766280
aI44627402
aI1318077786
aI40716763
aI1321709928
aI47555948
aI241802605
aI70150255
aI2566049137
aI3828430581
aI2827582710
aI106763540
aI27302266
aI216788638
aI330429183
atp2454
Rp2455
sg12
I17
sg13
g14
(g15
tp2456
Rp2457
Vhttp://ift.tt/15FcaC4
p2458
I1
sVhttp://ift.tt/2kwxqYz
p2459
I42
sVhttps://twitter.com/i/web/status/829748861270908929
p2460
I1
sVhttp://makemakego.com
p2461
I1
ssg199
Vim a high school student looking for my first ride what car should i buy
p2462
sg201
I46
sg202
I9
sg203
I2
sa(dp2463
g2
(dp2464
g4
I0
sg5
I44
ssg6
I44
sg7
g8
((lp2465
I820327322188451840
aI828732908689055745
aI274997124
aI814041918652829696
aI227369367
aI4775702286
aI127800081
aI28888215
aI4234732696
aI21228698
aI33448100
aI1511831046
aI2566049137
aI321270313
aI2673756716
aI370269230
aI1730932657
aI2973190324
aI3750263606
aI2305445690
aI9473472
aI478606913
aI2430921283
aI1050470983
aI277008844
aI23214285
aI3119178447
aI428713827
aI61419092
aI44106837
aI1258861399
aI806944698
aI3803265377
aI804812699507036160
aI102998244
aI622857704
aI3986600297
aI1934287598
aI70150255
aI17711729
aI627369577
aI216895354
aI4536039677
aI1574200574
atp2466
Rp2467
sg12
I17
sg13
g14
(g15
tp2468
Rp2469
Vhttp://ift.tt/2kwOmyh
p2470
I1
sVhttp://ift.tt/2k8nC3o
p2471
I1
sVhttp://ift.tt/2kTfMzh
p2472
I41
sVhttp://ift.tt/2k8k2GC
p2473
I1
ssg199
Vdocker makes secrets management a builtin feature of its enterprise product
p2474
sg201
I47
sg202
I9
sg203
I2
sa(dp2475
g2
(dp2476
g4
I0
sg5
I44
ssg6
I44
sg7
g8
((lp2477
I797450293814456320
aI716104896961843200
aI786556215778119682
aI15946795
aI703443658217926661
aI814041918652829696
aI130760193
aI106763540
aI28888215
aI773761560
aI159919257
aI21228698
aI18500764
aI3831039261
aI1202690977
aI2975196322
aI3253409564
aI3073438634
aI2570976043
aI370269230
aI821218809134465024
aI2449434162
aI18138164
aI48645833
aI2723469882
aI296493118
aI478606913
aI165672130
aI1570200775
aI2364501961
aI62321738
aI4871674146
aI14309193
aI2501572945
aI578277980
aI76908897
aI804812699507036160
aI622857704
aI2827582710
aI2494506104
aI14584447
aI2419449980
aI906942590
aI330429183
atp2478
Rp2479
sg12
I17
sg13
g14
(g15
tp2480
Rp2481
Vhttp://ift.tt/2kwx7gy
p2482
I8
sVhttp://ift.tt/2lvGZ8E
p2483
I34
sVhttp://ift.tt/15FcaC4
p2484
I1
sVhttp://ift.tt/2kwIeGj
p2485
I1
sVhttp://ift.tt/2lvAbro
p2486
I1
ssg199
Vgod help us all martha stewarts truck is stuck in the snow
p2487
sg201
I48
sg202
I9
sg203
I2
sa(dp2488
g2
(dp2489
g4
I1
sg5
I43
ssg6
I44
sg7
g8
((lp2490
I428021504
aI252538816
aI1105705218
aI249446401
aI427221996
aI428028042
aI1107511682
aI440619792
aI1118583186
aI428644886
aI252539543
aI1422396314
aI428037147
aI249452444
aI428655514
aI3008806814
aI427217830
aI1118423466
aI1309520683
aI249459756
aI1107823789
aI1105674762
aI426391488
aI252537164
aI252507598
aI252525197
aI426408660
aI428018393
aI1105737565
aI1107857509
aI1422377312
aI252508261
aI1315848812
aI1107479101
aI249456113
aI1105733874
aI1306707445
aI1107784694
aI1107519480
aI252523386
aI249449211
aI428650816
aI427224190
aI1107805951
atp2491
Rp2492
sg12
I17
sg13
g14
(g15
tp2493
Rp2494
Vhttp://ift.tt/2efcT7S
p2495
I1
sVhttp://ift.tt/2f5cSlZ
p2496
I1
sVhttp://ift.tt/2dVt0cb
p2497
I1
sVhttp://ift.tt/2erTtdr
p2498
I1
sVhttp://ift.tt/2efd2bi
p2499
I1
sVhttp://ift.tt/2e5LQse
p2500
I1
sVhttp://ift.tt/2fntV6m
p2501
I1
sVhttp://ift.tt/2efaBpd
p2502
I1
sVhttp://ift.tt/2efatWP
p2503
I1
sVhttp://ift.tt/2e5LNwy
p2504
I1
sVhttp://ift.tt/2eMSJCR
p2505
I1
sVhttp://ift.tt/2eMNXFc
p2506
I1
sVhttp://ift.tt/2e5IKEN
p2507
I1
sVhttp://ift.tt/2eUlGKw
p2508
I2
sVhttp://ift.tt/2fnrJM8
p2509
I1
sVhttp://ift.tt/2f5Hl32
p2510
I2
sVhttp://ift.tt/2erPf5s
p2511
I1
sVhttp://ift.tt/2fx7WZY
p2512
I1
sVhttp://ift.tt/2fa0PCk
p2513
I1
sVhttp://ift.tt/2e5GIUO
p2514
I2
sVhttp://ift.tt/2fa00JR
p2515
I1
sVhttp://ift.tt/2fnrDE8
p2516
I1
sVhttp://ift.tt/2dVuVgH
p2517
I1
sVhttp://ift.tt/2eUiRtc
p2518
I1
sVhttp://ift.tt/2f5IZSh
p2519
I2
sVhttp://ift.tt/2erQ9zc
p2520
I1
sVhttp://ift.tt/2eMPLy4
p2521
I1
sVhttp://ift.tt/2erSBFy
p2522
I1
sVhttp://ift.tt/2f1hgEM
p2523
I1
sVhttp://ift.tt/2dVtn6w
p2524
I1
sVhttp://ift.tt/2e5LdyL
p2525
I1
sVhttp://ift.tt/2fx7Am9
p2526
I1
sVhttp://ift.tt/2f9XiEj
p2527
I1
sVhttp://ift.tt/2efh0Rf
p2528
I1
sVhttp://ift.tt/2e5EXqP
p2529
I1
sVhttp://ift.tt/2dVuwLc
p2530
I1
sVhttp://ift.tt/2f9YlUs
p2531
I1
sVhttp://ift.tt/2fx9mnd
p2532
I1
sVhttp://ift.tt/2dVvSWB
p2533
I1
sVhttp://ift.tt/2e5GRI8
p2534
I1
ssg199
Vreceive emails about postings
p2535
sg201
I49
sg202
I9
sg203
I2
sa(dp2536
g2
(dp2537
g4
I0
sg5
I44
ssg6
I44
sg7
g8
((lp2538
I4885089664
aI696253323075305472
aI512791682
aI4887373571
aI64419974
aI826699758483877889
aI4886843788
aI130151309
aI285534991
aI266307099
aI2315931393
aI4884251421
aI14785861
aI4884938139
aI710608371729047553
aI4883702301
aI2457815730
aI2182620212
aI93892319
aI4885060797
aI927852355
aI3548312901
aI2238543174
aI4895446600
aI4884129676
aI4886657355
aI2648878542
aI3066076301
aI1118130128
aI127674833
aI298467284
aI4862460375
aI2766182874
aI4887528442
aI4884032735
aI252154320
aI61155025
aI3404498409
aI183641199
aI720027578271211520
aI3246767090
aI2801272182
aI802160119
aI2793191290
atp2539
Rp2540
sg12
I17
sg13
g14
(g15
tp2541
Rp2542
Vhttp://ift.tt/2lsDwXq
p2543
I1
sVhttp://www.keplar.nl
p2544
I1
sVhttp://ift.tt/2kMCXJc
p2545
I1
sVhttp://ift.tt/2k8ic8G
p2546
I14
sVhttp://ift.tt/Hz1YLL
p2547
I1
sVhttp://ift.tt/2kMy1nl
p2548
I27
ssg199
Vit\u2019s time to get ready for the holidays yes really
p2549
sg201
I50
sg202
I9
sg203
I2
sa(dp2550
g2
(dp2551
g4
I0
sg5
I44
ssg6
I44
sg7
g8
((lp2552
I812897904578928640
atp2553
Rp2554
sg12
I17
sg13
g14
(g15
tp2555
Rp2556
Vhttp://ift.tt/2gg4RKA
p2557
I44
ssg199
Vfit  try this shock diet to lose 23 pounds in just 21 days or you get it for free
p2558
sg201
I51
sg202
I9
sg203
I2
sa(dp2559
g2
(dp2560
g4
I0
sg5
I43
ssg6
I43
sg7
g8
((lp2561
I820327322188451840
aI828732908689055745
aI274997124
aI1511831046
aI227369367
aI4775702286
aI127800081
aI28888215
aI4234732696
aI21228698
aI804812699507036160
aI33448100
aI2566049137
aI321270313
aI2673756716
aI370269230
aI1730932657
aI814041918652829696
aI2973190324
aI3750263606
aI2305445690
aI9473472
aI478606913
aI2430921283
aI1050470983
aI277008844
aI23214285
aI3119178447
aI61419092
aI44106837
aI1258861399
aI806944698
aI3803265377
aI428713827
aI102998244
aI622857704
aI3986600297
aI1934287598
aI70150255
aI17711729
aI216895354
aI4536039677
aI1574200574
atp2562
Rp2563
sg12
I17
sg13
g14
(g15
tp2564
Rp2565
Vhttp://ift.tt/2lsDvCQ
p2566
I1
sVhttp://ift.tt/2kr6OFT
p2567
I1
sVhttp://ift.tt/2kT1NcK
p2568
I40
sVhttp://ift.tt/2k8xnyw
p2569
I1
ssg199
Vwhat software engineers are making around the world right now
p2570
sg201
I52
sg202
I9
sg203
I2
sa(dp2571
g2
(dp2572
g4
I14
sg5
I28
ssg6
I42
sg7
g8
((lp2573
I711563937553076224
aI792672504611340289
aI768846044754907138
aI296237507
aI743243062726451201
aI712243487467511808
aI788060261047492609
aI269993706
aI4013703275
aI474067756
aI211267565
aI551593678
aI4922041517
aI248677201
aI912346350
aI257202487
aI4922263930
aI757635661990072320
atp2574
Rp2575
sg12
I17
sg13
g14
(g15
tp2576
Rp2577
Vhttp://ift.tt/2aTZY9v
p2578
I1
sVhttp://ift.tt/1XtIQLb
p2579
I1
sVhttp://ift.tt/2aTNQrS
p2580
I1
sVhttp://ift.tt/239Etp1
p2581
I1
sVhttp://ift.tt/1LFvvuy
p2582
I1
sVhttp://ift.tt/20CznPI
p2583
I1
sVhttp://ift.tt/1LfEi09
p2584
I4
sVhttp://ift.tt/1OrHWYt
p2585
I1
sVhttp://ift.tt/2aYb2Bz
p2586
I1
sVhttp://ift.tt/1PYXkfJ
p2587
I1
sVhttp://ift.tt/22EjTiZ
p2588
I1
sVhttp://ift.tt/2baJt8Z
p2589
I1
sVhttp://ift.tt/2aUhScn
p2590
I1
sVhttp://ift.tt/2aUx8ro
p2591
I1
sVhttp://ift.tt/2aZDHpV
p2592
I1
sVhttp://ift.tt/2aQp3Ed
p2593
I1
sVhttp://ift.tt/1N7WH5p
p2594
I1
sVhttp://ift.tt/1Pfx26H
p2595
I1
sVhttp://ift.tt/2aTYSL3
p2596
I1
sVhttp://ift.tt/1Q57YSi
p2597
I2
sVhttp://ift.tt/2aVpCbg
p2598
I1
sVhttp://ift.tt/2bs23ex
p2599
I1
sVhttp://ift.tt/21FZxQq
p2600
I2
sVhttp://ift.tt/1UjYneU
p2601
I3
sVhttp://ift.tt/2aVSkdO
p2602
I2
sVhttp://ift.tt/1LEtBKB
p2603
I2
sVhttp://ift.tt/1PXAs08
p2604
I1
sVhttp://ift.tt/2bgf0Ym
p2605
I1
sVhttp://ift.tt/1WHqqC2
p2606
I1
sVhttp://ift.tt/1L8m6es
p2607
I1
sVhttp://ift.tt/2bei2cG
p2608
I1
sVhttp://ift.tt/2aTQivN
p2609
I1
sVhttp://ift.tt/2bsIH95
p2610
I1
ssg199
Vclick here to watch the movie   add me on snapchat imjuicyass
p2611
sg201
I53
sg202
I9
sg203
I2
sa(dp2612
g2
(dp2613
g4
I0
sg5
I42
ssg6
I42
sg7
g8
((lp2614
I820327322188451840
aI814041918652829696
aI274997124
aI1511831046
aI828732908689055745
aI28888215
aI4775702286
aI127800081
aI227369367
aI4234732696
aI21228698
aI804812699507036160
aI33448100
aI17711729
aI321270313
aI2673756716
aI370269230
aI1730932657
aI2973190324
aI806944698
aI9473472
aI478606913
aI2430921283
aI277008844
aI23214285
aI3119178447
aI61419092
aI44106837
aI1258861399
aI1050994393
aI2305445690
aI3803265377
aI428713827
aI102998244
aI622857704
aI3986600297
aI1934287598
aI70150255
aI2566049137
aI216895354
aI4536039677
aI1574200574
atp2615
Rp2616
sg12
I17
sg13
g14
(g15
tp2617
Rp2618
Vhttp://ift.tt/2k7yZ0m
p2619
I40
sVhttp://ift.tt/2k7DcBz
p2620
I1
sVhttp://ift.tt/2k7IUTC
p2621
I1
ssg199
Vamazon\u2019s tap speaker gets a handsfree update in defiance of its name
p2622
sg201
I54
sg202
I9
sg203
I2
sa(dp2623
g2
(dp2624
g4
I0
sg5
I40
ssg6
I40
sg7
g8
((lp2625
I797450293814456320
aI716104896961843200
aI786556215778119682
aI814041918652829696
aI130760193
aI106763540
aI28888215
aI159919257
aI21228698
aI18500764
aI3831039261
aI1202690977
aI2975196322
aI824298722926333953
aI3253409564
aI3073438634
aI2570976043
aI370269230
aI821218809134465024
aI2449434162
aI18138164
aI14309193
aI2723469882
aI296493118
aI478606913
aI165672130
aI1570200775
aI48645833
aI62321738
aI4871674146
aI578277980
aI76908897
aI804812699507036160
aI622857704
aI2827582710
aI2494506104
aI14584447
aI2419449980
aI906942590
aI330429183
atp2626
Rp2627
sg12
I17
sg13
g14
(g15
tp2628
Rp2629
Vhttp://ift.tt/15FcaC4
p2630
I1
sVhttp://ift.tt/2lt21nk
p2631
I1
sVhttp://ift.tt/2loCXC7
p2632
I29
sVhttp://ift.tt/2lvvWMv
p2633
I1
sVhttp://ift.tt/2kMEAXa
p2634
I1
sVhttp://ift.tt/2kMGM0P
p2635
I8
ssg199
Vnormal suburban house becomes stage for intense moose battle
p2636
sg201
I55
sg202
I9
sg203
I2
sa(dp2637
g2
(dp2638
g4
I0
sg5
I40
ssg6
I40
sg7
g8
((lp2639
I797450293814456320
aI716104896961843200
aI786556215778119682
aI814041918652829696
aI130760193
aI106763540
aI28888215
aI159919257
aI21228698
aI18500764
aI3831039261
aI1202690977
aI2975196322
aI824298722926333953
aI3253409564
aI3073438634
aI2570976043
aI370269230
aI821218809134465024
aI2449434162
aI18138164
aI48645833
aI2723469882
aI296493118
aI478606913
aI165672130
aI1570200775
aI14309193
aI62321738
aI4871674146
aI578277980
aI76908897
aI804812699507036160
aI622857704
aI2827582710
aI2494506104
aI14584447
aI2419449980
aI906942590
aI330429183
atp2640
Rp2641
sg12
I17
sg13
g14
(g15
tp2642
Rp2643
Vhttp://ift.tt/15FcaC4
p2644
I1
sVhttp://ift.tt/2kr2gPR
p2645
I29
sVhttp://ift.tt/2k8vYZ7
p2646
I1
sVhttp://ift.tt/2kwELHO
p2647
I1
sVhttp://ift.tt/2kqSOfk
p2648
I1
sVhttp://ift.tt/2kqQXqS
p2649
I8
ssg199
Vfalcon tries to catch a flying dinner in mesmerizing video
p2650
sg201
I56
sg202
I9
sg203
I2
sa(dp2651
g2
(dp2652
g4
I0
sg5
I40
ssg6
I40
sg7
g8
((lp2653
I814041918652829696
aI130760193
aI786556215778119682
aI716104896961843200
aI824298722926333953
aI106763540
aI797450293814456320
aI28888215
aI159919257
aI21228698
aI18500764
aI3831039261
aI1202690977
aI4871674146
aI3253409564
aI3073438634
aI2570976043
aI370269230
aI821218809134465024
aI2449434162
aI18138164
aI14309193
aI2723469882
aI296493118
aI478606913
aI165672130
aI1570200775
aI48645833
aI62321738
aI2975196322
aI578277980
aI76908897
aI804812699507036160
aI622857704
aI2827582710
aI2494506104
aI330429183
aI2419449980
aI906942590
aI14584447
atp2654
Rp2655
sg12
I17
sg13
g14
(g15
tp2656
Rp2657
Vhttp://ift.tt/15FcaC4
p2658
I1
sVhttp://ift.tt/2kMkHja
p2659
I8
sVhttp://ift.tt/2kT9AHD
p2660
I1
sVhttp://ift.tt/2k8glAU
p2661
I1
sVhttp://ift.tt/2kr0Pkv
p2662
I1
sVhttp://ift.tt/2lsVf1e
p2663
I29
ssg199
Vsapio the dating app that wants to help smart people hook up
p2664
sg201
I57
sg202
I9
sg203
I2
sa(dp2665
g2
(dp2666
g4
I0
sg5
I39
ssg6
I39
sg7
g8
((lp2667
I2857420375
atp2668
Rp2669
sg12
I17
sg13
g14
(g15
tp2670
Rp2671
Vhttp://ift.tt/2kTkVaB
p2672
I1
sVhttp://ift.tt/2loBhZu
p2673
I1
sVhttp://ift.tt/2k8scyM
p2674
I1
sVhttp://ift.tt/2lvv36I
p2675
I1
sVhttp://ift.tt/2kMFOBJ
p2676
I1
sVhttp://ift.tt/2kMAYUU
p2677
I1
sVhttp://ift.tt/2k8jTD0
p2678
I1
sVhttp://ift.tt/2lvugmh
p2679
I1
sVhttp://ift.tt/2k8saXG
p2680
I1
sVhttp://ift.tt/2k8eBYj
p2681
I1
sVhttp://ift.tt/2kT0pqy
p2682
I1
sVhttp://ift.tt/2kT65k9
p2683
I1
sVhttp://ift.tt/2kMCs1M
p2684
I1
sVhttp://ift.tt/2kMCdUc
p2685
I1
sVhttp://ift.tt/2kwxY0s
p2686
I1
sVhttp://ift.tt/2loyvmL
p2687
I1
sVhttp://ift.tt/2kMqrct
p2688
I1
sVhttp://ift.tt/2kT8aNc
p2689
I1
sVhttp://ift.tt/2kT87ks
p2690
I1
sVhttp://ift.tt/2lvgNLg
p2691
I1
sVhttp://ift.tt/2kwDmks
p2692
I1
sVhttp://ift.tt/2lvbbAC
p2693
I1
sVhttp://ift.tt/2k8q227
p2694
I1
sVhttp://ift.tt/2kwH79k
p2695
I1
sVhttp://ift.tt/2kMHsDD
p2696
I1
sVhttp://ift.tt/2kwK8q9
p2697
I1
sVhttp://ift.tt/2loNHAH
p2698
I1
sVhttp://ift.tt/2kwA6p6
p2699
I1
sVhttp://ift.tt/2kMAZrW
p2700
I1
sVhttp://ift.tt/2kwCYSJ
p2701
I1
sVhttp://ift.tt/2k8jTmu
p2702
I1
sVhttp://ift.tt/2kwF8lo
p2703
I1
sVhttp://ift.tt/2kTroSH
p2704
I1
sVhttp://ift.tt/2kMvEB4
p2705
I1
sVhttp://ift.tt/2kMC1nP
p2706
I1
sVhttp://ift.tt/2kT0pa2
p2707
I1
sVhttp://ift.tt/2kwE9S8
p2708
I1
sVhttp://ift.tt/2k8tFoE
p2709
I1
sVhttp://ift.tt/2kT86go
p2710
I1
ssg199
Vnew tumblr post counzila vip search   ifttt twitter
p2711
sg201
I58
sg202
I9
sg203
I2
sa(dp2712
g2
(dp2713
g4
I0
sg5
I39
ssg6
I39
sg7
g8
((lp2714
I814041918652829696
aI716104896961843200
aI786556215778119682
aI797450293814456320
aI130760193
aI106763540
aI28888215
aI159919257
aI21228698
aI18500764
aI3831039261
aI1202690977
aI2975196322
aI3253409564
aI3073438634
aI2570976043
aI370269230
aI821218809134465024
aI2449434162
aI18138164
aI48645833
aI2723469882
aI296493118
aI478606913
aI165672130
aI1570200775
aI14309193
aI62321738
aI4871674146
aI578277980
aI76908897
aI804812699507036160
aI622857704
aI2827582710
aI2494506104
aI14584447
aI2419449980
aI906942590
aI330429183
atp2715
Rp2716
sg12
I17
sg13
g14
(g15
tp2717
Rp2718
Vhttp://ift.tt/2kqSihw
p2719
I29
sVhttp://ift.tt/2kr2ZAF
p2720
I1
sVhttp://ift.tt/2k8mWew
p2721
I1
sVhttp://ift.tt/15FcaC4
p2722
I1
sVhttp://ift.tt/2kMoAV9
p2723
I8
ssg199
Valways cold heres how to make it replace your personality
p2724
sg201
I59
sg202
I9
sg203
I2
sa(dp2725
g2
(dp2726
g4
I0
sg5
I39
ssg6
I39
sg7
g8
((lp2727
I716104896961843200
aI130760193
aI786556215778119682
aI821218809134465024
aI824298722926333953
aI106763540
aI797450293814456320
aI28888215
aI159919257
aI21228698
aI18500764
aI3831039261
aI2975196322
aI4259939112
aI3073438634
aI2570976043
aI370269230
aI2449434162
aI48645833
aI2723469882
aI4916468539
aI296493118
aI478606913
aI165672130
aI1570200775
aI14309193
aI62321738
aI4871674146
aI2501572945
aI578277980
aI76908897
aI804812699507036160
aI622857704
aI906942590
aI2827582710
aI2494506104
aI14584447
aI1574200574
aI330429183
atp2728
Rp2729
sg12
I17
sg13
g14
(g15
tp2730
Rp2731
Vhttp://ift.tt/2kr6aYR
p2732
I2
sVhttp://ift.tt/15FcaC4
p2733
I1
sVhttp://ift.tt/2kT8XOa
p2734
I1
sVhttp://ift.tt/2kwDZKI
p2735
I26
sVhttp://ift.tt/2kqYiXA
p2736
I9
ssg199
Vverizon will now come to your house to fix your cracked phone screen you irresponsible slob
p2737
sg201
I60
sg202
I9
sg203
I2
sa(dp2738
g2
(dp2739
g4
I9
sg5
I29
ssg6
I38
sg7
g8
((lp2740
I712243487467511808
aI2859502903
aI768846044754907138
aI711563937553076224
aI360312689
aI474067756
aI758311304880873472
aI4013703275
aI3450634220
aI4922041517
aI551593678
aI211267565
aI248677201
aI257202487
aI4922263930
aI770638645690793984
atp2741
Rp2742
sg12
I17
sg13
g14
(g15
tp2743
Rp2744
Vhttp://ift.tt/1WKCncw
p2745
I2
sVhttp://ift.tt/1Km69LW
p2746
I2
sVhttp://ift.tt/2a0VihR
p2747
I1
sVhttp://ift.tt/2b0OqQP
p2748
I1
sVhttp://ift.tt/1Sgk5jt
p2749
I1
sVhttp://ift.tt/1OsZYcU
p2750
I1
sVhttp://ift.tt/1SeD1z2
p2751
I1
sVhttp://ift.tt/2bt8mMQ
p2752
I1
sVhttp://ift.tt/2bjkQ8n
p2753
I1
sVhttp://ift.tt/1LfEi09
p2754
I4
sVhttp://ift.tt/2bjON8b
p2755
I1
sVhttp://ift.tt/1MAFOL4
p2756
I1
sVhttp://ift.tt/2bdXaEU
p2757
I1
sVhttp://ift.tt/1KJ7mmr
p2758
I1
sVhttp://ift.tt/2b5Tnt2
p2759
I1
sVhttp://ift.tt/1pZSWor
p2760
I1
sVhttp://ift.tt/1ZwK5VW
p2761
I1
sVhttp://ift.tt/25jEB6v
p2762
I2
sVhttp://ift.tt/2aUmLoG
p2763
I1
sVhttp://ift.tt/2aR3Sl2
p2764
I1
sVhttp://ift.tt/2aRBhI0
p2765
I3
sVhttp://ift.tt/2bfTaFx
p2766
I1
sVhttp://ift.tt/1Zy562i
p2767
I2
sVhttp://ift.tt/1TSzNjW
p2768
I1
sVhttp://ift.tt/1QjZqbH
p2769
I1
sVhttp://ift.tt/2aYpGZg
p2770
I1
sVhttp://ift.tt/2aRm1e3
p2771
I1
sVhttp://ift.tt/260Ovuh
p2772
I1
sVhttp://ift.tt/1pegQvX
p2773
I1
ssg199
Vthe full gallery   add me on snapchat imjuicyass
p2774
sg201
I61
sg202
I9
sg203
I2
sa(dp2775
g2
(dp2776
g4
I0
sg5
I38
ssg6
I38
sg7
g8
((lp2777
I804812699507036160
aI820327322188451840
aI1511831046
aI828732908689055745
aI28888215
aI4775702286
aI127800081
aI227369367
aI21228698
aI33448100
aI2566049137
aI321270313
aI2673756716
aI1730932657
aI814041918652829696
aI2973190324
aI2305445690
aI9473472
aI478606913
aI1050470983
aI277008844
aI23214285
aI3119178447
aI61419092
aI15009550
aI1258861399
aI806944698
aI3803265377
aI428713827
aI102998244
aI622857704
aI3986600297
aI1934287598
aI70150255
aI17711729
aI216895354
aI4536039677
aI1574200574
atp2778
Rp2779
sg12
I17
sg13
g14
(g15
tp2780
Rp2781
Vhttp://ift.tt/2kwv8sk
p2782
I1
sVhttp://ift.tt/2kMtZLQ
p2783
I1
sVhttp://ift.tt/2kT1w9D
p2784
I1
sVhttp://ift.tt/2kr56ob
p2785
I1
sVhttp://ift.tt/2k8jP6u
p2786
I34
ssg199
Vzenefits is laying off 45 of its workforce
p2787
sg201
I62
sg202
I9
sg203
I2
sa(dp2788
g2
(dp2789
g4
I28
sg5
I10
ssg6
I38
sg7
g8
((lp2790
I778738540825894912
aI803649111278895105
aI817845524774735874
aI728126835507138560
aI790283294587793408
aI715687943390818305
aI1725196052
aI770638645690793984
aI3119467924
aI788223178430615552
aI712629980463775744
aI826352431005069312
aI3068326134
aI2715004279
aI1394616217
aI1327838106
aI818315881684070400
aI781016259311833088
aI4729386586
aI438892926
aI823629062367313920
atp2791
Rp2792
sg12
I17
sg13
g14
(g15
tp2793
Rp2794
Vhttp://ift.tt/2iO3xPa
p2795
I1
sVhttp://ift.tt/2k20dB5
p2796
I1
sVhttp://ift.tt/2iSoxFi
p2797
I1
sVhttp://ift.tt/2jm2yYt
p2798
I2
sVhttp://ift.tt/2iEubuN
p2799
I2
sVhttp://ift.tt/2juSU8s
p2800
I2
sVhttp://ift.tt/2juRoAt
p2801
I2
sVhttp://ift.tt/2jP4xrF
p2802
I1
sVhttp://ift.tt/2ipIYvu
p2803
I2
sVhttp://ift.tt/2kHpzok
p2804
I1
sVhttp://ift.tt/2ipf0b7
p2805
I1
sVhttp://ift.tt/2jxz4Gw
p2806
I1
sVhttp://ift.tt/2j3Ymyn
p2807
I1
sVhttp://ift.tt/2iWP8Ap
p2808
I2
sVhttp://ift.tt/2k5ZySu
p2809
I4
sVhttp://ift.tt/2jq7A85
p2810
I1
sVhttp://ift.tt/2jwWb72
p2811
I1
sVhttp://ift.tt/2iM4Yhg
p2812
I1
sVhttp://ift.tt/2ilHHSU
p2813
I2
sVhttp://ift.tt/2jgegpO
p2814
I1
sVhttp://ift.tt/2jrZKc5
p2815
I1
sVhttp://ift.tt/2j4oiYT
p2816
I1
sVhttp://ift.tt/2jC24Ni
p2817
I4
sVhttp://ift.tt/2iaCfHC
p2818
I1
sVhttp://ift.tt/2iL2hMW
p2819
I1
ssg199
V\u2665\u2665\u2665\u2665 view the full porn video clip here \u2665\u2665\u2665\u2665\u2665 \u300b6 \u300b
p2820
sg201
I63
sg202
I9
sg203
I2
sa(dp2821
g2
(dp2822
g4
I1
sg5
I37
ssg6
I38
sg7
g8
((lp2823
I704095691262578688
aI704953706752708609
aI790542467552600066
aI2337874603
aI826089343706075136
aI110596487
aI2186835854
aI106763540
aI227369367
aI4234732696
aI2313273882
aI34012059
aI129320989
aI2323317534
aI586537642
aI2570976043
aI2339393324
aI2261274397
aI2344459058
aI854828467
aI821369362305019904
aI62321738
aI165672130
aI131130563
aI2827391562
aI2927138128
aI161992839
aI2333983584
aI622857704
aI123532777
aI2993794026
aI447798892
aI2943073536
aI70150255
aI2566049137
aI2343273721
aI1459604220
aI293415807
atp2824
Rp2825
sg12
I17
sg13
g14
(g15
tp2826
Rp2827
Vhttp://ift.tt/2kwIhln
p2828
I38
ssg199
Vapple\u2019s next iphones may come with wireless charging
p2829
sg201
I64
sg202
I9
sg203
I2
sa(dp2830
g2
(dp2831
g4
I0
sg5
I37
ssg6
I37
sg7
g8
((lp2832
I814041918652829696
aI130760193
aI716104896961843200
aI824298722926333953
aI567279883
aI106763540
aI28888215
aI159919257
aI21228698
aI18500764
aI3831039261
aI1202690977
aI2975196322
aI3253409564
aI3073438634
aI2570976043
aI370269230
aI821218809134465024
aI2449434162
aI18138164
aI14309193
aI2723469882
aI296493118
aI165672130
aI1570200775
aI48645833
aI62321738
aI578277980
aI76908897
aI115412965
aI622857704
aI2827582710
aI2494506104
aI330429183
aI2419449980
aI906942590
aI14584447
atp2833
Rp2834
sg12
I17
sg13
g14
(g15
tp2835
Rp2836
Vhttp://ift.tt/2lvn3CZ
p2837
I1
sVhttp://ift.tt/15FcaC4
p2838
I1
sVhttp://ift.tt/2k7MY6y
p2839
I1
sVhttp://ift.tt/2k8jtMW
p2840
I1
sVhttp://ift.tt/2kMzBWF
p2841
I29
sVhttp://ift.tt/2kMveKQ
p2842
I1
sVhttp://ift.tt/2kwFWXx
p2843
I4
ssg199
Vartist curates intimate photos of nightstands to empower people with chronic illnesses
p2844
sg201
I65
sg202
I9
sg203
I2
sa(dp2845
g2
(dp2846
g4
I0
sg5
I37
ssg6
I37
sg7
g8
((lp2847
I804812699507036160
aI130760193
aI786556215778119682
aI716104896961843200
aI106763540
aI28888215
aI159919257
aI21228698
aI18500764
aI3831039261
aI1202690977
aI4871674146
aI3073438634
aI2570976043
aI370269230
aI821218809134465024
aI2449434162
aI814041918652829696
aI18138164
aI14309193
aI2723469882
aI296493118
aI478606913
aI165672130
aI1570200775
aI48645833
aI62321738
aI2975196322
aI578277980
aI76908897
aI622857704
aI2827582710
aI2494506104
aI330429183
aI2419449980
aI906942590
aI14584447
atp2848
Rp2849
sg12
I17
sg13
g14
(g15
tp2850
Rp2851
Vhttp://ift.tt/2kT6ByS
p2852
I7
sVhttp://ift.tt/15FcaC4
p2853
I1
sVhttp://ift.tt/2kSYmTu
p2854
I1
sVhttp://ift.tt/2kMtfGo
p2855
I29
ssg199
Vcritics heap praise upon fifty shades darker \u2014 just kidding its terrible
p2856
sg201
I66
sg202
I9
sg203
I2
sa(dp2857
g2
(dp2858
g4
I0
sg5
I36
ssg6
I36
sg7
g8
((lp2859
I800273736339308544
atp2860
Rp2861
sg12
I17
sg13
g14
(g15
tp2862
Rp2863
Vhttp://ift.tt/2lsNXKO
p2864
I1
sVhttp://ift.tt/2k7J9ON
p2865
I1
sVhttp://ift.tt/2kXUZKG
p2866
I1
sVhttp://ift.tt/2kXBEZQ
p2867
I1
sVhttp://ift.tt/2k7S3vx
p2868
I1
sVhttp://ift.tt/2lsUDbG
p2869
I1
sVhttp://ift.tt/2lsKBr2
p2870
I1
sVhttp://ift.tt/2lsIjs2
p2871
I1
sVhttp://ift.tt/2lsIJP5
p2872
I1
sVhttp://ift.tt/2lsBMxJ
p2873
I1
sVhttp://ift.tt/2kXDVEi
p2874
I1
sVhttp://ift.tt/2lsTH7r
p2875
I1
sVhttp://ift.tt/2kr4tuw
p2876
I1
sVhttp://ift.tt/2lsPpwL
p2877
I1
sVhttp://ift.tt/2kXOfwf
p2878
I1
sVhttp://ift.tt/2lsGFGQ
p2879
I1
sVhttp://ift.tt/2lsReK6
p2880
I1
sVhttp://ift.tt/2kXDgCZ
p2881
I1
sVhttp://ift.tt/2lsUfKd
p2882
I1
sVhttp://ift.tt/2lsUgOh
p2883
I1
sVhttp://ift.tt/2kY67XF
p2884
I1
sVhttp://ift.tt/2kXFFh6
p2885
I1
sVhttp://ift.tt/2kXJ5QC
p2886
I1
sVhttp://ift.tt/2kqUC8l
p2887
I1
sVhttp://ift.tt/2kXW454
p2888
I1
sVhttp://ift.tt/2kXW3Oy
p2889
I1
sVhttp://ift.tt/2kXANbK
p2890
I1
sVhttp://ift.tt/2kXIDSs
p2891
I1
sVhttp://ift.tt/2lsV3z2
p2892
I1
sVhttp://ift.tt/2kXDWrQ
p2893
I1
sVhttp://ift.tt/2lsPTTy
p2894
I1
sVhttp://ift.tt/2kXBCB6
p2895
I1
sVhttp://ift.tt/2kr1odX
p2896
I1
sVhttp://ift.tt/2k7NEbY
p2897
I1
sVhttp://ift.tt/2lt4QoM
p2898
I1
sVhttp://ift.tt/2kXT9cy
p2899
I1
ssg199
Vnew post on my blog new post on my blog new post on my blog new post on my blog new post on my blog new post \u2026
p2900
sg201
I67
sg202
I9
sg203
I2
sa(dp2901
g2
(dp2902
g4
I3
sg5
I33
ssg6
I36
sg7
g8
((lp2903
I829403632219074560
aI2151173312
aI2786253334
atp2904
Rp2905
sg12
I17
sg13
g14
(g15
tp2906
Rp2907
Vhttp://ift.tt/2loApnp
p2908
I2
sVhttp://ift.tt/2lvvT3j
p2909
I1
sVhttp://ift.tt/2k7xkbq
p2910
I1
sVhttp://ift.tt/2kT7rM0
p2911
I1
sVhttp://ift.tt/2lsLDDI
p2912
I1
sVhttp://ift.tt/2kwuJGs
p2913
I1
sVhttp://ift.tt/2k7NVvI
p2914
I2
sVhttp://ift.tt/2kXMzD3
p2915
I1
sVhttp://ift.tt/2k8oy8c
p2916
I1
sVhttp://ift.tt/2kMFvXD
p2917
I1
sVhttp://ift.tt/2kwzQXb
p2918
I1
sVhttp://ift.tt/2k8taef
p2919
I1
sVhttp://ift.tt/2k7Ba4a
p2920
I1
sVhttp://ift.tt/2loLYez
p2921
I1
sVhttp://ift.tt/2kXJNNM
p2922
I1
sVhttp://ift.tt/2kMsYmV
p2923
I1
sVhttp://ift.tt/2lvyieu
p2924
I1
sVhttp://ift.tt/2lsC4Ve
p2925
I1
sVhttp://ift.tt/2kwyImd
p2926
I1
sVhttp://ift.tt/2lvoFwt
p2927
I1
sVhttp://ift.tt/2kXR3cN
p2928
I1
sVhttp://ift.tt/2lsZwSd
p2929
I1
sVhttp://ift.tt/2loIuZj
p2930
I1
sVhttp://ift.tt/2kqYndN
p2931
I1
sVhttp://ift.tt/2kqPDnN
p2932
I1
sVhttp://ift.tt/2kTckof
p2933
I1
sVhttp://ift.tt/2kqUdlZ
p2934
I2
sVhttp://ift.tt/2kMsJbt
p2935
I1
sVhttp://ift.tt/2ktVVpm
p2936
I1
sVhttp://ift.tt/2kT8V8U
p2937
I1
sVhttp://ift.tt/2kTkWvb
p2938
I1
sVhttp://ift.tt/2k8q2z9
p2939
I1
sVhttp://ift.tt/2lvBs1V
p2940
I1
ssg199
Vget more live videos
p2941
sg201
I68
sg202
I9
sg203
I2
sa(dp2942
g2
(dp2943
g4
I0
sg5
I36
ssg6
I36
sg7
g8
((lp2944
I820327322188451840
aI828732908689055745
aI274997124
aI1511831046
aI28888215
aI4775702286
aI127800081
aI227369367
aI21228698
aI804812699507036160
aI17711729
aI2673756716
aI26136365
aI370269230
aI1730932657
aI2973190324
aI3750263606
aI2305445690
aI9473472
aI478606913
aI2430921283
aI1050470983
aI277008844
aI61419092
aI44106837
aI1258861399
aI806944698
aI428713827
aI3120043918
aI622857704
aI1934287598
aI70150255
aI2566049137
aI216895354
aI4536039677
aI1574200574
atp2945
Rp2946
sg12
I17
sg13
g14
(g15
tp2947
Rp2948
Vhttp://ift.tt/2kqQ0yO
p2949
I34
sVhttp://ift.tt/2k8vrGF
p2950
I1
sVhttp://ift.tt/2kToNIr
p2951
I1
ssg199
Vgoogle officially brings webvr to chrome
p2952
sg201
I69
sg202
I9
sg203
I2
sa(dp2953
g2
(dp2954
g4
I14
sg5
I21
ssg6
I35
sg7
g8
((lp2955
I710178054526541824
aI4746224912
aI788555058350690304
aI760260973420765185
aI3306129478
aI727948982929006593
aI387536649
aI2377989324
aI2783445005
aI2862008080
aI3235809042
aI4880891475
aI2989502007
aI3435866873
atp2956
Rp2957
sg12
I17
sg13
g14
(g15
tp2958
Rp2959
Vhttp://ift.tt/292DFvy
p2960
I2
sVhttp://ift.tt/1We0Dp2
p2961
I2
sVhttp://ift.tt/1s8gxo4
p2962
I1
sVhttp://ift.tt/2kT6y61
p2963
I2
sVhttp://ift.tt/2jk2U4f
p2964
I2
sVhttp://ift.tt/2kXRTWS
p2965
I1
sVhttp://ift.tt/2lt12Up
p2966
I3
sVhttp://ift.tt/2k7qMcF
p2967
I1
sVhttp://ift.tt/2lsL7FL
p2968
I1
sVhttp://ift.tt/2jzSvS6
p2969
I1
sVhttp://ift.tt/2louHSu
p2970
I1
sVhttp://ift.tt/2kjEXez
p2971
I1
sVhttp://ift.tt/1SSfm1I
p2972
I2
sVhttp://ift.tt/2k4Px6b
p2973
I1
sVhttp://ift.tt/2kw4sbi
p2974
I1
sVhttp://ift.tt/2k8BhaH
p2975
I1
sVhttp://ift.tt/2loEqIE
p2976
I1
sVhttp://ift.tt/2bOlp97
p2977
I1
sVhttp://ift.tt/2jvEEw9
p2978
I4
sVhttp://ift.tt/1Sm6sfu
p2979
I1
sVhttp://ift.tt/2lozZ0q
p2980
I2
sVhttp://ift.tt/2kwzoIk
p2981
I1
sVhttp://ift.tt/2ikO0d0
p2982
I1
sVhttp://ift.tt/2kqWL3J
p2983
I1
ssg199
Vclick here to watch the movie    add me on snapchat imlisa95
p2984
sg201
I70
sg202
I9
sg203
I2
sa(dp2985
g2
(dp2986
g4
I35
sg5
I0
ssg6
I35
sg7
g8
((lp2987
I817398981500116992
aI827722024814534656
aI819618226854359044
aI706987779717136384
aI739888723559653377
aI3300435849
aI4009948693
aI3079765991
aI228931226
aI283641503
aI588822436
aI200284422
aI826298494562349056
aI2588488749
aI44172463
aI564169144
aI2725000764
aI34493245
aI2293563331
aI858210757
aI33085511
aI548808008
aI1155440329
aI525857359
aI547089105
aI806828291957125120
aI400673634
aI764820138285670400
aI973760616
aI1275488107
aI469574767
aI823017058606731264
aI3557253496
aI2197101177
aI2618842879
atp2988
Rp2989
sg12
I17
sg13
g14
(g15
tp2990
Rp2991
Vhttp://ift.tt/2k8aviN
p2992
I35
ssg199
Vjustin trudeau and donald trump to meet monday in washington   ottnews ottawa
p2993
sg201
I71
sg202
I9
sg203
I2
sa(dp2994
g2
(dp2995
g4
I23
sg5
I10
ssg6
I33
sg7
g8
((lp2996
I818315881684070400
aI803649111278895105
aI781016259311833088
aI819115931393785857
aI3079732997
aI790283294587793408
aI712385994985578496
aI2261148427
aI804477133439598593
aI2715004279
aI438892926
aI705468543568109568
atp2997
Rp2998
sg12
I17
sg13
g14
(g15
tp2999
Rp3000
Vhttp://ift.tt/2k4WA1m
p3001
I2
sVhttp://ift.tt/2jraARW
p3002
I1
sVhttp://ift.tt/2jBFjJA
p3003
I2
sVhttp://ift.tt/2iSJ0MI
p3004
I1
sVhttp://ift.tt/2iKLs4B
p3005
I1
sVhttp://ift.tt/2jEd14w
p3006
I2
sVhttp://ift.tt/2ik0PEe
p3007
I1
sVhttp://ift.tt/2i9XkC4
p3008
I1
sVhttp://ift.tt/2iiu6iL
p3009
I2
sVhttp://ift.tt/2kdiujh
p3010
I1
sVhttp://ift.tt/2jr6l5C
p3011
I2
sVhttp://ift.tt/2ikb1N2
p3012
I2
sVhttp://ift.tt/2k11DvO
p3013
I2
sVhttp://ift.tt/2jeW0go
p3014
I1
sVhttp://ift.tt/2jejFLk
p3015
I3
sVhttp://ift.tt/2iGFh2z
p3016
I1
sVhttp://ift.tt/2j86Aph
p3017
I3
sVhttp://ift.tt/2jbI1rO
p3018
I1
sVhttp://ift.tt/2iZ8iHu
p3019
I1
sVhttp://ift.tt/2im15iV
p3020
I1
sVhttp://ift.tt/2jf45Qf
p3021
I1
sVhttp://ift.tt/2jnTsKo
p3022
I1
ssg199
V\u2665\u2665\u2665\u2665 view the porn full video clip here \u2665\u2665\u2665\u2665\u2665 \u300b2 \u300b
p3023
sg201
I72
sg202
I9
sg203
I2
sa(dp3024
g2
(dp3025
g4
I0
sg5
I33
ssg6
I33
sg7
g8
((lp3026
I704095691262578688
aI704953706752708609
aI790542467552600066
aI2337874603
aI110596487
aI2186835854
aI106763540
aI227369367
aI4234732696
aI2313273882
aI129320989
aI2323317534
aI586537642
aI2570976043
aI2339393324
aI2261274397
aI2344459058
aI854828467
aI165672130
aI131130563
aI62321738
aI161992839
aI2333983584
aI622857704
aI123532777
aI2993794026
aI447798892
aI2943073536
aI70150255
aI2566049137
aI2343273721
aI1459604220
aI293415807
atp3027
Rp3028
sg12
I17
sg13
g14
(g15
tp3029
Rp3030
Vhttp://ift.tt/2k7wP0R
p3031
I33
ssg199
Vamazon tap\u2019s new handsfree alexa update means it\u2019s actually useful
p3032
sg201
I73
sg202
I9
sg203
I2
sa(dp3033
g2
(dp3034
g4
I4
sg5
I28
ssg6
I32
sg7
g8
((lp3035
I796478909726363648
aI746769893014507521
aI274997124
aI761272781535268864
aI828732908689055745
aI1335885452
aI3657871
aI106763540
aI28888215
aI4234732696
aI3831039261
aI728526170292097025
aI2570976043
aI1559325745
aI14734004
aI1895632951
aI11453112
aI2305445690
aI44356030
aI165672130
aI581968579
aI2577204294
aI2393577290
aI1944156499
aI2342644182
aI804812699507036160
aI353412198
aI123532777
aI3071556202
atp3036
Rp3037
sg12
I17
sg13
g14
(g15
tp3038
Rp3039
Vhttp://ift.tt/2loGnVD
p3040
I32
ssg199
Vthe secret to doctor strange\u2019s astral forms not going ghostly
p3041
sg201
I74
sg202
I9
sg203
I2
sa(dp3042
g2
(dp3043
g4
I0
sg5
I32
ssg6
I32
sg7
g8
((lp3044
I814041918652829696
aI130760193
aI716104896961843200
aI106763540
aI28888215
aI21228698
aI18500764
aI3831039261
aI1202690977
aI2975196322
aI3253409564
aI3073438634
aI2570976043
aI370269230
aI821218809134465024
aI18138164
aI14309193
aI2723469882
aI296493118
aI165672130
aI1570200775
aI48645833
aI62321738
aI578277980
aI76908897
aI622857704
aI2827582710
aI2494506104
aI14584447
aI2419449980
aI906942590
aI330429183
atp3045
Rp3046
sg12
I17
sg13
g14
(g15
tp3047
Rp3048
Vhttp://ift.tt/2kwDMax
p3049
I29
sVhttp://ift.tt/2kTgHj1
p3050
I1
sVhttp://ift.tt/2kT1QVT
p3051
I1
sVhttp://ift.tt/15FcaC4
p3052
I1
sVhttp://ift.tt/2kqZM3Z
p3053
I1
ssg199
Vlovers in canada get to give fried chicken for valentines day
p3054
sg201
I75
sg202
I9
sg203
I2
sa(dp3055
g2
(dp3056
g4
I30
sg5
I1
ssg6
I31
sg7
g8
((lp3057
I799987380409208832
aI810241976406802432
aI782631842310520832
aI1297207694
aI1570837904
aI24318354
aI23673107
aI3041831700
aI3280337558
aI2568012826
aI335520474
aI717867080305999872
aI760128364950724608
aI29836840
aI24127915
aI2194393136
aI2217428280
aI1655291706
aI256481089
aI404475716
aI2199713221
aI249893457
aI187502162
aI711541775551352832
aI55383126
aI2418192986
aI777213856141733888
aI380735071
aI3071318506
aI3876731894
aI345647742
atp3058
Rp3059
sg12
I17
sg13
g14
(g15
tp3060
Rp3061
Vhttp://ift.tt/2kMxsdr
p3062
I31
ssg199
Vthis should have been national news instead it was a footnote nationalpizzaday pizzag\u2026
p3063
sg201
I76
sg202
I9
sg203
I2
sa(dp3064
g2
(dp3065
g4
I0
sg5
I29
ssg6
I29
sg7
g8
((lp3066
I754153164014817280
aI701067233896828928
aI2967808004
aI714450880775458816
aI179912967
aI4205715853
aI627954585
aI176320546
aI21982630
aI740767280
aI741260949944819712
aI10350652
aI1959382207
aI18494916
aI4764122954
aI102948047
aI43811026
aI3305435228
aI33899753
aI2586231403
aI400853101
aI46202044
aI306494969
aI384636155
atp3067
Rp3068
sg12
I17
sg13
g14
(g15
tp3069
Rp3070
Vhttp://ift.tt/2kr5WRw
p3071
I14
sVhttp://ift.tt/2kMBjap
p3072
I3
sVhttp://ift.tt/2k8p99Y
p3073
I12
ssg199
Vnew story on npr archaeologists excavate 12th cave they say once housed dead sea scrolls
p3074
sg201
I77
sg202
I9
sg203
I2
sa(dp3075
g2
(dp3076
g4
I28
sg5
I1
ssg6
I29
sg7
g8
((lp3077
I758504605785399296
aI756138676229328896
aI419133954
aI37270422
aI797734922999894016
aI1655557910
aI1381088924
aI785856656529686528
aI298154404
aI4917244678
aI2751438503
aI151171124
aI19990837
aI49670687
aI274988490
aI562060738
aI385139013
aI1320742214
aI3305538762
aI820296815983505408
aI575112272
aI582414933
aI344953081
aI1035525156
aI778769173191258112
aI546015655
aI3135549293
aI825684601
aI731922811
atp3078
Rp3079
sg12
I17
sg13
g14
(g15
tp3080
Rp3081
Vhttp://ift.tt/2lsOsoh
p3082
I29
ssg199
Vkellyanne conway breaks the law by using the white house to sell ivanka trump\u2019s clothes
p3083
sg201
I78
sg202
I9
sg203
I2
sa(dp3084
g2
(dp3085
g4
I0
sg5
I28
ssg6
I28
sg7
g8
((lp3086
I754153164014817280
aI701067233896828928
aI2967808004
aI714450880775458816
aI179912967
aI4205715853
aI627954585
aI176320546
aI21982630
aI740767280
aI741260949944819712
aI10350652
aI1959382207
aI18494916
aI4764122954
aI102948047
aI43811026
aI3305435228
aI33899753
aI2586231403
aI400853101
aI46202044
aI306494969
aI384636155
atp3087
Rp3088
sg12
I17
sg13
g14
(g15
tp3089
Rp3090
Vhttp://ift.tt/2k7FcJS
p3091
I3
sVhttp://ift.tt/2kwxho4
p3092
I12
sVhttp://ift.tt/2loyGi2
p3093
I13
ssg199
Vnew story on npr kenyan court rules government cannot close worlds largest refugee camp
p3094
sg201
I79
sg202
I9
sg203
I2
sa(dp3095
g2
(dp3096
g4
I27
sg5
I1
ssg6
I28
sg7
g8
((lp3097
I799041430974935040
aI758744695795134465
aI170913794
aI3427024005
aI799499803965145088
aI812423109953327105
aI1311971600
aI20939926
aI19679388
aI1182581022
aI878284831
aI807786975809966081
aI3061130410
aI3308551219
aI2304467870
aI1650323768
aI391013433
aI1365513758
aI1728987451
aI1110446658
aI2333179337
aI2470524502
aI35965968
aI2312614634
aI25671405
aI252781686
aI487770873
aI2709238271
atp3098
Rp3099
sg12
I17
sg13
g14
(g15
tp3100
Rp3101
Vhttp://ift.tt/2kXEhe8
p3102
I28
ssg199
Vbreaking news trevor noah just defended nordstrom and destroyed ivanka trump
p3103
sg201
I80
sg202
I9
sg203
I2
sa(dp3104
g2
(dp3105
g4
I0
sg5
I28
ssg6
I28
sg7
g8
((lp3106
I780380788655140864
aI818796658456526848
atp3107
Rp3108
sg12
I17
sg13
g14
(g15
tp3109
Rp3110
Vhttp://ift.tt/2kwHRvm
p3111
I1
sVhttp://ift.tt/2kXSQi2
p3112
I1
sVhttp://ift.tt/2lsHory
p3113
I1
sVhttp://ift.tt/2kXDude
p3114
I1
sVhttp://ift.tt/2kwRDNV
p3115
I1
sVhttp://ift.tt/2lsJub1
p3116
I1
sVhttp://ift.tt/2lsxnuC
p3117
I1
sVhttp://ift.tt/2lsAD98
p3118
I1
sVhttp://ift.tt/2kwHYXR
p3119
I1
sVhttp://ift.tt/2kwHnFD
p3120
I1
sVhttp://ift.tt/2kXxHEq
p3121
I1
sVhttp://ift.tt/2kwCBHS
p3122
I1
sVhttp://ift.tt/2itDrCg
p3123
I28
sVhttp://ift.tt/2kwRBFN
p3124
I1
sVhttp://ift.tt/2kXI3V1
p3125
I1
sVhttp://ift.tt/2kXNYcE
p3126
I1
sVhttp://ift.tt/2kXCsxK
p3127
I1
sVhttp://ift.tt/2kXvgSm
p3128
I1
sVhttp://ift.tt/2lsKz2F
p3129
I1
sVhttp://ift.tt/2lsLMab
p3130
I1
sVhttp://ift.tt/2kXvb10
p3131
I1
sVhttp://ift.tt/2kXSOqq
p3132
I1
sVhttp://ift.tt/2kXAq0H
p3133
I1
sVhttp://ift.tt/2lsHwqT
p3134
I1
sVhttp://ift.tt/2kwEGni
p3135
I1
sVhttp://ift.tt/2lsLnUY
p3136
I1
sVhttp://ift.tt/2kwHpNL
p3137
I1
sVhttp://ift.tt/2kwAGTY
p3138
I1
sVhttp://ift.tt/2kwYcQD
p3139
I1
ssg199
Vfor more info on healthy lifestyle   weightloss fitness health motivation
p3140
sg201
I81
sg202
I9
sg203
I2
sa(dp3141
g2
(dp3142
g4
I0
sg5
I28
ssg6
I28
sg7
g8
((lp3143
I706036967591518208
aI819069775703744513
aI710903558132994048
aI365687943
aI181262092
aI416273680
aI2511660434
aI2809541977
aI29635868
aI190826530
aI2872488099
aI782970216556826625
aI765300133
aI4205612713
aI2577589418
aI4000898865
aI4247186419
aI425481286
aI2759754440
aI22797771
aI1408557523
aI4543434455
aI1409582809
aI801472816403058688
aI1131237216
aI194658150
aI22651499
aI3246244339
atp3144
Rp3145
sg12
I17
sg13
g14
(g15
tp3146
Rp3147
Vhttp://ift.tt/28IdttI
p3148
I1
sVhttp://ift.tt/2lv8qzg
p3149
I27
ssg199
Vsnap inc amends compensation filing of its lone female director by michael j de la merced via nyt the new york\u2026
p3150
sg201
I82
sg202
I9
sg203
I2
sa(dp3151
g2
(dp3152
g4
I1
sg5
I27
ssg6
I28
sg7
g8
((lp3153
I763696366157647872
aI130760193
aI801138926522159104
aI31510410
aI3230894347
aI3657871
aI550102309
aI719120690830516224
aI409025449
aI1710436524
aI1181745072
aI2842120113
aI2182620212
aI3169709498
aI1941585674
aI3240404163
aI277008844
aI2246022606
aI725662403749269504
aI2612462942
aI436724320
aI538698980
aI2214054761
aI1533414896
aI3828430581
aI2827582710
aI440015991
aI124308091
atp3154
Rp3155
sg12
I17
sg13
g14
(g15
tp3156
Rp3157
Vhttp://ift.tt/2kwyFXK
p3158
I1
sVhttp://ift.tt/2loxo6H
p3159
I27
ssg199
Vholding true to your values is an essential decisionmaking metric
p3160
sg201
I83
sg202
I9
sg203
I2
sa(dp3161
g2
(dp3162
g4
I0
sg5
I27
ssg6
I27
sg7
g8
((lp3163
I719120690830516224
aI763696366157647872
aI801138926522159104
aI130760193
aI1941585674
aI3230894347
aI3657871
aI550102309
aI409025449
aI1710436524
aI1181745072
aI2842120113
aI2182620212
aI3169709498
aI3240404163
aI277008844
aI2246022606
aI725662403749269504
aI2612462942
aI436724320
aI538698980
aI2214054761
aI1533414896
aI3828430581
aI2827582710
aI440015991
aI124308091
atp3164
Rp3165
sg12
I17
sg13
g14
(g15
tp3166
Rp3167
Vhttp://ift.tt/2lvyzxZ
p3168
I26
sVhttp://ift.tt/2kXUq3w
p3169
I1
ssg199
Vtaking the easy way can be the best method for getting ahead
p3170
sg201
I84
sg202
I9
sg203
I2
sa(dp3171
g2
(dp3172
g4
I0
sg5
I27
ssg6
I27
sg7
g8
((lp3173
I719120690830516224
aI763696366157647872
aI801138926522159104
aI130760193
aI1941585674
aI3230894347
aI3657871
aI550102309
aI409025449
aI1710436524
aI1181745072
aI2842120113
aI2182620212
aI3169709498
aI3240404163
aI277008844
aI2246022606
aI725662403749269504
aI2612462942
aI436724320
aI538698980
aI2214054761
aI1533414896
aI3828430581
aI2827582710
aI440015991
aI124308091
atp3174
Rp3175
sg12
I17
sg13
g14
(g15
tp3176
Rp3177
Vhttp://ift.tt/2loBV95
p3178
I26
sVhttp://ift.tt/2lsIeEH
p3179
I1
ssg199
Vwe asked nick cannon to freestyle rap about entrepreneurship and he did not disappoint
p3180
sg201
I85
sg202
I9
sg203
I2
sa(dp3181
g2
(dp3182
g4
I0
sg5
I26
ssg6
I26
sg7
g8
((lp3183
I797450293814456320
aI755914372636114944
aI2951846914
aI2994127108
aI814041918652829696
aI146692746
aI159836939
aI725990509626417154
aI2825172035
aI254169365
aI2393298072
aI368215075
aI252640038
aI1104938408
aI18270633
aI2898745401
aI304861372
aI1958049475
aI1228840274
aI3240188775
aI12376572
aI841623403
aI2722832755
aI3192690551
aI2538090492
atp3184
Rp3185
sg12
I17
sg13
g14
(g15
tp3186
Rp3187
Vhttp://ift.tt/2kr6I0Z
p3188
I25
sVhttp://ift.tt/2kqYoOQ
p3189
I1
ssg199
Vnabila ramdani marine le pen wont do a donald
p3190
sg201
I86
sg202
I9
sg203
I2
sa(dp3191
g2
(dp3192
g4
I0
sg5
I26
ssg6
I26
sg7
g8
((lp3193
I819372870765789184
aI817197508451598336
aI818670867529998338
aI818992080798289920
aI819351231823020036
aI819352184219467781
aI819342112609239040
aI818663235884818433
aI819735490106630146
aI819381730624892929
aI817218940095135745
aI818648349008072704
aI818996678158127105
aI818668972627333120
atp3194
Rp3195
sg12
I17
sg13
g14
(g15
tp3196
Rp3197
Vhttp://ift.tt/2kwwSlm
p3198
I12
sVhttp://ift.tt/2kwzeAU
p3199
I14
ssg199
Vdiscussion beautyrecap february 9th 2017 get updated on the latest in the skincare and beauty industry via \u2026
p3200
sg201
I87
sg202
I9
sg203
I2
sa(dp3201
g2
(dp3202
g4
I0
sg5
I26
ssg6
I26
sg7
g8
((lp3203
I708263178912673792
aI713448038656651264
aI276544322
aI368215075
aI807410429832077316
aI2976237925
aI826234166706597888
aI4459680809
aI2645258028
aI2951846914
aI2378032464
aI1228840274
aI4698675998
aI2255987881
aI906942590
aI2784104921
aI21450106
aI2564829338
aI296493118
aI293415807
atp3204
Rp3205
sg12
I17
sg13
g14
(g15
tp3206
Rp3207
Vhttp://ift.tt/2f6dmIc
p3208
I1
sVhttp://ift.tt/2kqMep8
p3209
I1
sVhttp://ift.tt/2lsPMaA
p3210
I1
sVhttp://ift.tt/2lozcgb
p3211
I1
sVhttp://ift.tt/2lozHH6
p3212
I8
sVhttp://ift.tt/2lotoTU
p3213
I1
sVhttp://ift.tt/2kTarrF
p3214
I1
sVhttp://ift.tt/2kXRvYy
p3215
I12
ssg199
Vvenezuela falls behind on oilforloan deals with china russia
p3216
sg201
I88
sg202
I9
sg203
I2
sa(dp3217
g2
(dp3218
g4
I25
sg5
I1
ssg6
I26
sg7
g8
((lp3219
I615120619
aI1969515013
aI1969712264
aI1969867146
aI283007639
aI189259248
aI3042347570
aI1969996464
aI3059300530
aI283015611
aI3035328188
aI1969892490
aI3041140160
aI1969709893
aI2474888392
aI3060091721
aI1970045647
aI1969467218
aI1969360207
aI1969358180
aI2483880299
aI1969860541
aI1969756272
aI1969450740
aI2486631286
aI1970203440
atp3220
Rp3221
sg12
I17
sg13
g14
(g15
tp3222
Rp3223
Vhttp://ift.tt/1C6e0Y8
p3224
I26
ssg199
Vcheck todays black book healthcare industry tech amp services survey results unbiased crowdsourced user ratings
p3225
sg201
I89
sg202
I9
sg203
I2
sa(dp3226
g2
(dp3227
g4
I0
sg5
I26
ssg6
I26
sg7
g8
((lp3228
I754153164014817280
aI747932927439208448
aI20627586
aI714450880775458816
aI2967808004
aI21982630
aI179912967
aI33899753
aI4764122954
aI2586231403
aI18495916
aI3305435228
aI102948047
aI873648944
aI43811026
aI4205715853
aI627954585
aI10350652
aI707298533875974144
atp3229
Rp3230
sg12
I17
sg13
g14
(g15
tp3231
Rp3232
Vhttp://ift.tt/2kr4hLO
p3233
I3
sVhttp://ift.tt/2lovWBs
p3234
I3
sVhttp://ift.tt/2k7Mqh4
p3235
I12
sVhttp://ift.tt/2kwwi7u
p3236
I8
ssg199
Vnew story on npr about that bill abolishing the department of education
p3237
sg201
I90
sg202
I9
sg203
I2
sa(dp3238
g2
(dp3239
g4
I0
sg5
I25
ssg6
I25
sg7
g8
((lp3240
I3288161028
atp3241
Rp3242
sg12
I17
sg13
g14
(g15
tp3243
Rp3244
Vhttp://ift.tt/2lsMl3K
p3245
I1
sVhttp://ift.tt/2lsPf8K
p3246
I1
sVhttp://ift.tt/2kXNaV9
p3247
I1
sVhttp://ift.tt/2kXYpwQ
p3248
I1
sVhttp://ift.tt/2lsLoIu
p3249
I1
sVhttp://ift.tt/2lsMi84
p3250
I1
sVhttp://ift.tt/2lt0Y76
p3251
I1
sVhttp://ift.tt/2kXR1Sg
p3252
I1
sVhttp://ift.tt/2lsKJa2
p3253
I1
sVhttp://ift.tt/2lsYmWF
p3254
I1
sVhttp://ift.tt/2kXKpmJ
p3255
I1
sVhttp://ift.tt/2lsTAIX
p3256
I1
sVhttp://ift.tt/2lsRqJn
p3257
I1
sVhttp://ift.tt/2lsMxzU
p3258
I1
sVhttp://ift.tt/2kXN8N1
p3259
I1
sVhttp://ift.tt/2kXMYoI
p3260
I1
sVhttp://ift.tt/2lt2Xbz
p3261
I1
sVhttp://ift.tt/2lsLr78
p3262
I1
sVhttp://ift.tt/2lsS9dw
p3263
I1
sVhttp://ift.tt/2kXLaMz
p3264
I1
sVhttp://ift.tt/2kXLaw3
p3265
I1
sVhttp://ift.tt/2kXOeby
p3266
I1
sVhttp://ift.tt/2kXUyQa
p3267
I1
sVhttp://ift.tt/2kXOd7u
p3268
I1
sVhttp://ift.tt/2kY75mL
p3269
I1
ssg199
Vhot105 worldwide non stop
p3270
sg201
I91
sg202
I9
sg203
I2
sa(dp3271
g2
(dp3272
g4
I25
sg5
I0
ssg6
I25
sg7
g8
((lp3273
I2814116226
aI258536579
aI3424376578
aI364021652
aI6352662
aI1891274786
aI1429203619
aI382151588
aI125158055
aI173237930
aI41016491
aI99191854
aI3430470322
aI285908150
aI495356346
aI15315266
aI827725508
aI258817994
aI757191814201749517
aI1576144086
aI381941738
aI58397680
aI133450999
aI229300600
aI261812729
atp3274
Rp3275
sg12
I17
sg13
g14
(g15
tp3276
Rp3277
Vhttps://twitter.com/i/web/status/829738246087254017
p3278
I25
ssg199
Vjt lets talk softwood lumber  dt americas lumber isnt soft its strong the strongest  jt   dt did you\u2026
p3279
sg201
I92
sg202
I9
sg203
I2
sa(dp3280
g2
(dp3281
g4
I16
sg5
I9
ssg6
I25
sg7
g8
((lp3282
I790283294587793408
aI803649111278895105
aI778289778362114048
aI781016259311833088
aI801238710947901440
aI828776598669238272
aI506800972
aI823075151692451840
aI821140239406264320
aI2715004279
aI1394616217
aI818315881684070400
aI805255940845010944
atp3283
Rp3284
sg12
I17
sg13
g14
(g15
tp3285
Rp3286
Vhttp://ift.tt/2jAXrH0
p3287
I1
sVhttp://ift.tt/2ijCviN
p3288
I1
sVhttp://ift.tt/2iOHsRK
p3289
I1
sVhttp://ift.tt/2jshF4E
p3290
I2
sVhttp://ift.tt/2ipkb7X
p3291
I1
sVhttp://ift.tt/2jn17vo
p3292
I1
sVhttp://ift.tt/2iCxQJD
p3293
I1
sVhttp://ift.tt/2jC3xa5
p3294
I1
sVhttp://ift.tt/2j0h5HB
p3295
I1
sVhttp://ift.tt/2k5efTE
p3296
I3
sVhttp://ift.tt/2jNzvvU
p3297
I1
sVhttp://ift.tt/2jCljqi
p3298
I1
sVhttp://ift.tt/2j7SbGO
p3299
I1
sVhttp://ift.tt/2iIEAW9
p3300
I1
sVhttp://ift.tt/2jdFexK
p3301
I3
sVhttp://ift.tt/2jDqmKp
p3302
I1
sVhttp://ift.tt/2jMxH9X
p3303
I1
sVhttp://ift.tt/2intubz
p3304
I2
sVhttp://ift.tt/2jhiPA4
p3305
I1
ssg199
V\u2665\u2665\u2665\u2665 view the full porn video clip here \u2665\u2665\u2665\u2665\u2665 \u300b5 \u300b
p3306
sg201
I93
sg202
I9
sg203
I2
sa(dp3307
g2
(dp3308
g4
I24
sg5
I1
ssg6
I25
sg7
g8
((lp3309
I1900209030
aI1977475591
aI1970092554
aI405871371
aI1972237327
aI1973732496
aI1975885970
aI1973294227
aI1970517408
aI1970582178
aI470786348
aI1977175854
aI3064554309
aI2487077205
aI1975439833
aI1973161050
aI1971945360
aI1969839074
aI1970076007
aI2449605224
aI1970490865
aI1974705811
aI1974729720
aI1974343802
atp3310
Rp3311
sg12
I17
sg13
g14
(g15
tp3312
Rp3313
Vhttps://twitter.com/akanoodles/status/829750847760392192
p3314
I25
ssg199
Vhulu vr lets you watch tv with friends now what \U0001f47b vr oculus virtualreality technology hulu
p3315
sg201
I94
sg202
I9
sg203
I2
sa(dp3316
g2
(dp3317
g4
I0
sg5
I25
ssg6
I25
sg7
g8
((lp3318
I820327322188451840
aI274997124
aI4775702286
aI28888215
aI21228698
aI2566049137
aI321270313
aI2673756716
aI370269230
aI3750263606
aI2305445690
aI9473472
aI2430921283
aI277008844
aI23214285
aI44106837
aI1258861399
aI3803265377
aI428713827
aI102998244
aI622857704
aI70150255
aI17711729
aI216895354
aI4536039677
atp3319
Rp3320
sg12
I17
sg13
g14
(g15
tp3321
Rp3322
Vhttp://ift.tt/2kwIo0n
p3323
I24
sVhttp://ift.tt/2kY1ddx
p3324
I1
ssg199
Vgreylock hires a \u201cgrowth advisor in residence\u201d to help goose its portfolio companies
p3325
sg201
I95
sg202
I9
sg203
I2
sa(dp3326
g2
(dp3327
g4
I0
sg5
I25
ssg6
I25
sg7
g8
((lp3328
I825932644013727744
aI819756446145544193
aI2951846914
aI780880099398733824
aI728526170292097025
aI725990509626417154
aI1406286607
aI354544791
aI3299949848
aI216788638
aI701135446831661056
aI3490933154
aI826089343706075136
aI819069775703744513
aI252640038
aI949175598
aI814041918652829696
aI826234166706597888
aI1958049475
aI1570200775
aI961855321
aI3003619042
aI4916468539
aI198368615
aI2894967534
atp3329
Rp3330
sg12
I17
sg13
g14
(g15
tp3331
Rp3332
Vhttp://ift.tt/15FcaC4
p3333
I1
sVhttp://ift.tt/2kr4kY9
p3334
I24
ssg199
Vjason derulo alleges racial discrimination by airline
p3335
sg201
I96
sg202
I9
sg203
I2
sa(dp3336
g2
(dp3337
g4
I14
sg5
I10
ssg6
I24
sg7
g8
((lp3338
I807357579911372800
aI826049766375055360
aI828926578872627202
aI810759313908174848
aI795919523354464256
aI828989739411845122
aI825336626767392768
aI781068866172678144
aI705468543568109568
aI2565737144
aI826352431005069312
aI770214548120932352
aI819919154505547776
atp3339
Rp3340
sg12
I17
sg13
g14
(g15
tp3341
Rp3342
Vhttp://ift.tt/2iACX0J
p3343
I5
sVhttp://ift.tt/2j6epce
p3344
I2
sVhttp://ift.tt/2jb45zD
p3345
I2
sVhttp://ift.tt/2jKrFDn
p3346
I3
sVhttp://ift.tt/2kcGRdw
p3347
I1
sVhttp://ift.tt/2iD04nx
p3348
I1
sVhttp://ift.tt/2k1WOlO
p3349
I3
sVhttp://ift.tt/2iVobxb
p3350
I1
sVhttp://ift.tt/2iBmeug
p3351
I1
sVhttp://ift.tt/2jtPwut
p3352
I2
sVhttp://ift.tt/2juW4Xo
p3353
I1
sVhttp://ift.tt/2jcWGAl
p3354
I1
sVhttp://ift.tt/2jlrtia
p3355
I1
ssg199
Vget the full video here \u2665\u2661\u2665     \u2665\u2661\u2665\u2661 p2
p3356
sg201
I97
sg202
I9
sg203
I2
sa(dp3357
g2
(dp3358
g4
I15
sg5
I9
ssg6
I24
sg7
g8
((lp3359
I790283294587793408
aI803649111278895105
aI3079732997
aI818315881684070400
aI731158361694044160
aI780706923167363072
aI482365485
aI824242140754624512
aI3068326134
aI2715004279
aI731686524417392640
aI438892926
aI770638645690793984
atp3360
Rp3361
sg12
I17
sg13
g14
(g15
tp3362
Rp3363
Vhttp://ift.tt/2j7aITN
p3364
I3
sVhttp://ift.tt/2iz5Nyz
p3365
I1
sVhttp://ift.tt/2iIboxI
p3366
I2
sVhttp://ift.tt/2jWP1WA
p3367
I3
sVhttp://ift.tt/2iMPvRp
p3368
I1
sVhttp://ift.tt/2inrUYM
p3369
I1
sVhttp://ift.tt/2iB4Xxi
p3370
I2
sVhttp://ift.tt/2jRU6As
p3371
I2
sVhttp://ift.tt/2jsHfo0
p3372
I1
sVhttp://ift.tt/2jaHDJX
p3373
I1
sVhttp://ift.tt/2k3PmKE
p3374
I3
sVhttp://ift.tt/2jGyiuj
p3375
I1
sVhttp://ift.tt/2iJh8Iw
p3376
I2
sVhttp://ift.tt/2jaIWX9
p3377
I1
ssg199
V\u2665\u2665\u2665\u2665 view the full porn video clip here \u2665\u2665\u2665\u2665\u2665 \u300b1 \u300b
p3378
sg201
I98
sg202
I9
sg203
I2
sa(dp3379
g2
(dp3380
g4
I0
sg5
I23
ssg6
I23
sg7
g8
((lp3381
I710123098876420096
aI814015653854248960
aI808069792095752197
aI719120690830516224
aI228943371
aI66550558
aI134039586
aI58290213
aI50501289
aI1220234412
aI1461337266
aI73171384
aI478606913
aI2235593285
aI1050470983
aI2253414606
aI3312979165
aI2583673568
aI2214054761
aI2756409323
aI3828430581
aI4564477694
atp3382
Rp3383
sg12
I17
sg13
g14
(g15
tp3384
Rp3385
Vhttp://ift.tt/2lozZxF
p3386
I11
sVhttp://ift.tt/2k8ozZD
p3387
I1
sVhttp://ift.tt/2kXQ8sR
p3388
I1
sVhttp://ift.tt/2lsKTOC
p3389
I2
sVhttp://ift.tt/2k7L1XD
p3390
I1
sVhttp://ift.tt/2lsFC9N
p3391
I2
sVhttp://ift.tt/2k8mahG
p3392
I1
sVhttp://ift.tt/2kwwQtK
p3393
I4
ssg199
Vexhyperloop one cofounder brogan bambrogan just launched a rival startup
p3394
sg201
I99
sg202
I9
sg203
I2
sa(dp3395
g2
(dp3396
g4
I0
sg5
I23
ssg6
I23
sg7
g8
((lp3397
I747932927439208448
aI784348694401384449
aI2252437764
aI3313768454
aI2764958368
aI53652001
aI190826530
aI720624236814016512
aI45309354
aI390781102
aI1708260019
aI146137781
aI87744696
aI425481286
aI4764122954
aI2810757463
aI627503197
aI288050018
aI200659435
aI581749878
aI2175647482
aI2356794366
atp3398
Rp3399
sg12
I17
sg13
g14
(g15
tp3400
Rp3401
Vhttp://ift.tt/2lov3c2
p3402
I23
sVhttp://fb.me/3uzCB3W1m
p3403
I1
ssg199
Vdutch get creative to solve prison problem too many empty cells by dan bilefsky via nyt
p3404
sg201
I100
sg202
I9
sg203
I2
sa(dp3405
g2
(dp3406
g4
I13
sg5
I10
ssg6
I23
sg7
g8
((lp3407
I807268221921492992
aI812059336402944000
aI797944739169505280
aI4793327150
aI4159603633
aI4835936439
aI754492636707160064
atp3408
Rp3409
sg12
I17
sg13
g14
(g15
tp3410
Rp3411
Vhttp://ift.tt/2kgzUrb
p3412
I2
sVhttp://ift.tt/2jERacM
p3413
I2
sVhttp://ift.tt/2j7JUms
p3414
I3
sVhttp://ift.tt/2j7nbXv
p3415
I1
sVhttp://ift.tt/2jnUdSZ
p3416
I1
sVhttp://ift.tt/2iS6mlO
p3417
I2
sVhttp://ift.tt/2jBgrov
p3418
I1
sVhttp://ift.tt/2jvPqmd
p3419
I1
sVhttp://ift.tt/2jbZs89
p3420
I1
sVhttp://ift.tt/2iMUqBQ
p3421
I1
sVhttp://ift.tt/2jvTjb6
p3422
I2
sVhttp://ift.tt/2iSKTLi
p3423
I1
sVhttp://ift.tt/2iNGmbl
p3424
I2
sVhttp://ift.tt/2juLW0T
p3425
I1
sVhttp://ift.tt/2k6ch5f
p3426
I1
sVhttp://ift.tt/2jGZBBD
p3427
I1
ssg199
Vfor the full video amp more go to   \u2661\u2665   jird47 \u2661\u2665
p3428
sg201
I101
sg202
I9
sg203
I2
sa(dp3429
g2
(dp3430
g4
I16
sg5
I7
ssg6
I23
sg7
g8
((lp3431
I801238710947901440
aI803649111278895105
aI705468543568109568
aI755447666180435968
aI3999430575
aI2715004279
aI824242140754624512
aI1394616217
aI818315881684070400
atp3432
Rp3433
sg12
I17
sg13
g14
(g15
tp3434
Rp3435
Vhttp://ift.tt/2jwCWqX
p3436
I1
sVhttp://ift.tt/2jyaHZN
p3437
I1
sVhttp://ift.tt/2ifL6Tj
p3438
I2
sVhttp://ift.tt/2jw4akU
p3439
I1
sVhttp://ift.tt/2kqwVAs
p3440
I3
sVhttp://ift.tt/2jMRPJA
p3441
I1
sVhttp://ift.tt/2igUvNS
p3442
I1
sVhttp://ift.tt/2j5whHq
p3443
I1
sVhttp://ift.tt/2jOdzlo
p3444
I2
sVhttp://ift.tt/2iebqx6
p3445
I2
sVhttp://ift.tt/2jlyIDg
p3446
I1
sVhttp://ift.tt/2iUSBCP
p3447
I1
sVhttp://ift.tt/2jLBFAf
p3448
I1
sVhttp://ift.tt/2iIDCxp
p3449
I1
sVhttp://ift.tt/2iPQDjT
p3450
I1
sVhttp://ift.tt/2kdS1hd
p3451
I1
sVhttp://ift.tt/2ijl9Wb
p3452
I2
ssg199
V\u2665\u2665\u2665\u2665 view the full porn video clip here \u2665\u2665\u2665\u2665\u2665 \u300b3 \u300b
p3453
sg201
I102
sg202
I9
sg203
I2
sa(dp3454
g2
(dp3455
g4
I22
sg5
I0
ssg6
I22
sg7
g8
((lp3456
I3239745664
aI808810807173718016
aI2231464708
aI74820997
aI808795255101419520
aI808795990413234177
aI57284748
aI3381291921
aI808809270171078656
aI786625061234941953
aI705365279572885505
aI20869570
aI1102911816
aI2493455820
aI64658380
aI375417421
aI2469704274
aI15044962
aI2570133347
aI2305988202
aI4474261996
aI48421498
atp3457
Rp3458
sg12
I17
sg13
g14
(g15
tp3459
Rp3460
Vhttp://ift.tt/2lofO2M
p3461
I22
ssg199
Vjeanette a scissum scientist and mathematician at nasa marshall via nasa
p3462
sg201
I103
sg202
I9
sg203
I2
sa(dp3463
g2
(dp3464
g4
I22
sg5
I0
ssg6
I22
sg7
g8
((lp3465
I756932476816072704
aI816450484105920512
aI822586574223405060
aI817598165197225984
aI825606631203352577
aI629460644
aI477906087
aI91670958
aI803009244924624896
aI786007659778408449
aI4480867513
aI826501718288404480
aI130293188
aI755141620199108608
aI865003854
aI736949329
aI765195005514264577
aI415418595
aI185697136
aI3967242739
aI2651323642
aI73289725
atp3466
Rp3467
sg12
I17
sg13
g14
(g15
tp3468
Rp3469
Vhttps://twitter.com/i/web/status/829677919643566080
p3470
I22
ssg199
Vsomeone needs to silence lindsey graham no one wants to listen to a spineless white wafer waffler\u2026
p3471
sg201
I104
sg202
I9
sg203
I2
sa(dp3472
g2
(dp3473
g4
I11
sg5
I11
ssg6
I22
sg7
g8
((lp3474
I814180420568764416
aI790283294587793408
aI731686524417392640
aI813576645403639809
aI829668589779050496
aI4762005436
aI746554605899677696
atp3475
Rp3476
sg12
I17
sg13
g14
(g15
tp3477
Rp3478
Vhttp://ift.tt/2jbRixJ
p3479
I1
sVhttp://ift.tt/2iCORYi
p3480
I4
sVhttp://ift.tt/2jdwrcD
p3481
I1
sVhttp://ift.tt/2jZlsrn
p3482
I1
sVhttp://ift.tt/2jFrNaR
p3483
I1
sVhttp://ift.tt/2jaRi3t
p3484
I1
sVhttp://ift.tt/2jn7Aq4
p3485
I1
sVhttp://ift.tt/2jjQ8m4
p3486
I2
sVhttp://ift.tt/2juZGZ1
p3487
I1
sVhttp://ift.tt/2iR6C14
p3488
I1
sVhttp://ift.tt/2jHvbzf
p3489
I1
sVhttp://ift.tt/2k1pnjA
p3490
I4
sVhttp://ift.tt/2jAUl5X
p3491
I2
sVhttp://ift.tt/2jz7isS
p3492
I1
ssg199
Venjoy our daily updated porn vids \u2665\u2665 view the full clip here   6     \u2665\u2665
p3493
sg201
I105
sg202
I9
sg203
I2
sa(dp3494
g2
(dp3495
g4
I0
sg5
I22
ssg6
I22
sg7
g8
((lp3496
I791757500571799552
aI714437138759155713
aI725990509626417154
aI761259308361277440
aI737520571928313857
aI591637643
aI1963389709
aI2962917520
aI4067873177
aI368215075
aI828732908689055745
aI252640038
aI1963389607
aI296493118
aI478606913
aI1228840274
aI4246265843
aI2960060408
aI185141953
aI900732667
aI906942590
aI2976474495
atp3497
Rp3498
sg12
I17
sg13
g14
(g15
tp3499
Rp3500
Vhttp://ift.tt/2k8eThK
p3501
I18
sVhttp://intelweb.biz
p3502
I1
sVhttp://ift.tt/2lvivwl
p3503
I1
sVhttp://ift.tt/eA8V8J
p3504
I2
sVhttp://www.intelweb.biz
p3505
I1
sVhttp://ift.tt/2k8iQDk
p3506
I3
ssg199
Vus general seeks \u2018a few thousand\u2019 more troops in afghanistan
p3507
sg201
I106
sg202
I9
sg203
I2
sa(dp3508
g2
(dp3509
g4
I22
sg5
I0
ssg6
I22
sg7
g8
((lp3510
I796476506734112768
aI720400208652140544
aI702935353963913220
aI741385459750866944
aI19792780
aI89276429
aI22282517
aI524566935
aI88073241
aI553403968
aI17887936
aI25618113
aI913225676
aI103760972
aI1013745037
aI4385877072
aI790948651963183104
aI1343389789
aI1382530436
aI312928239
aI49840373
aI176871039
atp3511
Rp3512
sg12
I17
sg13
g14
(g15
tp3513
Rp3514
Vhttp://ift.tt/2kqH9xf
p3515
I22
ssg199
Vthe customer who shot and killed a teen for stealing diapers from walmart will likely face charges
p3516
sg201
I107
sg202
I9
sg203
I2
sa(dp3517
g2
(dp3518
g4
I22
sg5
I0
ssg6
I22
sg7
g8
((lp3519
I762743765190737921
aI1217505794
aI810542820645892097
aI531515788
aI496631949
aI2388807054
aI2535651601
aI70565268
aI1175962135
aI3381331752
aI3537362474
aI2258797363
aI2922435127
aI2572249918
aI2895686455
aI3256984794
aI4782997220
aI2835446630
aI92753384
aI2495837420
aI3414553325
aI3558798073
atp3520
Rp3521
sg12
I17
sg13
g14
(g15
tp3522
Rp3523
Vhttp://ift.tt/2k7Ot4K
p3524
I22
ssg199
Vawww shahidkapoor playing with a dog on the sets of the kapilsharma show for rangoo\u2026   ht\u2026
p3525
sg201
I108
sg202
I9
sg203
I2
sa(dp3526
g2
(dp3527
g4
I0
sg5
I21
ssg6
I21
sg7
g8
((lp3528
I814041918652829696
aI478606913
aI165672130
aI790542467552600066
aI74690148
aI1461337266
aI14309193
aI62321738
aI1050470983
aI195523756
aI854828467
aI66079234
aI1238098291
aI106763540
aI2673532213
aI546623315
aI2264581051
aI3831039261
aI330429183
atp3529
Rp3530
sg12
I17
sg13
g14
(g15
tp3531
Rp3532
Vhttp://ift.tt/2k8nvoM
p3533
I1
sVhttp://ift.tt/2kT1Lld
p3534
I18
sVhttp://ift.tt/2loAaJ2
p3535
I1
sVhttp://ln.is/www.engadget.com/201/X5aNX
p3536
I1
sVhttp://ift.tt/2k7uYZX
p3537
I1
ssg199
Vdeepmind is using games to test ai aggression and cooperation
p3538
sg201
I109
sg202
I9
sg203
I2
sa(dp3539
g2
(dp3540
g4
I0
sg5
I21
ssg6
I21
sg7
g8
((lp3541
I2583673568
aI710123098876420096
aI134039586
aI785475624408223744
aI2465926148
aI58290213
aI814015653854248960
aI719120690830516224
aI2499850696
aI50501289
aI1050470983
aI1220234412
aI2235593285
aI3828430581
aI2976366262
aI2214054761
aI73171384
aI808069792095752197
aI3312979165
aI66550558
aI4564477694
atp3542
Rp3543
sg12
I17
sg13
g14
(g15
tp3544
Rp3545
Vhttp://ift.tt/2kr80Jx
p3546
I1
sVhttp://ift.tt/2lsIxj5
p3547
I1
sVhttp://ift.tt/2k7GcOb
p3548
I11
sVhttp://ift.tt/2lsEH9l
p3549
I2
sVhttp://ift.tt/2k8wSEE
p3550
I2
sVhttp://ift.tt/2kMxVMs
p3551
I4
ssg199
Vwhy airbnb doesnt choose new hires based solely on experience
p3552
sg201
I110
sg202
I9
sg203
I2
sa(dp3553
g2
(dp3554
g4
I20
sg5
I1
ssg6
I21
sg7
g8
((lp3555
I824389417120849920
aI742523057013547008
aI2332055875
aI807283658973413377
aI787420487093669888
aI811876273
aI305614280
aI762728510267863040
aI2186844000
aI3135549293
aI778916437
aI16132719
aI47683059
aI17203795
aI799060373529882624
aI45990454
aI937599224
aI731922811
aI1381088924
aI1186457310
aI2773503459
atp3556
Rp3557
sg12
I17
sg13
g14
(g15
tp3558
Rp3559
Vhttp://ift.tt/2kXEhe8
p3560
I21
ssg199
Vtrevor noah just defended nordstrom and destroyed ivanka trump
p3561
sg201
I111
sg202
I9
sg203
I2
sa(dp3562
g2
(dp3563
g4
I0
sg5
I21
ssg6
I21
sg7
g8
((lp3564
I724111301794910210
atp3565
Rp3566
sg12
I17
sg13
g14
(g15
tp3567
Rp3568
Vhttp://ift.tt/2eodAtT
p3569
I1
sVhttp://ift.tt/1NXNcRA
p3570
I1
sVhttp://ift.tt/2dWuR1o
p3571
I1
sVhttp://ift.tt/1WGzCub
p3572
I1
sVhttp://ift.tt/2jYgGLa
p3573
I1
sVhttp://ift.tt/27tx1qV
p3574
I1
sVhttp://ift.tt/29qBaan
p3575
I1
sVhttp://ift.tt/1STgtlU
p3576
I1
sVhttp://ift.tt/2akV9Yq
p3577
I1
sVhttp://ift.tt/2iy4GP9
p3578
I1
sVhttp://ift.tt/1VFg6xL
p3579
I1
sVhttp://ift.tt/1OmWlTK
p3580
I1
sVhttp://ift.tt/2loy2B1
p3581
I1
sVhttp://ift.tt/2lvBK8X
p3582
I1
sVhttp://ift.tt/24nT93B
p3583
I1
sVhttp://ift.tt/2loJH2Y
p3584
I1
sVhttp://ift.tt/2hXAA6G
p3585
I1
sVhttp://ift.tt/2h46EGl
p3586
I1
sVhttp://ift.tt/2dDhqUb
p3587
I1
sVhttp://ift.tt/28hv4OW
p3588
I1
sVhttp://ift.tt/2k8iHjb
p3589
I1
ssg199
V\u2b05 gay male onlinenow videochat w me for sum hot fun hotguy badboy
p3590
sg201
I112
sg202
I9
sg203
I2
sa(dp3591
g2
(dp3592
g4
I10
sg5
I11
ssg6
I21
sg7
g8
((lp3593
I789594766816243712
aI803633839264460800
aI821790533110665216
aI801424012811366404
aI817412920476860421
aI778738540825894912
aI809814675546378241
aI811710192022851584
aI2565737144
aI2908376966
aI788303640
aI823959952427454464
aI755569550809243649
atp3594
Rp3595
sg12
I17
sg13
g14
(g15
tp3596
Rp3597
Vhttp://ift.tt/2juQmoe
p3598
I1
sVhttp://ift.tt/2iApu5i
p3599
I1
sVhttp://ift.tt/2k9rXE3
p3600
I1
sVhttp://ift.tt/2iRp6BI
p3601
I1
sVhttp://ift.tt/2jbr0LJ
p3602
I3
sVhttp://ift.tt/2iLZpzp
p3603
I1
sVhttp://ift.tt/2k0EEB4
p3604
I1
sVhttp://ift.tt/2jrVDzx
p3605
I1
sVhttp://ift.tt/2imu8YE
p3606
I3
sVhttp://ift.tt/2j8KksE
p3607
I1
sVhttp://ift.tt/2idmv1C
p3608
I3
sVhttp://ift.tt/2ihZvhZ
p3609
I1
sVhttp://ift.tt/2iMj3ON
p3610
I1
sVhttp://ift.tt/2iNzSXr
p3611
I1
sVhttp://ift.tt/2iEKFCe
p3612
I1
ssg199
Vview the full video clip here      p2
p3613
sg201
I113
sg202
I9
sg203
I2
sa(dp3614
g2
(dp3615
g4
I0
sg5
I21
ssg6
I21
sg7
g8
((lp3616
I797450293814456320
aI755914372636114944
aI725990509626417154
aI1958049475
aI2994127108
aI3240188775
aI1104938408
aI18270633
aI146692746
aI841623403
aI368215075
aI2951846914
aI2825172035
aI1228840274
aI2722832755
aI254169365
aI3192690551
aI2393298072
aI2898745401
aI12376572
aI159836939
atp3617
Rp3618
sg12
I17
sg13
g14
(g15
tp3619
Rp3620
Vhttp://ift.tt/2kT6p2H
p3621
I20
sVhttp://ift.tt/2k7GiW4
p3622
I1
ssg199
Vdomestic abuse victims hands severed by expartner
p3623
sg201
I114
sg202
I9
sg203
I2
sa.