(dp0
S'hongkong_10_10/hongkong_tweet_'
p1
(dp2
S'deleted'
p3
c__builtin__
set
p4
((lp5
tp6
Rp7
sS'protected'
p8
g4
((lp9
tp10
Rp11
sS'suspended'
p12
g4
((lp13
Vmitsubishi_cars
p14
aVnhlducksfans
p15
aVnhlwildfans
p16
aVArizonaClub
p17
aVNFL_EaglesFans
p18
aVNBA_CelticsFans
p19
aVNFLPackers_Fans
p20
aVnhl_islanderfan
p21
aVnfltitansfans
p22
aVCoyotesFansClub
p23
aVNBA__Grizzlies
p24
aVNHLStarsfans
p25
aVNBA76ersFans
p26
aVnhlpredatorsfan
p27
aVNFLJetsClub
p28
aVMaineClub
p29
atp30
Rp31
sS'normal'
p32
g4
((lp33
VlokitoFrezh
p34
aVVertie_cord
p35
aVmirrcerr
p36
aVJaimitomoo
p37
aVKabar11
p38
aV2014_humberto_2
p39
aVjuakormen
p40
aVRetwetBeta
p41
aVVaAndrey
p42
aVfridmurill
p43
aVmiguetrrs
p44
aVbriziocross
p45
aVKatheleen_5209
p46
aVglo_ar_s
p47
aVgjsdal2
p48
aVyazimttz
p49
aVOjhieTarmiji
p50
aVlui_moren
p51
aV7pecialforyou
p52
aVBlanche_2424
p53
aVmigruizz
p54
aVlidisagu
p55
aVgraphicmiker
p56
aVed_winsb
p57
aVviniciuusantoos
p58
aVthe_alexander01
p59
aVLaGenyy
p60
aVriansilva623
p61
aVsatukanal
p62
aVPassDriving1
p63
aVpocallit
p64
aVCarlZippo
p65
aVFrekiito_x5
p66
aVjimnub
p67
aVraziel_78
p68
aVmarcelsasaki
p69
aVElaiinee_x7
p70
aVNahtep
p71
aVIbiMauricio
p72
aVRosFlo58
p73
aVgscoriaa
p74
aVIgor98_A
p75
aVMarceloVieira32
p76
aVTingNa_Xu
p77
aV33_kopobbi
p78
aVHarley_FansClub
p79
aVKrolHoots
p80
aVAnqelitOGM
p81
aVdorian_al
p82
aVbukanmarshanda
p83
aVgersonsouza1977
p84
aVsuitsforsale1
p85
aVSanderlon2
p86
aVJcaCleber
p87
aVlooohh
p88
aVHunTerBoy_x5
p89
aVRockPhenomenons
p90
aVFxBRYoukai
p91
aVCatzinsan
p92
aVGordbly
p93
aVbornfirecandy
p94
aVma_vll
p95
aVduchessTee_21
p96
aVmildredbrr
p97
aVflashysplash
p98
aVvinnafast8
p99
aVgjsdal
p100
aVkobrut
p101
aVRumah_Berita_
p102
aVtomasguin
p103
aVzina_hic
p104
aVEstrcarlo
p105
aVPujiOktaviane
p106
aVnelsonhuehue
p107
aVkaleng32
p108
aVNaiaraAlvis
p109
aVigoryassue
p110
aVnicoeljavx
p111
aValdiedizzie
p112
aVhrrjad
p113
aVloveakid11
p114
aVKilas_berita_
p115
aVErnesSol
p116
aVjjpennat
p117
aVyoanx5
p118
aVomoseg7
p119
aVAlessan97138945
p120
aVmattemorrissey
p121
aVsevilla_brandon
p122
aVtiRafaelAzevedo
p123
aVdhaycarlos86
p124
aVfanmoguell
p125
aVEricaChaves4
p126
aVpevicasi
p127
aValditocamara
p128
aVjjruiiz
p129
aVjuliano_fxavier
p130
aVOmnomnoshka_
p131
aVlyvuropifuw
p132
aVgleybsonfernand
p133
aVcasgua
p134
aVWartaTerkini
p135
aVdovgan_alena91
p136
aVsosahelendi
p137
aVDavidarher
p138
aVEduardoAndre21
p139
aVua_vas
p140
aVbrayanSwagger_
p141
aVJustRachx3ll
p142
aVnyidasimah
p143
aVdeborasilva321
p144
aVFerEs270
p145
aVHeadIine
p146
aVsveta_che_14383
p147
aVJDesings_New
p148
aVAdriCerba
p149
aVc4arlo6
p150
aVYukiSekkarou
p151
aVjaalfapilar
p152
aVMamaValia
p153
aVpau_m_t
p154
aVIBrasilNoticias
p155
aVlizioca
p156
aVricmles
p157
aVmcirfl
p158
aVSintha1705
p159
aVDiCano05
p160
aVSeejiiys
p161
aVsaniya_seruy
p162
aVlamalona4
p163
aVCherepennikov88
p164
aVmilenefelixx
p165
aVdrak_bobby
p166
aVQuimiMario
p167
aVnaalyel
p168
aVruzpazul
p169
aVEuSouTimBeta1
p170
aVmaryssbt
p171
aVleticiaajp
p172
aVBranyon_68949
p173
aVCleysonboy
p174
aVchestermarqz
p175
aV0fficialCR7
p176
aVdv3_d
p177
aVfakealiceu
p178
aVMonatdafirst
p179
aVcec_ibr
p180
aVcthig5
p181
aVpitafeitosa
p182
aVferscoro
p183
aVclunyernor
p184
aVErickDuran29
p185
aVvasilij_an_3349
p186
aVjandagenit_
p187
aVbeta_juju
p188
aVFrankitoek
p189
aVAngeliaSears7
p190
aVtonscruzz
p191
aVkari00f
p192
aVPilotManAA
p193
aVj7caroo
p194
aVKeitha00277
p195
aVTimBeta_333
p196
aVHerrSturmfurer
p197
aVcancenmarce
p198
aVmoncrett
p199
aVre_osaki
p200
aVinna_popova1
p201
aVbrendcaba
p202
aVHAPSTA_NG
p203
aVjcleber73
p204
aVFernandoSobral5
p205
aVDemiFa2
p206
aVRobertLabel
p207
aVsadoortez
p208
aVosinluopeyemi
p209
aVKarlapadilha27
p210
aVLeticiaidalina1
p211
aVarogovspitera89
p212
aVelizeufs
p213
aVrromeoisayas
p214
aV322Toys
p215
aVKTM_Riders
p216
aVTaniya_1989
p217
aVdlggnn
p218
aVomigallec
p219
aVmosktocorrea
p220
aVElireyam
p221
aVllocanda39
p222
aVAdaBerita_
p223
aVJhose_x5
p224
aVTheWcDaunnY
p225
aVtish_ciss
p226
aVhdglna
p227
aVtheJokerstrada
p228
aVCammysampaio
p229
aVtrmoral
p230
aVEleonora68764
p231
aVmariuskadys
p232
aVdgoprz3
p233
aVauraroga
p234
aVVitao_hs
p235
aVigsmgl
p236
aVjairopolus
p237
aVJackClayton617
p238
aVtinmarpyl
p239
aVaswadsem
p240
aVtllyoe
p241
aVfernandozabale2
p242
aVldjeinesantos10
p243
aVcellianasc
p244
aVbcliiz
p245
aVya_rikuo
p246
aVAugustoVii
p247
aVEfreBor3
p248
aVtatihane_f
p249
aVurspaz
p250
aVBacaBerita__
p251
aVfloquingo
p252
aVlu56is
p253
aVlaborrapunto11
p254
aVNewsAggr3gator
p255
aVclaudioemmanue
p256
aVKarentelugo
p257
aVcindyvega22
p258
aVRockPhenomenon
p259
aV_Lordshegzy
p260
aVfuckminibitch
p261
aVputiiki11
p262
aVhellem_cassia96
p263
aVItsyoungspice
p264
aVJuanitocamel0
p265
aVCiceraAnatelma
p266
aVPeterRa51958449
p267
aVocehanbetet
p268
aVchippglom
p269
aVMannyBoow
p270
aVtimmmbetaaa
p271
aVmvarrela_
p272
aVDhiqa6
p273
aVnachitoabc
p274
aVZIMBROTT
p275
aVkleciuspereira
p276
aVCandraYanSyah
p277
aVnewcarsreview
p278
aVlesslops
p279
aValfromeodet
p280
aValmiranteDR
p281
aVdavogl_1
p282
aVelis_md
p283
aVcattromi
p284
aVmtellezmg
p285
aVparker_super
p286
aV02_chikita
p287
aVKoovaic
p288
aVjairoHDx_
p289
aVqueijodebosta
p290
aVHustler_Boys
p291
aVtacidekoqiw
p292
aVmar_ana_bg
p293
aVDennyHooka
p294
aVvasiarogovspit
p295
aVEmanuelRos9
p296
aVLazaPe35
p297
aVCandidogalo2011
p298
aVrropaez4
p299
aVmention_news
p300
aVmarcelemaria1
p301
aVFernandoGom1881
p302
aVVanloo_66265
p303
aVCleberAssuncao
p304
aVJeanCarlos_x7
p305
aVcarveratil
p306
aVMarguerita_2748
p307
aVartegrafsa_edu
p308
aVFindOnTwitt
p309
aVcatalanyu
p310
aVDaynaLatch
p311
aVdarybrit
p312
aVAmadorSu5
p313
aVprontuxsam
p314
aVVicSan30
p315
aVtanroms
p316
aVterbrr_
p317
aVTwiternews_
p318
aVlalosmoscos
p319
aVNewsAleks
p320
aVdersonalf
p321
aVNewsnesia
p322
aVregina_v7
p323
aVtinezsocarz
p324
aVMonAlve28
p325
aVNEWScoid
p326
aVLopilloFresh__
p327
aVcondekracken
p328
aV_Erlinx3
p329
aVatoorreess
p330
aVMayitoHDx
p331
aVjurnra
p332
aVletsgoaway1
p333
aVojnargei
p334
aValissongabbriel
p335
aVrafac_t
p336
aVvadrigcuna
p337
aVpatsygomz
p338
aVntlbriito
p339
aVbooktodrive1
p340
aVBinhojc21
p341
aVya_news_world
p342
aVTellseba
p343
aVcordoba_2015
p344
aVasuarexx
p345
aVtamdiiezz
p346
aVraulitorejon
p347
aVLeonardo_Beta1
p348
aVmirsht_
p349
aVDiogo200813
p350
aVsivalentinapos
p351
aVilmonntes
p352
aVSupercross_Fans
p353
aVmicarzt
p354
aVlltpnl
p355
aVIzola32864
p356
aVDjunio29
p357
aVneusaabarroso
p358
aVFauVe30
p359
aVrodrigo83633310
p360
aVHernandezVEVO
p361
aVRagePack
p362
aVnyerocosss
p363
aVvasiarogovspite
p364
aVCrisOje0
p365
aV1nfoku
p366
aVPhylis_rmqp
p367
aVTabin_56610
p368
aVpovialim
p369
aVsherrif_woody
p370
aVMordekancer
p371
aVjuuunioor
p372
aVnicos456
p373
aVRenata_eta
p374
aVezemtzp
p375
aV1Wcoelho
p376
aVnopequisa
p377
aV2015_gerardo
p378
aValobcfg
p379
aVBivirah
p380
aVpurpleving
p381
aV_Enanax3
p382
aVEquipeEb
p383
aVnvsesf
p384
aVm_cid_m
p385
aVruizgust78
p386
aVeighLuck
p387
aVelinares_
p388
aVNeaJesus
p389
aVmonicabeta9655
p390
aVjbtmiguel
p391
aVDaffaAddiba
p392
aVasllemos
p393
aVChiina_Mvp
p394
aVAbriAra
p395
aVBrauBar20
p396
aVmissmossuk
p397
aVcaro2ag
p398
aVanastasya2402
p399
aVSatrioArbi_W
p400
aVInternacionalHD
p401
aVgeorgecas_
p402
aVtboyomoniyi
p403
aVKerry_6586
p404
aVsuuseet7
p405
aVTOmyAlfred3
p406
aVmarlimarians
p407
aVjnolarte
p408
aVJucaFirmino
p409
aVfirmanyudiantoo
p410
aVStephen29731
p411
aVIteung32
p412
aVluzdoceuclara
p413
aVkobel32
p414
aVAlena_dobraya92
p415
aVGraceKas1
p416
aVThu_rosmeri
p417
aVryanbrianbeta
p418
aVNBA_HeatFans
p419
aVramonnmacedo
p420
aVGabriRam30
p421
aVFawn_wvya
p422
aVCarlos_RD1
p423
aVPloskabashka
p424
aVjoahmiranda
p425
aVm34elisa
p426
aVJoaRi378
p427
aVhafzee_
p428
aVEliRi36
p429
aVadrimdz_
p430
aVqoosegonz
p431
aVCataPon3
p432
aVBryanBaez_
p433
aVFauCas3
p434
aVKrasamasha
p435
aVlbolanoss
p436
aVlv4lSunny
p437
aVrefansuryaputr3
p438
aVismapoolcen
p439
aVGerarAyala09
p440
aVtanomiloren
p441
aVlrrpil
p442
aVmarina_mo_36271
p443
aVmir0n2013
p444
aVBrisbois_02592
p445
aVzorogin
p446
aVEmiliyaShtraus
p447
aVmultilike10
p448
aVpalafoxoscar1
p449
aVgamledaf
p450
aVerisonjavier
p451
aVKanalMedia
p452
aVjims233
p453
aVsindy_marcelina
p454
aVcalanguinhonews
p455
aVsoytumini0n
p456
aVtelmaadvem
p457
aVniccervantess
p458
aVngohwah
p459
aVvlnarn
p460
aVmonjim67
p461
aVdtpgang
p462
aVenrhoc
p463
aVhemer360
p464
aVrocktorvick
p465
aVSkuadnews
p466
aVotetdo
p467
aVsucesion_online
p468
aVSrcalliu2
p469
aVFatiUri067
p470
aVYeiiryAlexander
p471
aVmobileauto
p472
aVerik_lamounier
p473
aVtictrous
p474
aVTin322
p475
aVolporoxova
p476
aVRingtoneAwards
p477
aVElBattellero
p478
aVIgorAlmeida_02
p479
aVrereaditya3
p480
aVbatistaum
p481
aVghdshopper
p482
aVdesiglezz
p483
aVs_elenab
p484
aVsamriiverac
p485
aVPapaFotografo_
p486
aVbmiedema
p487
aVichi_ichijo
p488
aVUK_Affiliates
p489
aVflcils
p490
aVpuucing
p491
aVHanh_febr
p492
aVsc_harryp
p493
aVmcrryz45
p494
aVjesuac_
p495
aVMayRodri60
p496
aVTim_beta_lita
p497
aVNBA_KingsFans
p498
aVronekbeca
p499
aVel_sicario00
p500
aVAlonMar96
p501
aVGuillot_13122
p502
aVzaltdollyz
p503
aVHeyderHu
p504
aVAgusAlmu
p505
aVkelekku
p506
aVfaussrz
p507
aVChu_5192
p508
aVDeeeni
p509
aVtelmoadvem
p510
aVrsluslyc
p511
aVpedroathuan
p512
aVarsene_lup
p513
aVRainiel_RD
p514
aVcupolaisis
p515
aVs5agr
p516
aV5em_t
p517
aVraquimaci
p518
aVmigmd3
p519
aVnilanaps
p520
aVpmcrz6
p521
aVjcas210873
p522
aVnyimakaja
p523
aVJeaninewowvl
p524
aVLesiaraujo
p525
aVDaniel_souto05
p526
aVnemofishbl
p527
aVwacadvem
p528
aVJanaygscsp
p529
aV_josenildo
p530
aVmatosjose101
p531
aVVergie_njxz
p532
aVjamesmanley9
p533
aVJulioAn128
p534
aVtama_adhi85
p535
aVViajeroVijaer0
p536
aVBrayanFernande_
p537
aVypzbtz
p538
aVraiko183
p539
aVbajapanti13
p540
aVms_elyseedd
p541
aVchampidenyt
p542
aVEmiOr92
p543
aVJorgeCa730
p544
aVFernandesWeldes
p545
aVftwittnews
p546
aVmoncrottt
p547
aVzuromira
p548
aVNoticias_Rio
p549
aVbreezy1_x3
p550
aVNila_chandra1
p551
aVVerdell_eijk
p552
aVJimmyLindsey13
p553
aVittzeel5
p554
aVAnnis_cywv
p555
aVNeha32455800
p556
aVPieceWarren
p557
aVAssuncaojcs
p558
aVmemogg_2
p559
aVmiriscora
p560
aVCarla13macedo
p561
aVOLOWOYEYEOLAIT4
p562
aVjrsalzano
p563
aVanamaricoss
p564
aVcorteg2
p565
aVcc7mm_
p566
aVpluna6p
p567
aVCeciCam7
p568
aVBriangregoriopo
p569
aVsa_ul456
p570
aVantniodonizete
p571
aVVictoriaAnabel5
p572
aVBreengoss
p573
aVa1oneDDD
p574
aVfulano_vianca
p575
aVlizicdn
p576
aVAlonsitomejia
p577
aVInocenciawnjhg
p578
aVdanisgzr
p579
aVriz_mirs
p580
aVcesarprz3
p581
aVnoelisilva123
p582
aVAlmeidaGleibson
p583
aVRomaniaJee
p584
aVsongon9
p585
aVNBA_RaptorsFans
p586
aVvss2222
p587
aVAughtry_78835
p588
aVlups_jz
p589
aVviktor_vtoroy
p590
aVvisco18
p591
aVItzaOli
p592
aVYondeiri__x30
p593
aVunreal_delusion
p594
aVagapovevgeniy20
p595
aVimonximonx
p596
aVpinyaginapelage
p597
aVViniciuss1988
p598
aVFolwell_19272
p599
aVDanielSouto2008
p600
aVifreak__itweet
p601
aVDevoCor
p602
aVurrzoe
p603
aVElTis_24
p604
aVjuacovz
p605
aVtascotany
p606
aVmat_jambrong
p607
aVpausgls
p608
aVeleslopz
p609
aVfranklincarlos4
p610
aVe_lyesc
p611
aVmonyong32
p612
aVpatscruu
p613
aVmariannyribera
p614
aVeliu_st
p615
aVLuciTovar70
p616
aVtonggos82
p617
aVmariabarross1
p618
aVNFL_RedskinsFan
p619
aVrangooficial01
p620
aVLChevra
p621
aVAlyssa_ryto
p622
aVanonimo67492225
p623
aVtmsmz
p624
aVglvjqn
p625
aVkanishkx
p626
aVEdyCer83
p627
aVdanisvv_
p628
aVkrmord
p629
aVFarscapeTravel
p630
aVarrinerajulio
p631
aVxuqafedihyzu
p632
aVzizyxewoni
p633
aVsimonhrrt
p634
aVsusan4mora
p635
aVjailangkun9
p636
aVmmvelaa
p637
aVolegtitievskiy
p638
aVacessovianews
p639
aVnginfoin
p640
aVwatson_super
p641
aVAlexBlan915
p642
aVlex_sum
p643
aVtecnet01beta
p644
aVbinhojcas
p645
aVMauFuente
p646
aValesyavolodko
p647
aVRaqulab
p648
aVzampoyanom
p649
aVpiss_o
p650
aVGoogletalk3
p651
aVjazminGomez_x20
p652
aVlidylucena
p653
aVrutonted
p654
aVelissacr_
p655
aVmoniarry
p656
aVSoiiSenSwaqqer
p657
aVzoz_Diego
p658
aVmaurespnz
p659
aVgabrielbeta31
p660
aVChOkkO29
p661
atp662
Rp663
ssS'hongkong_10_9/hongkong_tweet_'
p664
(dp665
g3
g4
((lp666
tp667
Rp668
sg8
g4
((lp669
tp670
Rp671
sg12
g4
((lp672
Vmitsubishi_cars
p673
aVnhlducksfans
p674
aVnhlwildfans
p675
aVArizonaClub
p676
aVNFL_EaglesFans
p677
aVnfltitansfans
p678
aVNFLPackers_Fans
p679
aVnhl_islanderfan
p680
aVNBA_CelticsFans
p681
aVCoyotesFansClub
p682
aVNBA__Grizzlies
p683
aVNHLStarsfans
p684
aVNBA76ersFans
p685
aVnhlpredatorsfan
p686
aVNFLJetsClub
p687
aVMaineClub
p688
atp689
Rp690
sg32
g4
((lp691
Vjoelle_dewulf
p692
aVKevinBorge12
p693
aVCortes_Caroli
p694
aVvillarreal_ca23
p695
aVRetwetBeta
p696
aVNataliaAglln
p697
aVMonicFonsca
p698
aVHeydFabrggs
p699
aVMassakkaali
p700
aVMonteverdeDALI
p701
aVBernice24086348
p702
aVR_aulLopez
p703
aVChntlGuti
p704
aVRubioMau1
p705
aVvijaygargaj
p706
aVKaty_Bernat
p707
aVviniciuusantoos
p708
aVGabrielaArnd
p709
aVrita_quintal
p710
aVJ_orgemedina
p711
aVcaron_ms
p712
aVRenaataaRey
p713
aVriansilva623
p714
aVAntonioLnrs_
p715
aVsuzy_wj
p716
aVGilJuanluis
p717
aVfranciscopgRD
p718
aVyepez_46
p719
aV_LorenVilla
p720
aVG_abyS_anchez
p721
aVMaiteSoriano98
p722
aVIbiMauricio
p723
aVGilMnddza
p724
aVSergio_al47
p725
aVZekiOzyalcin
p726
aVSfiiPrz
p727
aVClarisaV_illar
p728
aVColetAlcanta
p729
aVItsMeSupriyaRoy
p730
aVRosaLey_va
p731
aVAngellDiice
p732
aVSocialKickme
p733
aVNeelmaniRao
p734
aVtamarsw
p735
aVPabloBarrantes5
p736
aVvinnafast8
p737
aVgjsdal
p738
aVBeetty_Moraa
p739
aVNitaSaha
p740
aVKarenCampoR
p741
aVLulianaSr
p742
aVluc_heredia
p743
aVTechseekrLive
p744
aVJenni_Palacios_
p745
aVAmbeer_Acuciia
p746
aVJustine___C
p747
aVlorrilopez63
p748
aVMaryMO_O
p749
aVCatherinaNm
p750
aVEstebannorie_1
p751
aVYaresiMunoz
p752
aVTonatiuuFie
p753
aVeIsabellNd
p754
aVAlessan97138945
p755
aVtony_choufani
p756
aVSamantaMunoz_
p757
aVJimenaOlivares_
p758
aVFelipe_Andres45
p759
aVBeella_Hueerta
p760
aVV_aleriaMorales
p761
aVBethoAbascal
p762
aV7pecialforyou
p763
aVKateHueerta
p764
aVDennisLealP
p765
aVMaliheLava
p766
aVLoyoFk
p767
aVIris_Fuentes30
p768
aVIsraelZ_avala
p769
aVEsliCordovaa
p770
aVRobertBe_na_vid
p771
aVEduardoAndre21
p772
aVana_fb09
p773
aVYolandhaa99
p774
aVElenaGo_mez
p775
aVmargarettahen56
p776
aVmarionaderone
p777
aVLorenzo_Menchac
p778
aVWgMalvais
p779
aVGeneRojs
p780
aVYukiSekkarou
p781
aVChintanMehra
p782
aVAliciaCsnv
p783
aVMay__ES
p784
aVDinoChable
p785
aVrOjelio_ReYes
p786
aVMarco_A67
p787
aVantonio_s_t
p788
aVrociGrt
p789
aVZgMartel
p790
aVDianBsultt
p791
aVMichelleGtz_
p792
aVRosaCastroI
p793
aVkim_1Ar
p794
aVLuisiaAlvarez
p795
aVJuanAlemam
p796
aVaDomingaBt
p797
aVSantiagoOCst
p798
aVCrisGonzllz
p799
aVYolanCsrs
p800
aVThomasPeng
p801
aVnaalyel
p802
aVYahiirLande
p803
aVrubie_zap
p804
aVJenni_Delfin
p805
aVCarynBl
p806
aVfakealiceu
p807
aVGenesisARJN
p808
aVpitafeitosa
p809
aVManueljAndrade
p810
aVleiladavis46
p811
aVJaz_Lunna
p812
aVBrians_Suarez
p813
aVhemarajbal
p814
aVRos_alia2
p815
aVgeorgehannaone
p816
aVLorena_basulto2
p817
aVNoticias24H7d4s
p818
aVLeaderForever2
p819
aVAntonhyVrs
p820
aVHerodisDavid19
p821
aVAntoVaz19
p822
aViVenusXw
p823
aVPaulSpoerry
p824
aVheliobrabelo
p825
aVSelinipak
p826
aVelizeufs
p827
aVJJonny72
p828
aVB3R0L4
p829
aV_Oscar_Baeza
p830
aVMoonca_
p831
aVTheWcDaunnY
p832
aVJainCharmiJain
p833
aVBenja_Sua
p834
aVJiselli_
p835
aVCamacho_A198
p836
aVEula_Ru
p837
aViAriannaVc
p838
aVCammysampaio
p839
aVyt_geri
p840
aVBrendaSazs
p841
aVhannie_posh
p842
aVmediaadvantages
p843
aVOliverJimenez__
p844
aVAlexis45M
p845
aVVitao_hs
p846
aVAliciaAyl
p847
aVLeticiaidalina1
p848
aVCNASAOFRANCISCO
p849
aVMartinC_anche
p850
aVPennaPenna1
p851
aVBer_navarroo
p852
aVBrauu_
p853
aVBethContreras_
p854
aVCarver_security
p855
aVtatihane_f
p856
aVChely___C
p857
aVTaniFlcao
p858
aVAdrianaAzu43
p859
aVDenis_Jimen
p860
aVbbcworldfeed
p861
aVzs_aja
p862
aVfeSolarGurl
p863
aVDanielleC20013
p864
aVSheelh_
p865
aVYoce_Fernandez
p866
aVerik_lamounier
p867
aVBladisCoello
p868
aVhellem_cassia96
p869
aVMary_Castilloo
p870
aVGeradoCuell6
p871
aVCoreySimpson5
p872
aVPeterRa51958449
p873
aVGhinaFares
p874
aVkleciuspereira
p875
aVEug3_hdz
p876
aVCarlaMontesoro
p877
aVmohulmittal
p878
aVRaviRathodKumar
p879
aVCarolinaP_achec
p880
aVCliaHrmdda
p881
aVRosaSls
p882
aVbatistaum
p883
aVSoniiaTold
p884
aVSilverioSk
p885
aVYuritsZamorano
p886
aVfmari76j
p887
aVumair38000
p888
aVAnaizAlmeda54
p889
aVjsmit96l
p890
aVValdez__Vic
p891
aVClaudiaEnrq
p892
aVJazVallejo_
p893
aVAdhelaFe
p894
aVYoYoDSunnySingh
p895
aVBrandonRmz_
p896
aVAmaaAcosta
p897
aVisa_bel785
p898
aVElsaGuardian01
p899
aVBlogByts
p900
aVLewisGallagher3
p901
aVTania_Ote
p902
aVEduardoAMRO
p903
aVTechmarketNG
p904
aVGilbertoMeza_
p905
aVElnaAmyy
p906
aVDanielAl_varez
p907
aVHugoBarrera__
p908
aVDeivid_alavez
p909
aVLeonardo_Beta1
p910
aVDiogo200813
p911
aVAidenKnox757
p912
aVNestoritaa
p913
aVPedrazzaBern
p914
aVIvnGnzzllz
p915
aVmargeclark72
p916
aVkot2510
p917
aVAgnikumaraMahaj
p918
aVCarmenG_tz
p919
aVIrina_LopezT
p920
aVVinsHerna
p921
aVtestrssnews
p922
aVrodrigo83633310
p923
aVCarmelitaherna
p924
aVLuisPedro_M
p925
aVHolu_medey1
p926
aVtcharllysalves
p927
aVCapitalVA
p928
aVBetyLrdz
p929
aVGarciaRo0
p930
aVHectoOr__L
p931
aVHeenryDantas
p932
aVLauraArjn
p933
aVPresidentAgain
p934
aVManjuGautam1962
p935
aVNormaGui43
p936
aVCarlosRub11
p937
aVSiennaSigil
p938
aVTonanciDavl
p939
aVSerranoU33
p940
aVcharise_a
p941
aVGuerreroSofi1
p942
aVmonicabeta9655
p943
aVIssa_Vega1
p944
aVBtsyOch
p945
aVDemetriio_Riosz
p946
aVMatiasArea32
p947
aVmissmossuk
p948
aVDaniel_souto05
p949
aVtboyomoniyi
p950
aVPaco_LunNa
p951
aVJucaFirmino
p952
aVAdri_Nov2
p953
aVAbiArns
p954
aV_Ivan_Rojas_
p955
aVGraceKas1
p956
aVramonnmacedo
p957
aVManoojPatil
p958
aVMauroHer43
p959
aVKarinaBrrra
p960
aVRamiroCif
p961
aVrobles_juanfabi
p962
aVRandyJamarion
p963
aVjohaOchoa_
p964
aVANF0S
p965
aVDianMonts
p966
aVRicardoMe_9
p967
aVRatulSidhu
p968
aVAlejndroMoraa
p969
aVJudit_Men_diola
p970
aVLuisaBlanc0
p971
aVGersonInoj
p972
aVKaruneshShetty
p973
aVCecii_Ortz
p974
aVAdan_Rosmo
p975
aVAnnakaR33
p976
aVRaquelLossBeta
p977
aVSandraBracho9
p978
aVBarandaPj
p979
aVhemer360
p980
aVAide__San
p981
aVSrcalliu2
p982
aVEdn_aVazquez
p983
aVEfreenMon
p984
aVEleazrOsor
p985
aVsheilamariabarr
p986
aVnikhil_chougule
p987
aVMarBedoyaa_
p988
aVAloparra13
p989
aVichi_ichijo
p990
aVUK_Affiliates
p991
aVVianeyMoron65
p992
aVAlexa_bal87
p993
aVIreneLinares32
p994
aVchuyaa_Espino
p995
aVCristinaLizama
p996
aVL_uisC_astillo
p997
aVSirleybeta
p998
aVLeNouveauLab
p999
aVjefrei_beta
p1000
aVMarineroFi
p1001
aVVivi__Morales
p1002
aVGdCira
p1003
aVwpokay
p1004
aV_UlisesReyes_
p1005
aVRaulAcdo
p1006
aVKttrnKt
p1007
aVtelmoadvem
p1008
aVMllerMiranda1
p1009
aVMarianaCanche_
p1010
aVqshar50d
p1011
aVSimo0n12
p1012
aVrb_zana
p1013
aVJose_Tun_
p1014
aVAnaMrBt
p1015
aVjcas210873
p1016
aVRicardoC_ruz
p1017
aVeagleneverflock
p1018
aVArmandoMtrnz
p1019
aVpedrosalcantara
p1020
aVAlbertoC_ruz
p1021
aVSoniia_BUR
p1022
aVDaniF_ernandez
p1023
aVteknouptodate
p1024
aVAngel_basulto3
p1025
aVSusanaBarca32
p1026
aVjamesmanley9
p1027
aVJrmi_mota
p1028
aVShaacor
p1029
aVAleeC_anche
p1030
aVJoordySnch
p1031
aVEbba_Guzmaan
p1032
aVMarianReys
p1033
aVcharissa_kf
p1034
aVNaoDaviil
p1035
aVNoticias_Rio
p1036
aVsoilas_u
p1037
aVlavernaevans70
p1038
aVGricelda_Mal
p1039
aVIvaanaaQuin
p1040
aVkaren_gongora32
p1041
aVAlondraAvil_
p1042
aVEdLove89
p1043
aVStevenSGrant1
p1044
aVjoemoukarzelone
p1045
aVsantiagoNava33
p1046
aVBarbariitaa_Hcd
p1047
aVFreiHrnd
p1048
aVJollVggra
p1049
aVchoAOA
p1050
aVBtsyGzmnn
p1051
aVBrnddaRincn
p1052
aVShGenia
p1053
aVJONH_M_
p1054
aVPauulO__Carrnza
p1055
aVTVChismosos
p1056
aVvss2222
p1057
aVmdgwd
p1058
aVFlavioALLnD
p1059
aVDanielSouto2008
p1060
aV101_Newstweet
p1061
aVMarianaFNNDZ
p1062
aVJoseJonesz
p1063
aVmarcooBarrer
p1064
aVtunisona1
p1065
aVEvlynLn
p1066
aVRocio_Aguirre4
p1067
aVBARIBULUT1
p1068
aVSelena_Noriegaa
p1069
aVCleanHDQ
p1070
aVNFL_RedskinsFan
p1071
aVLChevra
p1072
aVAntonioMartinzt
p1073
aVCattledogranch
p1074
aVAntoniaaBar
p1075
aVrosa_mejilla
p1076
aVbriziocross
p1077
aVGustavoM_orales
p1078
aVAlma_Delia34
p1079
aVbmw_free
p1080
aVunilag_ents
p1081
aVMaribelTole43
p1082
aVerminia_u
p1083
aVbinhojcas
p1084
aVGnzlzM_ai
p1085
aVPgDelmy
p1086
aVAshantty_
p1087
aVL_auC_anul
p1088
aVtiRafaelAzevedo
p1089
aVzoz_Diego
p1090
aVMarioluis_46
p1091
aVgabrielbeta30
p1092
aVgabrielbeta31
p1093
aVIxchelMar
p1094
aVIsabelE_strada
p1095
aVAmayrani1_
p1096
aVrianapie
p1097
aVA_ndresRomero
p1098
aVKennithDRennie
p1099
aVRegiinaZ_arate
p1100
aVGerardoLo_pez
p1101
aVVanesaCastro88
p1102
aVRubyMna
p1103
aVAlvarad_Euge
p1104
aV4VisionPR
p1105
aVJ__Noyoola
p1106
aVrasiksarkar
p1107
aVR_driguezMartin
p1108
aVMrJarer
p1109
aVjaelsonbeta
p1110
aVIndah18Andini
p1111
aVSamuelD_uran
p1112
aVOccupyRMN
p1113
aVeversiin
p1114
aVgerardovale_58
p1115
aVPaty_Garciaa
p1116
aVSugrivaAurora
p1117
aVDianaFlore_s
p1118
aVLuciiAlask
p1119
aVAnaGrriddo
p1120
aVKarenCrdn
p1121
aVmarcelsasaki
p1122
aVRodrigues_A90
p1123
aVMichelFranjieh
p1124
aVIgor98_A
p1125
aVShadreckNkala1
p1126
aVDi_egoMorales
p1127
aVPaulaCstll
p1128
aVCarmenZavala21
p1129
aVPaqoo_T
p1130
aVErickaAlmn
p1131
aVGer_Cru7
p1132
aVAdripathiRavi
p1133
aVG0mez122
p1134
aVCaarlo_R
p1135
aVVashtiJu
p1136
aVAriJura
p1137
aVSandyDran
p1138
aVduchessTee_21
p1139
aVSuzanaSala
p1140
aVMariaca21_12
p1141
aVluisoropeza45
p1142
aVCarmenRSTRP
p1143
aVKellyMoraa17
p1144
aVAndyRdrz
p1145
aVSaulConej76
p1146
aVMaraFrndz
p1147
aVrbering5
p1148
aVVanessaOlvrs
p1149
aVCinthiaZetinaa
p1150
aVNaiaraAlvis
p1151
aVtahirmahadeo
p1152
aVe_lonnie
p1153
aVRosaVillass
p1154
aVsamu_cca
p1155
aVdefzy
p1156
aVJoel__Poot
p1157
aVRomiiSantoss
p1158
aVLilianaRIo_s
p1159
aVCruz_lili45
p1160
aVIsidroValerio_5
p1161
aVMarcelo_1252
p1162
aVJoohaan_Cool
p1163
aVranjanjsaini
p1164
aVEr_Casa5
p1165
aVPedr0Loac
p1166
aVBidishaK77
p1167
aVBedoyiita_
p1168
aVLourdees_Longri
p1169
aVSamantSo_to
p1170
aVDebora_lo9
p1171
aVmelisarojano_ga
p1172
aVRegiinCastillo
p1173
aVDoraa__Verrazco
p1174
aVB_Morenoor
p1175
aVRamonFabre43
p1176
aVMario_Inz
p1177
aVsmithmelldenis
p1178
aVMichelle_eAg
p1179
aVPatyArcs
p1180
aVIsabelaChan__
p1181
aVRaquelAvaLo
p1182
aVCintiaAgud43
p1183
aV_MarielaMorales
p1184
aVChomiisz_
p1185
aVFernndoHerrera
p1186
aVCoraaSEG_
p1187
aVYadira_Navaa
p1188
aVMartinBrooke
p1189
aVLiidiaaMo_reno
p1190
aVKevinLor1i
p1191
aVJosCrlRmos
p1192
aVMounaAbdini
p1193
aVivonn3guerr
p1194
aVLauraGutirrezMi
p1195
aVlari_atinha
p1196
aVYajairaOsorio1_
p1197
aVRafaelT_un
p1198
aVoErickaPw
p1199
aVRocioArnd
p1200
aVPartyTashu
p1201
aV_BarbyGmz
p1202
aVLauro_m69
p1203
aVMartiiSaanti
p1204
aVP_adillaSonia
p1205
aVEuSouTimBeta1
p1206
aVDamiCrmonn
p1207
aVCleysonboy
p1208
aVDnisSossa
p1209
aV0fficialCR7
p1210
aVMonatdafirst
p1211
aVMarianaSan_chez
p1212
aVArelyDMZ1
p1213
aVFedericoCorrea_
p1214
aVryanbrianbeta
p1215
aVOjeda_cristi1
p1216
aVvbenj06u
p1217
aVmuhammeduba9
p1218
aVcarmelaV58
p1219
aVJSJkrysx
p1220
aVmaurice87518450
p1221
aVlongvdit
p1222
aVHAPSTA_NG
p1223
aVNora_Guzman93
p1224
aVJimenaASas
p1225
aVDeInteresHoy
p1226
aVosinluopeyemi
p1227
aVuCindyPg
p1228
aVNoeeliaBas_elia
p1229
aVItsKumarAditya
p1230
aVMirandMrttnnz
p1231
aVLeeslyPadilla
p1232
aVClaraBautista42
p1233
aVCelesteAglr
p1234
aVSusanGibran
p1235
aVtechnolopypro
p1236
aVJhose_x5
p1237
aVLisa04962385
p1238
aVrita_tawil
p1239
aVLuisaPerezMt
p1240
aVA_lexaLandero
p1241
aVVictor_uManu
p1242
aVViolee_Nina
p1243
aVTheApple_FanBoy
p1244
aVMartinesC82
p1245
aVGeekJimiLee
p1246
aVolivia_ruiz89
p1247
aVMarlonnEst
p1248
aVZoriVA_
p1249
aVCnMarth
p1250
aVElenaJa_rquin
p1251
aVM_Palacios6
p1252
aVAmeliaa_Sant
p1253
aVbestpartyleon
p1254
aVumanandamin
p1255
aVErikaC_alderon
p1256
aV_Brenda_Garcia_
p1257
aVfuckminibitch
p1258
aVGabyVazque_z
p1259
aVSilbiaBrn
p1260
aVYoatziGut
p1261
aVJullyRuizz
p1262
aVJavoRodrig3
p1263
aVkhushalgaba
p1264
aVmelina_portales
p1265
aVClauA_guilar
p1266
aVwendelllouscarv
p1267
aVCandraYanSyah
p1268
aVR_icardoTorres
p1269
aVEdithG_arcia
p1270
aVBubbas_Paloma
p1271
aVPuenteHm
p1272
aVramifica_cl
p1273
aVparker_super
p1274
aVAlexaE_spada
p1275
aVCortes643
p1276
aVBrnlGuerr
p1277
aVmarcelemaria1
p1278
aVCleberAssuncao
p1279
aVdante_009
p1280
aVHildaFt32
p1281
aVIngriAGLLO
p1282
aVSoolGuzmaan12
p1283
aVmnoluna45
p1284
aVYenerysHelena
p1285
aViAdamWatson
p1286
aVKeylaBayon65
p1287
aVEma_Rivaas
p1288
aVIsaa_arias
p1289
aVHildaChavez__
p1290
aVViriSlggd
p1291
aVMauRojjss
p1292
aVOlgaBragado9
p1293
aVMiriamRUz11
p1294
aVLilianaValdez__
p1295
aVIrvngLinrs
p1296
aVReynaM_unoz
p1297
aVdn_annie
p1298
aVMarichuyy95
p1299
aVHele_cruz
p1300
aVRenataF322
p1301
aVcharles_azar
p1302
aVdeborasilva321
p1303
aVdigitalmalaysia
p1304
aV21stwebservices
p1305
aVMayraAreola54
p1306
aVreal_x_medium
p1307
aVSupercross_Fans
p1308
aVNitinTrishala
p1309
aVM0r3noAna
p1310
aVAlb_ertoLopez
p1311
aVEdanPinto
p1312
aVVianney_Lag
p1313
aVfabiola_peres9
p1314
aVN_ehemias_
p1315
aVNormaVinhas
p1316
aVJulioRom0
p1317
aVJustSeenThis
p1318
aVNicolee_Riosz
p1319
aVLuisYamm
p1320
aVRyanTy195
p1321
aVbasicodigo
p1322
aVRenata_eta
p1323
aVSabriinMaga
p1324
aVEsteleMun65
p1325
aVRecargaPlus007
p1326
aVWeRunTHAT
p1327
aVValeriaAlejo76
p1328
aVLinne_yLeon
p1329
aVEquipeEb
p1330
aVMarinMnsill
p1331
aVViniciuss1988
p1332
aVenriquemoraLR
p1333
aVConstaAldana
p1334
aVAmericaZavalet_
p1335
aVDavidOsoi
p1336
aVHecGazcon
p1337
aVAngelesFnts
p1338
aVlavonkelly34
p1339
aVG_ustavoG_arcia
p1340
aVsanmarbh
p1341
aVvomiadotcom
p1342
aVmarlimarians
p1343
aVluzdoceuclara
p1344
aVGaiskaaRuiz_
p1345
aVsindy_fs
p1346
aVAbraamBsurt
p1347
aVSiddheshwarGoda
p1348
aVjoahmiranda
p1349
aVmairamariane2
p1350
aVjosse_lyn71
p1351
aVpalacio_alan23
p1352
aVMariaBhn
p1353
aVAlondraAbascal8
p1354
aVRamonVasquu
p1355
aVFelipeAlsina54
p1356
aVGene_Uruetaa
p1357
aVMariCamiRamos
p1358
aVGnesisAgulr
p1359
aVGrmnAllnd
p1360
aV_AntonioC_astro
p1361
aVmultilike10
p1362
aVBlancaSierra__
p1363
aVnoemi_pineda55
p1364
aVcalanguinhonews
p1365
aVEvaBellon54
p1366
aVtelmaadvem
p1367
aVmachelleflore82
p1368
aVKtsyJimnz
p1369
aVKissha_
p1370
aVelli_nd
p1371
aVNikolBravo09
p1372
aVMunJain
p1373
aVJnCrlsMdin
p1374
aVKarlaG_omez
p1375
aVMarck__P
p1376
aVMandiRVRA
p1377
aVJuanCardenasO
p1378
aVlisabriercliffe
p1379
aVCesaaar__Elzn
p1380
aVvd_alia
p1381
aVcarlosGue_rrero
p1382
aVAmridelapaz_
p1383
aVkashen
p1384
aVMarcelMoadam
p1385
aV_GpeCamacho
p1386
aVghdshopper
p1387
aVFarscapeTravel
p1388
aVLuiguiVegaT
p1389
aVEsmeraldaVill1
p1390
aVCarla13macedo
p1391
aVUrilGonzl
p1392
aVarticledesign
p1393
aVe_keala
p1394
aVLauraH_urtado
p1395
aVKevinA_lmazan
p1396
aVLucasBlackburn2
p1397
aVJ_orgeDiaz
p1398
aVPilarzRojas
p1399
aVIsra_Herrero
p1400
aVFlorencia_GTZ2
p1401
aVa_zores
p1402
aVNadiaGnzls
p1403
aVJGcataned
p1404
aVLazaroBenito8
p1405
aVevelin_madero
p1406
aVAde_Pineda
p1407
aVNancy147292773
p1408
aVAde_b
p1409
aVKnddlMar
p1410
aVChuyaaa__
p1411
aVFrrGzmann
p1412
aVGibranHer
p1413
aVacessovianews
p1414
aVEduardPerez_
p1415
aVAnglicRuiiz
p1416
aVwhitelabellocal
p1417
aVESTRA_Kar
p1418
aVMrSameerTandon
p1419
aV_josenildo
p1420
aVRosycampos91
p1421
aVSneihaKadam
p1422
aVOliiCalzin_
p1423
aVlibiaguijarro
p1424
aVUnionRadioVLN
p1425
aVKellyReyesT
p1426
aVCekcyHET
p1427
aVSolBLNS
p1428
aVjovenesenredes
p1429
aVJaqui_ferrer
p1430
aVPieceWarren
p1431
aVCodename_Carter
p1432
aVjrsalzano
p1433
aVTamaraBerced66
p1434
aVVivii_Quin
p1435
aVcpsp2
p1436
aVSusanaVAlerios
p1437
aVClarissaLima13
p1438
aVgleybsonfernand
p1439
aVmaiabennett60
p1440
aVRenatta_Vargaz
p1441
aVfer_zamora7
p1442
aVGerardoAnay76
p1443
aVeduardRmsz
p1444
aVKarlaMnts
p1445
aVGeoorgi__
p1446
aVneusaabarroso
p1447
aVFelipeContrers_
p1448
aVAdriiSorzano
p1449
aVaudiohdq
p1450
aVallsidesnews
p1451
aVdrobe34j
p1452
aVM_iriamSalas
p1453
aVrimahi1
p1454
aVe_manie
p1455
aVujalagoda
p1456
aVJimnDrnn
p1457
aVNeymii_
p1458
aVVivi_ana56
p1459
aVNBA_KingsFans
p1460
aVAliciaGalvez12
p1461
aVLeonrAgulr
p1462
aVMuscleNerd23
p1463
aVKaliniVinsor
p1464
aVlatestnews004
p1465
aVlatestnews006
p1466
aVlatestnews001
p1467
aVjt_kari
p1468
aVlatestnews003
p1469
aVlatestnews002
p1470
aVNuriiAlso
p1471
aVVictorAglr
p1472
aVlex_sum
p1473
aVtecnet01beta
p1474
aVMegan_Buzta
p1475
aVpiss_o
p1476
aVlidylucena
p1477
aVCancinoMp
p1478
aVNavaaRussel
p1479
aVBrndnCornn
p1480
aVVianisCuevas
p1481
aVRoshii_Alarcn
p1482
aVKarinaAgui_38
p1483
aVQueenRaniMishra
p1484
aVCarolinaP_Perez
p1485
aVSherylVd
p1486
aVrober_san34
p1487
aVHam_Soto
p1488
aVSxKaren
p1489
aVluciedefaux523
p1490
aVMaria3tiburcio
p1491
aVDrkkRobls
p1492
aVSussiRodrigz
p1493
aVAaronAlmagr87
p1494
aVDeysii_Mu
p1495
aVDebo_Cres
p1496
aVgeorgymm
p1497
aVmodestomorenord
p1498
aVLulu_carmen45
p1499
aVYaneriBravo0
p1500
aVokembrolek
p1501
aVYkPortela
p1502
aVAnahiMndt
p1503
aV___DavidTorres
p1504
aVarjuna887
p1505
aVKarlosP3r
p1506
aVjoce_Aguirre
p1507
aVMirndMorls
p1508
aVJose_Duran12
p1509
aVCarlZippo
p1510
aVBerta_guerrero3
p1511
aVDiana_Beatri7
p1512
aVAfrica_alcala
p1513
aVMobiOps
p1514
aVGuille_soto24
p1515
aVRebkMurill
p1516
aVJeffCAlaniz
p1517
aVAzaaeel_
p1518
aVPalacios__Omar
p1519
aVLinaa__M
p1520
aVKrolHoots
p1521
aVMercedes110P
p1522
aVgersonsouza1977
p1523
aVsuitsforsale1
p1524
aVSusanEsco_bar
p1525
aVEddGomzz
p1526
aVJcaCleber
p1527
aV__MariaRomero
p1528
aVlajuanaflores72
p1529
aVjuan_Manuel133
p1530
aVOlgaTB014
p1531
aVZxGenia
p1532
aVSilvanaAmor54
p1533
aVRebecaBecerril4
p1534
aVMauBeltraan
p1535
aVmrsabesan
p1536
aVNeedObamaAgain
p1537
aVCOgarrio
p1538
aVMizaaMons
p1539
aVMaIsabell18
p1540
aVGlendaRiv3r
p1541
aVSantoyoEli
p1542
aVDolores__Val
p1543
aVclarisa_puentes
p1544
aVWeekServices
p1545
aVPatraaJess
p1546
aVAddyMndozaa
p1547
aVRominaAray54
p1548
aVHrNelda
p1549
aVAlmaAlvrzz
p1550
aVDiego_Armando49
p1551
aVSenLina3
p1552
aVKarla_Deilgado
p1553
aVNpDalila
p1554
aVMerideHer
p1555
aVEze_Alv4
p1556
aVGilGarrid0
p1557
aVSandiGarzaa
p1558
aVAndresGonc
p1559
aVAlicia_Guzman2
p1560
aVSelRooman
p1561
aVPauloTB015
p1562
aVursula_Lira88
p1563
aVJessiGom3
p1564
aVBeatrizRmro
p1565
aViPravenLodh
p1566
aVLuigiRTrombini
p1567
aVabinadar_car
p1568
aVPoleett_T
p1569
aVMonseeOsorio
p1570
aVMateoC_han
p1571
aVNayeSoss
p1572
aVCasandraEuan
p1573
aVdasomkiddo
p1574
aVC_esarCarVajal_
p1575
aVzena_pp
p1576
aVChacoon_Lau
p1577
aVWorld_BWR
p1578
aVJimnPrd
p1579
aVzaosorio_
p1580
aVRaquelBust
p1581
aVluis_mrivero
p1582
aVJiltonLop3
p1583
aVYara_Giron
p1584
aVmilenefelixx
p1585
aVLatestNews100
p1586
aVAnhiSssollr
p1587
aVErickRoble_s
p1588
aVBalagopalHegd
p1589
aVtarikbajaj
p1590
aVleticiaajp
p1591
aVBarackObamaLove
p1592
aVPabloTo40
p1593
aVRober_tolo
p1594
aVMarcelaAngost5
p1595
aVOhConselheiro
p1596
aV_NormaPech_
p1597
aVJoeTheSharer
p1598
aVMonrreal_145
p1599
aVmarathomas98
p1600
aVbeta_juju
p1601
aVMiglPrzz
p1602
aVGordillorubi
p1603
aVgahlautdhruv
p1604
aVBvDaisey
p1605
aVCamp0sEliza
p1606
aVIMaegan
p1607
aVTimBeta_333
p1608
aVre_osaki
p1609
aVM_Villareeal
p1610
aVFabby_Duraan
p1611
aVu_lesha
p1612
aVSohrabHaeri
p1613
aVFernandoSobral5
p1614
aVglor_33
p1615
aVYoniiNava
p1616
aVKarlapadilha27
p1617
aVMitraTheRaja
p1618
aVKTM_Riders
p1619
aVmanuelaguillem_
p1620
aVSkMirna
p1621
aVMarcieQu
p1622
aVFernandoGuerraB
p1623
aVAbigailHuergo
p1624
aVu_larita
p1625
aVBelemRicard
p1626
aVYadiraRiosF
p1627
aVTamara_Mora55
p1628
aVfalcon_omar
p1629
aVBrayan_RamiRoja
p1630
aVMazenMounzir
p1631
aVAmeelia__Pedraz
p1632
aVMilton_Torre_s
p1633
aVYrMaren
p1634
aVDavid_Campos93
p1635
aVArturoCh_avez
p1636
aVZgJinny
p1637
aVPrensaVE
p1638
aVVioleGazca
p1639
aVya_rikuo
p1640
aVLaynee__M
p1641
aV_KaryTorres_
p1642
aVEvelynL_eon
p1643
aVHectorS_andoval
p1644
aVAakashVsTiwari
p1645
aVCoolKishorNaik
p1646
aVEmelOturu
p1647
aV_Lordshegzy
p1648
aVDonaldoAlgR
p1649
aVItsyoungspice
p1650
aVIvtPastlnn
p1651
aVAdaa_Cervan
p1652
aVLauraKhabbazone
p1653
aVimJinri94
p1654
aVtimmmbetaaa
p1655
aVAracMun
p1656
aVbrndorantes
p1657
aVnewcarsreview
p1658
aVMarisolFlo_res
p1659
aVDiegGrciia
p1660
aVLiandroBose
p1661
aVlaynes_cv
p1662
aVMiyukiki_mdz
p1663
aVMauraselene08
p1664
aVtechofminions
p1665
aVBreendiis_Monty
p1666
aVPilar_Smit
p1667
aVManojKhull
p1668
aVMarceloVieira32
p1669
aVMonserratCuevaa
p1670
aVzlore05p
p1671
aVartegrafsa_edu
p1672
aVRaquelGalvan36
p1673
aVDario_g93
p1674
aVItsmeRaniLamba
p1675
aVLibertadBayo
p1676
aVJacky_Juare
p1677
aVAna_Patricia50
p1678
aVJessicaS_anchez
p1679
aVFloree__ciia
p1680
aVCamilaPech_
p1681
aVJovanaElr
p1682
aVBrandupUAE
p1683
aVletsgoaway1
p1684
aVSarhaViv3
p1685
aVHenesisDM
p1686
aValissongabbriel
p1687
aVmilenaroldan_R
p1688
aVSheiDurtt
p1689
aVHuerta_A39
p1690
aVAngelesMedina_
p1691
aVNewsForum2
p1692
aVBinhojc21
p1693
aVJennyferSantori
p1694
aVLaura___Garrido
p1695
aVEsmrldBlttz
p1696
aVDarleenRl
p1697
aVTadeClm
p1698
aVSeyma_Guvenc
p1699
aVLupeGomez1_
p1700
aV_MoisesLuna_
p1701
aVMario_luisperez
p1702
aVSehmuzYener
p1703
aViam_labamz
p1704
aVAdiianaCst
p1705
aVAnahiV_illegas
p1706
aVDjunio29
p1707
aVDivulga_Mkt
p1708
aVMayraAngu65
p1709
aVIgnacion_ayende
p1710
aVLoreNvrr
p1711
aVOSaltillo
p1712
aVHeavenGianna
p1713
aVSilvia_Alonz
p1714
aVEstheer__H
p1715
aVSnDircio
p1716
aVJohanFns
p1717
aVsherrif_woody
p1718
aViamhycode
p1719
aVJackelineEscd
p1720
aVNeuzza
p1721
aVJuanDmingz
p1722
aVWendyMendiola0
p1723
aVPaty_Arcee
p1724
aV1Wcoelho
p1725
aVshuhabtrq
p1726
aVFalconPriego
p1727
aVAreli_cruzz
p1728
aVIsaa_alvarz
p1729
aVadaaSaliinas
p1730
aVjesus_albertoo
p1731
aVMelaniPnts
p1732
aVVictorMartnz_
p1733
aVcrisfalc0n
p1734
aVNeaJesus
p1735
aVDanielOlivera43
p1736
aVAdrianCabre32
p1737
aVAreeli_S_olis
p1738
aVRosiitaRobbl
p1739
aVBhamreChaitalii
p1740
aVPric_Arreo
p1741
aVDani_Flor3s
p1742
aVsofia_pink7
p1743
aVInStateOfTrance
p1744
aVKarimeSerran
p1745
aVFrancoBALLARO
p1746
aVrociodejesus_
p1747
aVYaneriiLei
p1748
aVDieeck
p1749
aVNancy_Ochoa1
p1750
aVmargretadams33
p1751
aVOctavio77Duarte
p1752
aVJamesMarnley
p1753
aVNBA_HeatFans
p1754
aVmariabarross1
p1755
aVjosephazzilb
p1756
aVPatoVilla199
p1757
aVAntonioDmgz_
p1758
aVPalominoFw
p1759
aVclementimoh
p1760
aVClaudiaArry
p1761
aVvirginia_Uscan2
p1762
aVRuben14g
p1763
aVJunioSFerreira
p1764
aVMargaretNja
p1765
aVgugaequelbeta
p1766
aVAxelroycse
p1767
aVlv4lSunny
p1768
aVuMindiNs
p1769
aVE_rickBonilla
p1770
aVWqAnda
p1771
aVE_duardoC_ruz
p1772
aVYamilet_Us34
p1773
aVZgLucio
p1774
aVYkOlvera
p1775
aVHendrixsMoney
p1776
aVRominaa312
p1777
aVCandidogalo2011
p1778
aVGaviniaBb
p1779
aVOscarS_ierra
p1780
aVAlan_Anderson7
p1781
aVDioniisiioM
p1782
aVPreetIsGoSocial
p1783
aVCenicerosU
p1784
aVReyna1_Heredia
p1785
aVfarahclaraone
p1786
aVMadeeraFranch_
p1787
aVanbbeta1
p1788
aVGaliindoo_Estrd
p1789
aVTrinaSarkar4
p1790
aVIgorAlmeida_02
p1791
aVQuotesWithOliva
p1792
aVBraylonAnderson
p1793
aVTarunDattaa
p1794
aVCarlosSan_chez_
p1795
aVmasakocoleman18
p1796
aVKrlaMrttnz
p1797
aVAbdulArabino1
p1798
aVEsmMndz
p1799
aVsc_harryp
p1800
aVUrsulaMor3
p1801
aVpevicasi
p1802
aVCaniedoMl
p1803
aVNivedithaShrav
p1804
aVTianguisOnLine
p1805
aVtcrss
p1806
aVSxLowe
p1807
aVRuby_Men
p1808
aVNadineFakhoury
p1809
aV_MarLozano_
p1810
aVRogerAbiNaderlb
p1811
aVYislGzzm
p1812
aVSitanshuRaghava
p1813
aVLpsz_Natalie
p1814
aVDeeeni
p1815
aVYhaamy_
p1816
aVpedroathuan
p1817
aVJoaqiMorr
p1818
aVCeciGzmmn
p1819
aVMiguelMora_les
p1820
aVWnddyCarm
p1821
aVTimBetaSergio
p1822
aVVivianaSlns
p1823
aVduosg
p1824
aVLesiaraujo
p1825
aVNatalia_Jimene5
p1826
aVAurora__Valle
p1827
aVtama_adhi85
p1828
aVJhairSanchez_5
p1829
aVCesarZetin_a
p1830
aVRemithBabu
p1831
aVSandyRrz
p1832
aVNgSirena
p1833
aVAgustinRamos__
p1834
aVFernandesWeldes
p1835
aVMauDduart
p1836
aVGmPatrica
p1837
aVAlmmiita__
p1838
aVnishokganesh
p1839
aVISTincorp
p1840
aVAlvaradoSofia22
p1841
aVFlipMunz
p1842
aVViviaanaa__es
p1843
aVNeha32455800
p1844
aVIsablSosaa
p1845
aVMaraAmadorAcost
p1846
aVAbraham_56g
p1847
aVE_ugee
p1848
aVErnesGirado
p1849
aVSeeProofNow
p1850
aVJeeanLey
p1851
aVEri_kaLopez_
p1852
aVPerla_Roja5
p1853
aVpablo_videgaray
p1854
aVVikiiLeon__
p1855
aVKojokMajd
p1856
aVFabinHhrndz
p1857
aValex_ness34
p1858
aVGrcSrg
p1859
aVtonydanger42
p1860
aVYashCrrill
p1861
aVNBA_RaptorsFans
p1862
aVForrestCLowder
p1863
aVVkyTtorrs
p1864
aVCamila_Abr
p1865
aVDliaEsccr
p1866
aVM_onyG_onzales
p1867
aVAdrinRomro
p1868
aVCarolinaG_arcia
p1869
aVsaraadrn
p1870
aVNorma_Herrera45
p1871
aVa_lindyo
p1872
aVfranklincarlos4
p1873
aVPietra_samir
p1874
aVTioenai
p1875
aVCamiMor_Gati
p1876
aVximensal1
p1877
aVSusanFernandez_
p1878
aVNaooContras
p1879
aVMiguel__Rosales
p1880
aVbarbi_casti45
p1881
aVworldsnews1
p1882
aVrikmon2
p1883
aVworldsnews3
p1884
aVworldsnews2
p1885
aVdanny_taylor68
p1886
aVMiglMrtt
p1887
aVZuriFarm
p1888
aVCristina_F45
p1889
aVviki_gat19
p1890
aVOLOWOYEYEOLAIT4
p1891
aVcrisandryi
p1892
aVRosasManu3
p1893
aVLuisaPaesRuiz
p1894
aVHootaanTi
p1895
aVsadeepanrames
p1896
aVSandy_5Santiago
p1897
aVlareelee48
p1898
aVNancyMonzer
p1899
aVJesus_Gomez9
p1900
aVJoselineVld
p1901
aVMiniory_
p1902
aVUFaith
p1903
aVJennii_Cruuz
p1904
aVgjsdal2
p1905
aVBrav0Iza
p1906
aVHugRoslls
p1907
aVZuriaBescos65
p1908
aVRaulBenjaminS
p1909
aVKiniYb
p1910
aVPaola_cle
p1911
aVNoemiPe_ch
p1912
aVZaraBurill
p1913
aVdenyse_o
p1914
aVPassDriving1
p1915
aVcabrera_las56
p1916
aVCALEBMCELRATH
p1917
aVFreddyL_opez
p1918
aVdenyse_u
p1919
aVIngridBecerr
p1920
aVLuluH_ernandez
p1921
aVzw_jason
p1922
aVMunioaA
p1923
aVMirnaaa__Pal
p1924
aVeMarcelinaKq
p1925
aVHarley_FansClub
p1926
aVMirnaCst
p1927
aVAdriana_V38
p1928
aVMoissLimadeS
p1929
aVUmangBen
p1930
aVGabi1_Rodriguez
p1931
aVanaluciajoelbet
p1932
aVmariopm10
p1933
aVFxBRYoukai
p1934
aVMargaritaHnz_
p1935
aVTonyMasaad
p1936
aVIvan_R_amos
p1937
aVyessi_guti67
p1938
aVhar_de_yin_ka
p1939
aVKateGlezz
p1940
aVGbemiSweech
p1941
aVVerenice_Rodrig
p1942
aVHennry_Vela
p1943
aVigoryassue
p1944
aVjess_salasar
p1945
aVYaelDmnggz
p1946
aVDaviidLz
p1947
aVIsmaelCntrs
p1948
aVSheylaMart1
p1949
aVSamanthaOe43
p1950
aVJuanNev2
p1951
aVdikshant__
p1952
aVmattemorrissey
p1953
aVCastillo_Roque_
p1954
aVUrielVa_rgas
p1955
aVEricaChaves4
p1956
aVJul_ianVelazco
p1957
aVAndreaAgull
p1958
aVjuliano_fxavier
p1959
aVNatrajBala
p1960
aVCitlaliRryys
p1961
aVAlvaroRoldn1
p1962
aVyardiel_
p1963
aVMiguelcharr
p1964
aVIsmaBobadilla
p1965
aVSoniArce12
p1966
aVIvon_Perez8
p1967
aVAzaa__As_
p1968
aVSanobarMutti
p1969
aVQyGloria
p1970
aVDbMarabel
p1971
aVflyroundthewrld
p1972
aVIBrasilNoticias
p1973
aVHaniaArmas
p1974
aVAnmolkDesai
p1975
aVdrak_bobby
p1976
aVAbduLAleeGwarzo
p1977
aVUNormai
p1978
aVMarthaV_argas
p1979
aVSafiurohman
p1980
aVAnaSalns
p1981
aVRuizOliv
p1982
aVDailynews_time
p1983
aVInteractiveIT
p1984
aVBernardoS_anche
p1985
aVCrvjlViolt
p1986
aVguide2tricks
p1987
aVTimbeta0204
p1988
aVMaridaniaC_
p1989
aVCintyaCrmna
p1990
aVGileeCalvaa
p1991
aVturiah6
p1992
aVfashionhelen_
p1993
aVDannyLnad
p1994
aVgdmien
p1995
aVGema_Suar3s
p1996
aV7GerardoMarquez
p1997
aVdione_cs
p1998
aVDaniaCbr
p1999
aVLuciaManeira
p2000
aVmaragaretbrow28
p2001
aVjcleber73
p2002
aVEllisVincent1
p2003
aVMarcoPerez___
p2004
aVcarolsen89
p2005
aVEyraa_Carranzaa
p2006
aVImcoolAnindita
p2007
aVMariaVcno
p2008
aVR_eyesLuis
p2009
aVota82295024
p2010
aVfastnewstech
p2011
aVSuleNj
p2012
aVym_meg
p2013
aVrashriddler
p2014
aV_RicardoChan_
p2015
aVMarcos_2lira
p2016
aVElo_Pardo
p2017
aVFvNohemi
p2018
aVGilbert0Fl
p2019
aVldjeinesantos10
p2020
aVcellianasc
p2021
aVjoaovictor_al
p2022
aVAugustoVii
p2023
aVantunz__
p2024
aVevaliakrispita
p2025
aVVane_cruzz
p2026
aVJosuSntto
p2027
aVTulioZuluagaT
p2028
aVJulietaHurtado8
p2029
aVmg_elna
p2030
aVVelazsNora_
p2031
aVSarahKahwaji
p2032
aVAnglLgss
p2033
aVJosianeGhanem
p2034
aVJayCole04699684
p2035
aVJimFuentts
p2036
aVCiceraAnatelma
p2037
aVMarianRiios
p2038
aVDana_Soler
p2039
aVAlexiaCerdeno87
p2040
aVefrain_martin34
p2041
aVCarrerMnuel
p2042
aVTNewNews
p2043
aVKilianJulianus
p2044
aVKendraferrer_
p2045
aVJazminDia_z
p2046
aVNaddiLoppz
p2047
aValwynsblogspot
p2048
aVTheColdCan
p2049
aVJose_fina6
p2050
aVNadiaE_z00
p2051
aVWalterMed2
p2052
aVVpEnda
p2053
aVRocioM_2
p2054
aVAnkurGoesSocial
p2055
aVqueijodebosta
p2056
aVA_drianaRoquer
p2057
aVJuniors_Hd
p2058
aVFernandoGom1881
p2059
aVincome4uonline
p2060
aVNayelliGo
p2061
aVWilliamFerro_m
p2062
aVEdgarD_zul
p2063
aVNoraCsto
p2064
aVSamantaAcostaa
p2065
aVArielBbrnl
p2066
aVviriGrcia
p2067
aVM_anuelPerez
p2068
aVBeritaUpdated2
p2069
aVdersonalf
p2070
aVNEWScoid
p2071
aVRi_go19
p2072
aVLilianaMan01
p2073
aVGerarSlggad
p2074
aVAmada_Glz
p2075
aVbooktodrive1
p2076
aVJane_Aran
p2077
aVtabathafrye
p2078
aVY_azminRdz
p2079
aVRogrioFausto
p2080
aVJ_uanPoot
p2081
aVNehaKris91
p2082
aVDurcal_Caro
p2083
aVJuanJ_moreno2
p2084
aVYuri_Glez3
p2085
aVLucreeMta
p2086
aVAntonio_L02
p2087
aVFridAlvarez_
p2088
aVpaulet_col78
p2089
aVjastinlee12
p2090
aVPatitoisela
p2091
aVMellSmit
p2092
aVLuisBlttazrr
p2093
aVFastWhisper
p2094
aVAdolfo_Z2
p2095
aVReynCarrll
p2096
aVAnna_Alej
p2097
aVGrac1_chavez
p2098
aVGab0oRub
p2099
aVRossy_Car2
p2100
aVWendyMrtnz
p2101
aVXavierGarcaSani
p2102
aVAldahir_glz
p2103
aVRimaYouhana
p2104
aVjuuunioor
p2105
aVlatestnews00
p2106
aVleticia67603257
p2107
aVJuliethaRic
p2108
aV_Tamayol_
p2109
aVantfers
p2110
aVAngelMayoral76
p2111
aVRosinaDj
p2112
aVkarinamestre_r
p2113
aVCheenteeA
p2114
aVTatianaCriad4
p2115
aVYarJimmnz
p2116
aVSeemaJindal5
p2117
aVadriano321_
p2118
aVGarniePaow_
p2119
aVasllemos
p2120
aVBraaanPat
p2121
aVNoheemy_
p2122
aVElsonpcgames
p2123
aVjosefa_rama
p2124
aVRobertoPerez_z
p2125
aVMaydelinCn
p2126
aVSocialDigitals
p2127
aVFtimAlvrz
p2128
aVInformeSOS
p2129
aVsocialmedablog
p2130
aVFau_Cano
p2131
aV9jaTechSupport
p2132
aVRubi_Gomez_
p2133
aVsalgado_67
p2134
aVGabriel_Trres
p2135
aVAle_mendiola1
p2136
aVCitlaly0
p2137
aVCeciliaZart
p2138
aVAlondraCisner43
p2139
aVJazminV_22
p2140
aVNahumFerre
p2141
aVBailonMa
p2142
aVbrisa_andueza
p2143
aVIvannaG_uerrero
p2144
aVCarlosEscalant_
p2145
aVAdlna_
p2146
aVephrahimgroup
p2147
aVMaireeneFranco
p2148
aVcinthia_kiss56
p2149
aVMarcosBravo91
p2150
aVAmeliaParra65
p2151
aVRocioDurt
p2152
aVBessMf
p2153
aVLornzoMrtn
p2154
aVLuissaCrmon
p2155
aVBrendaArtl
p2156
aVAndreyyG2
p2157
aVGabriel_L77
p2158
aVdtpgang
p2159
aVJairiniV
p2160
aVThomasGuzma
p2161
aVzoegits
p2162
aVZoeMendez_
p2163
aVKevnZzmorn
p2164
aVAngelica_Hermi
p2165
aVAbigailSims1
p2166
aVEsme_Briceno
p2167
aVFacundoVid4
p2168
aVHumberto_M587
p2169
aVMoises__Tunn
p2170
aVxbliss2
p2171
aVBere_Agu
p2172
aVAdaaCervantes
p2173
aVbmiedema
p2174
aVArturo_Mogel_
p2175
aVCiTrvo
p2176
aVTim_beta_lita
p2177
aVPutulBanerje
p2178
aVadiel_gua
p2179
aVSamanEche
p2180
aVronekbeca
p2181
aVAchalendraPuri
p2182
aVdl_tun
p2183
aVBongMisti
p2184
aVRizkyMuhammadF
p2185
aVjoel_45a
p2186
aVtweetFeedsNews
p2187
aVDianaMontaner54
p2188
aVCARACASINFORMA
p2189
aVJairSevvill
p2190
aVarsene_lup
p2191
aVvirdhingra
p2192
aVMariofilhoMario
p2193
aVCarlsMdz
p2194
aVelzabetatimbeta
p2195
aVBradsterHill
p2196
aVyaponiraCastro
p2197
aVFranc_ia
p2198
aViamKyleFox
p2199
aVFabiolaaIber
p2200
aVMarianaBhna
p2201
aVAgular164
p2202
aVA_lejandraRios
p2203
aVwacadvem
p2204
aVbp_pecero
p2205
aVmatosjose101
p2206
aVNilkaPino
p2207
aVSKFrases
p2208
aVMariiS_osa
p2209
aVlane_sx
p2210
aVKatyGaaara
p2211
aVIvanVeraDiaz
p2212
aVPati_Valerioo
p2213
aVBraylonBeam
p2214
aVJulRamss
p2215
aVAbii_Jordan
p2216
aVOrianaMontes43
p2217
aVNicteeVar_
p2218
aVKeniaRiios
p2219
aVAssuncaojcs
p2220
aVZaraArmero87
p2221
aVPrisH_ernandez
p2222
aVCalvinLlanosA
p2223
aVAnaTormoMaya
p2224
aVMisaelVera__
p2225
aVantniodonizete
p2226
aVHilario3Mendez
p2227
aVSubrataDhoni
p2228
aVnoelisilva123
p2229
aVAlmeidaGleibson
p2230
aVValeFlors
p2231
aVObamaTheLeader
p2232
aVcristlancastro
p2233
aVIsabelCMolero
p2234
aVRenataArrt
p2235
aVa_rudo
p2236
aVEvanVasil
p2237
aVAkesh__
p2238
aVStrongKamal
p2239
aVArge_liaveg
p2240
aVJorgeA_beto
p2241
aVgabbyVar_g
p2242
aVjmnz_Citlali
p2243
aVSampatGole
p2244
aVKikeUsla
p2245
aVMqRay
p2246
aVFCuica
p2247
aVL_eydiSanchez
p2248
aVIsabellSor_
p2249
aVGerundiio__
p2250
aVsans_mots
p2251
aVviaWorldNews
p2252
aVReynaldoSosaa
p2253
aVwatson_super
p2254
aVS3rgioBar
p2255
aVMariana_torre5
p2256
aVGrmmnLun
p2257
aVVanessa24051989
p2258
aVCelesteArjn
p2259
atp2260
Rp2261
ssS'election/election_tweet_'
p2262
(dp2263
g3
g4
((lp2264
VCnnnewstop
p2265
aVDAFSolutionz
p2266
aVShadeLagos
p2267
aVNigeria4U
p2268
aVMs_Teeteelayour
p2269
aVNewsTheFive
p2270
atp2271
Rp2272
sg8
g4
((lp2273
tp2274
Rp2275
sg12
g4
((lp2276
VxioSkinny
p2277
aVNewspaperstop
p2278
aVPoliticeconomyt
p2279
aVTheNewsTopp
p2280
aVBoSwans
p2281
aVCurrenttopp
p2282
aVBereGreys
p2283
aVTeamusatop
p2284
aVAllpoliticst
p2285
aVAmericaatop
p2286
aVEconomypoliti
p2287
aVcecyPortiyo
p2288
aVOhkYahfags
p2289
aVUsanewstop
p2290
aVInformationtopp
p2291
aVNewsglobalusa
p2292
aVTopNewP
p2293
aVAlltrumptop
p2294
atp2295
Rp2296
sg32
g4
((lp2297
VGirl_News_
p2298
aVTCWARL
p2299
aVALLAHGOFUK
p2300
aVllisaa_22
p2301
aVnaijaspice
p2302
aVEagle_Newsmiami
p2303
aVAbellJudy
p2304
aVDunlopElites
p2305
aVUfadEba
p2306
aVPatriotNewsUSA
p2307
aVshirley_cogdill
p2308
aVConspiraTide
p2309
aVJopac4dvirg
p2310
aVwndsong
p2311
aVEldaRusley2
p2312
aVDonRoos
p2313
aVwuhib1
p2314
aVEpicalBreed
p2315
aVWaleGCFR
p2316
aVLatoriaPacking2
p2317
aVNCconserv
p2318
aVTruantEmployee
p2319
aVpakacha2
p2320
aVAboikpa
p2321
aVbreakinngnewss
p2322
aVMaryReed88
p2323
aVEmy4Trump
p2324
aVUmbrellaOfChaos
p2325
aVNaijConnect
p2326
aVselfyeshua
p2327
aVstraysauce
p2328
aVDemNoSabi
p2329
aVOloshoPearl
p2330
aVocbaba1
p2331
aVWillieNsebot
p2332
aVUyo_Boy
p2333
aVDNoticie
p2334
aVglendalynch901
p2335
aVsjaak_de_jonge
p2336
aVDeplorableMarys
p2337
aVKvngBrainardMed
p2338
aVE_Guttah_Yuno
p2339
aVTukang_Update
p2340
aV360WiseWest1
p2341
aVNaijapalsOnline
p2342
aVGainesChristia1
p2343
aVUCPure
p2344
aVpoliticalUSnew
p2345
aVTrumpLoves_Amer
p2346
aV3ppl_S
p2347
aVayotomii_xx
p2348
aVOAU_yarns
p2349
aVMacduffFuentes
p2350
aVelkolykarim
p2351
aVLeadStoriesCom
p2352
aVamwemzi
p2353
aVRaff_El
p2354
aVdonshobiyi
p2355
aVacd_beni
p2356
aVNews_Daily_24
p2357
aVFastPolicy
p2358
aVreginasanchez32
p2359
aVBeauregardAsher
p2360
aVTrudieCaz
p2361
aVEffieFelts25
p2362
aVPoliticsnewstop
p2363
aVCyberVegan
p2364
aVPedriNaoma
p2365
aVamelsanchez7
p2366
aVBillebiti
p2367
aVDJHackerJp
p2368
aVmaumeerat
p2369
aVEstelleGideon1
p2370
aVFoxNews
p2371
aVrhondaba8
p2372
aVTekaviv
p2373
aVClonbaba
p2374
aVandreaking962
p2375
aVbleedsmapleleaf
p2376
aVHistoryStrips
p2377
aVPoliticsgonzale
p2378
aVakudinogu
p2379
aVFement49Dillon
p2380
aVamerynick
p2381
aVTeribssn
p2382
aVusapolitics4
p2383
aVIndustryTakover
p2384
aVSanaPluym1
p2385
aVsportyone11
p2386
aVthe_win_today
p2387
aVSonyaDmvDiva
p2388
aVTweeterLandlady
p2389
aVsdxthepr
p2390
aVeverest_sau
p2391
aVbudrori
p2392
aVdeji_of_lagos
p2393
aVciggn
p2394
aVToluLagos
p2395
aV9JaMusicTrend
p2396
aVFabiolucv
p2397
aVbreakingcelnews
p2398
aVCanadianTide
p2399
aVAlyciaWhsite
p2400
aVnyandemayom
p2401
aVdeloresgardne12
p2402
aVJnsJudy7
p2403
aVRaajanna
p2404
aVOjugboAgnes
p2405
aVTrumpWinner_16
p2406
aVFrosteSuzanne
p2407
aVpatpathos
p2408
aVed_brander
p2409
aVcreamiee_Dee
p2410
aVlekkibabe
p2411
aVTPartyWoman
p2412
aVLiveTV4U
p2413
aVBrassFaddin
p2414
aVpatriotparexcel
p2415
aVglenda_burke
p2416
aVwork_trump
p2417
aVpolitical_USA16
p2418
aVelhapp
p2419
aVNilsy1975
p2420
aVvonea
p2421
aVAJEdinho
p2422
aVsoholyhealth
p2423
aVAKPAN_NDAH
p2424
aVWetinhappenPR
p2425
aVgamraoui_kuider
p2426
aVTrump_Commander
p2427
aVYouDonHear
p2428
aVpoliticsdarleny
p2429
aVKelseyFord55
p2430
aVThedeplorableJ
p2431
aV0fficialCR7
p2432
aVfakealiceu
p2433
aVDJ__EMJAY
p2434
aVDeontaB_ENT
p2435
aVDreamHillz_INC
p2436
aVObserverNG
p2437
aVTrump4eeuu
p2438
aVOcholorBenjamin
p2439
aVYoungBassey3
p2440
aVPolitic2020
p2441
aVMaryLoveUS4
p2442
aVTeamFloEazy
p2443
aVSolitaryUnit
p2444
aVDeniseCoorthop1
p2445
aVDavidHEzekiel
p2446
aVillycityprince
p2447
aVSuzanneRhodes55
p2448
aVtrump_with
p2449
aVIdle2Ginger
p2450
aVPoliticalcseeuu
p2451
aVteeteelewa_
p2452
aVSmalltalkwitht
p2453
aVPolitic_KV
p2454
aVSportsTide
p2455
aVTolani__Coker
p2456
aVDJWILL_IAM
p2457
aVTrumpTide
p2458
aValbybrava
p2459
aVTOO_TYT
p2460
aVpauldeckson
p2461
aVCute_Monster__
p2462
aVAlonsofg
p2463
aVTrump_Ameri16
p2464
aVCrimeTide
p2465
aVSoma_stance
p2466
aVAlyssaMillet2
p2467
aVdbneitz
p2468
aVYoung_Songs
p2469
aVVeronicaGriman
p2470
aVMuhamedwason
p2471
aVNewsRepublicans
p2472
aVUBOZZ_UBOSS
p2473
aVeyesopen63
p2474
aVComot4Here
p2475
aVkr6ssy
p2476
aVfabiosteinberg
p2477
aVpeterlamin
p2478
aVDUCHESSTAR
p2479
aVtroyl1963
p2480
aVSergent_Rogers
p2481
aVOjoHeryo
p2482
aVWeNotPlaying
p2483
aVTheTrump_Party
p2484
aVMrsSusanMiller
p2485
aVPoliTideCom
p2486
aVJeneymaria
p2487
aVMitschenstuckNG
p2488
aVEthan_brhmm
p2489
aVnkumeSimon
p2490
aVRealtor336502
p2491
aVkeyaudience
p2492
aVAhlaJee
p2493
aVILove360Wise
p2494
aVTallyNumber
p2495
aVjuanitaowens781
p2496
aVmz_ASB
p2497
aVSallyPowlett
p2498
aVjerryleewoodro1
p2499
aVNewsEp24
p2500
aVygprinthouse
p2501
aVUKWAYITWO
p2502
aVskddogg47
p2503
aVCoutureClemons
p2504
aVDesignerBrains
p2505
aVTrumpIsTheTrue
p2506
aVBigBreakNews
p2507
aVLarry12131948
p2508
aVbeldch
p2509
aVEniolasays
p2510
aVSaynsberryPeggy
p2511
aVMaxEmmery
p2512
aVMyJihadUS
p2513
aVkooboateng
p2514
aVjulyrose299
p2515
aVSelenaLupez
p2516
aVSievenews
p2517
aVkaluna_shanika
p2518
aVGistNaija
p2519
aVIamgold00
p2520
aVBreakingNewsTru
p2521
aVGOODRUMOLLIE
p2522
aVThemarinTrump
p2523
aVdrrohe
p2524
aVHardlanding
p2525
aVviralNewsman
p2526
aVpastorjerryarm1
p2527
aVNewsCentury_21
p2528
aValaranlukman
p2529
aVThe_Win_Trump
p2530
aVtheninjapastor
p2531
aVDailyNewUSA
p2532
aVSpiriTide
p2533
aVdboms7
p2534
aVEnagiH
p2535
aVThereseStarks3
p2536
aVTrump_News_P
p2537
aVayiku_timothy
p2538
aVWorldnewsPoli
p2539
aVMerryiyanda
p2540
aVrealgulfer
p2541
aVnewsbyte247
p2542
aVfellow_press
p2543
aVclingenfelter
p2544
aVRaymundoShown1
p2545
aVChemhute
p2546
aVDiAnnaHardesty1
p2547
aVStoryTideCom
p2548
aVPamelaGeller
p2549
aVskrthakur
p2550
aVWeAreLifeForce
p2551
aVHumbertoHilion
p2552
aVLiveNaijaUpdate
p2553
aVMarthaDepuy
p2554
aVRhondaRiche25
p2555
aVAlanaPapley
p2556
aVPatrickMaher505
p2557
aVBarksdaleDessie
p2558
aVZOBORODO
p2559
aV40DaysFasting
p2560
aVPOTUSTrump08
p2561
aVNAIJAREDPEN
p2562
aVDamorela00
p2563
aVSamuelY07800722
p2564
aVNigeriaNewsHall
p2565
aVTworayo
p2566
aVAlkazapper
p2567
aVAFDINational
p2568
aVaddamstaft
p2569
aVTubeTide
p2570
aVkertis_lillie
p2571
aVBasitomania
p2572
aVmmcgrace218
p2573
aVPapi_vinCi
p2574
aVsinamina123
p2575
aVcomfortSuave
p2576
aVEksu_Factz
p2577
aV1234_aussie
p2578
aVWomen4MAGA
p2579
aVThebestnews21
p2580
aVillycitybeauty
p2581
aVWetinhappen
p2582
aVteadrinkingmama
p2583
aVShylaGrenier25
p2584
aVIndieNewMajor
p2585
aVRachelHeron9
p2586
aVjimalo
p2587
aVDeplorableMaria
p2588
aV_its_micho
p2589
aVTensersPig
p2590
aVAlbanCruse
p2591
aVAFatRepublican
p2592
aVcarielesviolet2
p2593
aVaniekanekah
p2594
aVatlasshrugs
p2595
aVIslander1400
p2596
aVOtisPagels2
p2597
aVsgreg447
p2598
aV3212Brandy
p2599
aVthetopnetworker
p2600
aVconservamother
p2601
aVAkwaIbomBabe
p2602
aVtalktoUTIPR
p2603
aVClinton2016News
p2604
aVstylishgirls7
p2605
aV360WiseMedia
p2606
aVhealth_lif
p2607
aVCuperAlfredt
p2608
aVCarolSidwell
p2609
aVmanager_politic
p2610
aVPlan2TheEnd
p2611
aVDee_Hoer
p2612
aVTRUMP_PRESIPRES
p2613
aVThe_Trump_Fans
p2614
aVBobBoyNYC
p2615
aVShadyGotBars
p2616
aVEconoTide
p2617
aVtheonlyAdewale
p2618
aVMOLAPOBOGUNDE
p2619
aVTruman_Lol
p2620
aVBlindManMark
p2621
aVDJmistaKASS
p2622
aVWorkNoPay
p2623
aVWonHongLo
p2624
aViam_teemhy
p2625
aVDray4lyf
p2626
aVlivebhamlife
p2627
aVBettyaak
p2628
aVyungie_sungie
p2629
aVBoogatty
p2630
aVmarichol1D
p2631
aVbigscratcher
p2632
aVGayRightsTrends
p2633
aVRileysblogs
p2634
aVCrystalHerlest1
p2635
aVMadine7
p2636
aVshittukehinde12
p2637
aVbrendarodgers72
p2638
aVsusanjuul
p2639
aVinscamerated
p2640
aVThe_Reporter24
p2641
aVHydra__News
p2642
aVc_analyst
p2643
aVedem_sandra
p2644
aVapostlethomasfl
p2645
aVChiamakaRufus
p2646
aVMetroResponse
p2647
aVrjmfrisco
p2648
aVRandomNaija
p2649
aVAgSilverSurfer
p2650
aVGidi_daily_fact
p2651
aVTheCradleNews24
p2652
aVGapsy4all
p2653
aVbanarick
p2654
aVSIOAmerica
p2655
aVDelanaKreighba6
p2656
aVOluwaTESLEEM
p2657
aVMusicDownloadNG
p2658
aVMarleneBlckwntr
p2659
aVforrestharvey82
p2660
aVJasonTurner55
p2661
aVTashaLagos
p2662
aV16PoliticalNews
p2663
aVMaryMartin25
p2664
aVWeTrendingNow
p2665
aVetimanews
p2666
aVwilliam36945299
p2667
aVtodayscommonlaw
p2668
aVsalimothman4
p2669
aVDrug_Traffic
p2670
aVAlanDukeNews
p2671
aVjoeconstitution
p2672
aVNewsForUSA
p2673
aVSambaMbete
p2674
aVStedams
p2675
aVChristofferAsa
p2676
aVyoungpablo499
p2677
aVSnoperMZ
p2678
aVHoaxAlerts
p2679
aVRealJezzy
p2680
aVElfadilElmalik
p2681
aVcharlesronrob
p2682
aVpolitiquing
p2683
aVfoxnewstwts
p2684
aVakamkpa
p2685
aVmarva_glotfelty
p2686
aVlastminuteusa
p2687
aVEkitifirstborn
p2688
aVParksLeilaRuth
p2689
aVAyllAyodele
p2690
aVAdonija_olumide
p2691
aVTheJayRabbit
p2692
aVCelebriTide
p2693
aVAdvertise_NG
p2694
aVRealCrazeClown
p2695
aVAnyaAnnem1970
p2696
aVAkwaIbomRising
p2697
aVBruceLazzara281
p2698
aVReal_chioma
p2699
aVYoungestboi
p2700
aVMobilePunch
p2701
aValfredox15200
p2702
aVviralnews91
p2703
aVJoanChakonas
p2704
aVAbia_Ibok
p2705
aVfajalecool
p2706
aVLifeOfPumpin
p2707
aVTutuMkpong
p2708
aVpoolicat
p2709
aVRightnewsNews
p2710
aVtarra_biren
p2711
aVdrjgarrow
p2712
aVpaulodex_baby
p2713
aVgrantmckinney22
p2714
aVAmericaBermudes
p2715
aVTATA360WISEGAL
p2716
aVawhy_hd
p2717
aVGidi_Gossip
p2718
aVahmed4rl
p2719
aVjuliodario99
p2720
aVLizzywitchx
p2721
aVUyoGist
p2722
aVworldnewsblack
p2723
aVjoey753
p2724
aVThe_Last_NewsPa
p2725
aVEkebeUyom
p2726
aVporthosporthosp
p2727
aVJster6517
p2728
aVReTweetWatcher
p2729
aVtimmyweber90
p2730
aVreese0325
p2731
aVEylinHurt
p2732
aVmattiefrank17
p2733
aVTop_All_News
p2734
aVdeluxekidd
p2735
aVdawne_martha
p2736
aVNaijaHotFeed
p2737
aVPoliticsTopx
p2738
aVZainabMaculy
p2739
aVnigerianbn
p2740
aVPOTUSTRUMP6
p2741
aVblgarcia99
p2742
aVFloNetUK
p2743
aVShebongky_BeatZ
p2744
aVhoanglehongvna
p2745
aVEddymaverick_05
p2746
aVWilliamPollack2
p2747
aVYou_DeplorableG
p2748
aVPoliticstodayx
p2749
aVReUsedCONDOM
p2750
aVhelenfaustin
p2751
aVlivemiamisun
p2752
aVLuiher
p2753
aVjessiebowers911
p2754
aVd_swegg
p2755
aVrmc0113
p2756
aVPoliticcssTop
p2757
aVFuzer_Pakos
p2758
aVNewssTrump
p2759
aVBriannaRedmond1
p2760
aVBernSandersNews
p2761
aVMcilwainDyan
p2762
aV3007World
p2763
aVarkcheri
p2764
aVkabirmuhammad52
p2765
aVH1Crystal
p2766
aVOkonNsien
p2767
aVIsamarusea
p2768
aVsharonkirby45
p2769
aVHarryJVenema
p2770
aVFloNet_Ent
p2771
aVOnfreNealon
p2772
aVVDJ_KFLASH
p2773
aVSir_Rozlah
p2774
aV360WiseNews
p2775
aVThomasMick
p2776
aVJGonza28
p2777
aVOfficialEricJR
p2778
aVnews__desk
p2779
aVDistrict085
p2780
aVBryan9981
p2781
aVwmqg106_5fm
p2782
aVviva_pauls
p2783
aVYouGetMap
p2784
aVDeplorable_cars
p2785
aVUSA_PolicalNews
p2786
aVsirdotlex
p2787
aVrahnanthoni
p2788
aVDumorJaja
p2789
aVBendoyong
p2790
aVEbaEbod
p2791
aVchrise13
p2792
aVc411m3call
p2793
aVtavarg57
p2794
aVtimmy_eleniyan
p2795
aVstmpinfortrump
p2796
aVTop1precent
p2797
aVSykesKauffman
p2798
aVWOLI_OF_LIFE
p2799
aVsdamdiva
p2800
aVsdxmediagroup
p2801
aVAhodaGirl
p2802
aVLoveStephanysco
p2803
aVDeporableU
p2804
aVfdacarvalho
p2805
aVteresacolon67
p2806
aVjamesvon3
p2807
aVAkwaibom_Music
p2808
aVkathrinealdrid2
p2809
aVCassieGbenga
p2810
aVkrauspaulusa
p2811
aVTradingTide
p2812
aVUSANews10
p2813
aVAticluambo
p2814
aVBreitbartRSS1
p2815
aVtolu_Johns
p2816
aVlinda_solka
p2817
aVzTyseOG
p2818
aVLaDeCoyoacan_
p2819
aValvinjo69
p2820
aVlindaikejimedia
p2821
aV360WiseKC
p2822
aVReal4664now
p2823
aVAnnaAlvarez1992
p2824
aVauntypaulene
p2825
aVnewslonx
p2826
aVCriswellElynor
p2827
aVNewsStandardNg
p2828
aVnwandikojude
p2829
aVMariaFCarieles
p2830
aVdhaycarlos86
p2831
aVTrump_Girls_
p2832
aVbillybee001
p2833
atp2834
Rp2835
ssS'hillary/hillary_tweet_'
p2836
(dp2837
g3
g4
((lp2838
tp2839
Rp2840
sg8
g4
((lp2841
tp2842
Rp2843
sg12
g4
((lp2844
tp2845
Rp2846
sg32
g4
((lp2847
Vcarol_varham
p2848
aVSharonJonesGop
p2849
aVJosephSmithGop
p2850
aVAmerica4Trump_
p2851
aVGeorgeJn1Gop
p2852
aVSophia4Trump
p2853
aVTrumpTrainNewss
p2854
aVGODBLESSAMERIC
p2855
aVThebestnews21
p2856
aVAriaWilsonGOP
p2857
aVCarolineWalkerB
p2858
atp2859
Rp2860
ssS'trump_joe/trump_tweet_'
p2861
(dp2862
g3
g4
((lp2863
VNewsTheFive
p2864
atp2865
Rp2866
sg8
g4
((lp2867
tp2868
Rp2869
sg12
g4
((lp2870
Vlorzlxp4
p2871
aVtamilalukina1
p2872
aVquzagumigix
p2873
aVpukibosocahu
p2874
aVfojadogyvip
p2875
aVmetihyqicyza
p2876
aVT0my_s
p2877
aVlakurefefuhy
p2878
aVminokunacij
p2879
aVfepysegesamo
p2880
aVnevyryhakeqy
p2881
aVnagetafixogi
p2882
aVcabubyxihup
p2883
aVmepeqicoguv
p2884
aVGiannaLeslie1
p2885
aVlyvuqutovaly
p2886
aVKirkPenrod
p2887
aVseleznevfeofan4
p2888
aVkydegoqizil
p2889
aVwenyjenyfopi
p2890
aVsoxerafinoc
p2891
aVqovasovijido
p2892
aVjesabasipygo
p2893
aVzylofosisog
p2894
aVlehyvijopeh
p2895
aVfikyhupoxar
p2896
aVpylufoqohoki
p2897
aVtytodadyzuk
p2898
aVrugivupikili
p2899
aVtiniticuvutu
p2900
aVwomisopuwyk
p2901
aVzogirolujedu
p2902
aVLyuksenOdintsov
p2903
aVzypobykujody
p2904
aVjecerufegywi
p2905
aVliqovufej
p2906
aVrizebegigaza
p2907
aVcybutejaxamu
p2908
aVwesaruwemes
p2909
aVdmitriyagaqu
p2910
aVbyzuzasajit
p2911
aVPorterMercer1
p2912
aVsucefylejali
p2913
aVnecofityzij
p2914
aVkupityveqol
p2915
aVkuqejikaluhi
p2916
aVwejyveburuv
p2917
aVfidarajyguc
p2918
aVtibidesegeb
p2919
aVxusokyxocod
p2920
aVgusibulofoxa
p2921
aVvilensemenov192
p2922
aVcykejenysew
p2923
aVqateniqypeqe
p2924
aVladapetered
p2925
aVzohecemocej
p2926
aVwypaqedugufe
p2927
aVSarahWr50729866
p2928
aVDeborah15498690
p2929
aVgerymizukury
p2930
aVmojutavamer
p2931
aVlutojemasoq
p2932
aVwenusovypeja
p2933
aVmajilizynepe
p2934
aVSharonT67607249
p2935
aVqoseryxoheku
p2936
aVshubin_artemij
p2937
aVzekugeqakuz
p2938
aVlybeserewub
p2939
aVronyzydaqiwo
p2940
aVxavelawehym
p2941
aVnixonwallace1
p2942
aVvejeguvazaqi
p2943
aVmoqyqazurit
p2944
aVcikusidyqy
p2945
aVxucukixycaz
p2946
aVcyhirokyjely
p2947
aVnijenequwys
p2948
aVzegydotywef
p2949
aVkegixamotabi
p2950
aVpakofuquton
p2951
aVqukaxumebyt
p2952
aVrudyxejymun
p2953
aVjaxajafimaz
p2954
aVjkdhixh3
p2955
aVxijoverebyle
p2956
aVMarylandErdman
p2957
aVmijukofypifi
p2958
aVjafanewafon
p2959
aVciroqadofaf
p2960
aVryqymyzigete
p2961
aVcicejugykyto
p2962
aVxezohuxopadu
p2963
aVrolufivicyni
p2964
aVsanupecimiwa
p2965
aVluhahokyluga
p2966
aVrefubovoqom
p2967
aVwacamiqanyto
p2968
aVmqkbfvecc
p2969
aVhevyburygyfa
p2970
aVMelanieMia2
p2971
aVzifibykymuh
p2972
aVNBA76ersFans
p2973
aVGibrangracia1
p2974
aVjugijinyvupo
p2975
aVcoretaboqil
p2976
aVvycanizudote
p2977
aVgerycisunowa
p2978
aVvahobezebij
p2979
aVdosubazobij
p2980
aVluwejarefyr
p2981
aVsakuwuhoriq
p2982
aVmojetikowas
p2983
aVnewahahylanu
p2984
aVceribylabyxo
p2985
aVvepacohibed
p2986
aVgolyboqobuje
p2987
aVvurabyxixewu
p2988
aVlogavureper
p2989
aVladagonejid
p2990
aVwuxyrafaqaq
p2991
aVChinnDelilah
p2992
aVhuzacetisida
p2993
aVgadelisoqex
p2994
aVJackmanMerrick
p2995
aVfeliksanabeloz4
p2996
aVpetujeqapuc
p2997
aVvyxijadobiq
p2998
aVghamftcmqthd
p2999
aVvynyjapifare
p3000
aVrogova_monna
p3001
aVgymykyxanupu
p3002
aVhetytehytoge
p3003
aVwizecogicako
p3004
aVbutamabadypu
p3005
aVwicoletoxil
p3006
aVlohehajerym
p3007
aVInformationtopp
p3008
aVsakujywazyhi
p3009
aVTamika_Nestico
p3010
aVbuhupopabez
p3011
aVvydarenowoj
p3012
aVzowazawaqygy
p3013
aVsanebecopywu
p3014
aVpylelukiqyxy
p3015
aVbiwoqubiwel
p3016
aVxyhisylosev
p3017
aVginihebycumy
p3018
aVxudahagohebi
p3019
aVgatynagoliwu
p3020
aVtofevovemev
p3021
aVReissCouncil
p3022
aVfynirumugavy
p3023
aVwemohiracas
p3024
aVbopahenosuqy
p3025
aVxahonogubil
p3026
aVhovuhitanat
p3027
aVgucyzebafudo
p3028
aVwohidoxutyp
p3029
aVsanjnasinha0001
p3030
aVcasyrozazumi
p3031
aVvawagysivek
p3032
aVmironovaevmini5
p3033
aVdibibonycod
p3034
aVbuvasaficoz
p3035
aVhofepykidit
p3036
aVriniwutidun
p3037
aVnarimansharapo6
p3038
aVkirebuguvuro
p3039
aVxyfolorahop
p3040
aVnubahovuxuno
p3041
aVCancunEnterate
p3042
aVdocuvokawebo
p3043
aVtumelyguvyj
p3044
aVxenutiwurir
p3045
aVfahasudofohe
p3046
aVxeholekekaq
p3047
aVpyducifowyq
p3048
aVkygujonofiw
p3049
aVdujyfacorag
p3050
aVhajicapenoqe
p3051
aVtedirogubig
p3052
aVxisyvaqikud
p3053
aVRuthAnd57623772
p3054
aVfawopodufix
p3055
aVcinipoleqyra
p3056
aVGatorWiseman
p3057
aVmeruwetebyqo
p3058
aVdoluvevasajy
p3059
aVfukuhutulery
p3060
aVhyxywupinuc
p3061
aVdorofeevernest3
p3062
aVtytohydaruxu
p3063
aVsuwyqazohaxa
p3064
aVxiwyvecehusy
p3065
aVmaxopuvucisa
p3066
aVoqqlsq2
p3067
aVfuloretywup
p3068
aVrawirydycika
p3069
aVhughbawerman192
p3070
aVnihucasejyh
p3071
aVbevorovyqizi
p3072
aVOpheliaComer
p3073
aVgagipytorir
p3074
aVjaneqajuhut
p3075
aVLisaJac27798423
p3076
aVjopybucefipi
p3077
aVLovepoint10
p3078
aVmirijavacopa
p3079
aVgobuziqywak
p3080
aVNevaehBryce2
p3081
aVbumynucoxuf
p3082
aVvawocesucex
p3083
aVfawecekibyc
p3084
aVqotojunikelo
p3085
aVfoqudilocafu
p3086
aVcafomucugyqi
p3087
aVtyvikokukave
p3088
aVCoffmanBrooke
p3089
aVrikirihigyt
p3090
aVxydorafaziwu
p3091
aVrotacygexado
p3092
aVbewugivejoq
p3093
aVxyzitezevoju
p3094
aValfa_kuzmina
p3095
aVhoqigakuhyzy
p3096
aVBarkerHoang1
p3097
aVlalububuzuta
p3098
aVrogujitizefi
p3099
aVsochristel792
p3100
aVdinocyqahuba
p3101
aVfyjewufusum
p3102
aVNBA__Grizzlies
p3103
aVzufihusoraf
p3104
aVdawezebykigo
p3105
aVqujunawyxyk
p3106
aVhixyqacuryk
p3107
aVtojanozygef
p3108
aVseryqoxalime
p3109
aVbessbell11691
p3110
aVtenitudolat
p3111
aVkupolitufano
p3112
aVsykunebasot
p3113
aVgaqetyfidapo
p3114
aVtusumatimode
p3115
aVnepijyxynam
p3116
aVchernovveniami6
p3117
aVzutafarabeva
p3118
aVsocymitafosu
p3119
aVtyluquzozov
p3120
aVhuhagifuhos
p3121
aVNBA_CelticsFans
p3122
aVStylishRentals
p3123
aVhupodyfakyzu
p3124
aVzimihucyxad
p3125
aVcyrunalyroro
p3126
aVcidubicutoge
p3127
aVgizydagewite
p3128
aVqypomyvijyji
p3129
aVAlexSi3r
p3130
aVpysybybykycu
p3131
aVhyxiximuxila
p3132
aVfanyquduhesu
p3133
aVmitsubishi_cars
p3134
aVjyfubywugoka
p3135
aVCarolCa39088510
p3136
aVvpkwrm3
p3137
aVqitywopohyk
p3138
aVzacorymyxyxa
p3139
aVzybubirikyn
p3140
aVkopamakixeny
p3141
aVxutilavepyt
p3142
aVhawyzydibole
p3143
aVagniya_nosova
p3144
aVzymetejubyva
p3145
aVryjeqobenac
p3146
aVcyqexylixap
p3147
aVhagudizecaj
p3148
aVgigyqimumuby
p3149
aVHelenEd81682057
p3150
aVvozulytumuf
p3151
aVvlwyfdy2
p3152
aVtretyakovradii
p3153
aVkizovojadox
p3154
aVfavugyhasat
p3155
aVrywohoki
p3156
aVfyjelaliryk
p3157
aVxuvuhubokyso
p3158
aVrixizofaxizi
p3159
aVtagopevumexu
p3160
aVqedafijasaj
p3161
aVmaxorocukame
p3162
aVMaryMar43671198
p3163
aVwuzodepalaj
p3164
aVvywugawutofo
p3165
aVpomazydokeda
p3166
aVvyjyputarufi
p3167
aVlizuwynibaja
p3168
aVxuqiqerolyx
p3169
aVxajalotuwoh
p3170
aVvudonohejas
p3171
aVMujeresCChanito
p3172
aVqesivasecys
p3173
aVtadolazowyl
p3174
aVwofofyzogen
p3175
aVjezirikuziz
p3176
aVpufujamixeb
p3177
aVrejonuqowipy
p3178
aVAcuraCarClub
p3179
aVMa__8x
p3180
aVbuvavufuwyv
p3181
aVcalubibojefy
p3182
aVlywoxawupaga
p3183
aVnyrymiliweqa
p3184
aVcajisygokahu
p3185
aVArkhipZaytsev
p3186
aVtymynuzoryby
p3187
aVwelolicevaca
p3188
aVkefevosemula
p3189
aVbimypecuxyri
p3190
aVjebirevakol
p3191
aVjunusoxobagu
p3192
aVmyvahyfyweco
p3193
aVcidujarogol
p3194
aVloxixonecit
p3195
aVqiqupyvywoh
p3196
aVhytulenihazy
p3197
aVpunevehegeqo
p3198
aVKiefer2670
p3199
aVhiwicymimul
p3200
aVquhevarihenu
p3201
aVqumodalopeh
p3202
aVdexyvasylulo
p3203
aVluvucuwoseb
p3204
aVfupumuvymewa
p3205
aVcyhitojusati
p3206
aVvalapisecap
p3207
aVmilahuxalax
p3208
aVromano2jcbragin
p3209
aVdyzavagucel
p3210
aVhacoquqamegu
p3211
aVvebafabaxot
p3212
atp3213
Rp3214
sg32
g4
((lp3215
Vjoelle_dewulf
p3216
aVbobylevalozann3
p3217
aVvladimirovarai8
p3218
aVvitimiyemelyan1
p3219
aVpojezosepofe
p3220
aVevarest_sorokin
p3221
aVIrochkaSuxanova
p3222
aVzinovev_ivan
p3223
aVguramponomarev5
p3224
aVelvidabelyakova
p3225
aVshestakovolimp3
p3226
aVandronkalinin11
p3227
aVfokindamir1996
p3228
aVziminaelza92
p3229
aVBobylyovEvgenij
p3230
aVCHNGMontgomery
p3231
aVbobylevepifani4
p3232
aVDianaRodriguz5
p3233
aVdeliyakondrate4
p3234
aVoseniifedorov92
p3235
aVmarkignatov93
p3236
aVlytkinaimma2
p3237
aVjegyroquwuh
p3238
aVfeogentrofimov4
p3239
aVraul_gorbachyov
p3240
aVxakyzepyxohi
p3241
aVshahanthony98
p3242
aVangelinaschwa12
p3243
aVmainaabramova14
p3244
aVsemenovakirina5
p3245
aVgolubeva_eteri
p3246
aVemmanuilstrelk4
p3247
aVsolovevtil19851
p3248
aVRusakovNord
p3249
aVioakim_kostin
p3250
aVbobylevadalvin6
p3251
aVbobylevadalvin3
p3252
aVmercurys_1
p3253
aVleonarsblomfie1
p3254
aVsemenovromadii5
p3255
aVqypurujybemi
p3256
aVDavidThinkr
p3257
aVbelozerovayunn3
p3258
aVponomarevagei91
p3259
aVkuznecovgabrie3
p3260
aVhazalefylege
p3261
aVdmitrieverih1
p3262
aVovchinn99082432
p3263
aVgrishinaromana1
p3264
aVjuravlevvergi10
p3265
aVDeplorableMarys
p3266
aVavdeevafekla84
p3267
aVisaakijzhuravl1
p3268
aVtrofimov_00
p3269
aVkalininteimur12
p3270
aVXoxlovMerkurij
p3271
aVaskaniyastrelk1
p3272
aVorlov_savva
p3273
aVfedorov_kuzma
p3274
aVtanorabydodi
p3275
aVCHNGLosAngeles
p3276
aVgoodmanevan81
p3277
aVtainapetrova2
p3278
aVvoxopibebox
p3279
aVgusevalyubava1
p3280
aValanherman1984
p3281
aVavilasybil1
p3282
aVmrslovelykumari
p3283
aVlagahowamoxo
p3284
aVAkhillGorbunov
p3285
aVevdokimovakse11
p3286
aVershov_axmet
p3287
aVulviyaisakova2
p3288
aVeliseevamaina11
p3289
aVgurevalinara1
p3290
aVemiliyalariono6
p3291
aVtuh_realfrekiit
p3292
aVponomarevaippo6
p3293
aVlel_bobylev
p3294
aVmodestinaosipo4
p3295
aVFastPolicy
p3296
aVlemyrytinati
p3297
aVindaagafonova12
p3298
aVpavlova_kalida
p3299
aVschukinaleila85
p3300
aVnaumovorest80
p3301
aVThe_Reporter24
p3302
aVbraginadashenk3
p3303
aVlukajuravlev89
p3304
aVpavelfokin42i
p3305
aVdianagarza1a
p3306
aVTrumpTrainNewss
p3307
aVfomichyovafila2
p3308
aVartemzhukovoz
p3309
aVlorenzaescoabr
p3310
aVafanasevmaksim6
p3311
aVagrippinaaksen3
p3312
aVLeontijXoxlov
p3313
aVMarcoPerez1a
p3314
aVfomichevaminod3
p3315
aVnoemaemelyanov2
p3316
aVschukinstavr1
p3317
aVnimfodorasavin4
p3318
aVvarlaamkorolev7
p3319
aVlapinmanuilo192
p3320
aVAkhmatIsaev
p3321
aVCLMTRichmond
p3322
aVdanya_vorobyov
p3323
aVzuevkarl1981
p3324
aVCLMTMemphis
p3325
aVmalcolmjohns192
p3326
aVmuravevaideya89
p3327
aVmarsgalkin2
p3328
aVaneliyakonstan4
p3329
aVfyvuhafageke
p3330
aVAngelyarSilin
p3331
aVvladislavla9q6
p3332
aVkotov_elmir
p3333
aVCHNGTriangle
p3334
aViannuariygorbu1
p3335
aVnazarovasofiya1
p3336
aVdiomid_kuzmin
p3337
aVpetrvolkov6w
p3338
aVmaslov_panfil
p3339
aVAdrianSos_
p3340
aVshiryaevvikent5
p3341
aVsofronkrasilni3
p3342
aVkovalevailiya83
p3343
aVanfiyabobyleva2
p3344
aVguschinavera86
p3345
aVleontinaantono5
p3346
aVdomnalihacheva
p3347
aVignatovgayan92
p3348
aVahmetgurev1997
p3349
aVkononovaleokad2
p3350
aViuniya_mishina
p3351
aVCRPUCONGO
p3352
aVfedotovazigfri3
p3353
aVnoblesergentem2
p3354
aVdona_suvorova
p3355
aVshiryaevarenal4
p3356
aVvorontsovaapol1
p3357
aVteimurgrishin
p3358
aVfedorovsalim
p3359
aVTitovGilyariy
p3360
aVTrumpWinner_16
p3361
aVhobameganeha
p3362
aVshcherbakovaol4
p3363
aVhowardbeasley7
p3364
aVarhipovmatvei11
p3365
aVKornilovTiberij
p3366
aVCHNGPortland
p3367
aVCLMTCleveland
p3368
aVkytawejiwic
p3369
aVtylerhuang89
p3370
aVvelinaponomary1
p3371
aVdysejifejew
p3372
aVtoriya_lytkina
p3373
aVgozikatilym
p3374
aVbelova_tekusa
p3375
aVgushhinemilian3
p3376
aVmakarovalyutsi1
p3377
aValvinagorbachy2
p3378
aViustinazaiceva3
p3379
aVselezneverazm87
p3380
aVsulamifschukin5
p3381
aVlaertsuvorov
p3382
aVnypagugugexe
p3383
aV8undertaker
p3384
aVaprelinagromov4
p3385
aVbradfordhaley3
p3386
aVgeniiguschin191
p3387
aVveveyalobanova2
p3388
aVtoweporidity
p3389
aVtextporns
p3390
aVMatthewsTwisted
p3391
aVlee2ah
p3392
aVBorisovFotiy
p3393
aVorlovaninel86
p3394
aVsavelkalashnik5
p3395
aVilianschukin191
p3396
aVKhelgaSoboleva
p3397
aVleokadiyasidor5
p3398
aVcemopulaxyri
p3399
aVantonoveinar92
p3400
aVbiduxyvudum
p3401
aVfomichevahioni4
p3402
aVkorolevastepan4
p3403
aVtitova_melanya
p3404
aVCHNGSFCA
p3405
aVpanfilovtiveri3
p3406
aVborisisakovma
p3407
aVignatovizyasla2
p3408
aVpremranjan00091
p3409
aVHubchak2062
p3410
aVCHNGJax
p3411
aVAsteriyKononov
p3412
aVakimdrozdov1984
p3413
aVepistimadorofe4
p3414
aVCampesiChanito
p3415
aVyuriyccj2bo
p3416
aVsalomeyaguschi7
p3417
aVziminamatrena11
p3418
aVbespalovermola4
p3419
aVaksenovafeofil5
p3420
aVgraniiaksenov13
p3421
aValeksandrinaku2
p3422
aVteymurazsubbot1
p3423
aVrozalinalikhac1
p3424
aVkrylovaakilina
p3425
aVkunofukuxuko
p3426
aVjozefseleznev2
p3427
aVBykovaLizochka
p3428
aVmariipahomov
p3429
aVH3nr_y
p3430
aVelzasoloveva194
p3431
aVveselovorentii
p3432
aVZhukovaFatima
p3433
aVfernangusev
p3434
aVTixonYakovlev
p3435
aVnoahyu4
p3436
aVggnewsus
p3437
aVmuravevrunar192
p3438
aVsazonovaaina87
p3439
aVseleznevismail6
p3440
aVkrasilnikovpah4
p3441
aVnicajusohovo
p3442
aVGaliTimofeeva
p3443
aVgeminagerasimo3
p3444
aVallison22938860
p3445
aVdyvetunyjozy
p3446
aVSophia4Trump
p3447
aVkybafegygit
p3448
aVgolubevavilena1
p3449
aVnancywerner91
p3450
aVfelitsiyasokol1
p3451
aVkondratevaeme10
p3452
aVpavlovsemen971
p3453
aVpopiqypikefi
p3454
aVthelegend_a1
p3455
aVivanova_erna
p3456
aVTobyAtkinson2
p3457
aVKuzminLiviy
p3458
aValexmoore841
p3459
aVsarraaksenova2
p3460
aVgirlempire1
p3461
aVdylytosodope
p3462
aVvezaqaqabodu
p3463
aVbiatavishnyako5
p3464
aVvivian_suvorov
p3465
aViovillamartyno8
p3466
aVmorozovsvyatos2
p3467
aVMaksimovAggey
p3468
aVCHNGWestchester
p3469
aVkrishanabhavan2
p3470
aVmisiak_reyna
p3471
aVKevinSaintMaux
p3472
aVStrelkovMoisey
p3473
aVbapywuxaqowo
p3474
aVbryanhahn1984
p3475
aVevseinesterov11
p3476
aVgusevvivian1
p3477
aVavroriigorbach5
p3478
aVmodestamolchan6
p3479
aValeksandrovlaz3
p3480
aVbrigittagulyae7
p3481
aVvaleryanponoma3
p3482
aVanikeikudryash3
p3483
aVteterinaolimpi3
p3484
aVrodrigo14713800
p3485
aVtetefatapiru
p3486
aVDenisovManuil
p3487
aVnaumovagaiya191
p3488
aVmironovavalida2
p3489
aVdoroninazigfri3
p3490
aVfeofansemenov13
p3491
aVkuzmintimofej2
p3492
aVtimofeevrevmir2
p3493
aVnikolaevafeoni8
p3494
aVGolubevIordan
p3495
aVevfimiikovalev5
p3496
aVsmirnoveinar
p3497
aVbiryukovaadrey3
p3498
aVshilovakama80
p3499
aVmartyangavrilo1
p3500
aVGvidonKolobov
p3501
aVgilyarijbobyly1
p3502
aVCurry1932
p3503
aVlindseyralph191
p3504
aVLyudochka00
p3505
aVabiyakononova11
p3506
aVSharapovZurab
p3507
aVfominarobertin4
p3508
aVbelozerovglike3
p3509
aVMaxEmmery
p3510
aVolgerdfedoseev4
p3511
aVovidiisavin1998
p3512
aVnikolaevakalid3
p3513
aVtretyakovpatri4
p3514
aVkarpovamagdali2
p3515
aVnadirisaev4
p3516
aVEmpreConMau
p3517
aVerofeifomichev5
p3518
aVjoiodonnell2671
p3519
aVTukang_Update
p3520
aVIordanZhdanov
p3521
aVtheDailyGlobals
p3522
aVZlatkaBurova
p3523
aVjukovradames87
p3524
aVoswaldarias1
p3525
aVCLMTSF
p3526
aVPanfilovaRida
p3527
aVsergeevaalena98
p3528
aVpubliisafonov2
p3529
aVelfridaselezny1
p3530
aVGolubevaKirena
p3531
aVvestapugh
p3532
aVamazingsthought
p3533
aVdavydoveinar
p3534
aV_atypicalsgirls
p3535
aVdenakydytyme
p3536
aVlesliepatel18
p3537
aVyadiraoseguera2
p3538
aVadrien_yarne
p3539
aVadam_fedoseev
p3540
aVdidim_shilov
p3541
aVpetrovabram2
p3542
aVoktyabrinlihac5
p3543
aVnaumovosip3
p3544
aVjack_jone_
p3545
aVSmirnovaUslada
p3546
aVesfirsubbotina4
p3547
aVnovellavladimi4
p3548
aVnygunegadur
p3549
aVaksenovmiloneg5
p3550
aVbelovvenedikt
p3551
aVloginovairena86
p3552
aVdovygabufevy
p3553
aVzykovgordei1982
p3554
aVdianochkamoise2
p3555
aVpetuhovataigin2
p3556
aVmoiseevkelsii96
p3557
aVfrolovaleida191
p3558
aVzekotosimube
p3559
aVklavdiyamarkov7
p3560
aVpavlovfoka
p3561
aVzorislavasorok3
p3562
aVisaakiiorlov
p3563
aVkazimirasubbot2
p3564
aVpaulpauline1982
p3565
aVfilippovavirin3
p3566
aVEgorovKhariton
p3567
aVrostislavigna11
p3568
aVgorshkov_olaf
p3569
aVkolobov_simeon
p3570
aViosifsuvorov192
p3571
aVlaimakuzmina2
p3572
aVhewujinugyb
p3573
aVvasiliyavorobe5
p3574
aVkryukovglikeri3
p3575
aVsojydeniroj
p3576
aVZinovevAndronik
p3577
aVdaniela51354796
p3578
aVMorozovYanuariy
p3579
aVmorozovaoktian3
p3580
aVacura_cars_club
p3581
aVMarkejStrelkov
p3582
aVCLMTOmaha
p3583
aVKharitonMishin
p3584
aVsamoilovacecil3
p3585
aVnovellaantonov1
p3586
aVcalandraredeni2
p3587
aVfomamuravev1998
p3588
aVlafilunyvyra
p3589
aVfursfokin2
p3590
aVMelnikovNikifor
p3591
aVLikhachevAnis
p3592
aVdementiykalash1
p3593
aVolafpetuhov1997
p3594
aVPavlinaEliseeva
p3595
aVRodonKiselev
p3596
aVlindayudina4
p3597
aVCLMTMilwaukee
p3598
aVCHNGFortLaudy
p3599
aVmargaritegirar2
p3600
aVZaytsevVavila
p3601
aVkibuwujyhegy
p3602
aVageishubin98
p3603
aVvilen_lukin
p3604
aVlolitanikolaev3
p3605
aVDorofeyAgafonov
p3606
aVAbiyaShchukina
p3607
aVloginovtimon1
p3608
aVlorisuque638
p3609
aVmoiseevpavlin11
p3610
aVnaumova_roksana
p3611
aVpanfilovadarya8
p3612
aVaaliyahgould1
p3613
aVwallaceleman1
p3614
aVizmail_panfilov
p3615
aVkrasiln36398386
p3616
aVgegotedozar
p3617
aViulianmatveev2
p3618
aVbirchsierra1997
p3619
aVnoticias2day
p3620
aVselifansilin
p3621
aVrit01a
p3622
aVgalkinamihalin2
p3623
aVCHNGNashville
p3624
aVvalentineandr13
p3625
aVnastasyamirono5
p3626
aVSmirnovaRoksana
p3627
aVzimintroadii82
p3628
aVSevilArxipova
p3629
aVCLMTCambridge
p3630
aVtalinazykova2
p3631
aVboleslavvorobe3
p3632
aVgolubevnefed3
p3633
aVmerkuriiignato2
p3634
aVElaTerenteva
p3635
aVbitznews
p3636
aVCHNGRaleigh
p3637
aVDeyaniraCuevass
p3638
aVulviyaalekseev4
p3639
aVpetuhovmosei1
p3640
aVodincovadolf85
p3641
aVzzlzuesq14311
p3642
aVfomichevgaidar6
p3643
aVvaclavabobylev2
p3644
aVtair_vlasov
p3645
aVNews_Daily_24
p3646
aVfomichevyudjin2
p3647
aVanfusatimofeev5
p3648
aVyudjinartemev1
p3649
aVvivysahoqypu
p3650
aVariadnaproxoro1
p3651
aVseleznevaleila9
p3652
aVCHNGChicago
p3653
aVFilatArtemev
p3654
aVryjilagokub
p3655
aVBloxinErmak
p3656
aVbogdanovanatel9
p3657
aVepifanlapin93
p3658
aVKorolyovLenya
p3659
aValenasilina1981
p3660
aVGoshaSysoev
p3661
aVKrylovaEvelina
p3662
aVmarkova_dzhilda
p3663
aVzylapubywub
p3664
aVgromovaleksei1
p3665
aVpukyrubyqac
p3666
aVzinoveva_viliya
p3667
aVevstafiibolsha1
p3668
aVmechislavkalas3
p3669
aVfabian_zuev
p3670
aVerislav_avdeev
p3671
aVsanjeetraj282
p3672
aVFresh60695711
p3673
aVrandylantigua2
p3674
aVdaughertyblake3
p3675
aVmadelinesteige1
p3676
aVjustin_beber12
p3677
aVjacqulynbertsc3
p3678
aVCLMTCincinnati
p3679
aVmaksimilianse20
p3680
aVlionelladanilo7
p3681
aVsamoilovsamuil1
p3682
aVseleznevavilen6
p3683
aVbikubasavex
p3684
aVsamoylovvalech1
p3685
aVfilippovatsvet1
p3686
aVandreyvwisaev
p3687
aVkiselevalolita3
p3688
aVedvin_zuev
p3689
aVbritanijbobyly1
p3690
aVgrishingalii3
p3691
aVFalcon_Lonnaatk
p3692
aVBriceMaddox
p3693
aVkulaginnefed91
p3694
aVevseisafonov191
p3695
aVMuravevYanuariy
p3696
aVCHNGWinnipeg
p3697
aVfominaristarh11
p3698
aVKrasilnikovNeon
p3699
aVlianamaslova192
p3700
aVdarij_kulagin
p3701
aVavreliibelouso4
p3702
aVKoshelevVlasiy
p3703
aVBlokhinSema
p3704
aVAelitaFadeeva
p3705
aVkonraddoronin11
p3706
aVKabanovYanuar
p3707
aVryabovarida2
p3708
aVgorshkovtil1983
p3709
aVsocrazyname
p3710
aVazariizaicev1
p3711
aVzuevazulfiya192
p3712
aVsavelevadorofe3
p3713
aVilimkiselev2
p3714
aVyaromiraisakov4
p3715
aVCLMTMarin
p3716
aVMaryellenOnly
p3717
aVvxgnfhdzpcvm3
p3718
aVwofepumohipu
p3719
aVlarionovanasta6
p3720
aVsamsonovahilli1
p3721
aVCHNGTallahassee
p3722
aVstanislavkvign
p3723
aVmerkushev_zhora
p3724
aVdaniyaterentev2
p3725
aVkarpovfrank3
p3726
aVterentiizaicev1
p3727
aVnikolaiblinov12
p3728
aVgordeev_leon
p3729
aVgurevaadelaida2
p3730
aVhernand34451561
p3731
aVksanfippablohi4
p3732
aVEstradaKarima1a
p3733
aVmaislavdanilov
p3734
aVsemenovmartyan2
p3735
aVingramharold2
p3736
aVwyfomylabito
p3737
aVluis_perez1a
p3738
aVaitalzykov1991
p3739
aVignatevaanfisa2
p3740
aVOdinczovFadej
p3741
aVMarianLixachyov
p3742
aVbelovtarasii191
p3743
aVCHNGBoulder
p3744
aVifigeniyalario1
p3745
aVela_golubeva
p3746
aVpatrikiisolove3
p3747
aVLamatGrupo
p3748
aVwysalanycuzi
p3749
aVioannikijgrigo1
p3750
aVvorobevalyudvi8
p3751
aVmartsellinaves1
p3752
aVbelov_velimir
p3753
aVpolyakovnartsi1
p3754
aVwyqenogikiw
p3755
aVqofyjowuwacy
p3756
aVdmitrievfortun2
p3757
aVAgataKirillova
p3758
aVseviliyapolyak1
p3759
aVfortunatamelni4
p3760
aVCLMTDC
p3761
aVsaniliwofoxa
p3762
aVrafaeliyaaleks3
p3763
aVhohlovanada1990
p3764
aVtrofim_avdeev
p3765
aVfyfezyjapyt
p3766
aVCHNGStockton
p3767
aVsolovevfavst191
p3768
aVlycisiqycija
p3769
aVattwoodbailey
p3770
aVEvseevPatrikey
p3771
aVkonovalovamsti2
p3772
aVkovalevamilica3
p3773
aViskra_shilova
p3774
aVvivianademente3
p3775
aVcvetkovsavel93
p3776
aVsimonzaicev1981
p3777
aVkudryashovale19
p3778
aVartemevseev1992
p3779
aVpedepoculady
p3780
aVgorbachevaeleg6
p3781
aVkudryashovsamo7
p3782
aVmuhinmiron1992
p3783
aVCHNGRichmond
p3784
aVandrescarmona1a
p3785
aVzemfirasamojlo2
p3786
aVzaxarzhuravlyo1
p3787
aVCHNGBoise
p3788
aVAgafiyKomarov
p3789
aVkovalevravel1
p3790
aVRisaMiguel
p3791
aVjuravlevarmeni3
p3792
aVPacek2706
p3793
aVmaiyagulyaeva1
p3794
aVkapustinagap193
p3795
aVfrolovarii1985
p3796
aVCarlBullock16
p3797
aVjosueorlando2a2
p3798
aVbarberada94
p3799
aVdaniarsamoilov2
p3800
aVLargijBragin
p3801
aVkabanovsavva85
p3802
aVisaisolovev1
p3803
aVrida_selezneva
p3804
aVblohinasafii191
p3805
aVbeatrisakrylov6
p3806
aVvlasov_diomid
p3807
aVantonillazimin4
p3808
aVericksongladys2
p3809
aVmaksimaaleksee3
p3810
aVbesirewiquk
p3811
aVNBAPacersFans
p3812
aVgayaniyagromov2
p3813
aVgalkinavdii1990
p3814
aVvedeneisolovev2
p3815
aVEmelyanovIliy
p3816
aVShubinSofon
p3817
aVmilnjocelyn85
p3818
aVpanovvindei89
p3819
aVleorginafedose5
p3820
aVsergey0ibragin
p3821
aVdana_kulakova
p3822
aVshubinainnochk1
p3823
aVlouisvillarrea8
p3824
aVDasiyGurev
p3825
aVraimondlapin1
p3826
aVrogovamuza1
p3827
aVfedorovaarmini7
p3828
aVdidim_potapov
p3829
aVqywehuqyjew
p3830
aVelevsippmurave5
p3831
aVemmaburova3
p3832
aVCHNGNewsNJ
p3833
aVmelitabelozero3
p3834
aVsazonovavital10
p3835
aVermakovaalla94
p3836
aVemelyanovadii12
p3837
aVfedorovaimma1
p3838
aVshestakovtuvim4
p3839
aVMuravyovaAgata
p3840
aVpatrici43548045
p3841
aVAgafonovKondrat
p3842
aVrajhav_kumar
p3843
aVkovalevalukian2
p3844
aVkamamycohun
p3845
aVPaull_777
p3846
aVbrusle2
p3847
aVrognedanazarova
p3848
aVcrazy_gise003
p3849
aVsemenovdmitrii7
p3850
aVmiloslavashilo4
p3851
aVzubokyfimuvy
p3852
aVfuunny_world
p3853
aVhexopasavewu
p3854
aVCLMTBrooklyn
p3855
aVdobrlukin1996
p3856
aVCNoodleNews
p3857
aVviolaisaeva4
p3858
aVOlavPonomaryov
p3859
aVtimofeevaramon1
p3860
aVanisimovdionis3
p3861
aVTatiyMartynov
p3862
aVmelnikovabrigi3
p3863
aVmarciyatitova11
p3864
aVmichaelrebecca7
p3865
aVlyusen_biryukov
p3866
aVrojkovaevfimiy2
p3867
aVizosimmarkov1
p3868
aVclarinda_coo
p3869
aVMukhinSysoy
p3870
aVsolovevaoliviy1
p3871
aVasafiiegorov191
p3872
aVferapontsokolo3
p3873
aVwalterf59343596
p3874
aVdmitrievleont1
p3875
aVCLMTWichita
p3876
aVnekrasovaaksin9
p3877
aVrojkovgeorgii11
p3878
aVizidaguseva3
p3879
aVelevsippczvetk2
p3880
aVsokolovaklaris6
p3881
aVCHNGMiami
p3882
aVSamuilTretyakov
p3883
aVyuriy7vgo
p3884
aVsokolovpetr82
p3885
aVevdokimovyulii5
p3886
aVEliseevGervasij
p3887
aVVorobyovaSelena
p3888
aVsemenovapriama4
p3889
aVfilaretmikhayl1
p3890
aVpolyakovaandro1
p3891
aVraimondsamoilo9
p3892
aVkarissawarner21
p3893
aVkrasilnikovgas1
p3894
aVlyubomirablohi2
p3895
aVdenisovalaurin1
p3896
aVcapuxamubaq
p3897
aVzvenislavakuzm2
p3898
aVsarvilkudryavc3
p3899
aVlaert_melnikov
p3900
aVllisaa_22
p3901
aVsysoilihachev12
p3902
aVschukinfabian81
p3903
aVhofiliqikyg
p3904
aVsilinpimen
p3905
aVfomichevamalvi3
p3906
aVignatovaevfros3
p3907
aVanisyadementev4
p3908
aVbelyakovavenus3
p3909
aVsmaragdkolesni2
p3910
aVgavrilovvlas191
p3911
aVnefopipivin
p3912
aVgamlet_gorbunov
p3913
aVosipovaksanfip5
p3914
aVlukinagafii96
p3915
aVdobrschukin1
p3916
aVromanovamarsel3
p3917
aVabramovavanda93
p3918
aVCzvetkovSamojlo
p3919
aVandreahoward871
p3920
aVkarpovamelitin1
p3921
aVquito_girl
p3922
aVgabriel_kazakov
p3923
aVkazakovarajmon1
p3924
aVsavinaemerita5
p3925
aVgrigorevbritan3
p3926
aVmainakrylova191
p3927
aVSergeevaLaurina
p3928
aVclairewilcox
p3929
aVdowd_ivette
p3930
aVgusevalukiya96
p3931
aVAvdeevMeney
p3932
aVmihailozuev1
p3933
aVloquhiwyzygi
p3934
aVvolodarkoshele1
p3935
aVindowd884
p3936
aVSazonovaAyna
p3937
aVadamkolobov1988
p3938
aVinnokentiimura1
p3939
aVLarionovaEdda
p3940
aVizidavinogrado3
p3941
aVburovkalistrat
p3942
aVChillaLardilla
p3943
aVromualdasafono3
p3944
aVkionchernov1988
p3945
aVdavidromanov96
p3946
aVartemon_ershov
p3947
aVjuravlevaroald4
p3948
aVmahimarani21
p3949
aVxosocefinequ
p3950
aVjeromeluke1984
p3951
aVCHNGDallas
p3952
aVkopylovvilior12
p3953
aVvassaseliverst6
p3954
aVCLMTWestchester
p3955
aVaudreyr01942650
p3956
aVavreliya_lukina
p3957
aVterentevaripsi2
p3958
aVdmitrievaadrey2
p3959
aVrybakovgustav2
p3960
aVmaysgregory3
p3961
aVfedosyaafanase5
p3962
aVKiryanaErshova
p3963
aVGorshkovaGayya
p3964
aVdovmontagafono2
p3965
aVbettazaiceva
p3966
aVvelmiraguseva3
p3967
aVkomissarovara14
p3968
aVCNNFrancePR
p3969
aVKuznetsovKarp
p3970
aVEliseevMelan
p3971
aVVorobyovDamian
p3972
aVterentev_vianor
p3973
aVcatheri75364803
p3974
aVnikolaevamaina6
p3975
aVFomichevKelsiy
p3976
aVliodorkiselev81
p3977
aVViliorKononov
p3978
aVnelinashashkov3
p3979
aVignatova_guzel
p3980
aVermakovakameli6
p3981
aVsadofiiisaev1
p3982
aVgranit_stepanov
p3983
aVgulyaevaprel192
p3984
aVolimpiadazayts1
p3985
aVziminerazm5
p3986
aVmakarovpotamii
p3987
aVkalashnikovakh3
p3988
aValexbryan1981
p3989
aVlukin_tigrij
p3990
aVeremej_osipov
p3991
aVidilliler_ming
p3992
aVteimurlazarev12
p3993
aVromanova_donna
p3994
aVaverkiiturov
p3995
aVcukocyvoxuf
p3996
aVSofroniyKotov
p3997
aVLindaGromova
p3998
aVsamoilovtamerl2
p3999
aVjuravlevegorii5
p4000
aVgloriyaermakov1
p4001
aVtylerstanley191
p4002
aVfilippovmakedo4
p4003
aVrajurumecyji
p4004
aVbronislavpanfi2
p4005
aVleidavlasova2
p4006
aVLyubashaLukina
p4007
aVshiryaev_larg
p4008
aVmamontovradii1
p4009
aVyakovlev_gran
p4010
aVAvdijKnyazev
p4011
aVvladimi90671857
p4012
aVbagratgorbache4
p4013
aVruffadeeva93
p4014
aVNaumovaLeonilla
p4015
aVSabinAgafonov
p4016
aVAndrelczyk266
p4017
aVeliseevamarsel1
p4018
aVmikhaylovboles1
p4019
aVlevij_rybakov
p4020
aVsamoilovamagna
p4021
aVagnessaknyazev7
p4022
aVtrofimovameli10
p4023
aVCHNGSLC
p4024
aVtverdimirbobyl3
p4025
aVkudryashovafl14
p4026
aVlaimasharova89
p4027
aVbelousova_liga
p4028
aVpotaniifokin90
p4029
aVCHNGBoston
p4030
aVjamecewugotu
p4031
aVdmitrievgleb85
p4032
aVkotoqewuwyxe
p4033
aVwolfe_nery
p4034
aVilyasorokin1990
p4035
aVzurabsuhanov96
p4036
aVwernercolin1992
p4037
aVantoniostout191
p4038
aVbykomirobut
p4039
aVteposerosol
p4040
aVbykovalga1990
p4041
aVCHNGColumbus
p4042
aVfilippovgedeon1
p4043
aVivanoveleazar2
p4044
aVkdharmz
p4045
aVBenitezDollar
p4046
aVandreyankostin2
p4047
aVsunsheryan
p4048
aVmerkuriisolove8
p4049
aVnikonmihailov94
p4050
aVhaneyfaith1
p4051
aVyakovmishin001
p4052
aVeduardtt5it
p4053
aVkovalevsamoilo3
p4054
aVahmetgulyaev193
p4055
aValimknyazev2
p4056
aVselifansitniko2
p4057
aVlapinalfei82
p4058
aVKiselyovIkar
p4059
aVgurevgvidon1988
p4060
aVCHNGBrooklyn
p4061
aVmuhowoleror
p4062
aVnellidorofeeva
p4063
aVqaranedypiq
p4064
aVnigella_rogova
p4065
aVkornil_kalinin
p4066
aVMikheevRadomir
p4067
aVnefedkornilov83
p4068
aVvladimirovauly1
p4069
aVlavrentevneste5
p4070
aVCLMTBerkeley
p4071
aVulrikatimofeev4
p4072
aVCHNGBuffalo
p4073
aVSeriumGirl
p4074
aVdistorzion
p4075
aVgaidarshashkov4
p4076
aVelvidaovchinni4
p4077
aVjuravlevavasi15
p4078
aVpatrikiyashilo1
p4079
aVsamoilonovikov3
p4080
aVelliiponomarev2
p4081
aVEremeyIvanov
p4082
aVnadamuraveva1
p4083
aVelimterentev192
p4084
aVmishinmaryan191
p4085
aVpolyakovmokii83
p4086
aVdaniellaanisim2
p4087
aVKarissaDevine
p4088
aVdizukejyqot
p4089
aVhosojevokaxa
p4090
aVanikeirodionov3
p4091
aVfrolovavaczlav1
p4092
aVCLMTDesMoines
p4093
aVkathrynmack1995
p4094
aVKazakovPatrikey
p4095
aVgaqanolerore
p4096
aVgorbachevagei13
p4097
aVandreymzduf
p4098
aVmaislavaksenov3
p4099
aVromadiifedorov6
p4100
aVUlrikWiid
p4101
aVBogdanovElmar
p4102
aVMaryLoveUS4
p4103
aVnikolaevanimfo2
p4104
aVaveryankazakov3
p4105
aVklavdiyaselezn6
p4106
aVevtihiyadeniso2
p4107
aVrevekkayakovle4
p4108
aVbeata_timofeeva
p4109
aVgorbachevangii6
p4110
aVEliseevaYustina
p4111
aVcvetkovmanfred
p4112
aVwahl_erinn
p4113
aVkirikfadeev3
p4114
aVanita_soboleva
p4115
aVkristof_bykov
p4116
aVdenisgvsrma
p4117
aVizoldamerkush10
p4118
aVMuravyovaLeolla
p4119
aVefimovvindei1
p4120
aVshizukobudiong3
p4121
aVmrsb00b
p4122
aVtretyakovliber1
p4123
aVbulat_orlov
p4124
aVCHNGPhilly
p4125
aVantoninalukina2
p4126
aVnujocuqacymi
p4127
aVpiamakoroleva1
p4128
aVteimurnaumov3
p4129
aVsazonovalyudvi3
p4130
aVevfaliyafedose1
p4131
aVgennadiysli0f
p4132
aVgillespiesydne1
p4133
aVkorinnajukova1
p4134
aVsavel_veselov
p4135
aVryabovsvet1985
p4136
aVfinogenshcherb1
p4137
aVmakariyagorshk4
p4138
aVkezaqohe
p4139
aVenej_suxanov
p4140
aVschukinnafan90
p4141
aVdiazbernard81
p4142
aV_sukeshkumar
p4143
aVErofeyOsipov
p4144
aVbelyakovsilan1
p4145
aVTravelFlashNew
p4146
aVIpatiyKabanov
p4147
aVxypohuhokuqo
p4148
aVorlov_danilo
p4149
aVFaritFyodorov
p4150
aVkedabofovoke
p4151
aVevdokiyamihail6
p4152
aVVladelinBobrov
p4153
aVkozlovmechisla1
p4154
aVjdanakotova1988
p4155
aVyakovlevliveri4
p4156
aVsubbotinemmanu2
p4157
aVsimonanikitina3
p4158
aVTengizTikhonov
p4159
aVkolobovfinogen1
p4160
aVLenoraCanzani
p4161
aVCHNGTucson
p4162
aVtopomodetevy
p4163
aVsharonwaller81
p4164
aVtisixikytec
p4165
aVlovihywuzibu
p4166
aVsavinkriskentii
p4167
aVCHNGHouston
p4168
aVgerasimovaanel3
p4169
aVsalmasemenova11
p4170
aVkruna7272938502
p4171
aVsafonovadjoya1
p4172
aVLejdaTeterina
p4173
aValondraparrao
p4174
aVemmababcock1992
p4175
aVRalabateBelen
p4176
aVsuwyfewuhiv
p4177
aVdoroninninel192
p4178
aViesseiaksenov85
p4179
aVkozmashubin1987
p4180
aVFilaretGorshkov
p4181
aVperiodicaI
p4182
aVrusakovamarian5
p4183
aVrybakovfoka97
p4184
aVjerryleewoodro1
p4185
aVfedorae07kh
p4186
aVeduardfilippo16
p4187
aVtosyjezanoti
p4188
aVartemonantonov1
p4189
aVlavrentevaminn2
p4190
aVmezexeguneb
p4191
aVpatriciyabolsh2
p4192
aVtrofimovosenii1
p4193
aVCLMTSanMateo
p4194
aVstepanovadarin3
p4195
aVCHNGOttawa
p4196
aVeneiilin1985
p4197
aVefimovizosim3
p4198
aVbeldch
p4199
aVralphreilly1990
p4200
aVfeofila_gureva
p4201
aVbernardlebedev1
p4202
aVdivyabharti_
p4203
aVdiomidmuravev85
p4204
aVsyhujovobyw
p4205
aVsobolevnaum88
p4206
aVLazarevaMadlena
p4207
aVmalydulidyx
p4208
aVmedvedevaleida5
p4209
aVjohyxocuvupy
p4210
aVmiraldavishnya3
p4211
aVdavydov_yanuar
p4212
aVshubinfaddei89
p4213
aVKopylovPalladiy
p4214
aVlobanovronald1
p4215
aVFlorianOdinczov
p4216
aViustinkalashni5
p4217
aVevseevkandid94
p4218
aVvilbolshakov1
p4219
aVlaimasharova91
p4220
aVmannara13
p4221
aVbrookebosworth2
p4222
aVFomichyovRafail
p4223
aVmb8kostin
p4224
aVignatiivorobev9
p4225
aVMilonaPestova
p4226
aVLeokadiyaMuxina
p4227
aVsofiawanderl
p4228
aVsisoiavdeev2
p4229
aVjuravlevsigizm4
p4230
aVCHNGFortWorth
p4231
aVelvidabelozero8
p4232
aVGoracijGushhin
p4233
aVNailyaLebedeva
p4234
aVzoryalarionova1
p4235
aVFilatovVassian
p4236
aVpopova_lolita
p4237
aVtamekia_a
p4238
aVbelyaevagaiya81
p4239
aVtomasiyaxarito1
p4240
aVazellaseleznev7
p4241
aVzaicevisai1989
p4242
aVCLMTBuffalo
p4243
aVbelousov_natan
p4244
aVziqawicecen
p4245
aVpatrikeyvinogr2
p4246
aVkazakovnikolai1
p4247
aVCHNGOKC
p4248
aVvoronczovsashu2
p4249
aVavksentijfyodo1
p4250
aVsuvorovaalla191
p4251
aVfilippovsevery4
p4252
aVabramovmineon14
p4253
aVryfenomunyd
p4254
aVgyuzelfrolova1
p4255
aVaprelzaicev81
p4256
aVdyachkovazulfi5
p4257
aVignatovermak89
p4258
aVMuxinAlvian
p4259
aVkyzizifaxec
p4260
aVsamsonovporfir3
p4261
aVtil_aksyonov
p4262
aVkrasiln00656790
p4263
aVCLMTTulsa
p4264
aVpisysocozyr
p4265
aVLapinYurochka
p4266
aVvishnyakovlena1
p4267
aVboeslav_kotov
p4268
aVmainabogdanova2
p4269
aVCLMTOKC
p4270
aVgorbunovatamil5
p4271
aVnikiforov_urvan
p4272
aVmelitasysoeva12
p4273
aVUserGlobal
p4274
aVnikonoverazm4
p4275
aVshilovalirina2
p4276
aVkonstan49838388
p4277
aVValyaMolchanov
p4278
aV24BreakingNews
p4279
aVgorshkov_roland
p4280
aVBonitaKornilova
p4281
aVhyconurolul
p4282
aVerislavlixachy2
p4283
aVkiselevruvim83
p4284
aVsemenovarhip94
p4285
aVrostellavishny5
p4286
aVblankenshipmon4
p4287
aVjaydenherman95
p4288
aVGelijFyodorov
p4289
aVyudinafanasii1
p4290
aVEfimOvchinnikov
p4291
aVsamsonovleon192
p4292
aVfredlihachev192
p4293
aVsimonovanimfod5
p4294
aViuvenaliishubin
p4295
aVCLMTDenver
p4296
aVreginagorbunov2
p4297
aVyanuariyabeloz7
p4298
aVgeorgiefox4991
p4299
aVmelnikovazorya1
p4300
aVMatveevMakariy
p4301
aVblinovravil83
p4302
aVagafyafokina83
p4303
aVbobyleva_emma
p4304
aVangelabelozero4
p4305
aVNikitinaFeofila
p4306
aVCNCConGongora
p4307
aVvilgelmguschin5
p4308
aVFinogenSolovyov
p4309
aVBramNinja
p4310
aVavgustfedoseev5
p4311
aVvikulyaproxoro1
p4312
aVgusevaraimonda2
p4313
aVisej_kiselyov
p4314
aVCLMTBaltimore
p4315
aVhaxecewacuf
p4316
aVkomarovamanuel3
p4317
aVSubhuNews
p4318
aVfaustshiryaev11
p4319
aVShilovaVasilina
p4320
aVKomarovMaresij
p4321
aVdyercelia90
p4322
aVThe_Blacky01
p4323
aViliisimonov1
p4324
aVpatanjalirishi2
p4325
aVVassianTurov
p4326
aVviktor3dvp
p4327
aVrafael_gorbunov
p4328
aVRizzottoLela
p4329
aVAndreevaSlava
p4330
aVksanfiygerasim1
p4331
aVCuperAlfredt
p4332
aVzajcev_silvan
p4333
aVisaiyacvetkov11
p4334
aVBelozerovUrvan
p4335
aVvladelinlobanov
p4336
aVTofbalzy1
p4337
aVekaterinajukov4
p4338
aVmanager_politic
p4339
aVvenediktatikho1
p4340
aVAndreasRosaura
p4341
aVrobertg06750374
p4342
aVmzuiziapodmraz
p4343
aVFabianSeleznyov
p4344
aVCHNGNaples
p4345
aVfriderikasamoj1
p4346
aVershovksanf2
p4347
aVcisnerosbenjam1
p4348
aVwiqazafatyvo
p4349
aVsykesmalcolm2
p4350
aVteterin_vilgelm
p4351
aVBiliameen911
p4352
aVguseva_silviya
p4353
aVjefferycabrera4
p4354
aVsisoifilippov1
p4355
aVEnzaColmenarez
p4356
aVbiryukovvakhta2
p4357
aVZaytsevArseniy
p4358
aVmiloneg_semenov
p4359
aVjegywahodana
p4360
aVBobylyovAllan
p4361
aVaksenoviraklii5
p4362
aVdoburifajeta
p4363
aViudifnovikova2
p4364
aVBurovEvtikhiy
p4365
aVdiogenbobylev1
p4366
aVCHNGAustin
p4367
aVVojtisek561
p4368
aVlihachevelim87
p4369
aVgurevignatii192
p4370
aVyaropolkefremo2
p4371
aViollamorozova11
p4372
aVrybakovfred1
p4373
aVmujepyvifawe
p4374
aVAvdeyGorbunov
p4375
aVustinova_nora
p4376
aVkiselevazarii91
p4377
aVFrolPonomaryov
p4378
aVwilodasahih
p4379
aVxarusuzeqyd
p4380
aVodinczov_lipat
p4381
aVterentevakalli4
p4382
aVevlampiihohlov3
p4383
aVtimofeevfeofan2
p4384
aVdanilomamontov
p4385
aVglafirakonstan3
p4386
aVBonifatiyNosov
p4387
aVyadavrajnish761
p4388
aValbertinaturov1
p4389
aVArxipovNifont
p4390
aVmuravyovsilvan1
p4391
aVsilinadonatill2
p4392
aValdona_smirnova
p4393
aVsobolevaizabel2
p4394
aVlibertatitova89
p4395
aVsamoilovaelita4
p4396
aVgurevnal85
p4397
aVRozhkovSabir
p4398
aVCLMTChicago
p4399
aVanastasiiselez2
p4400
aVChristofferAsa
p4401
aVashleysingh1992
p4402
aVErn_sant
p4403
aVgermiinikiforo2
p4404
aVdupyvasogipo
p4405
aVnikonovaerna94
p4406
aVpavelvlsg
p4407
aVshashkovernest3
p4408
aVsanojisla123
p4409
aVkarmyudin3
p4410
aVeinarlarionov1
p4411
aVeuropenewsdepot
p4412
aVsixibigugol
p4413
aVstavrrogov
p4414
aVGermijOdinczov
p4415
aVaviladonald96
p4416
aVfedoseevadamir5
p4417
aVbobylevgavriil3
p4418
aVsavannahmejia15
p4419
aVseleznevleon85
p4420
aVAnnaRobertssd
p4421
aVbelova_vasilina
p4422
aVaksenovarebekk6
p4423
aVgelasuzeleza
p4424
aVCLMTABQ
p4425
aVbelozerovvlasi2
p4426
aVdmitriyl8ko
p4427
aVMolchanovaRaxil
p4428
aVBogdankaNaumova
p4429
aVmuravevsadofii3
p4430
aVegorzak1cm
p4431
aVermaknikiforov5
p4432
aVanzhelaafanase2
p4433
aVmedvedevarii87
p4434
aVtarasovilarion2
p4435
aVsobolevartem891
p4436
aVgektor_smirnov
p4437
aVgorbachevgamle5
p4438
aVkomarovavitali6
p4439
aVleontlihachev86
p4440
aVmeletiiborisov2
p4441
aVSandbergGinger
p4442
aVlove_leeford
p4443
aVFalbinF
p4444
aVCHNGMarinCounty
p4445
aVArkhipovaSuziya
p4446
aVfomina_mariamna
p4447
aVdavidrybakov96
p4448
aVmiraldakoshele1
p4449
aVksanfippaknyaz8
p4450
aVCLMTCharlotte
p4451
aVanatoliyaaegor
p4452
aVEvstafijPaxomov
p4453
aVTeodoraDanilova
p4454
aVcolingalloway83
p4455
aVCarolineWalkerB
p4456
aVsamueldyer1992
p4457
aVprokofiiemelya3
p4458
aVqirojiqubifo
p4459
aVlovegroup13
p4460
aVsmirnovfalalei2
p4461
aVkosujacadexu
p4462
aVvonifatiifomic4
p4463
aVravilycejip
p4464
aVgavrilovgarii82
p4465
aVkazimirakomaro5
p4466
aVMarkGorbachyov
p4467
aVtimofeevaagata4
p4468
aVselezneviskand2
p4469
aVflynnjose1983
p4470
aVyuzefanaumova2
p4471
aVvasilisakuliko5
p4472
aVladarojkova1987
p4473
aVtimothyphelps11
p4474
aVburkeclaire1990
p4475
aVLixachyovaDana
p4476
aVBelozerovaLaura
p4477
aVaspacher_hanh
p4478
aVelliigordeev94
p4479
aVmerkushevsemen
p4480
aVDNoticie
p4481
aViliishestakov98
p4482
aVstratilatpavlo1
p4483
aVpahomovvilgelm2
p4484
aVavgustinkamoro1
p4485
aVlobanovamironi5
p4486
aVKazakovTroadiy
p4487
aVguschinmaks841
p4488
aVstepanova_sarra
p4489
aVpopovartem911
p4490
aVborisovmilii
p4491
aVfedorpanfilov88
p4492
aVmaiyapanova1997
p4493
aVgizellaseliver3
p4494
aVkudryashovvlad7
p4495
aVafinamuraveva12
p4496
aVelvidabelyaeva1
p4497
aVFilipkaRybakov
p4498
aVepifaniinaumov5
p4499
aVFlorVorobyov
p4500
aVsemenovaagafon2
p4501
aVkazakov_afrikan
p4502
aVgalataisakova83
p4503
aV_onlyfunnytweet
p4504
aVdyermargaret96
p4505
aVponcesamuel3
p4506
aVCHNGDenver
p4507
aVMirianMukhin
p4508
aVsamoilovfrank97
p4509
aVevtihiyalogino2
p4510
aVkalashnikovlen4
p4511
aVtatiibespalov93
p4512
aVxorugiwodax
p4513
aVAgapiyMartynov
p4514
aVkabanovanada193
p4515
aVgoffman_jeffrey
p4516
aVnektariisazono3
p4517
aVangiiagafonov81
p4518
aVCHNGTulsa
p4519
aVKotovTverdislav
p4520
aVCHNGSacramento
p4521
aVgorbunovmerkur2
p4522
aVOnufrijKiselyov
p4523
aVevstafiyovchin1
p4524
aVrichard21456001
p4525
aVpahomovlivanii
p4526
aVizot_kirillov
p4527
aVabramovafinoge3
p4528
aV_sandy_girls
p4529
aVrajsonu0096
p4530
aVarmstrongsamue3
p4531
aVbolshakovaalek3
p4532
aVSavvaKiselev
p4533
aVBelaMakarova
p4534
aVenejmuravyov1
p4535
aVborisovmanuil2
p4536
aVtsvetkovamiros1
p4537
aVkotovagenriett2
p4538
aViustingorbach10
p4539
aVkirillsolovev83
p4540
aVinda_ryabova
p4541
aVvoinkulagin1989
p4542
aVdengerrobet
p4543
aVRiveroTadeo1
p4544
aVmerkurij_gusev
p4545
aViskra_larionova
p4546
aVSobolevIlim
p4547
aVKimaBobrova
p4548
aVtrofimovadolor4
p4549
aVDrozdovSuren
p4550
aVavdiisuvorov1
p4551
aVSilinAnikiy
p4552
aVAgafonovAlfej
p4553
aVkrasilnikovran2
p4554
aVyudin_vilorg
p4555
aVkostina_manana
p4556
aVipatiyagorbach7
p4557
aVRayWarnerShow
p4558
aVmrs_lovelysingh
p4559
aVseveryan_gurev
p4560
aVdrozdovadiamar6
p4561
aVanika_blinov
p4562
aVefimovamira2
p4563
aVcrossfdross4
p4564
aVkepulavisov
p4565
aVleidaefimova192
p4566
aVbonita_rogova
p4567
aVkeniabaez7
p4568
aVmaksim1cu1nosk1
p4569
aVgorshkovronald6
p4570
aVioannakudryavc5
p4571
aVporantext
p4572
aVzigfridazaicev4
p4573
aVsavinagei91
p4574
aVzykovalbin
p4575
aVBykovEsper
p4576
aVprokofij_xoxlov
p4577
aVagnessa_krylova
p4578
aVfilippovamarke7
p4579
aVluciedefaux523
p4580
aVmartynovkriske5
p4581
aVdanilkonovalov7
p4582
aVTEEITHIGH
p4583
aVapreliilihache2
p4584
aVadellelalane
p4585
aVnelsonyakovlev2
p4586
aVbelozer61616608
p4587
aVcnni_headlines
p4588
aVgalkinaregina1
p4589
aVcajibyqanyna
p4590
aVKotovKirik
p4591
aVFyodorovaXilya
p4592
aVDorofeevFedya
p4593
aVAvdeevGordey
p4594
aViuliiisaev83
p4595
aVyakovlevmeliton
p4596
aVjomagyjazec
p4597
aVkonovalovaflo16
p4598
aVevseevaleksand4
p4599
aVseleznev_donat
p4600
aVgorbachevverg14
p4601
aVEmy4Trump
p4602
aVRajhavRajiv
p4603
aVxyqomawufavy
p4604
aVvinogradovdona4
p4605
aVDorofeevSadofij
p4606
aVikargalkin1982
p4607
aVxafonehecuf
p4608
aVjusting97901544
p4609
aVraimondazykova3
p4610
aVletap1211
p4611
aVryabovdosifei1
p4612
aVlel_ermakov
p4613
aVDiamaraSavina
p4614
aVaglaidakozlova
p4615
aVvitoldazykova1
p4616
aVLidia_Fran
p4617
aVmihalinavinogr3
p4618
aVborisov_ieronim
p4619
aVfedorzykov87
p4620
aVanastasiinazar4
p4621
aVkyzabyhalipo
p4622
aVNarcissEfremov
p4623
aVsazalivalaf
p4624
aVmatrenasorokin4
p4625
aVavaguzman17
p4626
aVfeliksfedorov
p4627
aVboristitov001
p4628
aVgordeevafeonil7
p4629
aVIlinTeymur
p4630
aVkytytahusoxo
p4631
aVsalisburryhann1
p4632
aVtattalazareva1
p4633
aVbespalov_demyan
p4634
aVVitalikDementev
p4635
aVAvelKiselyov
p4636
aVvorobevaagata11
p4637
aVCHNGSantaFe
p4638
aVwisswhales
p4639
aVnorarangel88
p4640
aVMyungHandley
p4641
aVnarimanshilov11
p4642
aVneonilaosipova3
p4643
aVsmiling_ly
p4644
aVlolliilukin97
p4645
aVKozlovaGyuzel
p4646
aVkoladmdj
p4647
aVsexilyduryx
p4648
aVseliverstovva19
p4649
aVfedorkovalev194
p4650
aVkekacarekup
p4651
aVvalmirbelozyor3
p4652
aVBlinovAvgust
p4653
aVjhonsinababa
p4654
aVevgeniigurev89
p4655
aVqipamyxosifi
p4656
aVkozlovgarold191
p4657
aVzajumuzumag
p4658
aVryurikshcherba2
p4659
aVraichkabelova1
p4660
aVdaryakalashnik6
p4661
aVolegae9egorov
p4662
aVCHNGKnoxville
p4663
aVTeressaBartel
p4664
aVsobolevaalena12
p4665
aVmolchanovaavgu5
p4666
aVNikitinaEdita
p4667
aVCHNGNYC
p4668
aVfedorpetrovoxgp
p4669
aVarsentiyselive1
p4670
aVaksenovaruf1981
p4671
aVfedorovmechisl6
p4672
aVsaj_jackson
p4673
aVpoint_angle
p4674
aVarsensidorov191
p4675
aVabramovaevfros1
p4676
aVmodestabiryuko4
p4677
aVmanilsilin95
p4678
aVmarkova_agafiya
p4679
aVedgarkiselev861
p4680
aVmorganh40547080
p4681
aViakinf_pestov
p4682
aVcytyfafekeha
p4683
aViulianturov2
p4684
aVaventinagushch1
p4685
aVadelinadyachko1
p4686
aVsidorovarozoch4
p4687
aVkiselevadalila4
p4688
aVdrozdovadalina1
p4689
aVmakar_konovalov
p4690
aVValeriyZykov
p4691
aVguschinefim97
p4692
aVmuravevalukian4
p4693
aVfedotova_lila
p4694
aVBelousovIeronim
p4695
aVannochkateteri1
p4696
aVkings_ne
p4697
aVporantexts
p4698
aVsusannasobolev4
p4699
aVvladislavkabdc
p4700
aVuvarovizmail
p4701
aVxaxopimypuky
p4702
aVefrosiniyakise2
p4703
aVmiriannikolaev
p4704
aVkornilmedvedev2
p4705
aVborisovarosita4
p4706
aVignatevibragim2
p4707
aVporantext_
p4708
aVsosannamartyno3
p4709
aVselenafedoseev3
p4710
aVAvramiyEliseev
p4711
aVvaleryankonsta4
p4712
aVsafonovzorii81
p4713
aVlevinecurtis98
p4714
aVsavina_agniya
p4715
aVangeliarshubin1
p4716
aVKeviin_Manqame
p4717
aVTheTrump_Party
p4718
aVgabriellapin3
p4719
aVeliseevapetron4
p4720
aVsmirnovpantele3
p4721
aVevgeniytjr8x
p4722
aVCLMTPhoenix
p4723
aVkarmlytkin1985
p4724
aVCLMTPortland
p4725
aVLukinAfanasij
p4726
aVmuza_lukina
p4727
aVgorshkov_klim
p4728
aVangelyaryakush3
p4729
aVgenriettamixee3
p4730
aVtufatigifob
p4731
aVkuzminsamson2
p4732
aVshashkovavera85
p4733
aVsalisburrysara3
p4734
aVkuzminfilon2
p4735
aVTrump_Commander
p4736
aVOdetteBenigni
p4737
aVgureva_dorofeya
p4738
aVsanojkr_
p4739
aVlenara_lukina
p4740
aVsemenovfoka1994
p4741
aVamitkumar86511
p4742
aVfrank_sysoev
p4743
aVCLMTTwinCities
p4744
aVcoluruxilexe
p4745
aVmihailoorlov85
p4746
aVepifan_zuev
p4747
aVbonifatiygorsh1
p4748
aVCLMTKCMO
p4749
aVzosimashubin1
p4750
aVagafyazinoveva1
p4751
aVkodociqiseru
p4752
aVdakyfofybace
p4753
aVCHNGTwinCities
p4754
aVteodoramartyno2
p4755
aVCHNGProvidence
p4756
aVavvakumdrozdov5
p4757
aVshubinaital811
p4758
aVCHNGPittsburgh
p4759
aVKelsijTurov
p4760
aVmakarovaanatol2
p4761
aVgulyaevafekla95
p4762
aVvasilisafilipp4
p4763
aVkabanovataina1
p4764
aVSobolevStavr
p4765
aVmihailorojkov1
p4766
aVRitikaSarma1
p4767
aVpetrnoskov1987
p4768
aVlovesecret0401
p4769
aVpimenjuravlev
p4770
aVTrishaTrishtish
p4771
aVCHNGToronto
p4772
aVtelminatrofimo1
p4773
aVdimitriannosko3
p4774
aVCHNGAnnArbor
p4775
aVzaharovamarian6
p4776
aVEgorovErislav
p4777
aVkorolevantonii
p4778
aVmerkushevamanu5
p4779
aVnikolaevaaskan3
p4780
aVaron_gavrilov
p4781
aVXaritonovMarat
p4782
aVvoronov_izmail
p4783
aVCHNGPortsmouth
p4784
aVseleznevaleona5
p4785
aVGarijEfimov
p4786
aVwallseleanor191
p4787
aVMamontovaAlya
p4788
aVfrolovakapitol4
p4789
aVanekt_muravev
p4790
aVstnaumov6x
p4791
aVkupriyanmuhin11
p4792
aVlelkudryavcev
p4793
aVsayana_shubina
p4794
aVvyjuzomypag
p4795
aVMunnaKumarMk3
p4796
aVpulxeriyarozhk1
p4797
aVbasanabonud
p4798
aVfomichevaeveli5
p4799
aVgorshkov_tejmur
p4800
aVKsenyaIsakova
p4801
aVlauritaryabova
p4802
aVvoroncovvilor12
p4803
aVSamsonovFabian
p4804
aVVolmirRomanov
p4805
aVgorazdsimonov1
p4806
aVaristidvlasov86
p4807
aVimma_samojlova
p4808
aVargenteyaanton1
p4809
aVwugogunefaro
p4810
aVlukreciyakoshe4
p4811
aVDpoliticmanager
p4812
aVkolobovaaida2
p4813
aVleilabolshakov6
p4814
aVNaumPavlov
p4815
aVEmilianoAragon3
p4816
aVmounten_1
p4817
aVbobylevazinona5
p4818
aVfridalukina1993
p4819
aVCHNGCharliewest
p4820
aVTigriyDorofeev
p4821
aVevgeshaaksyono1
p4822
aVucsg_tv
p4823
aVUrvanBobylyov
p4824
aVgulyaevaagripp8
p4825
aVpestovaemiliya3
p4826
aVFannCaryl
p4827
aVyiirofresh__RD
p4828
aVrenat_merkushev
p4829
aVkallinikanikol2
p4830
aVevfrosiniyakis4
p4831
aVtrofimovrafael3
p4832
aVShilovVolodya
p4833
aVflora_lazareva
p4834
aVulrikafokina1
p4835
aVabiya_xoxlova
p4836
aVsevilponomarev2
p4837
aVgorshkoviuvena2
p4838
aVgasuqaqosiqu
p4839
aVvladimiraroman2
p4840
aVAndronikDavydov
p4841
aVDid13r_
p4842
aVMeropaOsipova
p4843
aVkornilbelozero1
p4844
aVLalondeJulienne
p4845
aValokkumar950405
p4846
aVedvardamyasnik1
p4847
aVfykukywajiw
p4848
aVyuliankakonono1
p4849
aVCHNGKansasCity
p4850
aVbogdanovagayan9
p4851
aVmedvedevprohor1
p4852
aVamyjacton55
p4853
aVTrumpIsTheTrue
p4854
aVfurssamsonov192
p4855
aVkonovalovateod4
p4856
aVbraginterentii3
p4857
aVgilesjack3
p4858
aVloraloginova192
p4859
aVziminmanuilo86
p4860
aVdenisov_sadok
p4861
aVnuremijijejy
p4862
aVNelsonYFM
p4863
aVnikiforovaapol5
p4864
aVmstislavnazaro2
p4865
aVAriaWilsonGOP
p4866
aVavangardpetrov5
p4867
aVershova_kima
p4868
aVFortunatOrexov
p4869
aVdanafedorova192
p4870
aVmedinarebecca3
p4871
aVduartemiguel192
p4872
aVCLMTHouston
p4873
aVkostina_vitulya
p4874
aVflorentinakali5
p4875
aVagafonov_manuil
p4876
aVantiporehov88
p4877
aVkorolyovamelan1
p4878
aVruslankostinfy
p4879
aVSakeenat4sur
p4880
aVCHNGMilwaukee
p4881
aVraimondjdanov87
p4882
aVshcherbakovase2
p4883
aVbelyakovakinf2
p4884
aVisakiifilippov3
p4885
aVKolobovSemyon
p4886
aVOnofredoBrena
p4887
aVabramovasofya90
p4888
aVzigfrida_orlova
p4889
aVsuhanovaella1
p4890
aVtipohibasek
p4891
aVDailyNewUSA
p4892
aVjustfallin_love
p4893
aVsubbotingorgii2
p4894
aVkonkordiikorol1
p4895
aVSamojlovGenij
p4896
aVFedotovKasyan
p4897
aVvaczlav_popov
p4898
aVEgorijSeleznyov
p4899
aVPoliticcssTop
p4900
aVnikitinaegina1
p4901
aVtarasovaasta191
p4902
aVvasillabelyako5
p4903
aVTigranZaytsev
p4904
aVromulzaicev2
p4905
aVloengrinsokolo1
p4906
aVdobrmihailov94
p4907
aVhallcole5
p4908
aVsmirnovvilii191
p4909
aValeksandrovtig3
p4910
aVmullinserin90
p4911
aVFrolovaInulya
p4912
aVsamsonovasolom6
p4913
aVvilgelmaleksee4
p4914
aVhukezucolivu
p4915
aVTrojanGeorgiann
p4916
aVfominkonrad2
p4917
aVkion_muravyov
p4918
aVMuravyovaFeona
p4919
aVfedorovkiriak13
p4920
aVandreyvceief
p4921
aVnurimanpanfilo2
p4922
aVMarijSokolov
p4923
aVGusevaEvnikiya
p4924
aVmolchanovafoti7
p4925
aVegorpanovl3e
p4926
aVdonatellakulik1
p4927
aVzafiralopepo
p4928
aViulittaafanase7
p4929
aVmixajlova_mlada
p4930
aVnimfodoragusev3
p4931
aVpeterre88740728
p4932
aVSysoevAfanasij
p4933
aVtam1i
p4934
aVAgniyaMaksimova
p4935
aVzhuravlyovsams2
p4936
aVavvakumkovalev3
p4937
aVCLMTSacramento
p4938
aVeginakazakova2
p4939
aVIvanovAntonin
p4940
aVrobertsashton81
p4941
aVzelomypygeq
p4942
aVmasivethoughts
p4943
aVvorobevioil
p4944
aVrinatovchinnik2
p4945
aVevmeniifedorov3
p4946
aVgorbachevamat16
p4947
aVCLMTBoston
p4948
aVarhipovgavriil4
p4949
aValekseevamlada
p4950
aVmartynovavaler4
p4951
aVkolesnikovamik1
p4952
aVmakarovavasill3
p4953
aVaksenovazara84
p4954
aVfedoseevkarl191
p4955
aVbolshakovasofi3
p4956
aVaviyagureva83
p4957
aVfelikslukin1990
p4958
aVlapinafeofaniy7
p4959
aVleviiisaev94
p4960
aVmilonaguschina1
p4961
aVtrofimovastani5
p4962
aVbelozerovevgen6
p4963
aVShilovaKima
p4964
aVViliorSazonov
p4965
aVStepanovMaeslav
p4966
aVgizobygupaq
p4967
aVyudinvil
p4968
aVMarsBlokhin
p4969
aVvishnyakovstra9
p4970
aViannuariyalapi6
p4971
aVromualdschukin4
p4972
aVariidyachkov191
p4973
aVizotkrylov2
p4974
aVseleznevaligiy7
p4975
aVAlanFerd
p4976
aVCHNGAtlanta
p4977
aVkharitonkondra1
p4978
aVnikanorzaicev89
p4979
aVfrancisalise2
p4980
aVkornilovanaily2
p4981
aVeliseeva_elmira
p4982
aVokeanisaev1992
p4983
aVmarkeimartynov
p4984
aVanastasiynazar1
p4985
aVleontiiisaev2
p4986
aVmyasnikovaalyo2
p4987
aVprabhat20682140
p4988
aVvlasovaelina3
p4989
aVKorolyovaZina
p4990
aVOscarPalmaMtro
p4991
aVIonaShchukin
p4992
aVMorozovaSayana
p4993
aVivettamuhina191
p4994
aVgolubevaestell2
p4995
aVdoylerodrigo94
p4996
aVabramova_muza
p4997
aVknyazevraimond3
p4998
aVPriamaShubina
p4999
aVgustavlihachev4
p5000
aVThe_Trump_Fans
p5001
aVfedoseevacveta2
p5002
aVkondratevaanno1
p5003
aVfedorovaggei192
p5004
aVleonidvint6t
p5005
aVvsemilgorbachev
p5006
aVfeoktistkondra7
p5007
aVbelozerovadalv1
p5008
aVpetuhovpetr1994
p5009
aVsuwipiximum
p5010
aVgabriel38470261
p5011
aVlukasafonov84
p5012
aVdonatillaknyaz2
p5013
aVmykaljackson42
p5014
aVorlovmokei90
p5015
aVCelindaAldo
p5016
aVfeodosiikorole4
p5017
aVCLMTDetroit
p5018
aVborimirkudryas2
p5019
aVilmirapetuhova3
p5020
aVjounson_
p5021
aVfredschneider81
p5022
aVbiryukovasever2
p5023
aVmuravevalgis89
p5024
aVdiptistweet
p5025
aVgerasimovaflo13
p5026
aVpanfilova_fekla
p5027
aVmonikahotte
p5028
aVIustinXoxlov
p5029
aVsuvirelimohy
p5030
aVramipuhemegi
p5031
aVFomichyovRevmir
p5032
aVsamsonovaevfim7
p5033
aVlihachevnafan90
p5034
aVzaicevromadii13
p5035
aVzaharovfadei95
p5036
aVsergeevaelektr3
p5037
aVToiLenz
p5038
aVfokagorshkov191
p5039
aVvilorayakovlev4
p5040
aVCLMTJax
p5041
aVkoshelevvadim3
p5042
aVgenrihpanfilov5
p5043
aVfidavihopof
p5044
aV2016_vorobeva
p5045
aVNewsNeedNow
p5046
aVdabufiquzuk
p5047
aVrynekovusice
p5048
aVfilippmoiseev87
p5049
aVfirssamoilov192
p5050
aVsazonovadjoya
p5051
aVbolshakoveinar1
p5052
aVLeanDriiTo_Swaq
p5053
aVkolobovkelsii11
p5054
aVGrishinaEneida
p5055
aVsimonovaaviett1
p5056
aVIyuliyaUvarova
p5057
aVtrofimakotova
p5058
aVLytkinaViliya
p5059
aVagafonovvilorg3
p5060
aVfotiianisimov84
p5061
aVCHNGCalgary
p5062
aVrybakovasavvat6
p5063
aVyudin_ioasaf
p5064
aVlover_park123
p5065
aVwilliam36945299
p5066
aVefremovromil1
p5067
aVknyazev_feofan
p5068
aVedwardrowe1995
p5069
aVlamonicaradaba3
p5070
aVevfimiyabiryuk9
p5071
aVfokin_iona
p5072
aVmihailovputimi2
p5073
aVmeyersmelissa12
p5074
aVkoshelevaavdot3
p5075
aVshestakovaseli3
p5076
aVpyotrdrozdov1
p5077
aVfomichevaram2
p5078
aVSysoevaEvridika
p5079
aVnoyabrinalazar1
p5080
aVnadejdaterente4
p5081
aVMorisGavrilov
p5082
aVtsvetkovaronal1
p5083
aVkalinin_lermont
p5084
aVmihailbaranov13
p5085
aVFyodorovVlasij
p5086
aVfeklaisaeva85
p5087
aVsergeev_varlam
p5088
aVanitadavydova95
p5089
aVjust_lovforever
p5090
aVvalnoskovaf3
p5091
aVTitovIrakliy
p5092
aVevdokimovamanu3
p5093
aVjairoluis829
p5094
aVErmiyLobanov
p5095
aVKamilKuznetsov
p5096
aVisaev_martyan
p5097
aVZevinMuravyov
p5098
aVMilanIsakov
p5099
aVmihailovavoisl6
p5100
aVfelitsiyamatve3
p5101
aVafinogengorbac4
p5102
aVjofalexuxyk
p5103
aVnikitina_biata
p5104
aVbraginagyuzel98
p5105
aVgeorgiananarte1
p5106
aVvorobevadorofe8
p5107
aVstrelkovargeni3
p5108
aVsabirschukin97
p5109
aVjustintimeOO
p5110
aVLays16708974
p5111
aVanikiisemenov11
p5112
aVkabanovgarold
p5113
aVsydujajetubo
p5114
aVRightnewsNews
p5115
aVpyotrbflo
p5116
aVlyucianakonsta5
p5117
aVioannshilov2
p5118
aVemiliankrasiln7
p5119
aVLuke8Walker
p5120
aVCLMTPittsburgh
p5121
aVzoriifomichev12
p5122
aVlytykivydunu
p5123
aVamberka68821926
p5124
aVfedorovermak1
p5125
aVlihachevpallad6
p5126
aVGulyaevOlimpiy
p5127
aVignateva_vlada
p5128
aVdianaramacey191
p5129
aVCLMTDallas
p5130
aVhui_banks
p5131
aVzykovlel87
p5132
aVGushhinaAlfiya
p5133
aVjervezafedorov1
p5134
aVLeandriitO_Rap
p5135
aVThe_Last_NewsPa
p5136
aVkornilovapavli1
p5137
aVJustinbaba5
p5138
aVantonovadasiya2
p5139
aVefremova_piama
p5140
aVnikiforovesip93
p5141
aVCHNGSanAntonio
p5142
aVmihixineceq
p5143
aVtyxymabubed
p5144
aVkudryashovaali9
p5145
aVseverinvladimi2
p5146
aVCLMTTampa
p5147
aVEylinHurt
p5148
aVvorobevandroni6
p5149
aVnogobipidix
p5150
aVsoamazingthing
p5151
aVzinovevvenedik4
p5152
aVEvtropiyLobanov
p5153
aVtegepujewado
p5154
aVpezysuxuceje
p5155
aVLenechkaRusakov
p5156
aVIgnatijShashkov
p5157
aVdmitriygpmpo
p5158
aVAlexitoh_X3
p5159
aVkorneliyaryabo6
p5160
aVgordonli1990
p5161
aValfa_artemeva
p5162
aVschukinahristi6
p5163
aVFunneyTwitz
p5164
aVloengrinpetrov2
p5165
aVdimas5rci
p5166
aVkuzminermei1
p5167
aVNosovVladlen
p5168
aVorlovafavsta91
p5169
aVkirillzykovwjb
p5170
aVponomarevdion90
p5171
aVProkhorovGaian
p5172
aVMutantLovellaro
p5173
aVfedorovavelmira
p5174
aVCHNGBaltimore
p5175
aVsemenovamatren3
p5176
aVkonradkiselev
p5177
aVBrendagrandt173
p5178
aVElSandi13
p5179
aVkristianabobyl6
p5180
aVborisovzigmund
p5181
aVgolubevaveseli3
p5182
aVCLMTColumbus
p5183
aVlariska_mixeeva
p5184
aVkirillovfaddei2
p5185
aVpolyakoviustin5
p5186
aVkulikovalilian7
p5187
aVsoutalain
p5188
aVsolovevamagda88
p5189
aVOdintsovRusya
p5190
aVboqobupubah
p5191
aVjuravlevlyukse1
p5192
aVWorldnewsPoli
p5193
aVavramijgorbach2
p5194
aVvelislavschuki4
p5195
aVschukinabela82
p5196
aVsmirnovagennad2
p5197
aVsamoilovaagafo7
p5198
aVsolovevratmir95
p5199
aValeksandrsolxo1
p5200
aVcarynhall15051
p5201
aVCLMTNashville
p5202
aVjazahomugaj
p5203
aVcommon_whales
p5204
aVknyazevadam1991
p5205
aVfelicatakopylo1
p5206
aVellarangel1985
p5207
aVNadyaShiryaeva
p5208
aVCTMCONCHANITO
p5209
aVagnesa_kuzmina
p5210
aVevseevnaum1
p5211
aVZuevaIvetta
p5212
aVShar0n_F
p5213
aVlihachevaefros2
p5214
aVivanavdeev1983
p5215
aVarxipovtejmur1
p5216
aVsavelevferapon2
p5217
aVlyutsellasemen1
p5218
aVastrelachernov3
p5219
aVafanasevpahom3
p5220
aVartamonpavlov92
p5221
aVnovikovafrider2
p5222
aVCLMTBirmingham
p5223
aVsteve1ellen
p5224
aVfedorsazonov87
p5225
aVstartupjob124
p5226
aVshubinpompei88
p5227
aVjezuwywicegi
p5228
aVrenihypipizy
p5229
aVvufomiquvowe
p5230
aVkulaginataigin8
p5231
aVLoveStephanysco
p5232
aVGelyaSoboleva
p5233
aVphilipdawson16
p5234
aVretymidasuro
p5235
aVlilianamaksimo3
p5236
aVevridikacherno3
p5237
aVCROCCONCHANITO
p5238
aVridyzobyzato
p5239
aVartyomvishnya10
p5240
aVfilatova_yanina
p5241
aVvioletfaber1981
p5242
aVfomichevaelmin6
p5243
aVmananafilatova
p5244
aVBreitbartRSS1
p5245
aVFomichevLolliy
p5246
aVceciliawinter13
p5247
aVshashkovleon1
p5248
aVPopovIlim
p5249
aVfedorovamagnit7
p5250
aVlazarevrashid11
p5251
aVlevkiiefimov2
p5252
aVPetukhovVilgelm
p5253
aVImmaIlina
p5254
aVhansonyvonne3
p5255
aVovchinnikovlev9
p5256
aVvictoriasheldo5
p5257
aVVassianMedvedev
p5258
aVTAXISTASCHANITO
p5259
aVYakushevZinoviy
p5260
aVAvroraOrekhova
p5261
aVgovindkumarbab1
p5262
aVAgapijPanfilov
p5263
aVflorentiijura10
p5264
aVermakovasevast3
p5265
aVGeering752
p5266
aVeduardanoskova2
p5267
aValeksan62168917
p5268
aVfrolovabonita11
p5269
aVgaliievseev96
p5270
aVbesipanupuru
p5271
aVceqojunotot
p5272
aVleidasavina87
p5273
aVonisimorehov
p5274
aVanekt_teterin
p5275
aVKolesnikovVilij
p5276
aVbelozerovalira4
p5277
aVdmitriev_gavril
p5278
aVTverdislavIlin
p5279
aVagafiilihachev6
p5280
aVagafiilihachev5
p5281
aVfadeevalyuchem1
p5282
aVevdokimovaiola2
p5283
aVtretyakovgalak2
p5284
aVLyusenSamoylov
p5285
aVseleznevaagafi7
p5286
aVingeborggorbac2
p5287
aVisakovagaiya191
p5288
aVhohlovterentii
p5289
aVCHNGTampa
p5290
aVpanfilov_emilij
p5291
aVFyodorEmelyanov
p5292
aVlibidedoxire
p5293
aVdementevagalat2
p5294
aVtatiyaselivers6
p5295
aVsamuelaakseno10
p5296
aVzigmundfilippo3
p5297
aVgrigoriiakseno3
p5298
aVnikolaevlermon3
p5299
aVKuznetsovProtas
p5300
aVShilovaDinara
p5301
aVksanfiipetuhov3
p5302
aV_saimathought
p5303
aVsubbotinarober5
p5304
aVgerasimovanemp3
p5305
aVAmyAmyperez722
p5306
aVbaranovamodera4
p5307
aVCHNGNorthShore
p5308
aVjustinsutton94
p5309
aVPetuxovaRebekka
p5310
aVshiryaevporfir3
p5311
aVastra_dorofeeva
p5312
aVgalkinsadof90
p5313
aVdmitriigorbach5
p5314
aVegoragaw6w0
p5315
aVpriacia
p5316
aVSa_lar0
p5317
aVdonamihailova95
p5318
aVsitnikovmihail5
p5319
aVassol_petrova
p5320
aVaksenovamos91
p5321
aVpestov_suren
p5322
aVlyuksenbiryuko3
p5323
aViudifrybakova
p5324
aVustinov_mart
p5325
aVdyachkovgurii86
p5326
aVavenirakalinin2
p5327
aVolavhohlov86
p5328
aVborisovamstisl7
p5329
aVchernovizyasla3
p5330
aVgerasimovadila1
p5331
aVOthaGorlin
p5332
aVrashidaleksand2
p5333
aVCLMTAustin
p5334
aVdavydovarevmira
p5335
aVdarij_zajcev
p5336
aVroaldadmitriev3
p5337
aVsmirnovabakum2
p5338
aVzaicevanekt85
p5339
aVzigmundsamoilo9
p5340
aVcywurytohaqe
p5341
aVsolovevanelida3
p5342
aVtravisr16800491
p5343
aVGelianSitnikov
p5344
aVMartynovaGretta
p5345
aVmaleifedorov195
p5346
aVannetaponomary1
p5347
aVfedorovvladlen4
p5348
aVamvrosijkuznec1
p5349
aVkyqafiqojusy
p5350
aVaitalefimov1983
p5351
aVfaustponomarev6
p5352
aVBeauregardAsher
p5353
aVDenisovaGayya
p5354
aVxewadahogok
p5355
aVsacpros
p5356
aVbyluvopijym
p5357
aVmoiseevsava1
p5358
aVCHNGABQ
p5359
aVceciliyamihail4
p5360
aVBazhenaZinoveva
p5361
aVDorothy68761671
p5362
aVaksen_suvorov
p5363
aVIlinaMilada
p5364
aVGerasimovIuliy
p5365
aVmarkovadii84
p5366
aVarhipovgordei11
p5367
aVkuzminvlas1
p5368
aVstories_daily
p5369
aVratmirorlov1980
p5370
aVilinamilena5
p5371
aVmurat_gulyaev
p5372
aVNewsTodayUSA
p5373
aVGorshkovaLiya
p5374
aVTerentevGelian
p5375
aVManfredSemyonov
p5376
aVkiselevolaf97
p5377
aVAbbyMartinM
p5378
aVjitygulujuj
p5379
aVIgnatevaLilya
p5380
aVkipafuwaxywe
p5381
aVcristinaarrigad
p5382
aVartemiidemente1
p5383
aVkulakovagliker3
p5384
aVnazarovadekabr2
p5385
aVCLMTOakland
p5386
aVFilatovaErika
p5387
aVkarpovasofiya13
p5388
aVdiomidfedorov2
p5389
aVlaurakeith1983
p5390
aVsilvestrmuravy1
p5391
aVxaritonovvadyu1
p5392
aVsofiavi63441164
p5393
aVAndrysJuliian
p5394
aVonedirednose
p5395
aVJosephELokken
p5396
aViustin_sorokin
p5397
aV9brez
p5398
aVfrolovartem1993
p5399
aVCHNGLongIsland
p5400
aVOdinczovRavel
p5401
aVGerDJuz
p5402
aVpubliiermakov95
p5403
aVKotovaEvdokiya
p5404
aVonufriikopylov
p5405
aVvishnyakovandr8
p5406
aVmishinamilona1
p5407
aValeksan36289399
p5408
aVCHNGCincinnati
p5409
aVAndreevaTrofima
p5410
aVkumarkush2001
p5411
aVlavrentiytaras1
p5412
aViessey_shubin
p5413
aVmakaylaspencer7
p5414
aVkovalyov_enej
p5415
aVkarlsmirnov1998
p5416
aVmuhingerman1987
p5417
aVninelsoloveva11
p5418
aVMakarovFevralin
p5419
aVfrolsafonov1986
p5420
aVzulisopuxod
p5421
aVsuhanovaskalon1
p5422
aVershova_kiriya
p5423
aVparrishreginal1
p5424
aVsadoffadeev1
p5425
aVsergeevafeonin4
p5426
aVleonginayakovl3
p5427
aVlejlaponomaryo3
p5428
aVfedorovasara1
p5429
aVjyrovavivyga
p5430
aVesfirshiryaeva2
p5431
aVmaksimfil7i
p5432
aVkomarovbritann1
p5433
aVTatiyTretyakov
p5434
aVCLMTNewJersey
p5435
aVagafonovaglike2
p5436
aV_abdalameen
p5437
aVRomanovaTrofima
p5438
aVlilasuhanova191
p5439
aVfilippovismail4
p5440
aVelhapp
p5441
aVfulomutesoxo
p5442
aVdowmantaylor81
p5443
aVGusevaAneliya
p5444
aVsuhanovgarii91
p5445
aVcolejon16020317
p5446
aVralfkozlov86
p5447
aVCLMTSLC
p5448
aVManuelaUvarova
p5449
aVella_samsonova
p5450
aVcigoninojum
p5451
aVvinsentmiheev11
p5452
aVdenisnk60
p5453
aVilim_ershov
p5454
aVmartynov_otton
p5455
aVtidybuxytir
p5456
aVFedotovMarkey
p5457
aVlaertmiheev
p5458
aVLeydaGerasimova
p5459
aVeduardbfk7
p5460
aVavel_merkushev
p5461
aVlyuksenasharov2
p5462
aVCLMTNYC
p5463
aVmartynoviosif12
p5464
aVspaulding_ronda
p5465
aVsimonov_zigmund
p5466
aVTaniaCantarel1a
p5467
aVrodionovvalery4
p5468
aVKarpovaOnega
p5469
aVgoraciiaksenov7
p5470
aVmamontovflegon2
p5471
aVSumanKu06046771
p5472
aViovillagorbach7
p5473
aVMixajlovFlor
p5474
aVLapinaTsezariya
p5475
aVgaian_terentev
p5476
aVbelousovagvido5
p5477
aVdyachkovagerma4
p5478
aVHaNanzakiR
p5479
aVlauraloginova2
p5480
aVCLMTStLouis
p5481
aVrybakovamagda1
p5482
aVYunnaRybakova
p5483
aVgavrilsilin1983
p5484
aVkrasiln82868108
p5485
aVelizbar_krylov
p5486
aVankumari_rt
p5487
aVGilyariyBurov
p5488
aVevtihiischukin3
p5489
aVviliorvolkov92
p5490
aVdivankerkumar
p5491
aVgorshkovaimma
p5492
aVesip_lazarev
p5493
aVavraamguschin11
p5494
aVgertrudazueva11
p5495
aVfloriyafedorov5
p5496
aVkornilovalilin4
p5497
aVfrolgorbunov191
p5498
aVkalashn81666244
p5499
aVCHNGColumbiaMO
p5500
aValenaegorova97
p5501
aVoktaviyalobano3
p5502
aVsisoikoshelev
p5503
aVsharapovpublii1
p5504
aVzinovevgeodar84
p5505
aVfilippova_paula
p5506
aVlyubochkakhokh1
p5507
aVcardriver23
p5508
aVEvseevEvmenij
p5509
aVRozhkovVakhtang
p5510
aVevfaliyaarkhip2
p5511
aVgolubev_gektor
p5512
aVsarvil_solovev
p5513
aValfredcruz93
p5514
aVtomulyabiryuko1
p5515
aVigorrusakov1989
p5516
aVsmirnovavraam13
p5517
aVdaniar_kovalev
p5518
aVvarobonamati
p5519
aVdenisov_zakhar
p5520
aVTrump_Ameri16
p5521
aVlukiannikiforo3
p5522
aVbeserihoroly
p5523
aVCHNGLouisville
p5524
aVabiyaburova2003
p5525
aVraceginagaf
p5526
aVKorolyovPotap
p5527
aVlihachevaagafi5
p5528
aVNewsRepublicans
p5529
aVmuravevmeletii2
p5530
aVuvarovazhanett1
p5531
aVsimonovprov
p5532
aVfatima_popova
p5533
aVzigfrid_zuev
p5534
aVCLMTHartford
p5535
aVtomilaarhipova
p5536
aVkonstantinmpl
p5537
aVdianasutton90
p5538
aVmtiraaz
p5539
aVbolshakovrevmi3
p5540
aVCLMTAlbany
p5541
aVmatas_tamara
p5542
aVagnessazueva88
p5543
aVquito_osho
p5544
aVCLMTSanAntonio
p5545
aVSilinaXioniya
p5546
aVJudeFreeouf
p5547
aVryabovaoktiana2
p5548
aVkionseleznev193
p5549
aVFomichevaTosya
p5550
aVCHNGNOLA
p5551
aVsnezhanagrishi1
p5552
aVeinarkrasilnik2
p5553
aVCLMTPhilly
p5554
aVSokolovLarg
p5555
aVkrystinsurf
p5556
aVilariyaartemev2
p5557
aValegurevrtsf
p5558
aVkudryashovaiov2
p5559
aVkulaginesper2
p5560
aVgaqexuqyqihu
p5561
aVesiebo_josh
p5562
aVKorolevLarion
p5563
aVkapustin_firs
p5564
aVdmitriyobzku
p5565
aVdmitriivorobev4
p5566
aVfomichevmarkel4
p5567
aVGolubevaAndrona
p5568
aVzymyvukosyti
p5569
aVrogov_vasilko
p5570
aVfeonillafrolov1
p5571
aVfytohucume
p5572
aVsharapov_nal
p5573
aVPanovValyusha
p5574
aVsavetrees3
p5575
aVnatella_egorova
p5576
aVteluxozebogu
p5577
aVsubbotinavksen3
p5578
aVgarriiknyazev11
p5579
aVCLMTLasVegas
p5580
aVvartanmyasniko2
p5581
aVnatelanekrasov4
p5582
aVleopoldzaicev82
p5583
aVaussant_catrina
p5584
aVflavianfomiche4
p5585
aVStuddedSlayback
p5586
aVKilianJulianus
p5587
aVaDroFer
p5588
aVCHNGLittleRock
p5589
aVmarsfedorov96
p5590
aVzlattakotova191
p5591
aVdavidspeicheren
p5592
aVzuevaminodora
p5593
aVrakeqalepaba
p5594
aVCLMTNewHaven
p5595
aVegordoyva
p5596
aVCHNGSavannah
p5597
aVziminlipat83
p5598
aVIlarijOrexov
p5599
aVfomina_kirilla
p5600
aVuvarovmokei
p5601
aVtomasiyakovale2
p5602
aVmarakapustina12
p5603
aVSobolevKirsan
p5604
aVCLMTSanDiego
p5605
aVkiriyamolchan10
p5606
aVzaicevdion1
p5607
aVkorolevmirian91
p5608
aVameliawu91
p5609
aVed_brander
p5610
aVRocketBrandiebr
p5611
aVkukarikiqaha
p5612
aViraida_isaeva
p5613
aVCHNGElPaso
p5614
aVZukhraTikhonova
p5615
aVAnufriyPanfilov
p5616
aVstepanvwvo
p5617
aVelimazaicev1998
p5618
aVavgustinkulako2
p5619
aVignatovaninell2
p5620
aVqykezomehab
p5621
aVCLMTFortWorth
p5622
aVarseniyasubbot3
p5623
aVputislavfomich9
p5624
aVdaniilzaicev83
p5625
aVLikhachevOleg
p5626
aVkleopatragusev5
p5627
aVkulagin_izot
p5628
aVMerryiyanda
p5629
aVilinisaak1984
p5630
aVEvstafiyKopylov
p5631
aVbolshakovaanfi5
p5632
aVgaidargorbuno10
p5633
aVwumekorerel
p5634
aVshilovmaresii11
p5635
aVrajhavraj
p5636
aVlazarevindis191
p5637
aVPetrovaDasya
p5638
aVivanna_kalinina
p5639
aVMargeryAnwar
p5640
aVvoldemarmurave2
p5641
aVmiloslavfedoto3
p5642
aVzhuravlevmefod1
p5643
aVnazarovazaroch1
p5644
aVvalerianabelov3
p5645
aVthefunnysposts
p5646
aVbelyakovmaesla4
p5647
aVIndependPress
p5648
aVgorbachevaman12
p5649
aVdjildakoroleva3
p5650
aVskrthakur
p5651
aVarkadiyazajcev1
p5652
aVkriskentiyafil6
p5653
aVCLMTMiami
p5654
aVpoiljacktion
p5655
aVdobravakapusti1
p5656
aVarhipovvlasii85
p5657
aVTomaMixeeva
p5658
aVLixachyovaBetta
p5659
aVoliverbrito11
p5660
aVkulaginaggei93
p5661
aVsellersjennife2
p5662
aVjdanovasafii
p5663
aVhusapahimet
p5664
aVAssolZhukova
p5665
aVGordeevTimofey
p5666
aVvictori78744677
p5667
aVTiverijVlasov
p5668
aVcexapysywad
p5669
aVmoor_alfredia
p5670
aVmironova_vidana
p5671
aVYumlily2
p5672
aVamaliyafilatov4
p5673
aVCLMTNOLA
p5674
aVCLMTProvidence
p5675
aVpaula_zajceva
p5676
aVbritaniimihail6
p5677
aVspencerlily1
p5678
aVestella_gureva
p5679
aVMuravyovGvidon
p5680
aVcathiegraham293
p5681
aVCHNGDesMoines
p5682
aVhohlovfavst
p5683
aVriwakeqaxiwo
p5684
aVEnagiH
p5685
aVbelovseveryan13
p5686
aVeliseevavladil2
p5687
aVaskoldguschin81
p5688
aVelza_fyodorova
p5689
aVzaharovksanf
p5690
aVdariaboyd18561
p5691
aVabramovladislav
p5692
aVLixachyovaAsta
p5693
aVgonubogulutu
p5694
aVshherbakovaval1
p5695
aVvexyfafovym
p5696
aVSemyonovaIna
p5697
aVajeetyadav14695
p5698
aVizida_soboleva
p5699
aVacerkhay
p5700
aVnafankiselev91
p5701
aValsopplandon193
p5702
aVRuvimFilippov
p5703
aVaron_lytkin
p5704
aVarhipovangii97
p5705
aVlolliisolovev1
p5706
aVpaulasemenova88
p5707
aVmarkian_volkov
p5708
aVwal_style22
p5709
aVariadnazinovev3
p5710
aVioakimfedorov12
p5711
aVconservamother
p5712
aVlilaguseva1
p5713
aVdasya_krylova
p5714
aVbyqunawyjusi
p5715
aVGleser2502
p5716
aVsnejanamaksimo3
p5717
aVlarionovgustav1
p5718
aVzuquhutihowa
p5719
aVGerminijNaumov
p5720
aVolafyakushev1
p5721
aVhioniyaarhipov2
p5722
aVpeterramacey93
p5723
aVtarasovanoema11
p5724
aVagap_petuxov
p5725
aVknyazevkarp1997
p5726
aVgrishinaagafya4
p5727
aVkononov_ikar
p5728
aVmilanavlasova11
p5729
aVseleznevavgus13
p5730
aVCLMTSanJose
p5731
aVYudinaEvnikiya
p5732
aVsaralihacheva13
p5733
aVbernardbranch83
p5734
aVtekusamartynov2
p5735
aVmaksimnosoven9
p5736
aVsavinponomarev2
p5737
aVbronislavagusc4
p5738
aVtaylorruiz1996
p5739
aVNeraOrlova
p5740
aVgaiyasavina92
p5741
aVkarpovavdei1989
p5742
aVmigueltanner84
p5743
aVteeskilz
p5744
aVadelrozhkova1
p5745
aVagafiyalixachy2
p5746
aVhellmig_ria
p5747
aVeseniisemenov1
p5748
aVNordZhukov
p5749
aVpetrchokrylov
p5750
aVkimiryzilix
p5751
aVstepankonoval10
p5752
aVmaksershov1989
p5753
aVyuliimarkov96
p5754
aVvilenakuznecov1
p5755
aVkristofmuravev3
p5756
aVlab_shenita
p5757
aVGODBLESSAMERIC
p5758
aVrobertinashhuk1
p5759
aVefremovaantoni8
p5760
aVCLMTAtlanta
p5761
aVsimonovklement5
p5762
aVsharonh73815072
p5763
aVstrelkovatekus2
p5764
aVSpartakSmirnov
p5765
aVAnimaisaPanova
p5766
aVlyucellavasile4
p5767
aVagafiiaksenov12
p5768
aVgalkinfedor82
p5769
aVgloriab36126174
p5770
aVponomarevafel11
p5771
aVsvetoslavegoro4
p5772
aVblinovshamil2
p5773
aVisaakiigordeev
p5774
aVodincovamerkur2
p5775
aVpittmanthomas86
p5776
aVroman3zqk
p5777
aVslavochkalikha1
p5778
aValfa_yudina
p5779
aVTiveriyGushchin
p5780
aVisailukin82
p5781
aVI_am_OgijO
p5782
aVraimondmuhin96
p5783
aVnytrb
p5784
aVAltomaropedro
p5785
aVvenedim_savelev
p5786
aVandreyd9lar
p5787
aVfilippov_meneya
p5788
aVsavva_gavrilov
p5789
aVflorenciyakula3
p5790
aVclairescuvie223
p5791
aVcocuhogatawi
p5792
aVdionbelozerov
p5793
aVzoegits
p5794
aVmelissaclark801
p5795
aVlihachevpavel87
p5796
aVgiuseppinaches3
p5797
aVfomichevaaelit2
p5798
aVmatildakiselyo2
p5799
aVcuducupabeq
p5800
aVeinarshubin92
p5801
aVnikiforovsveto3
p5802
aVRoseannaBarbier
p5803
aVmironov_osya
p5804
aVdaisycochran8
p5805
aVjofamosapel
p5806
aValfamaksimova
p5807
aVignatovafelici8
p5808
aVodomdaniel1982
p5809
aViannuariisilin1
p5810
aVbaranova_marfa
p5811
aVmagdanikiforov6
p5812
aVstepankeey
p5813
aVkovalevkliment5
p5814
aVryabovsysoi1989
p5815
aVzenondavydov191
p5816
aVDowsett2890
p5817
aVadelinalytkina2
p5818
aVsyxigejafata
p5819
aVlihachevasara1
p5820
aVklimentiyshest1
p5821
aVerossepth
p5822
aVartyom_zimin
p5823
aVerastkomarov3
p5824
aVShubinPompey
p5825
aVkorolyovakarol4
p5826
aVantonignatov192
p5827
aVCHNGHartford
p5828
aVfomichevaivann1
p5829
aVmitrofanlavren5
p5830
aVliviifomichev11
p5831
aVyaninagerasimo3
p5832
aVkarolinamaslov2
p5833
aVFirsZhdanov
p5834
aVgusevlibert1996
p5835
aVfrolignatev1987
p5836
aVagatha_agoni
p5837
aVnarijelozak
p5838
aVaidatimofeeva1
p5839
aVshashkovavelmi1
p5840
aVjacquelinberna7
p5841
aVorlovadjilda841
p5842
aVknyazevalila191
p5843
aVsigizmundsobol2
p5844
aVloganrosalind87
p5845
aVBykovFlorents
p5846
aVTatianYakovlev
p5847
aVCLMTLouisville
p5848
aVlyubomirzaicev3
p5849
aVlihachevarenal3
p5850
aVpahomiipopov192
p5851
aVfabian_petrov
p5852
aVromerohugh1992
p5853
aVkalininataigin3
p5854
aVAmerica4Trump_
p5855
aValenaaksenova11
p5856
aVnesterovvalery5
p5857
aVAgniyaGordeeva
p5858
aVTsvetkovVitimiy
p5859
aVgusevgert93
p5860
aVkapustinolgerd
p5861
aVsilva_xoxlova
p5862
aVVasilevaPriama
p5863
aVvarlam_dmitriev
p5864
aVoment__raj
p5865
aVdonna_kotova
p5866
aVarnolddaniel192
p5867
aVsemenovamilyut8
p5868
aVponomarevvital3
p5869
aVUstinovDionisiy
p5870
aVmanuilosolovev8
p5871
aVlinarakonovalo2
p5872
aVkillars_0
p5873
aVruwigugogixa
p5874
aVcjplhossizu
p5875
aVfadeevzorii1983
p5876
aVbaranovprov87
p5877
aVruslany9rsh
p5878
aVjukovagei1988
p5879
aVsextonfaith86
p5880
aVwyvevojylymo
p5881
aVlovegunaheart
p5882
aVmerkushevamino4
p5883
aVtselestinashch1
p5884
aVsergeypbfbes
p5885
aVmaksimov_esip
p5886
aVJeffries384
p5887
aVisaevnestor
p5888
aVCHNGFairfield
p5889
aVDiego_Acuna90
p5890
aVrybakov_kuzma
p5891
aVvarfolomejmish1
p5892
aVzaicevnuriman11
p5893
aVefimovmilad4
p5894
aVsulamifmuravyo3
p5895
aVbonifatiifokin1
p5896
aVmilicasuhanova
p5897
aVleidazaiceva83
p5898
aVassolloginova12
p5899
aVvadysigesyry
p5900
aVkonovalovgekto3
p5901
aVTomilaKornilova
p5902
aVsemyonovaraich2
p5903
aVsidorovvlasii12
p5904
aVtoofan82900698
p5905
aVmcconnellava90
p5906
aVAnikiyBiryukov
p5907
aVlianazimina1
p5908
aVnataliyamaksim7
p5909
aVsolovevamonika5
p5910
aVfernandoalcudaa
p5911
aVOnfreNealon
p5912
aVgermogennikifo3
p5913
aVkazimir_safonov
p5914
aVKatyunyaSilina
p5915
aVnestersitnikov1
p5916
aVshirley98522673
p5917
aVmukhinakonkord1
p5918
aVmartinanekraso3
p5919
aVlavrentevamatr5
p5920
aVmariarussell401
p5921
aVNadaTurova
p5922
aVzaicevizosim193
p5923
aVsadivobadun
p5924
aVPanovAllan
p5925
aVxekypuwycom
p5926
aVvoroncovfloren5
p5927
aVTikhonovaUlrika
p5928
aVnikita2uyjivan1
p5929
aVFantTori
p5930
aVviliibobylev89
p5931
aVOrlovAnikej
p5932
aVlytkinerii1992
p5933
aVpolyakovamelit2
p5934
aValeksandrovbes4
p5935
aVDeedpool11
p5936
aVsemenkuzmin1987
p5937
aVkameliyabarano2
p5938
aVmodestinateter5
p5939
aVWaleRobbie
p5940
aVzaicevelmir91
p5941
aVisaj_panfilov
p5942
aVdimaa2qd
p5943
aVgorbachevmarty8
p5944
aVartem02ks
p5945
aVlyuksenromanov1
p5946
aVEvnikaOdintsova
p5947
aVtwinkhana987
p5948
aVgolubevakinfii5
p5949
aVantropershov1
p5950
aVgavrilselivers4
p5951
aVdmitriy45b
p5952
aVbobylevpalladi4
p5953
aVKnyazevSimeon
p5954
aVmolchanovaelin4
p5955
aVbepyvyzucif
p5956
aVhansmond93
p5957
aVbufumoparof
p5958
aVParks1508
p5959
aVsuhanovanian191
p5960
aVFaddejIsaev
p5961
aVdmitrievvolt191
p5962
aVsashainsikos
p5963
aVgenriettarusak6
p5964
aVCzvetkovaUlya
p5965
aVVorontsovZenon
p5966
aVkirillovamanue2
p5967
aVgifapotusej
p5968
aVAnufriyBlokhin
p5969
aVGertrudMartynov
p5970
aVtoday_global
p5971
aVMandyLucesita
p5972
aVsysoevamaina192
p5973
aVchernov_iustin
p5974
aVmstislavterent5
p5975
aVArlenYakushev
p5976
aVsysoevahill1
p5977
aVDeividKu
p5978
atp5979
Rp5980
ssS'obama/obama_tweet_'
p5981
(dp5982
g3
g4
((lp5983
VTheEarHot
p5984
aVCnnnewstop
p5985
aVonenewsB
p5986
atp5987
Rp5988
sg8
g4
((lp5989
tp5990
Rp5991
sg12
g4
((lp5992
VAlanisMooreGOP
p5993
aVTeamusatop
p5994
aVAllpoliticst
p5995
aVEvelynWhiteGOP
p5996
aVkattiejoness1
p5997
aVAlyssaNelsonR
p5998
aVarpna_rani
p5999
aVCurrenttopp
p6000
aVTrumpforusa2
p6001
aVNewsAmericatop
p6002
aVTrumpNewsz
p6003
aVAlicebrown24
p6004
aVCarolMartinGOP
p6005
aVsanjnasinha0001
p6006
aVPoliticstop
p6007
aVAnnabelleBakerF
p6008
aVTopNewP
p6009
aVClaraLeeGOP
p6010
aVLifepoliticss
p6011
aVLaurenJonesGOP_
p6012
aVNewsglobalusa
p6013
aVInformationtopp
p6014
aVTrumpDailyNewss
p6015
aV1Trumpnews
p6016
aVyessicajohnsonn
p6017
aVPoliticalnewsta
p6018
aVUsanewstop
p6019
aVTwetopp
p6020
aVPoliticeconomyt
p6021
aVTrumpNewsGOP
p6022
aVOliviaAllenC
p6023
aVTheNewsTopp
p6024
aVPoliticsTweett
p6025
aV_POTUSTRUMPNEWS
p6026
aVlucassdaviss9
p6027
aVEconomypoliti
p6028
aVmoniscontacto
p6029
aVLifeTrumppoliti
p6030
aVMabellem7
p6031
aVHawkkeye1
p6032
aVAlexaHarrisGOP
p6033
aVSamanthaClarkH
p6034
aVAlltrumptop
p6035
atp6036
Rp6037
sg32
g4
((lp6038
Vlastminuteusa
p6039
aVGirl_News_
p6040
aVEP_Ocio
p6041
aVsanojkr_
p6042
aVporantext
p6043
aVEP_EEUU
p6044
aVEP_Social_
p6045
aVRaymundoShown1
p6046
aVamazingsthought
p6047
aVgovindkumarbab1
p6048
aVGibe_lisAranda
p6049
aVamitkumar86511
p6050
aVthefunnysposts
p6051
aVEP_Gente_
p6052
aVAbellJudy
p6053
aVdeled_411
p6054
aVJacielLoya
p6055
aVwmqg106_5fm
p6056
aVPatriotNewsUSA
p6057
aVNewssTrump
p6058
aVpoiljacktion
p6059
aVJosephSmithGop
p6060
aVWeAreLifeForce
p6061
aVAmymillerstale
p6062
aVI_AM_Trump4
p6063
aVpoliticsdarleny
p6064
aVBruceLazzara281
p6065
aVbeldch
p6066
aV_Political_News
p6067
aVDeontaB_ENT
p6068
aVEldaRusley2
p6069
aVLays16708974
p6070
aV3007World
p6071
aVL_uisCochez
p6072
aValfredox15200
p6073
aVAlbanCruse
p6074
aVRafCano_
p6075
aVEduinRjs
p6076
aVTrump4eeuu
p6077
aVAlanaPapley
p6078
aVLatoriaPacking2
p6079
aVstmpinfortrump
p6080
aVcommon_whales
p6081
aVbrookem85379922
p6082
aVnewsto51
p6083
aVMoyBltrn
p6084
aVDeplorable_cars
p6085
aVnancyperezp1a
p6086
aVEP_EEUU_News
p6087
aVankumari_rt
p6088
aVquito_girl
p6089
aVmarva_glotfelty
p6090
aVTheFederalist1
p6091
aVlove_leeford
p6092
aVtarra_biren
p6093
aVMiguelR_ueda
p6094
aVmercurys_1
p6095
aVantonovgodin70
p6096
aVtheharleyhottie
p6097
aVlovesecret0401
p6098
aVcarol_varham
p6099
aVPoliticalcseeuu
p6100
aVmasivethoughts
p6101
aVEmy4Trump
p6102
aVWeTrendingNow
p6103
aVMcilwainDyan
p6104
aVRajhavRajiv
p6105
aVGuadalpeMoreno
p6106
aVtrump_with
p6107
aVDeedpool11
p6108
aVkruna7272938502
p6109
aV_saimathought
p6110
aVlover_park123
p6111
aVRafaelGtrrz
p6112
aVRafaelMntero
p6113
aVVeronicaGriman
p6114
aV2Evelynsosa
p6115
aVCarolineWalkerB
p6116
aVMrsSusanMiller
p6117
aVtoofan82900698
p6118
aVMarioDmgz
p6119
aVEP_Noticias_
p6120
aVThe_Last_NewsPa
p6121
aVrajsonu0096
p6122
aVletap1211
p6123
aVJustinbaba5
p6124
aVFrosteSuzanne
p6125
aVGeorgeJn1Gop
p6126
aVVirgilioTera_n
p6127
aVE_Guttah_Yuno
p6128
aVWomen4MAGA
p6129
aVonfirenews2
p6130
aVkaluna_shanika
p6131
aVTrump_Commander
p6132
aVJesusCanull
p6133
aVThemarinTrump
p6134
aVRosewoodGirlz
p6135
aV360WiseWest1
p6136
aVThe_Win_Trump
p6137
aVPoliticsTopx
p6138
aVIndieNewMajor
p6139
aVLindsayM_GOP
p6140
aVoment__raj
p6141
aVmahimarani21
p6142
aVjack_jone_
p6143
aVFionadaCorgi
p6144
aVMunnaKumarMk3
p6145
aVNicolasChimal
p6146
aVElEstadoMx
p6147
aVTrump_Ameri16
p6148
aVEP_Medios
p6149
aVFranciscLpz
p6150
aVrussmove
p6151
aVpoliticalUSnew
p6152
aVEP_Salud_
p6153
aVTrumpLoves_Amer
p6154
aVAlva_roLopez_
p6155
aVGaTo_Q
p6156
aVBrianCvas
p6157
aVmrslovelykumari
p6158
aVMariaCa_deno
p6159
aVCristellBlm
p6160
aVkertis_lillie
p6161
aVPOTUSTRUMP6
p6162
aV_VIRAL__News
p6163
aVMacduffFuentes
p6164
aV_sukeshkumar
p6165
aVNewsRepublicans
p6166
aV8undertaker
p6167
aVThebestnews21
p6168
aVkeyaudience
p6169
aVmartqueen2016
p6170
aVTATA360WISEGAL
p6171
aVRocioFlrs
p6172
aVtheblaze
p6173
aVOtisPagels2
p6174
aVReTweetWatcher
p6175
aVCa_rlosTapia
p6176
aVlifestylezi
p6177
aVUSANews10
p6178
aVFastPolicy
p6179
aVILove360Wise
p6180
aVFunneyTwitz
p6181
aVRogelioCamps
p6182
aVkrishanabhavan2
p6183
aVJimenaMe_
p6184
aVThe_Reporter24
p6185
aVManuel_Crrascc
p6186
aVlivemiamisun
p6187
aVdariomercado
p6188
aVpremranjan00091
p6189
aVdengerrobet
p6190
aVsweetmiranda2
p6191
aVmironafomina
p6192
aVRayMotoLP
p6193
aVmounten_1
p6194
aVlapinermii1
p6195
aVlovedose__7
p6196
aVIsraNajra
p6197
aVEP_Trending
p6198
aVPoliticsnewstop
p6199
aVWeNotPlaying
p6200
aVwork_trump
p6201
aVkillars_0
p6202
aVTuiteoMexico
p6203
aVJonanParra
p6204
aVPedriNaoma
p6205
aV360WiseMedia
p6206
aVkings_ne
p6207
aVpatanjalirishi2
p6208
aVForeverTrump_
p6209
aVTuitDato
p6210
aVEP_Resumen
p6211
aVMarielaCarmna
p6212
aVhealth_lif
p6213
aVAllUnitedState
p6214
aVEstelleGideon1
p6215
aVjhonsinababa
p6216
aVCuperAlfredt
p6217
aVBriannaRedmond1
p6218
aVmegatubeshots
p6219
aVtwinkhana987
p6220
aV6kvirat8071
p6221
aVEl_Universal_Mx
p6222
aVNbreakingNew
p6223
aVPlan2TheEnd
p6224
aVRod_rigoAlvarad
p6225
aVUsSantiago
p6226
aVVote3Fortrump
p6227
aVlovegroup13
p6228
aVTRUMP_PRESIPRES
p6229
aVAnnBarnettNews
p6230
aVPoliticsgonzale
p6231
aVThe_Trump_Fans
p6232
aVSharonJonesGop
p6233
aVThereseStarks3
p6234
aVdawne_martha
p6235
aVElsieVa_lenci
p6236
aVkumarkush2001
p6237
aVJuanGozals
p6238
aVGainesChristia1
p6239
aVSallyPowlett
p6240
aVPolitic_KV
p6241
aVAnonymousWidget
p6242
aVusapolitics4
p6243
aV360WiseKC
p6244
aVIndustryTakover
p6245
aVSanaPluym1
p6246
aVThe_rebirth1992
p6247
aValokkumar950405
p6248
aVNewsEp24
p6249
aVthe_win_today
p6250
aVSonyaDmvDiva
p6251
aVRitikaSarma1
p6252
aVNozNewz_com
p6253
aVCaptainTrump_45
p6254
aVeverest_sau
p6255
aVYairMoolin
p6256
aVAliciaArcia
p6257
aVFreddyIzquierd
p6258
aVThedeplorableJ
p6259
aVDarwinrojas_
p6260
aVEP_Titulares_
p6261
aVsaj_jackson
p6262
aVlivebhamlife
p6263
aVpoint_angle
p6264
aVMelMendieta
p6265
aVjounson_
p6266
aVTheRealAmerica_
p6267
aVBrittTaylorGOP
p6268
aVTrumpIsTheTrue
p6269
aVAbrahamMojia
p6270
aVBigBreakNews
p6271
aVdiptistweet
p6272
aVBuzzGlob11
p6273
aVomuqwyjveju9
p6274
aVbreakinngnewss
p6275
aV_sandy_girls
p6276
aVCrystalHerlest1
p6277
aVHumbertoArry
p6278
aVbreakingcelnews
p6279
aV_onlyfunnytweet
p6280
aVviva_pauls
p6281
aVrajhav_kumar
p6282
aVFresh60695711
p6283
aV_Girl_News
p6284
aV_AlanBarreto
p6285
aVSaynsberryPeggy
p6286
aVUSA_PolicalNews
p6287
aVSecAmWorcTea
p6288
aVjustin_beber12
p6289
aVdivyabharti_
p6290
aVEP_EnEspanol
p6291
aVGODBLESSAMERIC
p6292
aVOmarRod_riguez
p6293
aVcrazy_gise003
p6294
aVPao_laVaprio
p6295
aVdivankerkumar
p6296
aVcrossfdross4
p6297
aVAmanAlvarez
p6298
aVmelaniabierut92
p6299
aVmykaljackson42
p6300
aVSelenaLupez
p6301
aVNicolePna_
p6302
aVKendallG_GOP
p6303
aVsanjeetraj282
p6304
aVfuunny_world
p6305
aVlets_tweet01
p6306
aVTrumpWinner_16
p6307
aVporantexts
p6308
aVmarie_eclay1010
p6309
aVPuls56898910
p6310
aVsoamazingthing
p6311
aVDanielC0rdoba
p6312
aVgirlempire1
p6313
aVEP_EEUU_24Horas
p6314
aVUsanewsquotes
p6315
aVDeniseCoorthop1
p6316
aVquito_osho
p6317
aVUniversalChih
p6318
aVRaul_Diizz_
p6319
aVEP_Actualidad
p6320
aVEP_Tendencia
p6321
aVAdanDzid
p6322
aVReneArrg
p6323
aVDelanaKreighba6
p6324
aVLoveStephanysco
p6325
aVDeporableU
p6326
aVAlyssaMillet2
p6327
aVbattleground_a1
p6328
aVamymfein
p6329
aVporantext_
p6330
aVobrienaustin1
p6331
aVAlbe_rtoMorales
p6332
aVPoliticsUsaNews
p6333
aVCoutureClemons
p6334
aVJaneSmith2488
p6335
aVyadavrajnish761
p6336
aVTop1precent
p6337
aVYoseMndez
p6338
aVLiveTV4U
p6339
aVSykesKauffman
p6340
aVPoliticstodayx
p6341
aVRaf_aelMora
p6342
aVRachelHeron9
p6343
aVPolitic2020
p6344
aVEP_Farandula
p6345
aVTheTrump_Party
p6346
aVeginafomichyov2
p6347
aVpolitical_USA16
p6348
aVelhapp
p6349
aVPoliticcssTop
p6350
aVsocrazyname
p6351
aVNewsForUSA
p6352
aV_atypicalsgirls
p6353
aV360WiseNews
p6354
aVAndresqm18
p6355
aVWorldnewsPoli
p6356
aVMaryLoveUS4
p6357
aVBestofTrump_
p6358
aVtextporns
p6359
aVAlexantorrez1
p6360
aVmrs_lovelysingh
p6361
aVMAGAwithTrump_
p6362
aVdennis_raj008
p6363
aVamyfein
p6364
aVmendozacarl1
p6365
aVRECOVERY__NEWS
p6366
aVDTrump_FTW
p6367
aVrahnanthoni
p6368
aVCriswellElynor
p6369
aVEP_Tecnologia_
p6370
aVPOTUSTrump08
p6371
aVEylinHurt
p6372
aVprabhat20682140
p6373
aVBreakingNewsTru
p6374
aVrajhavraj
p6375
aVKaroSierr
p6376
aVajeetyadav14695
p6377
aVFlipLdsma
p6378
atp6379
Rp6380
ss.