(lp0
(dp1
S'status'
p2
(dp3
S'retweet'
p4
I2
sS'original'
p5
I520
ssS'count'
p6
I522
sS'user_ids'
p7
c__builtin__
set
p8
((lp9
I2567306240
aI550210056
aI1583817644
aI1624649227
aI758703632
aI557601809
aI2567308818
aI264303124
aI511898798
aI95165465
aI223057946
aI278370845
aI2212972574
aI967472671
aI539685410
aI525963811
aI494975012
aI727642152
aI131188777
aI522477612
aI2411871278
aI520230960
aI2451375666
aI557594974
aI246778672
aI160930875
aI1316708413
aI755831359
aI532429162
aI376410894
aI2825172035
aI1867362378
aI202715724
aI956324941
aI45869648
aI2497726904
aI2249330958
aI764103254
aI368340567
aI343405144
aI2370429877
aI2242439771
aI557428834
aI353656422
aI1004424294
aI481262697
aI2261479020
aI511939693
aI1507761774
aI217208433
aI620713076
aI2877872245
aI561159286
aI2773517432
aI1304515705
aI2741763434
aI2446899326
aI1606064910
aI1727895685
aI146692746
aI87728784
aI1629892242
aI2408137364
aI515525269
aI224151703
aI2393298072
aI610705946
aI1105557152
aI956311722
aI94853291
aI1489796270
aI724445520
aI1122364087
aI304861372
aI2566956234
aI2460319520
aI18901699
aI20541636
aI381652598
aI131172550
aI818202823
aI1924796616
aI2331664586
aI549086924
aI2662084814
aI2837777528
aI352550098
aI1640973012
aI489195223
aI323685593
aI2567353050
aI624525019
aI49610461
aI296546768
aI169527526
aI412342503
aI229238001
aI2557138165
aI2389431337
aI2369907793
aI1544805674
aI2566769406
aI2391758079
aI2792170752
aI2422121857
aI504002826
aI139332366
aI758659860
aI599740181
aI472958230
aI2566910743
aI453533469
aI36964638
aI80327968
aI515550497
aI59549064
aI774128420
aI403204901
aI252640038
aI32916265
aI1329516842
aI2171958060
aI438014765
aI464461104
aI2768062344
aI1148475186
aI515544393
aI1235965759
aI1592214848
aI2332504897
aI2660491081
aI16816972
aI2725952336
aI2566724436
aI975774038
aI511953244
aI2566815582
aI84781408
aI2408161122
aI557431867
aI1911089510
aI86142824
aI225735530
aI841623403
aI203125612
aI2722832755
aI1261090681
aI2566762878
aI464450433
aI489276802
aI1681725830
aI1163185574
aI549093082
aI2566996873
aI1016733578
aI2153242508
aI227344783
aI1556118416
aI2684369809
aI104403350
aI353724312
aI787546010
aI1642135962
aI361365042
aI552363428
aI1171577766
aI1104938408
aI18270633
aI557422508
aI2598876590
aI326629998
aI954782642
aI2566752181
aI2332507063
aI836175288
aI1557220340
aI121446843
aI2535257162
aI2464677823
aI2159638466
aI584748487
aI836218824
aI869933516
aI345517008
aI2824657361
aI48849875
aI1273848278
aI185745880
aI2408086436
aI2200238490
aI2566708704
aI2408795617
aI404680674
aI2446717923
aI452029413
aI599547366
aI1326560743
aI12376572
aI153876973
aI940000238
aI2228605939
aI159352308
aI813064693
aI1308079098
aI2538090492
aI635831295
atp10
Rp11
sS'hour'
p12
I5
sS'url'
p13
ccollections
defaultdict
p14
(c__builtin__
int
p15
tp16
Rp17
Vhttp://goo.gl/fb/iFEaiq
p18
I2
sVhttp://dlvr.it/7P64v3
p19
I2
sVhttp://dlvr.it/7P9WBj
p20
I2
sVhttp://j.mp/1zYSbPF
p21
I2
sVhttp://bbc.in/1vyWV6L
p22
I26
sVhttp://dlvr.it/7P6Ccy
p23
I2
sVhttp://dlvr.it/7P694P
p24
I2
sVhttp://dlvr.it/7P6CLP
p25
I2
sVhttp://www.bbc.co.uk/news/world-asia-29871031#sa-ns_mchannel=rss&amp;ns_source=PublicRSS20-sa
p26
I2
sVhttp://dlvr.it/7P5xHV
p27
I2
sVhttp://ow.ly/2Q1XMw
p28
I2
sVhttp://cur.lv/f2z89
p29
I2
sVhttp://dlvr.it/7P5vTv
p30
I2
sVhttp://dlvr.it/7P67LV
p31
I2
sVhttp://dlvr.it/7P5vSy
p32
I2
sVhttp://dlvr.it/7P698P
p33
I2
sVhttp://dlvr.it/7P5sp8
p34
I2
sVhttp://dlvr.it/7P5vk5
p35
I2
sVhttp://dlvr.it/7P66zq
p36
I2
sVhttp://dlvr.it/7P5jMC
p37
I2
sVhttp://dlvr.it/7P64L5
p38
I2
sVhttp://dlvr.it/7P5gPd
p39
I2
sVhttp://dlvr.it/7P5hHy
p40
I2
sVhttp://dlvr.it/7P68cx
p41
I2
sVhttp://dlvr.it/7P66d8
p42
I2
sVhttp://dlvr.it/7P64qt
p43
I4
sVhttp://dlvr.it/7P681n
p44
I2
sVhttp://watchallchannels.com
p45
I4
sVhttp://www.synopsis.today/news-summary/news-world/hong-kong-police-question-briton-2/
p46
I2
sVhttp://dlvr.it/7P8DmG
p47
I2
sVhttp://dlvr.it/7P6BzS
p48
I2
sVhttp://dlvr.it/7P6Cc2
p49
I2
sVhttp://dlvr.it/7P6CHJ
p50
I2
sVhttp://dlvr.it/7P61WF
p51
I2
sVhttp://dlvr.it/7P6ldT
p52
I2
sVhttp://dlvr.it/7P5p5V
p53
I2
sVhttp://bbc.in/1zYS3j0
p54
I4
sVhttp://dlvr.it/7P6558
p55
I2
sVhttp://dlvr.it/7P5t0N
p56
I2
sVhttp://bbc.in/1vzrb1n
p57
I2
sVhttp://dlvr.it/7P6Cbc
p58
I2
sVhttp://dlvr.it/7P5fkw
p59
I2
sVhttp://dlvr.it/7P65CF
p60
I2
sVhttp://dlvr.it/7P69Ht
p61
I2
sVhttp://dlvr.it/7P67mw
p62
I2
sVhttp://goo.gl/fb/imRkxq
p63
I2
sVhttp://dlvr.it/7P68sf
p64
I2
sVhttp://dlvr.it/7P5tSD
p65
I2
sVhttp://dlvr.it/7P5qJh
p66
I2
sVhttp://dlvr.it/7P682C
p67
I2
sVhttp://dlvr.it/7P5r1x
p68
I2
sVhttp://dlvr.it/7P69XD
p69
I2
sVhttp://dlvr.it/7P6D1T
p70
I2
sVhttp://dlvr.it/7P5qd1
p71
I2
sVhttp://dlvr.it/7P6B7K
p72
I2
sVhttp://dlvr.it/7P5xH1
p73
I2
sVhttp://dlvr.it/7P5rks
p74
I2
sVhttp://dlvr.it/7P5m9Q
p75
I2
sVhttp://dlvr.it/7P5kKq
p76
I2
sVhttp://dlvr.it/7P5w5q
p77
I2
sVhttp://dlvr.it/7P5kjz
p78
I2
sVhttp://dlvr.it/7P5mZN
p79
I2
sVhttp://dlvr.it/7P6Cc4
p80
I2
sVhttp://dlvr.it/7P5pVv
p81
I2
sVhttp://dlvr.it/7P5wmh
p82
I2
sVhttp://dlvr.it/7P5sVv
p83
I2
sVhttp://dlvr.it/7P5t7G
p84
I2
sVhttp://757l.tk/1DK9eBq
p85
I2
sVhttp://dlvr.it/7P5qGx
p86
I2
sVhttp://sansani.com/hong-kong-police-question-briton/
p87
I2
sVhttp://dlvr.it/7P67VC
p88
I2
sVhttp://dlvr.it/7P6Bz9
p89
I2
sVhttp://bit.ly/TyK1sP
p90
I2
sVhttp://dlvr.it/7P6CNq
p91
I2
sVhttp://dlvr.it/7P67hJ
p92
I2
sVhttp://ift.tt/10KfPQh
p93
I2
sVhttp://dlvr.it/7P8fv4
p94
I2
sVhttp://dlvr.it/7P60Rt
p95
I2
sVhttp://dlvr.it/7P62t2
p96
I2
sVhttp://j.mp/13vaAFd
p97
I2
sVhttp://bakmoda.com
p98
I48
sVhttp://dlvr.it/7P6TV2
p99
I2
sVhttp://dlvr.it/7P5rLb
p100
I2
sVhttp://dlvr.it/7P5kGD
p101
I2
sVhttp://bbc.co.uk
p102
I2
sVhttp://goo.gl/fb/BJHD7Z
p103
I2
sVhttp://dlvr.it/7P6BxS
p104
I2
sVhttp://dlvr.it/7P5sWw
p105
I2
sVhttp://dlvr.it/7P680J
p106
I2
sVhttp://dlvr.it/7P68d4
p107
I2
sVhttp://notainteresante.serprotec.com.mx/?VerNota=63551A45686BDD32AF23484C6803ED09
p108
I2
sVhttp://dlvr.it/7P63b3
p109
I2
sVhttp://dlvr.it/7P6CMD
p110
I2
sVhttp://dlvr.it/7P5thv
p111
I2
sVhttp://dlvr.it/7P68J6
p112
I2
sVhttp://dlvr.it/7P5pg9
p113
I2
sVhttp://bit.ly/1zYSppN
p114
I2
sVhttp://cur.lv/f2z6c
p115
I2
sVhttp://goo.gl/fb/VpVz6E
p116
I2
sVhttp://dlvr.it/7P69Yz
p117
I2
sVhttp://dlvr.it/7P5mTQ
p118
I2
sVhttp://bit.ly/1pfYp9s
p119
I2
sVhttp://cur.lv/f2z6q
p120
I2
sVhttp://goo.gl/fb/Wgvn3z
p121
I2
sVhttp://ow.ly/2Q1Xpx
p122
I2
sVhttp://goo.gl/fb/cBd7KE
p123
I2
sVhttp://goo.gl/MIfxOd
p124
I2
sVhttp://dlvr.it/7P5vWW
p125
I2
sVhttp://dlvr.it/7P5qkf
p126
I2
sVhttp://ift.tt/1xNVzau
p127
I56
sVhttp://dlvr.it/7P5rqQ
p128
I2
sVhttp://dlvr.it/7P5q4x
p129
I2
sVhttp://dlvr.it/7P5rhV
p130
I2
sVhttp://dlvr.it/7P5w12
p131
I2
sVhttp://bbc.in/1vyXFIW
p132
I4
sVhttp://ift.tt/1G9Ldb0
p133
I2
sVhttp://dlvr.it/7P5sdJ
p134
I2
sVhttp://cur.lv/f2z7l
p135
I2
sVhttp://dlvr.it/7P6BLd
p136
I2
sVhttp://www.synopsis.today/news-summary/news-world/hong-kong-police-question-briton/
p137
I2
sVhttp://goo.gl/lqHHXa
p138
I2
sVhttp://dlvr.it/7P68ym
p139
I2
sVhttp://dlvr.it/7P5xDg
p140
I2
sVhttp://fb.me/6W6Gd1ymA
p141
I2
sVhttp://ow.ly/2Q1Xsz
p142
I2
sVhttp://dlvr.it/7P6Cf5
p143
I2
sVhttp://dlvr.it/7P67Hr
p144
I2
sVhttp://dlvr.it/7P5wkR
p145
I2
sVhttp://bbc.in/1vyKdor
p146
I2
sVhttp://goo.gl/kQQNrc
p147
I4
sVhttp://ow.ly/2Q1X7u
p148
I2
sVhttp://dlvr.it/7P6992
p149
I2
sVhttp://bbc.in/1vyWQzS
p150
I24
sVhttp:\u005c/\u005c/t.co\u005c/7WlOkl1EhF
p151
I2
sVhttp://dlvr.it/7P6Bm4
p152
I2
sVhttp://dlvr.it/7P5sc5
p153
I2
sVhttp://goo.gl/fb/FH7dXk
p154
I2
sVhttp://dlvr.it/7P9d4y
p155
I2
sVhttp://news.bbc.co.uk
p156
I2
sVhttp://dlvr.it/7P68Tc
p157
I2
sVhttp://dlvr.it/7P6D2j
p158
I2
sVhttp://ow.ly/2Q1WZa
p159
I2
sVhttp://dlvr.it/7P5yD1
p160
I2
sVhttp://dlvr.it/7P69r7
p161
I2
sVhttp://feedly.com/k/1ttfE5x
p162
I2
sVhttp://dlvr.it/7P674P
p163
I2
sVhttp://f0rk.in/bg6w
p164
I4
sVhttp://dlvr.it/7P5lG6
p165
I2
sVhttp://dlvr.it/7P5vxr
p166
I2
sVhttp://dlvr.it/7P5qFD
p167
I2
sVhttp://dlvr.it/7P65z4
p168
I2
sVhttp://dlvr.it/7P5vNs
p169
I2
sVhttp://anythingrelated.com
p170
I2
sVhttp://dlvr.it/7P617X
p171
I2
sVhttp://dlvr.it/7P5qVg
p172
I2
sVhttp://dlvr.it/7P60Yk
p173
I2
sVhttp://dlvr.it/7P68Qs
p174
I2
sVhttp://www.bbc.co.uk/news/world-asia-29871031
p175
I16
sVhttp://dlvr.it/7P6Cq7
p176
I2
sVhttp://dlvr.it/7P5wqq
p177
I2
sVhttp://dlvr.it/7P68Qv
p178
I2
sVhttp://j.mp/1vyRwg2
p179
I2
sVhttp://dlvr.it/7P5qbV
p180
I2
sVhttp://dlvr.it/7P5vjD
p181
I2
sVhttp://dlvr.it/7P65fs
p182
I2
sVhttp://dlvr.it/7P6B7b
p183
I2
sVhttp://dlvr.it/7P69Jd
p184
I2
sVhttp://dlvr.it/7P64VL
p185
I2
sVhttp://dlvr.it/7P5gZ4
p186
I2
sVhttp://dlvr.it/7P66W6
p187
I2
sVhttp://cur.lv/f31xz
p188
I2
sVhttp://dlvr.it/7P6D7H
p189
I2
sVhttp://dlvr.it/7P5fZf
p190
I2
sVhttp://www.bbc.co.uk/news/world-asia-29871031#sa-ns_mchannel=rss&ns_source=PublicRSS20-sa
p191
I10
sVhttp://dlvr.it/7P68NR
p192
I2
sVhttp://dlvr.it/7P66DM
p193
I2
sVhttp://dlvr.it/7P5jR5
p194
I2
sVhttp://BAKMODA.COM
p195
I120
sVhttp://dlvr.it/7P64WV
p196
I2
sVhttp://dlvr.it/7P5qC9
p197
I2
sVhttp://dlvr.it/7P5tTT
p198
I2
sVhttp://goo.gl/wtHQt2
p199
I2
sVhttp://fb.me/4kktsZXUC
p200
I2
sVhttp://dlvr.it/7P62FB
p201
I2
sVhttp://dlvr.it/7P6CRR
p202
I2
sVhttp://dlvr.it/7PB3ky
p203
I2
sVhttp://dlvr.it/7P5gdN
p204
I2
sVhttp://dlvr.it/7P6B9D
p205
I2
sVhttp://dlvr.it/7P5p7J
p206
I2
sVhttp://dlvr.it/7P5ljr
p207
I2
sVhttp://j.mp/izea23
p208
I4
sVhttp://dlvr.it/7P6B9b
p209
I2
sVhttp://fb.me/1m4dRrmMW
p210
I2
sVhttp://dlvr.it/7P5qSX
p211
I2
sVhttp://dlvr.it/7P6CJ9
p212
I2
sVhttp://bbc.in/1vyYpxG
p213
I2
sVhttp://dlvr.it/7P67ZN
p214
I2
ssS'text'
p215
Vhong kong police question briton
p216
sS'id'
p217
I1
sS'day'
p218
I2
sS'month'
p219
I11
sa(dp220
g2
(dp221
g4
I10
sg5
I356
ssg6
I366
sg7
g8
((lp222
I415155712
aI1269213270
aI364261383
aI91425800
aI1647967248
aI395132433
aI379375634
aI356533780
aI107484181
aI2274839983
aI2249724961
aI2167061041
aI310220340
aI270963254
aI1930027956
aI236234079
aI2400912956
aI2223383617
aI2391329858
aI368329795
aI2156364362
aI810755659
aI305299021
aI222242894
aI2595053648
aI307781201
aI2229021782
aI607283292
aI955474525
aI2295150692
aI2355526757
aI2224491793
aI2511610987
aI1534273646
aI2410865263
aI853088881
aI2215020150
aI417299066
aI328249470
aI227440917
aI1472430217
aI87728784
aI56769269
aI443733140
aI877415574
aI358076574
aI357358533
aI2317276320
aI590312609
aI379820199
aI2670843053
aI2742096558
aI1520306352
aI2500790454
aI284433083
aI389616318
aI205170371
aI556583621
aI426585889
aI2149571786
aI132247757
aI213072084
aI323685593
aI2374760058
aI276542417
aI138121596
aI2393733877
aI319491830
aI2807588600
aI1602722556
aI341611261
aI1030919934
aI2338312959
aI632511744
aI2346674474
aI1610261773
aI2797145360
aI293928209
aI619884931
aI335461141
aI1552536854
aI1060738332
aI2428381658
aI187446559
aI2675360544
aI363699504
aI405859108
aI407905065
aI2781890346
aI2691100975
aI960735024
aI2558500712
aI247104309
aI1907406649
aI941769534
aI145213760
aI2524806468
aI2783727943
aI2162817865
aI1545672522
aI53027213
aI805549904
aI2352653137
aI425866066
aI357777235
aI1101678990
aI1536493398
aI94356831
aI45346960
aI360859025
aI2780474216
aI174215533
aI2191793006
aI1198655857
aI2334984050
aI71577974
aI1615254391
aI2383142268
aI422587260
aI248040832
aI144087939
aI2365021572
aI2835972489
aI374806924
aI780042637
aI2371348878
aI1332293520
aI1464140689
aI1852601750
aI1543010714
aI866181530
aI2781893540
aI703855014
aI357576615
aI2258340776
aI1479530311
aI2781994927
aI437630451
aI1658958260
aI1473829813
aI222817424
aI366863800
aI1479550394
aI93773245
aI1620412862
aI190810047
aI858997700
aI344160709
aI1016868296
aI2502649802
aI172444621
aI2461997816
aI45012947
aI2563122133
aI2781854628
aI2800141274
aI2235148623
aI1557821946
aI920504112
aI105532384
aI2348265296
aI2228565756
aI2257476344
aI2310217712
aI179922417
aI2762958835
aI1031224824
aI228786682
aI152774141
atp223
Rp224
sg12
I5
sg13
g14
(g15
tp225
Rp226
Vhttp://bbc.in/1wVIY63
p227
I2
sVhttp://bbc.in/1o4UzPv
p228
I2
sVhttp://bit.ly/1wp74ah
p229
I2
sVhttp://tinyurl.com/n7aela5
p230
I2
sVhttp://bbc.in/1tORRyj
p231
I2
sVhttp://bbc.in/1sYagDE
p232
I146
sVhttp://bbc.in/1vy0fPq
p233
I2
sVhttp://bbc.in/1o4UQC0
p234
I2
sVhttp://bbc.in/1wVJIIl
p235
I2
sVhttp://bbc.in/1o40Vi9
p236
I2
sVhttp://bbc.in/1vzhtvZ
p237
I2
sVhttp://bbc.in/1vy0jP2
p238
I2
sVhttp://bbc.in/1wTVvXB
p239
I12
sVhttp://bbc.in/1u9gTtm
p240
I184
sVhttp://bbc.in/1tOPxqU
p241
I2
ssg215
Vvideo briton held over hong kong murders a british national has been arrested in hong kong after the bodies
p242
sg217
I2
sg218
I2
sg219
I11
sa(dp243
g2
(dp244
g4
I348
sg5
I10
ssg6
I358
sg7
g8
((lp245
I805213699
aI769702230
aI169851913
aI1172857250
aI1181078616
aI26468371
aI1033094167
aI464793114
aI2561724956
aI111530019
aI168947615
aI41737766
aI54845480
aI140454958
aI239252744
aI28137012
aI28835337
aI119715385
aI1209338426
aI455851074
aI27197195
aI2832416326
aI134036554
aI2260089528
aI370213464
aI47840442
aI23476830
aI1607518303
aI47427170
aI329115835
aI621419621
aI369595495
aI246384828
aI1470411882
aI1187139175
aI400789101
aI2303983805
aI51477107
aI2620862069
aI379337337
aI2888069244
aI1028934278
aI86564289
aI941136523
aI78956685
aI369772175
aI1938806928
aI248190100
aI459784853
aI17538710
aI163166877
aI36976294
aI372472999
aI1357677084
aI610320045
aI227863215
aI830035634
aI1426742965
aI19430583
aI115543224
aI514455738
aI202854687
aI1303168188
aI2416318141
aI708232897
aI779180738
aI2414457033
aI285710027
aI861081805
aI1407559375
aI1472588323
aI147092180
aI1214410454
aI166920923
aI2703574261
aI447200490
aI424081191
aI16691950
aI22699560
aI2193567955
aI14387445
aI755320566
aI56988884
aI1868469498
aI105733377
aI19458818
aI178991367
aI81577736
aI211781385
aI47047946
aI46428427
aI2395710733
aI20715279
aI125132334
aI605077270
aI170537243
aI2323153692
aI15666463
aI518172448
aI1608007387
aI99064612
aI55492903
aI2792760105
aI17246506
aI1119008556
aI2322296624
aI23169841
aI1628389686
aI72242228
aI231294778
aI314249532
aI56693630
aI2828836168
aI271350095
aI44001616
aI19051857
aI116172115
aI2676050774
aI428971031
aI52834959
aI2802126685
aI193135132
aI257717599
aI48235875
aI2636688229
aI366517094
aI574180716
aI461730157
aI55687534
aI1647798644
aI98631543
aI251286393
aI1669934971
aI2179239806
aI14119808
aI484369793
aI241631107
aI108952964
aI30416773
aI176765318
aI2826768270
aI727472528
aI60970386
aI363199891
aI1325453720
aI2398386159
aI555202975
aI388326816
aI108033441
aI2253128610
aI19610536
aI148382123
aI111820717
aI817594525
aI192938417
aI2764739508
aI88431930
aI15124927
aI491466176
aI2291940289
aI2562463616
aI101429701
aI229653446
aI113200585
aI272096247
aI411111373
aI229108689
aI174093269
aI436365792
aI282367461
aI581230076
aI933882858
aI237509103
aI234642934
aI127725559
aI278389755
aI2508865532
aI3108351
atp246
Rp247
sg12
I5
sg13
g14
(g15
tp248
Rp249
Vhttp://on.wsj.com/1EbRcKD
p250
I324
sVhttp://on.wsj.com/1zqQngW
p251
I34
ssg215
Va top hong kong official rejects vote as prodemocracy protests enter a sixth week
p252
sg217
I3
sg218
I2
sg219
I11
sa(dp253
g2
(dp254
g4
I0
sg5
I352
ssg6
I352
sg7
g8
((lp255
I415155712
aI2400908118
aI364261383
aI91425800
aI2384689165
aI1647967248
aI395132433
aI379375634
aI356533780
aI107484181
aI2274839983
aI2388511261
aI2249724961
aI2610276445
aI2167061041
aI310220340
aI270963254
aI1930027956
aI236234079
aI2400912956
aI2569867838
aI2223383617
aI368329795
aI2156364362
aI810755659
aI2376656994
aI985584720
aI307781201
aI1269213270
aI2381531226
aI607283292
aI955474525
aI2355526757
aI227279175
aI2295150692
aI2371632229
aI2595330158
aI2410865263
aI853088881
aI2215020150
aI417299066
aI1472430217
aI996031632
aI2393733877
aI443733140
aI1534273646
aI877415574
aI183513246
aI2317276320
aI590312609
aI2556917922
aI21249699
aI2742096558
aI1520306352
aI2383145652
aI2500790454
aI284433083
aI205170371
aI556583621
aI2149571786
aI132247757
aI213072084
aI2374760058
aI276542417
aI2383142268
aI2386351400
aI1594949365
aI319491830
aI2807588600
aI2373135097
aI1602722556
aI341611261
aI1030919934
aI2338312959
aI632511744
aI2346674474
aI1610261773
aI2797145360
aI2224491793
aI619884931
aI1595458836
aI227440917
aI1552536854
aI1060738332
aI2428381658
aI2675360544
aI426585889
aI405859108
aI2616684840
aI407905065
aI2781890346
aI2691100975
aI920504112
aI2558500712
aI247104309
aI475006262
aI1907406649
aI613493565
aI941769534
aI2524806468
aI2783727943
aI2162817865
aI1545672522
aI2235148623
aI2348265296
aI2352653137
aI1101678990
aI1536493398
aI94356831
aI45346960
aI2369975142
aI1464140689
aI2780474216
aI174215533
aI2191793006
aI2334984050
aI71577974
aI1615254391
aI422587260
aI144087939
aI2365021572
aI2835972489
aI780042637
aI2371348878
aI1332293520
aI360859025
aI1852601750
aI866181530
aI2781893540
aI357576615
aI2258340776
aI1479530311
aI2781994927
aI1658958260
aI1473829813
aI222817424
aI366863800
aI1479550394
aI1620412862
aI190810047
aI858997700
aI344160709
aI1016868296
aI2502649802
aI172444621
aI2371371470
aI271703503
aI2257476344
aI45012947
aI1345574868
aI2563122133
aI2781854628
aI2800141274
aI1557821946
aI105532384
aI2595053648
aI2228565756
aI56769269
aI2461997816
aI2310217712
aI179922417
aI2762958835
aI159053301
aI1031224824
aI228786682
aI152774141
atp256
Rp257
sg12
I5
sg13
g14
(g15
tp258
Rp259
Vhttp://tinyurl.com/nfq63tk
p260
I2
sVhttp://bbc.in/1vyWQzS
p261
I126
sVhttp://bbc.in/1o4GVvH
p262
I2
sVhttp://bbc.in/1vyXFIW
p263
I10
sVhttp://bbc.in/1vzihRe
p264
I2
sVhttp://tinyurl.com/oucgz8e
p265
I2
sVhttp://bbc.in/1o4H3LH
p266
I2
sVhttp://tinyurl.com/qe3z7wm
p267
I6
sVhttp://bbc.in/1vyWV6L
p268
I190
sVhttp://bbc.in/1ucEtWc
p269
I2
sVhttp://bbc.in/1vyYpxG
p270
I4
sVhttp://bbc.in/1ucDR2J
p271
I2
sVhttp://bbc.in/1o4GSjm
p272
I2
ssg215
Vhong kong police question briton hong kong police continue to question a 29yearold british man arrested on
p273
sg217
I4
sg218
I2
sg219
I11
sa(dp274
g2
(dp275
g4
I2
sg5
I320
ssg6
I322
sg7
g8
((lp276
I2416769408
aI2354312706
aI538646787
aI529557381
aI470848138
aI610817035
aI357019706
aI357014798
aI454944655
aI456088336
aI611796626
aI454871017
aI468343710
aI307335257
aI609348120
aI607388207
aI623133615
aI2835333278
aI2822007199
aI527844923
aI357719330
aI571825883
aI414139300
aI2876438952
aI571771945
aI357707562
aI2866989882
aI466304813
aI307330351
aI265826248
aI2601125810
aI455136308
aI500982430
aI865861687
aI2860154810
aI2274175675
aI2868655166
aI356350527
aI571550017
aI520520466
aI452405827
aI355661893
aI315198463
aI457664840
aI458131682
aI453353036
aI571560853
aI2430244561
aI2884496467
aI457777876
aI455855573
aI468421718
aI2606726359
aI2846246744
aI2833784430
aI2597946458
aI2391137167
aI627790556
aI2323614813
aI1399588832
aI475582817
aI2416720866
aI305646587
aI356341990
aI2411955814
aI602359657
aI315259154
aI2876707435
aI610948077
aI2544978158
aI465304872
aI2401107667
aI1949295732
aI2292569719
aI1350843896
aI606615720
aI527844435
aI1967696149
atp277
Rp278
sg12
I5
sg13
g14
(g15
tp279
Rp280
Vhttp://dlvr.it/7P0Cqh
p281
I2
sVhttp://dlvr.it/7NzsJS
p282
I2
sVhttp://dlvr.it/7Nzr7f
p283
I2
sVhttp://dlvr.it/7P07Gv
p284
I2
sVhttp://dlvr.it/7P06sL
p285
I2
sVhttp://dlvr.it/7NzqKd
p286
I2
sVhttp://dlvr.it/7P0Cf1
p287
I2
sVhttp://dlvr.it/7Nzwmx
p288
I2
sVhttp://dlvr.it/7NzxGj
p289
I2
sVhttp://dlvr.it/7P08k8
p290
I2
sVhttp://dlvr.it/7NzxB9
p291
I2
sVhttp://dlvr.it/7Nzvcb
p292
I2
sVhttp://dlvr.it/7NzpBx
p293
I2
sVhttp://dlvr.it/7P07td
p294
I2
sVhttp://dlvr.it/7Nzvcg
p295
I2
sVhttp://dlvr.it/7NzrKB
p296
I2
sVhttp://dlvr.it/7Nzt86
p297
I2
sVhttp://dlvr.it/7Nzrr3
p298
I2
sVhttp://dlvr.it/7P07BY
p299
I2
sVhttp://dlvr.it/7NzpBd
p300
I2
sVhttp://dlvr.it/7P0Bly
p301
I2
sVhttp://dlvr.it/7NzvBh
p302
I2
sVhttp://dlvr.it/7NzrKQ
p303
I2
sVhttp://dlvr.it/7NztlG
p304
I2
sVhttp://dlvr.it/7P079n
p305
I2
sVhttp://dlvr.it/7Nzvxc
p306
I2
sVhttp://dlvr.it/7NzvM1
p307
I2
sVhttp://dlvr.it/7P099w
p308
I2
sVhttp://dlvr.it/7NzttZ
p309
I2
sVhttp://dlvr.it/7P07mP
p310
I2
sVhttp://dlvr.it/7NzqK2
p311
I2
sVhttp://dlvr.it/7NzwBj
p312
I2
sVhttp://dlvr.it/7P0564
p313
I2
sVhttp://dlvr.it/7NzvZW
p314
I2
sVhttp://dlvr.it/7NzrZD
p315
I2
sVhttp://dlvr.it/7P09pp
p316
I2
sVhttp://dlvr.it/7P07cn
p317
I2
sVhttp://dlvr.it/7Nzvly
p318
I2
sVhttp://dlvr.it/7NzvD7
p319
I2
sVhttp://dlvr.it/7P0BHY
p320
I2
sVhttp://dlvr.it/7NzsbF
p321
I2
sVhttp://dlvr.it/7NzscP
p322
I2
sVhttp://dlvr.it/7P074v
p323
I2
sVhttp://dlvr.it/7Nzws2
p324
I2
sVhttp://dlvr.it/7Nzs5C
p325
I2
sVhttp://dlvr.it/7P09jf
p326
I2
sVhttp://dlvr.it/7P08Q2
p327
I2
sVhttp://dlvr.it/7NzpSr
p328
I2
sVhttp://dlvr.it/7Nzqcm
p329
I2
sVhttp://dlvr.it/7NztHt
p330
I2
sVhttp://dlvr.it/7NzqLV
p331
I2
sVhttp://dlvr.it/7P0C3f
p332
I2
sVhttp://dlvr.it/7NzsXL
p333
I2
sVhttp://dlvr.it/7P07zK
p334
I2
sVhttp://dlvr.it/7P07cx
p335
I2
sVhttp://dlvr.it/7P07kk
p336
I2
sVhttp://dlvr.it/7P07rc
p337
I4
sVhttp://dlvr.it/7NzsPq
p338
I2
sVhttp://dlvr.it/7NzrKt
p339
I2
sVhttp://dlvr.it/7P07Sz
p340
I2
sVhttp://dlvr.it/7P08wN
p341
I2
sVhttp://dlvr.it/7NzrjD
p342
I2
sVhttp://dlvr.it/7P09P3
p343
I2
sVhttp://dlvr.it/7NztHL
p344
I2
sVhttp://dlvr.it/7P0D6b
p345
I2
sVhttp://dlvr.it/7P07F5
p346
I2
sVhttp://dlvr.it/7P05Wj
p347
I2
sVhttp://dlvr.it/7NzwGs
p348
I2
sVhttp://dlvr.it/7P0BJl
p349
I2
sVhttp://dlvr.it/7NzwnB
p350
I2
sVhttp://dlvr.it/7NzqnF
p351
I2
sVhttp://dlvr.it/7NzsvB
p352
I2
sVhttp://dlvr.it/7P0CjD
p353
I2
sVhttp://dlvr.it/7Nzsqs
p354
I2
sVhttp://dlvr.it/7Nzp40
p355
I2
sVhttp://dlvr.it/7Nzwn4
p356
I2
sVhttp://dlvr.it/7Nzwy3
p357
I2
sVhttp://dlvr.it/7P09kh
p358
I2
sVhttp://dlvr.it/7P05ms
p359
I2
sVhttp://dlvr.it/7P07pd
p360
I2
sVhttp://dlvr.it/7NzwVG
p361
I2
sVhttp://dlvr.it/7P07Np
p362
I2
sVhttp://dlvr.it/7P0CJr
p363
I2
sVhttp://dlvr.it/7NzshV
p364
I2
sVhttp://dlvr.it/7Nzr0J
p365
I2
sVhttp://dlvr.it/7Nzq1Q
p366
I2
sVhttp://dlvr.it/7Nzw5y
p367
I2
sVhttp://dlvr.it/7NztND
p368
I2
sVhttp://dlvr.it/7Nztw5
p369
I2
sVhttp://dlvr.it/7NzpgP
p370
I2
sVhttp://dlvr.it/7Nzthj
p371
I2
sVhttp://dlvr.it/7P03Yg
p372
I2
sVhttp://dlvr.it/7Nzqhv
p373
I2
sVhttp://dlvr.it/7Nzrn4
p374
I2
sVhttp://dlvr.it/7P08Cd
p375
I2
sVhttp://dlvr.it/7NztSq
p376
I2
sVhttp://dlvr.it/7NzryF
p377
I2
sVhttp://dlvr.it/7P09jV
p378
I2
sVhttp://dlvr.it/7P0635
p379
I2
sVhttp://dlvr.it/7NzvX8
p380
I2
sVhttp://dlvr.it/7NzsLP
p381
I2
sVhttp://dlvr.it/7P0BWd
p382
I2
sVhttp://dlvr.it/7NzvPy
p383
I2
sVhttp://dlvr.it/7P070R
p384
I2
sVhttp://dlvr.it/7Nzs1S
p385
I2
sVhttp://dlvr.it/7P091T
p386
I2
sVhttp://dlvr.it/7P08Tn
p387
I2
sVhttp://dlvr.it/7P06Q9
p388
I2
sVhttp://dlvr.it/7Nzr5K
p389
I2
sVhttp://bit.ly/1sZKgrn
p390
I2
sVhttp://dlvr.it/7NzqR4
p391
I2
sVhttp://dlvr.it/7P08MV
p392
I2
sVhttp://dlvr.it/7Nzsnm
p393
I2
sVhttp://dlvr.it/7Nzst6
p394
I2
sVhttp://dlvr.it/7Nzt3Q
p395
I2
sVhttp://dlvr.it/7P08K4
p396
I2
sVhttp://dlvr.it/7P06QZ
p397
I2
sVhttp://dlvr.it/7P05Hm
p398
I2
sVhttp://dlvr.it/7Nzs8t
p399
I2
sVhttp://dlvr.it/7P063M
p400
I2
sVhttp://dlvr.it/7NzrXV
p401
I2
sVhttp://dlvr.it/7P08Mx
p402
I2
sVhttp://bit.ly/1sZKgrB
p403
I66
sVhttp://dlvr.it/7NzvQp
p404
I2
sVhttp://dlvr.it/7Nzrwl
p405
I2
sVhttp://dlvr.it/7P09T0
p406
I2
sVhttp://dlvr.it/7P086W
p407
I2
sVhttp://dlvr.it/7Nzq3V
p408
I2
ssg215
Vabout the students from hong kong who darent voice open support for occupy
p409
sg217
I5
sg218
I2
sg219
I11
sa(dp410
g2
(dp411
g4
I174
sg5
I146
ssg6
I320
sg7
g8
((lp412
I309843971
aI327238660
aI2445577221
aI555503622
aI47113735
aI233292296
aI350001555
aI48874510
aI574348303
aI45390864
aI523818001
aI103307794
aI23210004
aI589073948
aI17573918
aI970770608
aI15747078
aI338587175
aI86785588
aI18704439
aI384736648
aI20482617
aI955062331
aI24803082
aI562680382
aI125549631
aI273595457
aI630732363
aI962149968
aI89208915
aI187147866
aI108987996
aI724889701
aI278264929
aI17001061
aI1410774122
aI2243052661
aI20715638
aI529766521
aI2727226645
aI2358350928
aI22918287
aI2341223569
aI18647698
aI1967813779
aI15385236
aI322281109
aI49066655
aI153625765
aI18758312
aI1001929386
aI2793168046
aI407475376
aI39535018
aI1128696500
aI2711204024
aI16859833
aI101318849
aI411621494
aI7555782
aI178873889
aI20602570
aI2714952908
aI2385383630
aI1906665176
aI2330112218
aI137552604
aI1132175070
aI20394720
aI244459746
aI1460288238
aI574630639
aI591380208
aI380770548
aI947958006
aI70587127
aI2224232696
aI626345722
aI124841220
aI37091078
aI806616842
aI16059147
aI458621197
aI25808658
aI333315861
aI255531287
aI20925446
aI95083293
aI1935265058
aI991599836
aI1096955179
aI188108079
aI50934577
aI1390725938
aI2878411998
aI26163517
aI9260862
aI1869513535
aI34665792
aI43844930
aI487176004
aI7349062
aI1076946247
aI987773264
aI1732681554
aI15066963
aI49664349
aI130934111
aI34033504
aI1246177122
aI295330659
aI20704612
aI2825953937
aI760315758
aI109232499
aI731956597
aI1306186106
aI78382995
aI857121152
aI209111938
aI2367370628
aI405065606
aI594590088
aI71340937
aI523933075
aI438310807
aI61736859
aI121639325
aI18856867
aI152051108
aI475877287
aI2848630696
aI18270633
aI2814848426
aI21352370
aI2572916660
aI345343418
aI379767285
aI1134496706
aI130341846
aI21542359
aI2314583000
aI1648045988
aI2797781981
aI2526576805
aI2790243809
aI264004582
aI16892534
aI204872686
aI431771635
aI169443326
aI2181188602
aI23620605
aI1068223998
aI138388479
atp413
Rp414
sg12
I5
sg13
g14
(g15
tp415
Rp416
Vhttp://dlvr.it/7P9sXz
p417
I2
sVhttp://bit.ly/1tPBXUj
p418
I2
sVhttp://www.blacklistednews.com/BofA_Banker_Arrested_In_Hong_Kong_For_Double_Murder_Of_Two_Prostitutes%2C_One_Victim_Was_Stuffed_In_A_Suitcase/38919/0/38/38/Y/M.html?utm_source=dlvr.it&utm_medium=twitter#.VFZ7OAXMzV8.twitter
p419
I2
sVhttp://ift.tt/1ucy8tU
p420
I2
sVhttp://bit.ly/1tPBXUa
p421
I2
sVhttp://dlvr.it/7PGw9C
p422
I2
sVhttp://www.zerohedge.com/news/2014-11-02/bofa-banker-arrested-hong-kong-double-murder-two-prostitutes-one-victim-was-stuffed-
p423
I190
sVhttp://go.shr.lc/1Gcwegv
p424
I2
sVhttp://www.blacklistednews.com/BofA_Banker_Arrested_In_Hong_Kong_For_Double_Murder_Of_Two_Prostitutes%2C_One_Victim_Was_Stuffed_In_A_Suitcase/38919/0/38/38/Y/M.html?utm_source=dlvr.it&utm_medium=twitter
p425
I2
sVhttp://bit.ly/1tPBUYt
p426
I4
sVhttp://ow.ly/2Q27eF
p427
I2
sVhttp://ow.ly/2Q27eG
p428
I2
sVhttp://ift.tt/1rN7Xmu
p429
I4
sVhttp://www.zerohedge.com/print/496763
p430
I2
sVhttp://lnkd.in/bcUgMsY
p431
I2
sVhttp://www.blacklistednews.com/BofA_Banker_Arrested_In_Hong_Kong_For_Double_Murder_Of_Two_Prostitutes%2C_One_Victim_Was_Stuffed_In_A_Suitcase/38919/0/38/38/Y/M.html#.VFakaTalP-A.twitter
p432
I6
sVhttp://bit.ly/10d6P58
p433
I2
sVhttp://www.blacklistednews.com/BofA_Banker_Arrested_In_Hong_Kong_For_Double_Murder_Of_Two_Prostitutes%2C_One_Victim_Was_Stuffed_In_A_Suitcase/38919/0/38/38/Y/M.html
p434
I4
sVhttp://ift.tt/10eqcuM
p435
I8
sVhttp://dlvr.it/7PGv2z
p436
I2
sVhttp://dlvr.it/7P8sQm
p437
I2
sVhttp://fb.me/1jbcHV375
p438
I2
sVhttp://dlvr.it/7PBRDq
p439
I2
sVhttp://www.blacklistednews.com/BofA_Banker_Arrested_In_Hong_Kong_For_Double_Murder_Of_Two_Prostitutes%2C_One_Victim_Was_Stuffed_In_A_Suitcase/38919/0/38/38/Y/M.html#.VFZvhLZp6Ik.twitter
p440
I4
sVhttp://dlvr.it/7P7gZb
p441
I2
sVhttp://bit.ly/1wWSVjI
p442
I2
sVhttp://12160.info/page/bofa-banker-arrested-in-hong-kong-for-double-murder-of-two-prosti
p443
I4
sVhttp://ow.ly/2Q23rV
p444
I2
sVhttp://dlvr.it/7P9XNB
p445
I4
sVhttp://bit.ly/1vBQMXo
p446
I2
sVhttp://bit.ly/1s5cnq4
p447
I2
sVhttp://bit.ly/1zZj2uI
p448
I2
sVhttp://bit.ly/1tPBUIe
p449
I2
sVhttp://zite.to/1tPI7Uu
p450
I2
sVhttp://dlvr.it/7P9m1Y
p451
I4
sVhttp://ift.tt/1DLi1De
p452
I2
sVhttp://dlvr.it/7P7ljV
p453
I2
sVhttp://bit.ly/1GaaYbj
p454
I12
sVhttp://fb.me/2FM2MBmCB
p455
I2
sVhttp://ift.tt/1o4Rn6o
p456
I4
sVhttp://dlvr.it/7P9qkM
p457
I14
sVhttp://ow.ly/2Q24Pa
p458
I2
ssg215
Vbofa banker arrested in hong kong for double murder of two prostitutes one victim was stuffed in a suitcase
p459
sg217
I6
sg218
I2
sg219
I11
sa(dp460
g2
(dp461
g4
I300
sg5
I4
ssg6
I304
sg7
g8
((lp462
I401094657
aI197972998
aI2838883329
aI89702416
aI240705920
aI26468371
aI428971031
aI37607172
aI471904795
aI2561724956
aI302593061
aI54845480
aI350298666
aI243821101
aI450334254
aI627181617
aI28137012
aI2754345013
aI2317836855
aI1209338426
aI106576955
aI18470973
aI64724544
aI1143818166
aI160814153
aI2432281674
aI100051020
aI793479758
aI28600400
aI185217107
aI1729287254
aI2291916893
aI1607518303
aI621419621
aI178487912
aI605081194
aI422362223
aI866357880
aI427651198
aI39950978
aI50891913
aI954528907
aI1722978956
aI52834959
aI818705040
aI272173206
aI393518232
aI1900701342
aI61825183
aI483395237
aI2346563100
aI576801455
aI153999537
aI242815160
aI77959028
aI34784955
aI411259340
aI41927882
aI565953228
aI1407559375
aI2164107473
aI1608007387
aI70551780
aI292494056
aI362693927
aI744078572
aI455481582
aI25191678
aI63211776
aI105733377
aI2617625346
aI376734467
aI111151364
aI1947967238
aI239252744
aI21112073
aI211841805
aI2269742864
aI424091923
aI1917539618
aI16256292
aI101306150
aI424081191
aI1119008556
aI1710388525
aI353354040
aI838962740
aI314249532
aI38469445
aI180750151
aI585376076
aI324148047
aI2676050774
aI25572186
aI35103588
aI2788435301
aI2859204966
aI1692174140
aI21457771
aI211744108
aI144045423
aI253613937
aI1647798644
aI42812790
aI45568375
aI526673786
aI2562463616
aI484369793
aI19723651
aI83678700
aI2220233623
aI1656792973
aI1286571920
aI27586962
aI1242550164
aI41963925
aI132803991
aI2654962584
aI392054685
aI931369374
aI216475552
aI1026328993
aI526516642
aI210462629
aI19734438
aI1723042730
aI2764739508
aI2313187254
aI2382630839
aI273485240
aI248561081
aI80898207
aI586605509
aI229653446
aI1146712519
aI14154188
aI2806640034
aI2304451543
aI10595802
aI2787938268
aI1520204965
aI464313424
aI17265123
aI1400992230
aI1584865260
aI1062791150
aI237509103
aI23105520
aI276518854
aI1056071676
aI3108351
atp463
Rp464
sg12
I5
sg13
g14
(g15
tp465
Rp466
Vhttp://on.wsj.com/1wYXdHj
p467
I284
sVhttp://on.wsj.com/1wVUssM
p468
I20
ssg215
Vbritish banker charged in double murder in hong kong one victim found in a suitcase
p469
sg217
I7
sg218
I2
sg219
I11
sa(dp470
g2
(dp471
g4
I32
sg5
I250
ssg6
I282
sg7
g8
((lp472
I2482868233
aI762407948
aI1179710990
aI1291677200
aI2840426004
aI1209936918
aI1644035611
aI2524463646
aI94247971
aI302593061
aI304057894
aI599065130
aI2744537131
aI1720046125
aI2716028982
aI2484260408
aI113352252
aI198507274
aI296493118
aI1197991488
aI908203585
aI823879244
aI2635385424
aI15153236
aI368340567
aI168051289
aI2690538074
aI37659742
aI259501153
aI427973738
aI75895921
aI270909046
aI2274675319
aI2837777528
aI2363740794
aI337602704
aI29956760
aI1252119193
aI284613791
aI2466580130
aI2594486442
aI877319342
aI2452856503
aI18990144
aI2749832413
aI138357993
aI42957036
aI2528532205
aI2690281202
aI1291717885
aI872655614
aI208617216
aI91334917
aI363494152
aI1214289673
aI17038090
aI190939403
aI88889613
aI2710143776
aI1886288178
aI418100019
aI1592214848
aI69217092
aI1451808590
aI335455570
aI196110680
aI257961309
aI590366563
aI2351971177
aI1669934971
aI1195087230
aI293415807
aI2422121857
aI301696398
aI2764063637
aI787546010
aI41170844
aI1104938408
aI1177420700
aI388495274
aI2837295532
aI1163510196
aI2370429877
aI41508279
aI1643374520
aI2337544130
aI126816712
aI820691917
aI2675396563
aI224560091
aI1493233116
aI484878302
aI2383502816
aI41231330
aI452029413
aI629689831
aI2884955113
aI21166061
aI940000238
aI269707248
aI159671793
aI2228605939
aI2273178612
aI813064693
aI1895239670
aI887583224
atp473
Rp474
sg12
I5
sg13
g14
(g15
tp475
Rp476
Vhttp://9newsph.co/1wVC82X
p477
I2
sVhttp://ow.ly/2Q2Mca
p478
I2
sVhttp://goo.gl/fb/G5yJNN
p479
I2
sVhttp://tinyurl.com/lsp8zxm
p480
I2
sVhttp://goo.gl/fb/FWAAi6
p481
I2
sVhttp://dlvr.it/7PJxfW
p482
I4
sVhttp://ow.ly/2Q2Rw9
p483
I2
sVhttp://dlvr.it/7PK0zq
p484
I2
sVhttp://feeds.reuters.com/~r/reuters/financialServicesRealEstateNews/~3/GDaCJvwJJVY/story01.htm
p485
I2
sVhttp://news.gonevil.com/Ck2
p486
I2
sVhttp://fb.me/3gOtMR505
p487
I2
sVhttp://dlvr.it/7PKF9R
p488
I2
sVhttp://tinyurl.com/kee4x9t
p489
I2
sVhttp://ift.tt/1s6sYd3
p490
I2
sVhttp://www.reuters.com/article/idUSKBN0IM0W820141102
p491
I2
sVhttp://tmblr.co/ZS_jnm1Uh256p
p492
I2
sVhttp://ow.ly/2Q2O9t
p493
I2
sVhttp://ow.ly/2Q2QCn
p494
I2
sVhttp://bit.ly/1ufUgmZ
p495
I2
sVhttp://ow.ly/2Q2QSJ
p496
I2
sVhttp://dlvr.it/7PNTg9
p497
I2
sVhttp://goo.gl/fb/tMT9GK
p498
I2
sVhttp://reut.rs/1wYXKsP
p499
I2
sVhttp://ow.ly/2Q2QCt
p500
I2
sVhttp://dlvr.it/7PNrJl
p501
I2
sVhttp://dlvr.it/7PNwkb
p502
I2
sVhttp://twitter.com/antiinertia/status/529059906515906561/photo/1
p503
I2
sVhttp://www.occuworld.org/news/1667269
p504
I2
sVhttp://fb.me/3hvjkuPd7
p505
I2
sVhttp://dineroybolsa.com/s/111836
p506
I2
sVhttp://reut.rs/1wYiHUw
p507
I10
sVhttp://dlvr.it/7PNTF3
p508
I2
sVhttp://ift.tt/1DOYnWR
p509
I4
sVhttp://bit.ly/VakEyl
p510
I14
sVhttp://ift.tt/1wXdCLr
p511
I2
sVhttp://ow.ly/2Q2Ra7
p512
I2
sVhttp://reut.rs/1A1pD7Z
p513
I6
sVhttp://bit.ly/1GdldeT
p514
I2
sVhttp://ow.ly/2Q3cyl
p515
I2
sVhttp://reut.rs/1wYX32r
p516
I2
sVhttp://dlvr.it/7PPFCw
p517
I2
sVhttp://timesofindia.indiatimes.com/world/china/British-banker-charged-with-murder-of-two-women-in-Hong-Kong/articleshow/45019228.cms?utm_source=twitter.com&utm_medium=referral&utm_campaign=TOIRecentStory
p518
I2
sVhttp://ow.ly/2Q3cbi
p519
I2
sVhttp://dlvr.it/7PJs5R
p520
I2
sVhttp://ow.ly/2Q2KIU
p521
I2
sVhttp://ift.tt/1rPMZ6y
p522
I2
sVhttp://dlvr.it/7PNN5P
p523
I2
sVhttp://ift.tt/1ukKuk6
p524
I2
sVhttp://ow.ly/2Q3cqy
p525
I2
sVhttp://yhoo.it/1t4bQ71
p526
I2
sVhttp://dlvr.it/7PK4K2
p527
I2
sVhttp://bit.ly/1vC4zgv
p528
I8
sVhttp://fb.me/7b0gYBZC6
p529
I2
sVhttp://ow.ly/2Q3cTX
p530
I2
sVhttp://bit.ly/1ugb2m7
p531
I2
sVhttp://reut.rs/10dq4vj
p532
I4
sVhttp://dlvr.it/7PNsLP
p533
I2
sVhttp://dlvr.it/7PPcg0
p534
I2
sVhttp://ow.ly/2Q2Nhc
p535
I2
sVhttp://ow.ly/2Q2RSo
p536
I2
sVhttp://goo.gl/gGIM7e
p537
I2
sVhttp://ift.tt/1rPLhCn
p538
I2
sVhttp://ow.ly/2Q3crw
p539
I2
sVhttp://ift.tt/1wW0sjz
p540
I2
sVhttp://bit.ly/1tx6Z3s
p541
I8
sVhttp://ow.ly/2Q3aMB
p542
I2
sVhttp://dlvr.it/7PK0ZN
p543
I2
sVhttp://dlvr.it/7PJxhW
p544
I2
sVhttp://sansani.com/british-banker-charged-with-murder-of-two-women-in-hong-kong/
p545
I2
sVhttp://www.reuters.com/article/2014/11/02/hongkong-murder-banker-idUSL4N0SS0P920141102?feedType=RSS&amp;feedName=rbssFinancialServicesAndRealEstateNews
p546
I2
sVhttp://ift.tt/1xQUzSZ
p547
I2
sVhttp://bit.ly/1Ec5HOz
p548
I2
sVhttp://dlvr.it/7PJqpj
p549
I2
sVhttp://bit.ly/1wZcnfz
p550
I2
sVhttp://ow.ly/2Q2Neq
p551
I2
sVhttp://bit.ly/1pgnp06
p552
I6
sVhttp://dlvr.it/7PPdwS
p553
I2
sVhttp://reut.rs/1A2iCnn
p554
I10
sVhttp://dlvr.it/7PJvww
p555
I2
sVhttp://ow.ly/2Q3cpG
p556
I2
sVhttp://dlvr.it/7PKBrg
p557
I2
sVhttp://cyber-actu.com/british-banker-charged-murder-two-women-hong-kong-035956646--sector
p558
I2
sVhttp://goo.gl/fb/Z5Tsqe
p559
I2
sVhttp://ow.ly/2Q3aJm
p560
I2
sVhttp://goo.gl/fb/6js9rJ
p561
I2
sVhttp://ift.tt/1wWFOQc
p562
I2
sVhttp://ow.ly/2Q2NjU
p563
I2
sVhttp://news.gonevil.com/CkB
p564
I2
sVhttp://ow.ly/2Q2NjX
p565
I2
sVhttp://dlvr.it/7PNVGj
p566
I4
sVhttp://goo.gl/fb/ejA5ms
p567
I2
sVhttp://goo.gl/fb/Bu9KBO
p568
I2
sVhttp://ift.tt/1wXpUmU
p569
I2
sVhttp://dlvr.it/7PNpgh
p570
I2
sVhttp://fb.me/6MRNfRMNY
p571
I2
sVhttp://bit.ly/1vC4PfG
p572
I2
sVhttp://blackberryappgenerator.com/mip/pct.jsp?p=949408308_586120
p573
I2
sVhttp://tinyurl.com/lgejdhm
p574
I2
sVhttp://bit.ly/WWDDbf
p575
I2
sVhttp://bit.ly/13xyyzE
p576
I2
sVhttp://dlvr.it/7PKWv8
p577
I2
sVhttp://ow.ly/2Q2N82
p578
I2
sVhttp://dlvr.it/7PP1HZ
p579
I2
sVhttp://dlvr.it/7PNX02
p580
I2
sVhttp://fb.me/3lV6BSUai
p581
I2
sVhttp://bit.ly/1EbJtw4
p582
I2
sVhttp://ow.ly/2Q3cHh
p583
I2
sVhttp://dlvr.it/7PNY5r
p584
I2
sVhttp://bit.ly/1wYYvSp
p585
I2
sVhttp://dlvr.it/7PK663
p586
I2
sVhttp://reut.rs/10dOsgi
p587
I6
sVhttp://fb.me/2rNE9Lojn
p588
I2
sVhttp://reut.rs/1wWo8Ta
p589
I4
sVhttp://ow.ly/2Q3cHF
p590
I2
sVhttp://j.mp/izea23
p591
I8
sVhttp://dlvr.it/7PNcK0
p592
I2
sVhttp://ow.ly/2Q2KDL
p593
I2
sVhttp://dineroybolsa.com/s/111857
p594
I2
sVhttp://fb.me/2Eca6gZsw
p595
I2
sVhttp://blackberryappgenerator.com/mip/pct.jsp?p=949363696_586120
p596
I2
sVhttp://bit.ly/1ufUieC
p597
I2
sVhttp://tmsnrt.rs/1wYZfXK
p598
I2
ssg215
Vbritish banker charged with murder of two women in hong kong
p599
sg217
I8
sg218
I2
sg219
I11
sa(dp600
g2
(dp601
g4
I262
sg5
I12
ssg6
I274
sg7
g8
((lp602
I190590979
aI2752282630
aI2225723400
aI123682314
aI2254374924
aI823733774
aI1359965784
aI2865482773
aI808160791
aI1370230296
aI2186300442
aI197437982
aI1947303967
aI378454107
aI2853067300
aI2862091316
aI415785026
aI33052739
aI121158213
aI2291033166
aI2854089809
aI2385795939
aI2390255701
aI80430679
aI2829388888
aI497463899
aI275236960
aI2668347491
aI2845078119
aI26871332
aI2885644406
aI295058041
aI26126464
aI103809666
aI462923401
aI2323317386
aI2845570071
aI185310348
aI1219567759
aI2878831764
aI2783688857
aI10252962
aI2569324195
aI162027172
aI437316380
aI1496359592
aI632328361
aI956311722
aI948708523
aI363698107
aI19807425
aI33261250
aI192450756
aI171287242
aI494549709
aI2853019857
aI1349886679
aI308459224
aI548960473
aI58450138
aI2850533597
aI2887662302
aI1315579616
aI1324856551
aI192638247
aI2855087345
aI2466084594
aI2838983411
aI148873469
aI89446151
aI2717765896
aI772314378
aI428333
aI275942684
aI2682897695
aI154498853
aI2887706407
aI2748475689
aI1617909037
aI2568057134
aI2831890735
aI431150896
aI36027193
aI47715651
aI38469445
aI2855579469
aI158019922
aI15096670
aI120316770
aI937808227
aI2465205092
aI385735015
aI1225907048
aI167708017
aI2849373075
aI120862070
aI119148948
aI2852376445
aI206954366
aI239582080
aI276943235
aI1085842826
aI61719436
aI1486931010
aI524901955
aI967113620
aI321017239
aI236170649
aI505848389
aI1531574696
aI2395151347
aI2552694715
aI181721022
aI2721649602
aI2598711235
aI2326136263
aI23732681
aI2329391052
aI355062738
aI31370199
aI2862096344
aI164821467
aI2790243809
aI2886922724
aI2202282662
aI1950319591
aI232229359
aI294022129
aI85902323
aI2239310838
aI855556087
aI1470613496
aI560056314
aI964658683
atp603
Rp604
sg12
I5
sg13
g14
(g15
tp605
Rp606
Vhttp://ln.is/cnn.it/8hRC8
p607
I2
sVhttp://cnn.it/13wzQel
p608
I272
ssg215
Vbritish national charged with murder in the deaths of two women in hong kong
p609
sg217
I9
sg218
I2
sg219
I11
sa(dp610
g2
(dp611
g4
I0
sg5
I232
ssg6
I232
sg7
g8
((lp612
I2567306240
aI550210056
aI1624649227
aI2567308818
aI95165465
aI223057946
aI278370845
aI2212972574
aI539685410
aI525963811
aI2389431337
aI2411871278
aI2451375666
aI160930875
aI80855613
aI1867362378
aI202715724
aI956324941
aI1463499854
aI2369907793
aI2242439771
aI1004424294
aI481262697
aI1507761774
aI217208433
aI620713076
aI381652598
aI2837777528
aI1304515705
aI1727895685
aI1629892242
aI2408137364
aI326629998
aI2577056407
aI2729681561
aI610705946
aI624803
aI18901699
aI1924796616
aI2566956234
aI352550098
aI1640973012
aI489195223
aI323685593
aI2567353050
aI195714277
aI229238001
aI2566769406
aI2792170752
aI758659860
aI599740181
aI2566910743
aI549093082
aI36964638
aI403204901
aI32916265
aI702031146
aI353693997
aI246778672
aI1235965759
aI1592214848
aI515544393
aI975774038
aI511953244
aI2566815582
aI84781408
aI2408161122
aI204416356
aI1911089510
aI86142824
aI1316708413
aI2566762878
aI2422121857
aI2768062344
aI2566996873
aI1016733578
aI2153242508
aI1556118416
aI104403350
aI787546010
aI2200238490
aI2408086436
aI2598876590
aI2370429877
aI1273848278
aI552363428
aI2408795617
aI404680674
aI452029413
aI1326560743
aI1557220340
aI813064693
aI1308079098
aI635831295
atp613
Rp614
sg12
I5
sg13
g14
(g15
tp615
Rp616
Vhttp://buff.ly/1wUvfLL
p617
I2
sVhttp://dlvr.it/7P2pM8
p618
I2
sVhttp://dlvr.it/7P32xL
p619
I2
sVhttp://BAKMODA.COM
p620
I48
sVhttp://dlvr.it/7P2dXL
p621
I2
sVhttp://dlvr.it/7P2p0P
p622
I2
sVhttp://dlvr.it/7P2llJ
p623
I2
sVhttp://ow.ly/2Q1NUD
p624
I2
sVhttp://notainteresante.serprotec.com.mx/?VerNota=B4D62F338D6C76B08C7EC07C1824DD88
p625
I2
sVhttp://dlvr.it/7P34tS
p626
I2
sVhttp://dlvr.it/7P32H2
p627
I2
sVhttp://dlvr.it/7P32WT
p628
I2
sVhttp://dlvr.it/7P2lgN
p629
I2
sVhttp://dlvr.it/7P33Df
p630
I2
sVhttp://goo.gl/fb/B1uOyo
p631
I2
sVhttp://dlvr.it/7P2x5H
p632
I2
sVhttp://dlvr.it/7P2n3F
p633
I2
sVhttp://dlvr.it/7P3xcd
p634
I2
sVhttp://www.bbc.co.uk/news/world-asia-29867344#sa-ns_mchannel=rss&ns_source=PublicRSS20-sa
p635
I6
sVhttp://dlvr.it/7P322J
p636
I2
sVhttp://ow.ly/2Q1MkJ
p637
I2
sVhttp://goo.gl/fb/Nefbyc
p638
I2
sVhttp://dlvr.it/7P2x4V
p639
I2
sVhttp://dlvr.it/7P2j37
p640
I2
sVhttp://dlvr.it/7P34kk
p641
I2
sVhttp://bbc.in/1o40CDQ
p642
I2
sVhttp://dlvr.it/7P2jsp
p643
I2
sVhttp://dlvr.it/7P2fF0
p644
I2
sVhttp://ow.ly/2Q1Mv8
p645
I2
sVhttp://goo.gl/kQQNrc
p646
I2
sVhttp://goo.gl/VQsrYF
p647
I2
sVhttp://bbc.in/1vy0jP2
p648
I2
sVhttp://dlvr.it/7P2p21
p649
I2
sVhttp://dlvr.it/7P2lvB
p650
I2
sVhttp://dlvr.it/7P32xF
p651
I2
sVhttp://dlvr.it/7P2dXZ
p652
I2
sVhttp://dlvr.it/7P33Z5
p653
I2
sVhttp://dlvr.it/7P2twL
p654
I2
sVhttp://dlvr.it/7P2zFh
p655
I2
sVhttp://dlvr.it/7P2hWY
p656
I2
sVhttp://goo.gl/zL4XZ6
p657
I2
sVhttp://bakmoda.com
p658
I36
sVhttp://bbc.in/1wTVvXB
p659
I2
sVhttp://goo.gl/fb/1Jodgd
p660
I2
sVhttp://dlvr.it/7P32jG
p661
I2
sVhttp://dlvr.it/7P2drV
p662
I2
sVhttp://dlvr.it/7P34Tz
p663
I2
sVhttp://dlvr.it/7P2gxs
p664
I2
sVhttp://dlvr.it/7P2z7z
p665
I2
sVhttp://dlvr.it/7P2mbP
p666
I2
sVhttp://dlvr.it/7P2cHS
p667
I2
sVhttp://dlvr.it/7P31zp
p668
I2
sVhttp://ift.tt/1qhGwBQ
p669
I12
sVhttp://dlvr.it/7P2trx
p670
I2
sVhttp://dlvr.it/7P2hW5
p671
I2
sVhttp://goo.gl/fb/bj9GoP
p672
I2
sVhttp://dlvr.it/7P2jvW
p673
I2
sVhttp://dlvr.it/7P3002
p674
I2
sVhttp://dlvr.it/7P2wD7
p675
I2
sVhttp://dlvr.it/7P31cl
p676
I2
sVhttp://dlvr.it/7P2nyc
p677
I2
sVhttp://bbc.in/1u9gTtm
p678
I32
sVhttp://dlvr.it/7P2hjd
p679
I2
sVhttp://dlvr.it/7P2dgp
p680
I2
sVhttp://dlvr.it/7P305v
p681
I2
sVhttp://dlvr.it/7P32zL
p682
I2
sVhttp://bbc.in/1sYagDE
p683
I24
sVhttp://dlvr.it/7P2kBG
p684
I2
sVhttp://dlvr.it/7P32c7
p685
I2
sVhttp://j.mp/izea23
p686
I4
sVhttp://goo.gl/fb/KBsMWZ
p687
I2
sVhttp://sansani.com/video-briton-held-over-hong-kong-murders/
p688
I2
sVhttp://dlvr.it/7P2lKD
p689
I2
sVhttp://dlvr.it/7P34wp
p690
I2
sVhttp://dlvr.it/7P2xqs
p691
I2
sVhttp://dlvr.it/7P32Jf
p692
I2
sVhttp://dlvr.it/7P2ncQ
p693
I4
sVhttp://dlvr.it/7P2jcC
p694
I2
sVhttp://dlvr.it/7P2qWy
p695
I2
sVhttp://dlvr.it/7P2n8F
p696
I2
sVhttp://dlvr.it/7P2zTM
p697
I2
ssg215
Vvideo briton held over hong kong murders
p698
sg217
I10
sg218
I2
sg219
I11
sa(dp699
g2
(dp700
g4
I220
sg5
I6
ssg6
I226
sg7
g8
((lp701
I172029952
aI468370435
aI20515845
aI2609234439
aI282196492
aI30617615
aI82330132
aI1293241879
aI103829531
aI2835363378
aI554187831
aI318832697
aI2454513962
aI409591356
aI913271359
aI485497413
aI2293018465
aI1436486216
aI2827118667
aI338253392
aI30968913
aI52605523
aI764103254
aI896488542
aI300681824
aI77758566
aI2332743271
aI92598375
aI2632993366
aI787774580
aI295058041
aI1499443836
aI257639041
aI62426475
aI1630364293
aI441193606
aI2804775048
aI115048587
aI1511127180
aI523701393
aI1540145617
aI15083162
aI1851556513
aI48088226
aI57704618
aI37092528
aI99077809
aI2231029939
aI53361848
aI2648604861
aI401489088
aI1375526088
aI162792649
aI2748594381
aI389812363
aI119402388
aI1893924578
aI354722022
aI165819623
aI394611324
aI370485482
aI265150193
aI2611858165
aI338424060
aI578167549
aI1049268481
aI915603715
aI14542087
aI103861007
aI299200282
aI1880116514
aI2569535786
aI187122482
aI2413877557
aI293819192
aI314249532
aI166520643
aI363717962
aI58512718
aI2395162465
aI2175314791
aI23153001
aI50897127
aI403049847
aI297718137
aI17853818
aI487197564
aI1687813543
aI2199431562
aI549668747
aI2321760660
aI439983001
aI41869213
aI2097571
aI60637095
aI229450153
aI65886122
aI27769270
aI2388301757
aI46566987
aI2420441029
aI68637640
aI184293833
aI41971663
aI496956881
aI1103674327
aI2610027482
aI411772393
aI122578411
aI2294997486
aI29475069
aI83745791
aI200332287
atp702
Rp703
sg12
I5
sg13
g14
(g15
tp704
Rp705
Vhttp://cnn.it/1s1IbMo
p706
I226
ssg215
Vsame hair same limp is that north koreas kim jong un at the hong kong protests occupyhk
p707
sg217
I11
sg218
I2
sg219
I11
sa(dp708
g2
(dp709
g4
I2
sg5
I208
ssg6
I210
sg7
g8
((lp710
I2567306240
aI139332366
aI550210056
aI1624649227
aI2567308818
aI1489796270
aI223057946
aI278370845
aI2212972574
aI967472671
aI539685410
aI525963811
aI64450084
aI727642152
aI114702380
aI2249330958
aI160930875
aI2370429877
aI2825172035
aI1867362378
aI956324941
aI376410894
aI368340567
aI2242439771
aI557428834
aI1004424294
aI481262697
aI2261479020
aI381652598
aI2837777528
aI1304515705
aI1629892242
aI966306451
aI2393298072
aI511898798
aI2566956234
aI549086924
aI352550098
aI323685593
aI549093082
aI169527526
aI229238001
aI2566769406
aI2391758079
aI2792170752
aI2422121857
aI1606064910
aI599740181
aI2566910743
aI453533469
aI80327968
aI774128420
aI403204901
aI2567353050
aI1544805674
aI464461104
aI38732601
aI2305929534
aI515544393
aI16816972
aI2566724436
aI511953244
aI2566815582
aI84781408
aI86142824
aI841623403
aI2722832755
aI755831359
aI2566762878
aI464450433
aI2768062344
aI2566996873
aI787546010
aI552363428
aI1104938408
aI2566752181
aI2660491081
aI2497726904
aI2159638466
aI584748487
aI185745880
aI2566708704
aI2431107457
aI404680674
aI452029413
aI813064693
aI12376572
aI635831295
atp711
Rp712
sg12
I5
sg13
g14
(g15
tp713
Rp714
Vhttp://dlvr.it/7PL1QP
p715
I2
sVhttp://notainteresante.serprotec.com.mx/?VerNota=522E3DEC101BBBA57B4235AB8C324B57
p716
I2
sVhttp://dlvr.it/7PKxp0
p717
I2
sVhttp://dlvr.it/7PKp6h
p718
I2
sVhttp://dlvr.it/7PL3gz
p719
I2
sVhttp://dlvr.it/7PKy9F
p720
I2
sVhttp://bbc.co.uk
p721
I2
sVhttp://dlvr.it/7PL3wv
p722
I2
sVhttp://dlvr.it/7PKxHK
p723
I2
sVhttp://ift.tt/1txdzag
p724
I2
sVhttp://dlvr.it/7PL1pW
p725
I2
sVhttp://dlvr.it/7PL2n8
p726
I2
sVhttp://dlvr.it/7PL3gT
p727
I4
sVhttp://dlvr.it/7PKvfl
p728
I2
sVhttp://dlvr.it/7PKz81
p729
I2
sVhttp://dlvr.it/7PKppD
p730
I2
sVhttp://dlvr.it/7PL2Hf
p731
I2
sVhttp://dlvr.it/7PL2nX
p732
I2
sVhttp://dlvr.it/7PL2XL
p733
I2
sVhttp://dlvr.it/7PKxGD
p734
I2
sVhttp://dlvr.it/7PKwZv
p735
I2
sVhttp://dlvr.it/7PKY0f
p736
I2
sVhttp://dlvr.it/7PKhP9
p737
I2
sVhttp://dlvr.it/7PKzLx
p738
I2
sVhttp://dlvr.it/7PL0nG
p739
I2
sVhttp://dlvr.it/7PL0Tf
p740
I2
sVhttp://dlvr.it/7PKyT9
p741
I2
sVhttp://dlvr.it/7PL0QK
p742
I2
sVhttp://dlvr.it/7PKz1H
p743
I2
sVhttp://dlvr.it/7PKy6x
p744
I2
sVhttp://dlvr.it/7PKyqp
p745
I2
sVhttp://goo.gl/NKaBNq
p746
I2
sVhttp://dlvr.it/7PKnTV
p747
I2
sVhttp://dlvr.it/7PL07W
p748
I2
sVhttp://dlvr.it/7PL3Z9
p749
I2
sVhttp://dlvr.it/7PL48p
p750
I2
sVhttp://bakmoda.com
p751
I36
sVhttp://dlvr.it/7PL1kH
p752
I2
sVhttp://ift.tt/1DNz33v
p753
I32
sVhttp://www.sievenews.com/merkels-rebuff-and-the-hong-kong-murders/
p754
I2
sVhttp://dlvr.it/7PL2ZQ
p755
I2
sVhttp://dlvr.it/7PL41l
p756
I2
sVhttp://dlvr.it/7PKxjR
p757
I2
sVhttp://news.bbc.co.uk
p758
I2
sVhttp://dlvr.it/7PL0pF
p759
I2
sVhttp://www.bbc.co.uk/news/blogs-the-papers-29875000
p760
I8
sVhttp://dlvr.it/7PKxz2
p761
I2
sVhttp://dlvr.it/7PKpHh
p762
I2
sVhttp://dlvr.it/7PKyTD
p763
I2
sVhttp://dlvr.it/7PKt2J
p764
I2
sVhttp://j.mp/13xepd2
p765
I2
sVhttp://goo.gl/bfNioa
p766
I2
sVhttp://goo.gl/fb/Tec5Hb
p767
I2
sVhttp://dlvr.it/7PL0Gx
p768
I2
sVhttp://dlvr.it/7PKk5q
p769
I2
sVhttp://dlvr.it/7PKyxb
p770
I2
sVhttp://dlvr.it/7PKzxf
p771
I2
sVhttp://dlvr.it/7PL2Dl
p772
I2
sVhttp://dlvr.it/7PKv1W
p773
I2
sVhttp://sansani.com/merkels-rebuff-and-the-hong-kong-murders/
p774
I2
sVhttp://dlvr.it/7PL3PF
p775
I2
sVhttp://dlvr.it/7PL1by
p776
I2
sVhttp://dlvr.it/7PKyZl
p777
I2
sVhttp://ow.ly/2Q2Wwx
p778
I2
sVhttp://dlvr.it/7PL2jV
p779
I2
sVhttp://goo.gl/fb/Kn19cF
p780
I2
sVhttp://anythingrelated.com
p781
I2
sVhttp://dlvr.it/7PL47Z
p782
I2
sVhttp://dlvr.it/7PL1vt
p783
I2
sVhttp://goo.gl/fb/al9hDj
p784
I2
sVhttp://dlvr.it/7PKrn7
p785
I2
sVhttp://dlvr.it/7PKnPW
p786
I2
sVhttp://dlvr.it/7PL2Yr
p787
I2
sVhttp://j.mp/10dwyud
p788
I2
sVhttp://dlvr.it/7PKzYS
p789
I2
sVhttp://dlvr.it/7PKyP1
p790
I2
sVhttp://BAKMODA.COM
p791
I60
sVhttp://dlvr.it/7PKWLM
p792
I2
sVhttp://dlvr.it/7PKzqB
p793
I2
sVhttp://dlvr.it/7PKqG7
p794
I2
sVhttp://dlvr.it/7PL35G
p795
I2
sVhttp://dlvr.it/7PL0hH
p796
I2
sVhttp://dlvr.it/7PKsCt
p797
I2
sVhttp://goo.gl/fb/T6qI6C
p798
I2
sVhttp://j.mp/izea23
p799
I4
sVhttp://www.bbc.co.uk/news/blogs-the-papers-29875000#sa-ns_mchannel=rss&ns_source=PublicRSS20-sa
p800
I6
ssg215
Vmerkels rebuff and the hong kong murders
p801
sg217
I12
sg218
I2
sg219
I11
sa(dp802
g2
(dp803
g4
I0
sg5
I206
ssg6
I206
sg7
g8
((lp804
I2786075652
aI2290234374
aI2290694664
aI2787825163
aI2289425431
aI2781890587
aI2793954848
aI2781830690
aI501517863
aI2781894697
aI2785460778
aI1597829640
aI2784600115
aI2799555642
aI2289809468
aI2797462598
aI501528141
aI2781889627
aI2289524316
aI2281776226
aI501531236
aI2781828714
aI2289400950
aI2780430973
aI501581961
aI1384605834
aI2290466960
aI2290651285
aI2785899174
aI2780235948
aI2279678125
aI2783619758
aI2781825714
aI2290230451
aI2781891265
aI2783604854
aI2780233416
aI501585105
aI501526238
aI501523173
aI2290949366
aI2780439799
aI2787480824
aI2781858044
aI2289550082
aI2787617540
aI2780478216
aI501520139
aI2289373458
aI2785913646
aI2787601688
aI2290627866
aI2780377884
aI2785749277
aI2291095854
aI146739934
aI2290103095
aI2781964602
aI2256974142
aI2418931519
aI2799846727
aI2787510601
aI2795571020
aI2783595878
aI2780474216
aI2781857132
aI232769907
aI2596006777
aI2785917830
aI2290377098
aI501529997
aI2787804050
aI2754656149
aI501587868
aI2781893540
aI2795721133
aI1597875644
aI2780492738
aI2799379909
aI2418943434
aI2772020695
aI2781854628
aI2752155098
aI2418990055
aI2278469100
aI2289667568
aI2762958835
aI2784654836
aI501514746
aI2780312575
atp805
Rp806
sg12
I5
sg13
g14
(g15
tp807
Rp808
Vhttp://chilp.it/708a8e
p809
I14
sVhttp://nv5im.tk
p810
I2
sVhttp://migre.me/mDc9s
p811
I2
sVhttp://7runs.tk
p812
I2
sVhttp://bit.ly/1t4O9eE
p813
I42
sVhttp://chilp.it/0ebf80
p814
I4
sVhttp://bit.ly/1wqM2rQ
p815
I92
sVhttp://dszfw.tk
p816
I2
sVhttp://bit.ly/1ufwVlz
p817
I4
sVhttp://migre.me/mDc72
p818
I2
sVhttp://bit.ly/1ufwXtB
p819
I40
ssg215
Vbriton arrested in hong kong for double murder a british banker will appear in a hong kong court monday to fa
p820
sg217
I13
sg218
I2
sg219
I11
sa(dp821
g2
(dp822
g4
I186
sg5
I12
ssg6
I198
sg7
g8
((lp823
I2385239569
aI123690515
aI2561724956
aI549198365
aI1612570153
aI2836223532
aI336489016
aI26985539
aI2698744388
aI505848389
aI1933319238
aI2291033166
aI2857702997
aI165916257
aI2614230630
aI277127538
aI227478142
aI2809901188
aI246991499
aI303400588
aI2845491341
aI2204798617
aI41330546
aI2378356896
aI78241446
aI275867309
aI2873016498
aI340183234
aI937776331
aI1431997652
aI2843688663
aI1733129436
aI2850533597
aI402380513
aI2716365543
aI264307945
aI2802503921
aI12038782
aI460939049
aI2878919418
aI1176918782
aI870721279
aI1543801099
aI17378574
aI2879276449
aI2741655314
aI2250967320
aI2831890735
aI1664059166
aI158722780
aI154498853
aI1169070812
aI2328936239
aI2224486710
aI262875447
aI400672059
aI1212320060
aI2385964938
aI2534871364
aI185409862
aI432214156
aI2651889720
aI208377173
aI454236505
aI1225907048
aI1188530546
aI366182265
aI617212285
aI126599658
aI1544733578
aI76451728
aI49322385
aI1454638999
aI21457817
aI2320657308
aI212573765
aI1313613296
aI786405282
aI408219044
aI2341464646
aI359456450
aI2427679162
aI715128768
aI2280337860
aI1134199201
aI465083854
aI1294711250
aI314641368
aI2761868709
aI2790243809
aI89236450
aI60711402
aI604883440
aI5402612
aI231400489
aI2857390583
aI2779049977
aI357841916
aI2324652031
atp824
Rp825
sg12
I5
sg13
g14
(g15
tp826
Rp827
Vhttp://bbc.in/1o5w8S5
p828
I6
sVhttp://bbc.in/1wUFq6B
p829
I190
ssg215
Vhong kong police lay holding charge against briton rurik jutting 29 on two counts of murder
p830
sg217
I14
sg218
I2
sg219
I11
sa(dp831
g2
(dp832
g4
I0
sg5
I192
ssg6
I192
sg7
g8
((lp833
I91425800
aI1647967248
aI395132433
aI379375634
aI107484181
aI2167061041
aI1930027956
aI2400912956
aI2223383617
aI368329795
aI473623621
aI2156364362
aI2595053648
aI955474525
aI2295150692
aI2355526757
aI137482856
aI853088881
aI2374760058
aI1472430217
aI45346960
aI2393733877
aI443733140
aI877415574
aI358076574
aI2317276320
aI590312609
aI1416828066
aI537975464
aI2742096558
aI1520306352
aI205170371
aI556583621
aI1499460296
aI364839113
aI511691992
aI1542053611
aI56769269
aI319491830
aI2461997816
aI2228565756
aI2338312959
aI2797145360
aI2224491793
aI227440917
aI1552536854
aI1060738332
aI187446559
aI2675360544
aI426585889
aI405859108
aI407905065
aI2346674474
aI2691100975
aI247104309
aI1907406649
aI1479530311
aI2162817865
aI1545672522
aI2235148623
aI2348265296
aI1101678990
aI1536493398
aI236234079
aI222817424
aI2558500712
aI2191793006
aI71577974
aI2383142268
aI619884931
aI2204483460
aI2371348878
aI360859025
aI1852601750
aI866181530
aI703855014
aI357576615
aI1658958260
aI389770680
aI1479550394
aI1268719946
aI1620412862
aI190810047
aI1016868296
aI172444621
aI770240462
aI276542417
aI374876626
aI45012947
aI105532384
aI1031224824
aI1557821946
aI81159423
atp834
Rp835
sg12
I5
sg13
g14
(g15
tp836
Rp837
Vhttp://bit.ly/1wVtAqi
p838
I2
sVhttp://bbc.in/1u7V2m8
p839
I4
sVhttp://bbc.in/1wSJulc
p840
I110
sVhttp://ln.is/bbc.in/PEOIW
p841
I2
sVhttp://bbc.in/1u7V11y
p842
I68
sVhttp://bbc.in/1wp6wB9
p843
I2
sVhttp://bbc.in/1wVJJvG
p844
I2
sVhttp://bbc.in/1vy3m9Z
p845
I2
ssg215
Vbriton held over hong kong murders a 29yearold british man has been arrested in hong kong after the bodies
p846
sg217
I15
sg218
I2
sg219
I11
sa(dp847
g2
(dp848
g4
I42
sg5
I146
ssg6
I188
sg7
g8
((lp849
I2743670095
aI498007937
aI38400130
aI299063939
aI6000772
aI25049056
aI17809159
aI2599592712
aI498012169
aI1544733578
aI173591614
aI2593165068
aI312430861
aI61083422
aI577811727
aI2725438872
aI1250840862
aI82249731
aI115981166
aI418122775
aI2764063637
aI122120068
aI787546010
aI116909103
aI80919423
aI497993118
aI380959775
aI786405282
aI43582755
aI2823892516
aI2627831077
aI1089342374
aI2213896412
aI103368235
aI1583817644
aI194499826
aI2793168046
aI436844799
aI82796208
aI87995697
aI1296961842
aI470217997
aI319402270
aI869916290
aI382431418
aI526376635
aI27254846
aI2856257345
aI198607426
aI381718723
aI2446841540
aI1735389366
aI2305374110
aI1375526088
aI22842540
aI88889613
aI1994321
aI256478435
aI226081934
aI2280325974
aI36050009
aI2242439771
aI1197354972
aI194177631
aI2583673568
aI17748961
aI309883618
aI295093243
aI543567716
aI2236222567
aI2214054761
aI153876973
aI2194541678
aI83791997
aI2857570290
aI2260008948
aI731956597
aI2820209142
aI99170281
aI2773517432
aI498015739
aI30588028
aI79094653
aI1195087230
aI1364013439
atp850
Rp851
sg12
I5
sg13
g14
(g15
tp852
Rp853
Vhttp://dlvr.it/7P05RW
p854
I2
sVhttp://dlvr.it/7P0QHg
p855
I2
sVhttp://feedly.com/k/10cSJAA
p856
I2
sVhttp://shar.es/10GIDf
p857
I2
sVhttp://cna.asia/1zXZbfC
p858
I8
sVhttp://t1.vc/tw/cqt
p859
I8
sVhttp://dlvr.it/7P08LJ
p860
I2
sVhttp://dlvr.it/7P11GP
p861
I2
sVhttp://ift.tt/1G8PNGp
p862
I14
sVhttp://ow.ly/2Q1FHp
p863
I2
sVhttp://yhoo.it/1ujBITx
p864
I2
sVhttp://goo.gl/SahV2m
p865
I2
sVhttp://feedproxy.google.com/~r/businessinsider/~3/Rpnyj4MFjes/afp-hong-kong-police-grill-british-trader-over-double-murder-2014-11
p866
I16
sVhttp://goo.gl/fb/BstpSM
p867
I2
sVhttp://bit.ly/1o3K7I6
p868
I2
sVhttp://yhoo.it/1vxrAkO
p869
I4
sVhttp://ift.tt/1qjJGF9
p870
I2
sVhttp://tbmnewsfeeds.com/
p871
I2
sVhttp://read.bi/1o3Dci0
p872
I2
sVhttp://dlvr.it/7P0HDC
p873
I2
sVhttp://bit.ly/1yO9bns
p874
I2
sVhttp://ln.is/businessinsider.com/xO7AG
p875
I2
sVhttp://cyber-actu.com/hong-kong-police-grill-british-trader-over-double-061907788
p876
I2
sVhttp://ift.tt/1DJjsSN
p877
I2
sVhttp://ift.tt/1DJiB4v
p878
I2
sVhttp://wp.me/p4JLUR-71g
p879
I4
sVhttp://dlvr.it/7P0g0F
p880
I2
sVhttp://cna.asia/1rMpwTQ
p881
I2
sVhttp://dlvr.it/7P05xn
p882
I2
sVhttp://www.businessinsider.com/afp-hong-kong-police-grill-british-trader-over-double-murder-2014-11
p883
I2
sVhttp://dlvr.it/7P06tl
p884
I2
sVhttp://gatesstreetheat.com/2014/11/02/hong-kong-police-grill-british-trader-over-double-murder/
p885
I2
sVhttp://dlvr.it/7P05ct
p886
I2
sVhttp://dlvr.it/7P0C9j
p887
I2
sVhttp://ift.tt/1vxpr8B
p888
I6
sVhttp://ift.tt/1tOu41g
p889
I10
sVhttp://f24.my/1zXY939
p890
I34
sVhttp://dlvr.it/7P0MWr
p891
I2
sVhttp://yhoo.it/1tOA0r2
p892
I2
sVhttp://dlvr.it/7P0MTD
p893
I2
sVhttp://dlvr.it/7P0BTp
p894
I2
sVhttp://www.bangkokpost.com/news/asia/440974/hong-kong-police-grill-british-trader-over-double-murder
p895
I2
sVhttp://dlvr.it/7P0fg5
p896
I2
sVhttp://dlvr.it/7P0j0P
p897
I2
sVhttp://goo.gl/fb/300LI6
p898
I2
sVhttp://www.channelnewsasia.com/mobile/asiapacific/hong-kong-police-grill/1448676.html
p899
I2
sVhttp://yhoo.it/1wVj6Hf
p900
I4
sVhttp://dlvr.it/7P05X7
p901
I2
sVhttp://feedly.com/k/1o4Nzlx
p902
I2
sVhttp://dlvr.it/7P0KsN
p903
I2
sVhttp://dlvr.it/7P0gyg
p904
I2
ssg215
Vhong kong police grill british trader over double murder
p905
sg217
I16
sg218
I2
sg219
I11
sa(dp906
g2
(dp907
g4
I0
sg5
I182
ssg6
I182
sg7
g8
((lp908
I787014662
aI1214295559
aI363030025
aI395132433
aI1278597655
aI1214277151
aI2882437664
aI269889569
aI607283292
aI1214304811
aI1214301228
aI230673965
aI1214276658
aI1214331451
aI1214310980
aI810755659
aI1214301776
aI126600280
aI1214303324
aI1214251110
aI1214330474
aI2279052907
aI1214292589
aI1214273143
aI1214296190
aI1214293124
aI1214348935
aI46088331
aI1214307996
aI2459920208
aI590312609
aI1214309538
aI16922792
aI1214199985
aI633248951
aI1214312310
aI1214296609
aI1303136983
aI1214344933
aI1594949365
aI2492075561
aI1214307066
aI1692965118
aI1214272770
aI1214292234
aI1214273803
aI1214307090
aI1214326039
aI1214184738
aI1214281808
aI475006262
aI1214315659
aI1214295368
aI1214308681
aI1214299981
aI817074512
aI851815249
aI390920164
aI1214310236
aI1951722848
aI232769907
aI1214309238
aI336041336
aI1214324089
aI1668066686
aI1214304649
aI1214318479
aI1214280594
aI1214311316
aI1214285718
aI1214282652
aI1214258088
aI297443753
aI1214160810
aI1473829813
aI1214303671
aI1213908925
aI1214336959
aI1214341057
aI1214337475
aI1214337476
aI2609660358
aI2718352844
aI1214306779
aI985584720
aI1214240226
aI1214286308
aI1214297582
aI2839828467
aI2273178612
aI1214308861
atp909
Rp910
sg12
I5
sg13
g14
(g15
tp911
Rp912
Vhttp://bit.ly/1tOoqfR
p913
I138
sVhttp://fb.me/1jWZGrrum
p914
I2
sVhttp://bit.ly/1wVbrbX
p915
I2
sVhttp://yhoo.it/1ub8pSB
p916
I2
sVhttp://bit.ly/1wVbrZB
p917
I20
sVhttp://trun.us/DpX
p918
I2
sVhttp://bit.ly/1wVbtAE
p919
I2
sVhttp://bit.ly/1woRZW8
p920
I2
sVhttp://goo.gl/nuo0Yd
p921
I2
sVhttp://bit.ly/1tOozQr
p922
I6
sVhttp://bit.ly/1tOoEDt
p923
I2
sVhttp://bit.ly/1wVoFFF
p924
I2
ssg215
Vforeign bofa merrill lynch banker linked to hong kong murders source hong kong reuters  a bank of america
p925
sg217
I17
sg218
I2
sg219
I11
sa(dp926
g2
(dp927
g4
I180
sg5
I0
ssg6
I180
sg7
g8
((lp928
I2796815872
aI180894720
aI125271050
aI2882786647
aI317528094
aI331172899
aI1914418212
aI18941478
aI350298666
aI141430333
aI56440900
aI92207174
aI1728675920
aI605388381
aI451925096
aI1172388974
aI310470261
aI96323946
aI410389127
aI7949962
aI412942475
aI116347074
aI72336016
aI217735834
aI53911712
aI2809611937
aI39736485
aI258720422
aI286182573
aI289385135
aI2451917498
aI216596667
aI494883007
aI2842434754
aI374673098
aI75518671
aI18288850
aI789501139
aI19076835
aI2586336806
aI429712104
aI34888938
aI15089906
aI526244601
aI273811200
aI817820972
aI1206561
aI745264932
aI323219750
aI140657963
aI28071724
aI16495920
aI81489202
aI48308532
aI164819254
aI563064119
aI252884794
aI1029764929
aI569254211
aI2326191434
aI528374603
aI2440310605
aI869377879
aI798173017
aI215114587
aI230287715
aI2443324778
aI2775904743
aI215789423
aI457023347
aI14262645
aI113384334
aI121812371
aI2355276692
aI20922778
aI71220657
aI79076274
aI2790191542
aI418758587
aI2854519742
aI2369365442
aI1382390220
aI1258400719
aI229262801
aI23230932
aI92829154
aI88920039
aI422369769
aI44912636
atp929
Rp930
sg12
I5
sg13
g14
(g15
tp931
Rp932
Vhttp://vimeo.com/109486911
p933
I180
ssg215
Vwatch umbrella dreams the minifilm about democracy i made after 4 days talking with hong kong protesters occupyhk
p934
sg217
I18
sg218
I2
sg219
I11
sa(dp935
g2
(dp936
g4
I32
sg5
I134
ssg6
I166
sg7
g8
((lp937
I2441025792
aI498007937
aI61083422
aI380648579
aI6000772
aI17466758
aI498012169
aI60376578
aI88889613
aI370442398
aI577811727
aI1462799250
aI2194541678
aI391892375
aI60228376
aI787546010
aI2183994523
aI754713884
aI19281645
aI319402270
aI2237450916
aI1041386533
aI18551719
aI91398058
aI1583817644
aI2857570290
aI2793168046
aI436844799
aI87995697
aI497993118
aI972936630
aI1664059166
aI1611935294
aI32300018
aI198607426
aI71959922
aI604051910
aI1375526088
aI2593165068
aI15699147
aI312430861
aI553990736
aI1994321
aI2280325974
aI36050009
aI45220870
aI2242439771
aI1197354972
aI15690973
aI194177631
aI2583673568
aI975062882
aI295093243
aI457437029
aI990332774
aI2236222567
aI2214054761
aI27284203
aI24106306
aI153876973
aI115981166
aI79094653
aI14500848
aI197396710
aI194499826
aI1364013439
aI2260008948
aI731956597
aI2773517432
aI498015739
aI83791997
aI1195087230
aI2764063637
atp938
Rp939
sg12
I5
sg13
g14
(g15
tp940
Rp941
Vhttp://dlvr.it/7PLTtL
p942
I2
sVhttp://goo.gl/fb/mmN25I
p943
I2
sVhttp://dlvr.it/7PLY5f
p944
I2
sVhttp://f24.my/1A1RqVT
p945
I8
sVhttp://ift.tt/1o7ra7e
p946
I2
sVhttp://dlvr.it/7PLNVd
p947
I2
sVhttp://dlvr.it/7PMKMP
p948
I2
sVhttp://bit.ly/1wqJPN7
p949
I4
sVhttp://ow.ly/2Q2YRh
p950
I2
sVhttp://dlvr.it/7PLDmN
p951
I2
sVhttp://read.bi/1ufpQkV
p952
I4
sVhttp://dlvr.it/7PLSsW
p953
I2
sVhttp://ift.tt/13xjC4L
p954
I2
sVhttp://dlvr.it/7PLTkJ
p955
I2
sVhttp://ift.tt/1xQpaQE
p956
I14
sVhttp://cyber-actu.com/british-banker-appear-hong-kong-court-charged-double-013125992
p957
I2
sVhttp://ln.is/businessinsider.com/s7WqS
p958
I2
sVhttp://ift.tt/10gBdMi
p959
I6
sVhttp://www.businessinsider.com/afp-british-banker-to-appear-in-hong-kong-court-charged-with-double-murder-2014-11
p960
I2
sVhttp://dlvr.it/7PLLPc
p961
I2
sVhttp://ow.ly/2Q306i
p962
I2
sVhttp://ow.ly/2Q315I
p963
I2
sVhttp://ow.ly/2Q2YRB
p964
I4
sVhttp://dlvr.it/7PL7YQ
p965
I2
sVhttp://ift.tt/1wWj5E6
p966
I12
sVhttp://goo.gl/fb/jBZcTM
p967
I2
sVhttp://fb.me/1lxgG8bS8
p968
I2
sVhttp://ift.tt/1tRrveQ
p969
I2
sVhttp://ow.ly/2Q2YHc
p970
I2
sVhttp://ow.ly/2Q2YHa
p971
I2
sVhttp://www.netawd.com/share/index.php?url=http%3A%2F%2Fwww.businessinsider.com%2Fafp-british-banker-to-appear-in-hong-kong-court-charged-with-double-murder-2014-11#.VFbhMkea5LI.twitter
p972
I2
sVhttp://rapidclimb.com
p973
I2
sVhttp://ow.ly/2Q2Znk
p974
I2
sVhttp://dlvr.it/7PLRRB
p975
I2
sVhttp://bit.ly/1A1U26f
p976
I2
sVhttp://feedproxy.google.com/~r/businessinsider/~3/78KX-EFjb-M/afp-british-banker-to-appear-in-hong-kong-court-charged-with-double-murder-2014-11
p977
I12
sVhttp://dlvr.it/7PLJjm
p978
I2
sVhttp://dlvr.it/7PLbGL
p979
I2
sVhttp://goo.gl/fb/JZnNdV
p980
I2
sVhttp://ow.ly/2Q2YUv
p981
I2
sVhttp://dlvr.it/7PL4Yq
p982
I2
sVhttp://dlvr.it/7PLP24
p983
I2
sVhttp://dlvr.it/7PLMYQ
p984
I2
sVhttp://shar.es/10hVyy
p985
I2
sVhttp://goo.gl/QZA2sv
p986
I2
sVhttp://bit.ly/1ufsLdp
p987
I2
sVhttp://u.afp.com/6Qh
p988
I26
ssg215
Vbritish banker to appear in hong kong court charged with double murder
p989
sg217
I19
sg218
I2
sg219
I11
sa(dp990
g2
(dp991
g4
I164
sg5
I0
ssg6
I164
sg7
g8
((lp992
I114906976
aI118154219
aI324746628
aI335661829
aI624596871
aI144951888
aI534465422
aI1651237741
aI411703952
aI275840401
aI2432612947
aI383297539
aI724235414
aI356093722
aI768454172
aI1916781469
aI2752884967
aI90107424
aI541894689
aI76181283
aI131506212
aI1607216293
aI1574159473
aI110003602
aI378677162
aI1025419435
aI724733490
aI1062240432
aI1010483634
aI385102579
aI460501505
aI982901726
aI450885944
aI202213333
aI1411523131
aI308087996
aI136714301
aI597844030
aI107487413
aI367439891
aI103763232
aI2329459523
aI349339332
aI878503237
aI1767304646
aI171293874
aI83237320
aI1666239632
aI321569997
aI2330727758
aI628035536
aI232405035
aI387326034
aI466560083
aI1570877070
aI586980900
aI2362767194
aI1493387227
aI406615006
aI402394591
aI528188896
aI277204368
aI723877933
aI232032891
aI722886500
aI214843239
aI2478178408
aI2292789409
aI277323359
aI119537895
aI423757266
aI215064046
aI253825341
aI2478197233
aI162526195
aI133096820
aI143089653
aI172963065
aI1062012576
aI631636860
aI1210414698
aI593115519
atp993
Rp994
sg12
I5
sg13
g14
(g15
tp995
Rp996
Vhttp:\u005c/\u005c/t.co\u005c/xbMYPfsFIE
p997
I2
sVhttp:\u005c/\u005c/t.co\u005c/gdxMOsky0g
p998
I18
sVhttp:\u005c/\u005c/t.co\u005c/7rgNw3Ow2H
p999
I12
sVhttp:\u005c/\u005c/t.co\u005c/Oy5wgIkqtG
p1000
I132
ssg215
V800 niu00f1os hicieron esta figura para protestar contra las masacres de delfines hong kong
p1001
sg217
I20
sg218
I2
sg219
I11
sa(dp1002
g2
(dp1003
g4
I0
sg5
I164
ssg6
I164
sg7
g8
((lp1004
I1624306176
aI2452883563
aI321948676
aI466015878
aI364261383
aI983395976
aI439423113
aI584763146
aI395132433
aI1567585188
aI220298263
aI166104600
aI1542053611
aI2587980060
aI2733115294
aI750632095
aI1869227556
aI399083654
aI703855014
aI338928425
aI2346674474
aI880091563
aI960735024
aI2464708274
aI1862160948
aI417299066
aI2497726904
aI144087939
aI2156364362
aI734561726
aI2488643009
aI2691092802
aI504731972
aI473623621
aI2788653537
aI1268719946
aI2530413259
aI1061752525
aI584508110
aI509318223
aI1088674512
aI576358484
aI2807029784
aI384917592
aI282281380
aI2463736220
aI385412955
aI1255923421
aI2348265296
aI609713771
aI2191793006
aI2310217712
aI853088881
aI799667190
aI1597096567
aI2262039800
aI2402109817
aI228786682
aI1129756027
aI499910653
atp1005
Rp1006
sg12
I5
sg13
g14
(g15
tp1007
Rp1008
Vhttp://ln.is/abcn.ws/Sxq4O
p1009
I2
sVhttp://ln.is/abcn.ws/x3IkC
p1010
I2
sVhttp://abcn.ws/1t5ctgB
p1011
I76
sVhttp://abcn.ws/1wqQsPh
p1012
I2
sVhttp://ln.is/abcn.ws/jEQZk
p1013
I2
sVhttp://goo.gl/Po9WWF
p1014
I2
sVhttp://abcn.ws/1t5cDo5
p1015
I54
sVhttp://news24h.allnews24h.com/MH9y
p1016
I2
sVhttp://ln.is/abcn.ws/Yrlwu
p1017
I2
sVhttp://ln.is/abcn.ws/0oq88
p1018
I2
sVhttp://ln.is/abcn.ws/yN7nA
p1019
I2
sVhttp://ln.is/abcn.ws/QW7jQ
p1020
I2
sVhttp://ln.is/abcn.ws/4g4L2
p1021
I2
sVhttp://abcn.ws/1o7URVE
p1022
I2
sVhttp://ln.is/abcn.ws/5moTk
p1023
I2
sVhttp://ln.is/abcn.ws/Umuie
p1024
I2
sVhttp://ln.is/abcn.ws/A3bSy
p1025
I2
ssg215
Vbritish man charged in hong kong double killing hong kong police charge british man suspected of killing 2 women
p1026
sg217
I21
sg218
I2
sg219
I11
sa(dp1027
g2
(dp1028
g4
I0
sg5
I162
ssg6
I162
sg7
g8
((lp1029
I1214272770
aI1214293124
aI1214295559
aI1214304649
aI1214292234
aI1214273803
aI297443753
aI1214318479
aI607283292
aI395132433
aI1214280594
aI1214337475
aI1214311316
aI1214285718
aI1214326039
aI1214337476
aI1214282652
aI1214277151
aI2459920208
aI1214296609
aI1214184738
aI1214309538
aI1214258088
aI1214310236
aI1214160810
aI1214304811
aI1214301228
aI230673965
aI2492075561
aI2175612079
aI1214199985
aI1214276658
aI1473829813
aI1668066686
aI475006262
aI1214303671
aI1214331451
aI1213908925
aI2718352844
aI1214336959
aI1214341057
aI1214307996
aI1214315659
aI1214310980
aI1214309238
aI2609660358
aI269889569
aI1214295368
aI1214308681
aI1214348935
aI1214299981
aI1214281808
aI2882437664
aI1303136983
aI390920164
aI1214306779
aI1214303324
aI1214307066
aI1214301776
aI1214240226
aI590312609
aI1214286308
aI1214344933
aI1214251110
aI1214330474
aI2279052907
aI1214292589
aI1214297582
aI817074512
aI2839828467
aI1594949365
aI1214312310
aI1214273143
aI336041336
aI1214324089
aI1214307090
aI1692965118
aI1214308861
aI1214296190
atp1030
Rp1031
sg12
I5
sg13
g14
(g15
tp1032
Rp1033
Vhttp://bit.ly/1ufUgmZ
p1034
I4
sVhttp://bit.ly/1wYYGx9
p1035
I2
sVhttp://bit.ly/1wYYvSp
p1036
I128
sVhttp://bit.ly/1ufUgn9
p1037
I2
sVhttp://bit.ly/1wZcoAf
p1038
I4
sVhttp://bit.ly/1wZcnfz
p1039
I2
sVhttp://bit.ly/1ufUgDH
p1040
I2
sVhttp://bit.ly/1wYYEW1
p1041
I18
ssg215
Vbritish banker charged with murder of two women in hong kong hong kong reuters  a 29yearold british bank
p1042
sg217
I22
sg218
I2
sg219
I11
sa(dp1043
g2
(dp1044
g4
I148
sg5
I14
ssg6
I162
sg7
g8
((lp1045
I2163340802
aI487686275
aI1885861380
aI2676050774
aI48654466
aI537014337
aI17082120
aI2314450314
aI2536204610
aI38164365
aI564085262
aI156950801
aI2841218322
aI21258004
aI66862485
aI1642135962
aI2787303215
aI2319419034
aI1664059166
aI342414576
aI1855307683
aI2349672356
aI1373368518
aI45175974
aI2850533597
aI290160296
aI2660973481
aI546984288
aI2800436779
aI339903277
aI2831890735
aI32630963
aI972936630
aI2343827896
aI373157748
aI2712663739
aI464755040
aI2760301504
aI1265188801
aI2361135426
aI2534871364
aI505848389
aI323114054
aI2305119564
aI134284493
aI1431888397
aI81363280
aI18579000
aI19962578
aI2857702997
aI2189779158
aI612473
aI100003032
aI599417049
aI1078135514
aI2743670095
aI634898298
aI1673818831
aI215026562
aI89236450
aI92994404
aI629895526
aI782270054
aI87120401
aI541897466
aI764103254
aI2298027026
aI2835761136
aI637158770
aI2807011316
aI281911977
aI29609464
aI108375339
aI219428218
aI923037565
aI742143
atp1046
Rp1047
sg12
I5
sg13
g14
(g15
tp1048
Rp1049
Vhttp://bbc.in/1tt5rpB
p1050
I8
sVhttp://bbc.in/1zpCf7L
p1051
I46
sVhttp://bbc.in/1tt5rpz
p1052
I108
ssg215
Vrurik jutting 29yrold british man held over hong kong murders is a former merrill lynch banker  reports
p1053
sg217
I23
sg218
I2
sg219
I11
sa(dp1054
g2
(dp1055
g4
I22
sg5
I136
ssg6
I158
sg7
g8
((lp1056
I208617216
aI2422121857
aI1443082112
aI2713879939
aI567522948
aI239965190
aI86241025
aI217323400
aI1214289673
aI198507274
aI150363019
aI153876973
aI892167936
aI2840426004
aI2764063637
aI257654105
aI787546010
aI1644035611
aI282254623
aI2267177856
aI94247971
aI1171577766
aI1104938408
aI388495274
aI2793168046
aI2370429877
aI1735389366
aI41508279
aI2484260408
aI2290002361
aI138357993
aI1720434954
aI296493118
aI2256191935
aI1592214848
aI908203585
aI2337544130
aI381718723
aI2368577222
aI2368620242
aI335455570
aI516508323
aI363182806
aI368340567
aI1664335448
aI748173673
aI2690538074
aI2768923612
aI521749341
aI37659742
aI67302623
aI590366563
aI353656422
aI24688850
aI2351971177
aI2528532205
aI940000238
aI172072560
aI2326481905
aI2690281202
aI2228605939
aI2260008948
aI813064693
aI2368609782
aI99170281
aI2773517432
aI237499005
aI1195087230
aI66284799
atp1057
Rp1058
sg12
I5
sg13
g14
(g15
tp1059
Rp1060
Vhttp://bit.ly/1wVeaSY
p1061
I2
sVhttp://ift.tt/1vxnFV7
p1062
I2
sVhttp://bit.ly/1tOoqfR
p1063
I8
sVhttp://feeds.reuters.com/~r/Reuters/worldNews/~3/64NY_UeG__g/story01.htm
p1064
I10
sVhttp://dlvr.it/7NzwXJ
p1065
I2
sVhttp://dlvr.it/7Nzpv8
p1066
I2
sVhttp://dlvr.it/7NzvgW
p1067
I2
sVhttp://ow.ly/2Q1DfO
p1068
I2
sVhttp://dld.bz/dz72b
p1069
I2
sVhttp://ift.tt/1tOzU2M
p1070
I4
sVhttp://fb.me/1AqgTg4og
p1071
I2
sVhttp://dlvr.it/7P2nZh
p1072
I2
sVhttp://dlvr.it/7P262T
p1073
I2
sVhttp://ift.tt/1vxTi0O
p1074
I2
sVhttp://bit.ly/1woQ2sL
p1075
I8
sVhttp://onlinetimesnews.com/?p=191762
p1076
I2
sVhttp://dlvr.it/7P0h5b
p1077
I2
sVhttp://bit.ly/1tOozQr
p1078
I2
sVhttp://yhoo.it/1ub8pSB
p1079
I2
sVhttp://ow.ly/2Q1DhL
p1080
I2
sVhttp://bit.ly/WWDDbf
p1081
I2
sVhttp://tinyurl.com/mcqstra
p1082
I4
sVhttp://dlvr.it/7P01hW
p1083
I2
sVhttp://dlvr.it/7P096m
p1084
I2
sVhttp://ift.tt/10dJgJF
p1085
I4
sVhttp://ift.tt/1wVKZyU
p1086
I2
sVhttp://dlvr.it/7P2xLx
p1087
I2
sVhttp://dlvr.it/7P0436
p1088
I4
sVhttp://bit.ly/1ub8Z2x
p1089
I2
sVhttp://goo.gl/fb/92hwO4
p1090
I2
sVhttp://bit.ly/1rM0xQx
p1091
I10
sVhttp://ift.tt/1wVGepg
p1092
I2
sVhttp://dlvr.it/7P01mg
p1093
I2
sVhttp://dlvr.it/7P2pTq
p1094
I2
sVhttp://dlvr.it/7P0gCj
p1095
I2
sVhttp://a.msn.com/01/en-us/BBcuS6x
p1096
I6
sVhttp://www.Netizenews.Com
p1097
I2
sVhttp://fb.me/74TumpDoS
p1098
I2
sVhttp://dlvr.it/7Nzyq7
p1099
I2
sVhttp://j.mp/1zYjGsu
p1100
I2
sVhttp://cyber-actu.com/foreign-bofa-merrill-lynch-banker-linked-hong-kong-054600394--sector
p1101
I2
sVhttp://reut.rs/1zXOaLj
p1102
I16
sVhttp://bit.ly/1wVbtAE
p1103
I2
sVhttp://dlvr.it/7P02Hm
p1104
I2
sVhttp://flip.it/bAMgT
p1105
I2
sVhttp://ift.tt/1uiWumi
p1106
I2
sVhttp://j.mp/izea23
p1107
I4
sVhttp://blackberryappgenerator.com/mip/pct.jsp?p=949153726_586120
p1108
I4
sVhttp://dlvr.it/7P2vll
p1109
I2
sVhttp://buff.ly/1uaTRlR
p1110
I2
sVhttp://ift.tt/1qjCDwj
p1111
I2
sVhttp://twitter.com/antiinertia/status/528790748037398528/photo/1
p1112
I2
ssg215
Vforeign bofa merrill lynch banker linked to hong kong murders source
p1113
sg217
I24
sg218
I2
sg219
I11
sa(dp1114
g2
(dp1115
g4
I146
sg5
I8
ssg6
I154
sg7
g8
((lp1116
I105053184
aI18062592
aI48654466
aI1541025156
aI93937029
aI239965190
aI17082120
aI500674825
aI54958679
aI2786917876
aI26944783
aI481276560
aI2212891281
aI1673262482
aI2831106963
aI2839618071
aI1702865540
aI1642135962
aI2800339177
aI1905138943
aI434805533
aI481025285
aI2874193568
aI348385298
aI576560113
aI2854494629
aI744951793
aI2660973481
aI2380402986
aI141605349
aI2836223532
aI601646893
aI2758129200
aI33321265
aI459275571
aI930553524
aI2280285493
aI2729051702
aI49116473
aI2674571067
aI186490677
aI2674423744
aI2749107552
aI2714550594
aI1348539332
aI972936630
aI110953286
aI1375526088
aI2849329226
aI383685367
aI2885016270
aI39205327
aI165770066
aI2556009811
aI2572640725
aI2884246016
aI244210489
aI2577222350
aI2759205212
aI97607389
aI2179739057
aI18716325
aI2873601248
aI92809379
aI2800728849
aI2190482153
aI1547732076
aI2730613586
aI400461937
aI2562628596
aI2731206057
aI29609464
aI373157748
aI2316348795
aI72501062
aI12304262
aI742143
atp1117
Rp1118
sg12
I5
sg13
g14
(g15
tp1119
Rp1120
Vhttp://bbc.in/1DAzr5t
p1121
I154
ssg215
Vbest of bbc asia features this week photo booth aims to capture hong kong protest movement
p1122
sg217
I25
sg218
I2
sg219
I11
sa(dp1123
g2
(dp1124
g4
I18
sg5
I118
ssg6
I136
sg7
g8
((lp1125
I2818755073
aI60376578
aI1375526088
aI225390600
aI556701450
aI2153242508
aI87728784
aI541528090
aI758659860
aI1061752586
aI2729681561
aI610705946
aI237903258
aI246778672
aI2751697954
aI131172550
aI1722921126
aI87818409
aI1882752938
aI444629447
aI114702380
aI1641898669
aI72528688
aI22461000
aI2858478134
aI1122364087
aI2277635130
aI1419114301
aI610201801
aI1556118416
aI472273222
aI1266892742
aI1245175111
aI2753359816
aI1852048201
aI202715724
aI2855579469
aI296546768
aI2520779729
aI2675396563
aI569284568
aI624525019
aI1169070812
aI466442464
aI758703632
aI359271522
aI2209976548
aI1084112678
aI940000238
aI2213156977
aI381652598
aI264303124
aI702031146
atp1126
Rp1127
sg12
I5
sg13
g14
(g15
tp1128
Rp1129
Vhttp://cur.lv/f2usl
p1130
I2
sVhttp://gu.com/p/43x49/tw
p1131
I20
sVhttp://bbc.in/1u7ZeSV
p1132
I2
sVhttp://bit.ly/1vxy9E6
p1133
I2
sVhttp://cur.lv/f2usb
p1134
I2
sVhttp://fb.me/6OeuqSqBN
p1135
I2
sVhttp://zipzp.eu/?url=http://dlvr.it/7PBVHk
p1136
I2
sVhttp://fb.me/1cWZY7MSu
p1137
I2
sVhttp://goo.gl/nOodXJ
p1138
I2
sVhttp://fb.me/1HuoLuDVe
p1139
I2
sVhttp://bit.ly/TyK1sP
p1140
I2
sVhttp://dlvr.it/7P5PB6
p1141
I2
sVhttp://cur.lv/f2psa
p1142
I2
sVhttp://bbc.in/1u7V2m8
p1143
I2
sVhttp://fb.me/40E72MAHM
p1144
I2
sVhttp://lnkd.in/dB_r4Hq
p1145
I2
sVhttp://goo.gl/cle5zW
p1146
I2
sVhttp://ow.ly/DGBc2
p1147
I2
sVhttp://fb.me/1m6tV8YmH
p1148
I2
sVhttp://bbc.in/1wSJulc
p1149
I10
sVhttp://ift.tt/10HU8QY
p1150
I14
sVhttp://goo.gl/kQQNrc
p1151
I2
sVhttp://cur.lv/f2skf
p1152
I2
sVhttp://www.bbc.com/news/world-asia-29866284
p1153
I2
sVhttp://f0rk.in/bg2D
p1154
I6
sVhttp://www.bbc.co.uk/news/world-asia-29866284
p1155
I18
sVhttp://fb.me/3rzIemHoC
p1156
I2
sVhttp://cur.lv/f2uub
p1157
I2
sVhttp://dlvr.it/7P5v77
p1158
I2
sVhttp://cur.lv/f2sk6
p1159
I2
sVhttp://fb.me/3YY7Z6hAn
p1160
I2
sVhttp://bbc.in/1u7V11y
p1161
I4
sVhttp://blackberryappgenerator.com/mip/pct.jsp?p=949027363_570781
p1162
I2
sVhttp://fb.me/6PrI6YYoO
p1163
I2
ssg215
Vbriton held over hong kong murders
p1164
sg217
I26
sg218
I2
sg219
I11
sa(dp1165
g2
(dp1166
g4
I10
sg5
I126
ssg6
I136
sg7
g8
((lp1167
I299171456
aI371350788
aI529138369
aI215381896
aI363218060
aI245693197
aI301696398
aI545057297
aI428603155
aI2840426004
aI368266647
aI41085467
aI2368609309
aI163034271
aI434518947
aI405680932
aI2858558377
aI1418310314
aI2744537131
aI76432684
aI548224685
aI2782531248
aI2603476530
aI2841001779
aI2383502816
aI542120124
aI566790205
aI813064693
aI1592214848
aI908203585
aI2611346546
aI2368577222
aI367299401
aI754687346
aI577572942
aI326212431
aI2368620242
aI2675396563
aI1578959700
aI1645064149
aI370922582
aI473415257
aI405739098
aI2242439771
aI555385436
aI837933536
aI586624738
aI365513189
aI543032936
aI138357993
aI464762477
aI940000238
aI416337647
aI269707248
aI545891441
aI2690281202
aI300885139
aI428747509
aI2368609782
aI232835092
aI558262010
aI545964285
aI1195087230
atp1168
Rp1169
sg12
I5
sg13
g14
(g15
tp1170
Rp1171
Vhttp://dlvr.it/7P4MRk
p1172
I2
sVhttp://bit.ly/1uj6vzK
p1173
I6
sVhttp://dlvr.it/7P3xFm
p1174
I2
sVhttp://feeds.reuters.com/~r/Reuters/worldNews/~3/64NY_UeG__g/story01.htm
p1175
I12
sVhttp://blackberryappgenerator.com/mip/pct.jsp?p=949196828_586120
p1176
I4
sVhttp://dlvr.it/7P5VP8
p1177
I2
sVhttp://dlvr.it/7P4BPp
p1178
I2
sVhttp://dlvr.it/7PCWbl
p1179
I2
sVhttp://ift.tt/1tuScX7
p1180
I2
sVhttp://bit.ly/WWDDbf
p1181
I2
sVhttp://ift.tt/1tOzU2M
p1182
I2
sVhttp://dlvr.it/7P45b1
p1183
I2
sVhttp://dlvr.it/7P4LfV
p1184
I2
sVhttp://dlvr.it/7P48S4
p1185
I2
sVhttp://dlvr.it/7P4LdP
p1186
I2
sVhttp://dlvr.it/7P4QXC
p1187
I2
sVhttp://www.worldbulletin.net/haberler/147577/british-banker-arrested-in-hong-kong-double-murder-case
p1188
I2
sVhttp://is.gd/cDnaEc
p1189
I2
sVhttp://dlvr.it/7P5f23
p1190
I2
sVhttp://dlvr.it/7P5GXZ
p1191
I2
sVhttp://dlvr.it/7P45t4
p1192
I2
sVhttp://dlvr.it/7P49lS
p1193
I2
sVhttp://reut.rs/10dmzFq
p1194
I2
sVhttp://buff.ly/1ubOIdi
p1195
I2
sVhttp://dlvr.it/7P4FYs
p1196
I2
sVhttp://dlvr.it/7P5Tcn
p1197
I2
sVhttp://dlvr.it/7P46xb
p1198
I2
sVhttp://dlvr.it/7P4KkL
p1199
I2
sVhttp://dlvr.it/7P46p5
p1200
I2
sVhttp://goo.gl/k57Hww
p1201
I2
sVhttp://bit.ly/1rMvhRB
p1202
I4
sVhttp://dlvr.it/7P45rR
p1203
I2
sVhttp://ift.tt/1qkCdWB
p1204
I2
sVhttp://reporters365.com/around-the-world/british-banker-arrested-in-hong-kong-double-murder-case/
p1205
I2
sVhttps://twibble.io
p1206
I2
sVhttp://dlvr.it/7PCcmp
p1207
I2
sVhttp://goo.gl/dxFZSt
p1208
I2
sVhttp://www.reuters.com/article/2014/11/02/us-hongkong-murder-banker-idUSKBN0IL39T20141102
p1209
I2
sVhttp://fb.me/2tsfRqkj8
p1210
I2
sVhttp://www.reuters.com/article/idUSKBN0IL39T20141102
p1211
I2
sVhttp://dlvr.it/7P463W
p1212
I2
sVhttp://dlvr.it/7P4CLN
p1213
I2
sVhttp://news.gonevil.com/CiM
p1214
I2
sVhttp://dlvr.it/7P4KJ0
p1215
I2
sVhttp://goo.gl/fb/sW42RR
p1216
I2
sVhttp://n.mynews.ly/!QB.B3HdX
p1217
I4
sVhttp://goo.gl/fb/pkYPRf
p1218
I2
sVhttp://dlvr.it/7P471n
p1219
I2
sVhttp://uk.mobile.reuters.com/shortArticle/topNews/idUKKBN0IL39V20141102
p1220
I2
sVhttp://tdy.sg/1wprrEj
p1221
I6
sVhttp://dlvr.it/7P49yf
p1222
I2
sVhttp://dlvr.it/7P47j4
p1223
I2
sVhttp://goo.gl/fb/VzoapN
p1224
I2
sVhttp://dlvr.it/7P45w8
p1225
I2
sVhttp://dlvr.it/7P44y6
p1226
I2
ssg215
Vbritish banker arrested in hong kong double murder case
p1227
sg217
I27
sg218
I2
sg219
I11
sa(dp1228
g2
(dp1229
g4
I6
sg5
I106
ssg6
I112
sg7
g8
((lp1230
I2840047684
aI2793007745
aI2840148994
aI2842124164
aI2792059545
aI269595400
aI2839797905
aI2288697877
aI22197270
aI2799772313
aI2799875225
aI2839827717
aI2808666400
aI2834365090
aI2799793317
aI2840417063
aI1000155049
aI126389029
aI2799783214
aI2840315055
aI2840507656
aI2847134645
aI2842147127
aI1631089592
aI1702078267
aI2851223229
aI88695999
aI2842052675
aI22278340
aI2791397703
aI2848096203
aI2842097740
aI2839940813
aI584508110
aI2799701560
aI2842149202
aI2848208087
aI2834433887
aI2575163360
aI2851329275
aI2791317093
aI2834362989
aI2848029681
aI380281206
aI2792586153
aI146943812
aI2841872319
aI2792808316
aI2835681151
atp1231
Rp1232
sg12
I5
sg13
g14
(g15
tp1233
Rp1234
Vhttp://on.wsj.com/1o0geIq
p1235
I2
sVhttp://on.wsj.com/1wRVbsp
p1236
I4
sVhttp://on.wsj.com/1wRWYxt
p1237
I34
sVhttp://news24h.allnews24h.com/MAlb
p1238
I6
sVhttp://on.wsj.com/1wVwjjs
p1239
I2
sVhttp://on.wsj.com/1vx7Rlp
p1240
I2
sVhttp://on.wsj.com/1uaIKta
p1241
I2
sVhttp://on.wsj.com/1o0gck0
p1242
I2
sVhttp://on.wsj.com/1wV5xrj
p1243
I2
sVhttp://on.wsj.com/1wRV8gg
p1244
I56
ssg215
Vhong kong protesters clean amid illness fears cooler weather and some illness among protesters encouraged stu
p1245
sg217
I28
sg218
I2
sg219
I11
sa(dp1246
g2
(dp1247
g4
I2
sg5
I108
ssg6
I110
sg7
g8
((lp1248
I2737066232
aI2737118202
aI2737167931
aI2844435669
atp1249
Rp1250
sg12
I5
sg13
g14
(g15
tp1251
Rp1252
Vhttp://dlvr.it/7P02VP
p1253
I2
sVhttp://dlvr.it/7NzyrV
p1254
I2
sVhttp://dlvr.it/7P00tn
p1255
I2
sVhttp://dlvr.it/7P03JN
p1256
I2
sVhttp://dlvr.it/7Nzxmr
p1257
I2
sVhttp://dlvr.it/7NzyQD
p1258
I2
sVhttp://dlvr.it/7NzxgD
p1259
I2
sVhttp://dlvr.it/7P02g4
p1260
I2
sVhttp://dlvr.it/7P04kD
p1261
I2
sVhttp://dlvr.it/7NzyBq
p1262
I2
sVhttp://dlvr.it/7P03lz
p1263
I2
sVhttp://dlvr.it/7P03tP
p1264
I2
sVhttp://dlvr.it/7NzyDB
p1265
I2
sVhttp://dlvr.it/7Nzxmk
p1266
I2
sVhttp://dlvr.it/7Nzztz
p1267
I2
sVhttp://dlvr.it/7NzyLJ
p1268
I2
sVhttp://dlvr.it/7P02c4
p1269
I2
sVhttp://dlvr.it/7Nzz7H
p1270
I2
sVhttp://dlvr.it/7NzxwH
p1271
I2
sVhttp://dlvr.it/7P0477
p1272
I2
sVhttp://dlvr.it/7P03b2
p1273
I2
sVhttp://dlvr.it/7Nzzzd
p1274
I2
sVhttp://dlvr.it/7Nzzbf
p1275
I2
sVhttp://dlvr.it/7P01tF
p1276
I2
sVhttp://dlvr.it/7P0237
p1277
I4
sVhttp://dlvr.it/7P00JP
p1278
I2
sVhttp://dlvr.it/7NzyyB
p1279
I2
sVhttp://dlvr.it/7P04j2
p1280
I2
sVhttp://dlvr.it/7P04f4
p1281
I2
sVhttp://dlvr.it/7P01Gc
p1282
I2
sVhttp://dlvr.it/7P02jQ
p1283
I2
sVhttp://dlvr.it/7P02M7
p1284
I2
sVhttp://dlvr.it/7P023D
p1285
I2
sVhttp://dlvr.it/7P012B
p1286
I2
sVhttp://bit.ly/VPGg4P
p1287
I110
sVhttp://dlvr.it/7P021J
p1288
I2
sVhttp://dlvr.it/7P03QH
p1289
I2
sVhttp://dlvr.it/7Nzxlb
p1290
I2
sVhttp://dlvr.it/7NzzS8
p1291
I2
sVhttp://dlvr.it/7P00VC
p1292
I2
sVhttp://dlvr.it/7NzxyQ
p1293
I2
sVhttp://dlvr.it/7P03W1
p1294
I2
sVhttp://dlvr.it/7P045b
p1295
I2
sVhttp://dlvr.it/7P02rh
p1296
I2
sVhttp://dlvr.it/7NzxTj
p1297
I2
sVhttp://dlvr.it/7P04bk
p1298
I2
sVhttp://dlvr.it/7P021l
p1299
I2
sVhttp://dlvr.it/7P00fn
p1300
I2
sVhttp://dlvr.it/7P03GQ
p1301
I2
sVhttp://dlvr.it/7P03hf
p1302
I2
sVhttp://dlvr.it/7NzzTL
p1303
I2
sVhttp://dlvr.it/7P02Z7
p1304
I2
sVhttp://dlvr.it/7P00sw
p1305
I2
sVhttp://dlvr.it/7P01r0
p1306
I2
sVhttp://dlvr.it/7P03Kt
p1307
I2
ssg215
Vrt ipad iphone british man held over hong kong murders  bbc news   app
p1308
sg217
I29
sg218
I2
sg219
I11
sa(dp1309
g2
(dp1310
g4
I38
sg5
I68
ssg6
I106
sg7
g8
((lp1311
I2796815872
aI146451331
aI1088077452
aI245693197
aI1179710990
aI2817419791
aI905435672
aI10070162
aI2840426004
aI2271482222
aI2839618071
aI2801030040
aI1076697499
aI2295078942
aI1128991135
aI1039687591
aI388495274
aI51076012
aI614020654
aI2399391152
aI335897268
aI377218102
aI82043831
aI908203585
aI2253857988
aI182506310
aI76528558
aI2462635979
aI2177421516
aI394615885
aI134800845
aI256495314
aI363182806
aI2242439771
aI749238620
aI2383502816
aI84216805
aI748173673
aI940000238
aI269707248
aI86935409
aI2690281202
aI265858163
aI138357993
aI2773517432
aI62540411
aI599065130
aI1195087230
atp1312
Rp1313
sg12
I5
sg13
g14
(g15
tp1314
Rp1315
Vhttp://www.occuworld.org/news/1665201
p1316
I2
sVhttp://bit.ly/1wTc9pn
p1317
I2
sVhttp://news.gonevil.com/Chm
p1318
I2
sVhttp://reut.rs/1xMLkDf
p1319
I2
sVhttp://bit.ly/1vwkfSq
p1320
I2
sVhttp://reut.rs/1qitoMQ
p1321
I12
sVhttp://flip.it/y7ZQj
p1322
I2
sVhttp://bit.ly/1EainVX
p1323
I2
sVhttp://bit.ly/1vwjb0Y
p1324
I2
sVhttp://a.msn.com/01/en-us/BBcsJxB
p1325
I2
sVhttp://ift.tt/1wp7xt6
p1326
I2
sVhttp://bit.ly/WWDDbf
p1327
I4
sVhttp://goo.gl/fb/Bt96c8
p1328
I2
sVhttp://ift.tt/1o2S1kT
p1329
I6
sVhttp://yahoonewsdigest-ca-extra.tumblr.com/101575639831
p1330
I2
sVhttp://tinyurl.com/mv8jxqg
p1331
I2
sVhttp://www.reuters.com/article/idUSKBN0IM00L20141102
p1332
I2
sVhttp://tdy.sg/1pfURUA
p1333
I8
sVhttp://www.ndtv.com/article/world/police-reputation-and-morale-at-stake-in-hong-kong-protests-615066
p1334
I18
sVhttp://ift.tt/1zXHmgB
p1335
I2
sVhttp://www.Netizenews.Com
p1336
I2
sVhttp://fb.me/6PSiubWJC
p1337
I2
sVhttp://lnkd.in/bg7vVRR
p1338
I2
sVhttp://dlvr.it/7Nz9s4
p1339
I6
sVhttp://on-msn.com/1o70nIa
p1340
I2
sVhttp://lnkd.in/bW7jVqc
p1341
I4
sVhttp://buff.ly/1yNYYHt
p1342
I2
sVhttp://flip.it/h9HJV
p1343
I2
sVhttp://blackberryappgenerator.com/mip/pct.jsp?p=949118510_586120
p1344
I2
ssg215
Vpolice reputation and morale at stake in hong kong protests
p1345
sg217
I30
sg218
I2
sg219
I11
sa(dp1346
g2
(dp1347
g4
I0
sg5
I102
ssg6
I102
sg7
g8
((lp1348
I912087812
aI466015878
aI2688572791
aI983395976
aI46088331
aI96410636
aI1719386893
aI591202832
aI1154596363
aI296190489
aI1570258970
aI601468701
aI821331486
aI1416828066
aI176191523
aI417299066
aI2615379878
aI292000814
aI893691019
aI2768062344
aI2464708274
aI246953395
aI1658958260
aI2733115294
aI389770680
aI861876666
aI2656346300
aI190810047
aI525606336
aI37502019
aI504731972
aI603333573
aI475744070
aI357438536
aI538774987
aI1384144730
aI2229021782
aI1032104024
aI211866330
aI961355101
aI330551755
aI313983586
aI246944099
aI2191793006
aI410025332
aI906326647
aI263136632
aI443733140
aI1557821946
aI499828799
atp1349
Rp1350
sg12
I5
sg13
g14
(g15
tp1351
Rp1352
Vhttp://news24h.allnews24h.com/MCHw
p1353
I2
sVhttp://bit.ly/1tP0Y22
p1354
I2
sVhttp://bit.ly/1wSTvPs
p1355
I2
sVhttp://bit.ly/1ubJi1P
p1356
I50
sVhttp://bit.ly/1u8evmB
p1357
I2
sVhttp://bit.ly/1wnHxOz
p1358
I6
sVhttp://bit.ly/1vygpIF
p1359
I18
sVhttp://bit.ly/1u8mvEi
p1360
I12
sVhttp://bit.ly/1vulkKE
p1361
I6
sVhttp://bit.ly/1ubHE0n
p1362
I2
ssg215
Vbriton held over hong kong murders after bodies of two women found hong kong police arrest hold 29yearold m
p1363
sg217
I31
sg218
I2
sg219
I11
sa(dp1364
g2
(dp1365
g4
I100
sg5
I2
ssg6
I102
sg7
g8
((lp1366
I14173315
aI22905734
aI2178611209
aI17217548
aI20715279
aI1131016494
aI341546135
aI751231514
aI326892463
aI500028700
aI2359567133
aI1664059166
aI2830028959
aI866788843
aI600226083
aI2887706407
aI18696875
aI1113983916
aI1944915506
aI261353006
aI2199392815
aI2719770929
aI2444984626
aI145053494
aI93078329
aI135315903
aI505848389
aI2855109957
aI2653602888
aI2187220087
aI1290235596
aI1450591184
aI80855252
aI218789497
aI2599883864
aI553105423
aI615992186
aI402937312
aI2346189283
aI2485718628
aI363492967
aI2575194728
aI155661547
aI1062791150
aI50799216
aI2463919220
aI332604535
aI2232691961
aI64673274
aI1669934971
aI923037565
atp1367
Rp1368
sg12
I5
sg13
g14
(g15
tp1369
Rp1370
Vhttp://bit.ly/1ubxahw
p1371
I102
ssg215
Vbank of america merrill lynch employee held over hong kong womens murders
p1372
sg217
I32
sg218
I2
sg219
I11
sa(dp1373
g2
(dp1374
g4
I22
sg5
I78
ssg6
I100
sg7
g8
((lp1375
I1051813891
aI567522948
aI217323400
aI2664603404
aI1963389709
aI950541199
aI282254623
aI16270227
aI1664059166
aI2445795871
aI2778935071
aI516508323
aI23294757
aI2326481905
aI392860200
aI413786409
aI1250789420
aI2290002361
aI459842591
aI296493118
aI2322896575
aI2359729344
aI1877831
aI91097547
aI1924986319
aI38412785
aI741327062
aI1875796440
aI127902684
aI2695107679
aI2383502816
aI58245601
aI590366563
aI2363029988
aI138357993
aI1039687591
aI2803356014
aI116046831
aI2281524776
aI1732560242
aI813064693
aI855556087
aI2773517432
aI369756735
atp1376
Rp1377
sg12
I5
sg13
g14
(g15
tp1378
Rp1379
Vhttp://dlvr.it/7P8d7C
p1380
I2
sVhttp://dlvr.it/7P8f93
p1381
I2
sVhttp://NYTimes.com
p1382
I2
sVhttp://ift.tt/1vziwfg
p1383
I2
sVhttp://lnkd.in/bUWcQww
p1384
I2
sVhttp://dlvr.it/7P8LHv
p1385
I2
sVhttp://www.nytimes.com/2014/11/03/world/asia/hong-kong-womens-bodies-found.html
p1386
I4
sVhttp://fb.me/6k7Ul4VCn
p1387
I2
sVhttp://dlvr.it/7P8QSn
p1388
I2
sVhttp://nyti.ms/1ucDDIT
p1389
I2
sVhttp://dlvr.it/7P8FvJ
p1390
I2
sVhttp://fb.me/71aMYFSMp
p1391
I2
sVhttp://dlvr.it/7P8f6c
p1392
I2
sVhttp://nyti.ms/1wVW0Q2
p1393
I2
sVhttp://ift.tt/1s4MYNc
p1394
I2
sVhttp://bit.ly/1wV8tDy
p1395
I2
sVhttp://ift.tt/1wWXcn8
p1396
I2
sVhttp://nyti.ms/1zZko8W
p1397
I24
sVhttp://dlvr.it/7P8ZRR
p1398
I2
sVhttp://intelweb.biz
p1399
I2
sVhttp://cur.lv/f3gql
p1400
I2
sVhttp://blackberryappgenerator.com/mip/pct.jsp?p=949247027_586120
p1401
I4
sVhttp://nyti.ms/1t34zEv
p1402
I2
sVhttp://news.gonevil.com/Cia
p1403
I2
sVhttp://dlvr.it/7P8Q04
p1404
I2
sVhttp://nyti.ms/1vzFd33
p1405
I4
sVhttp://cur.lv/f3gqr
p1406
I2
sVhttp://cur.lv/f3gqq
p1407
I2
sVhttp://nyti.ms/1vzi9S2
p1408
I2
sVhttp://cur.lv/f3gqv
p1409
I2
sVhttp://ift.tt/1tvqEkn
p1410
I4
sVhttp://ift.tt/1wUiV1v
p1411
I2
sVhttp://ift.tt/10eABH6
p1412
I2
sVhttp://ift.tt/1GakbjM
p1413
I2
sVhttp://onlinetimesnews.com/?p=192064
p1414
I2
sVhttp://onlinetimesnews.com/?p=192065
p1415
I2
sVhttp://dlvr.it/7P8c8H
p1416
I2
ssg215
Vhong kong police arrest briton after womenu2019s bodies are found in apartment
p1417
sg217
I33
sg218
I2
sg219
I11
sa(dp1418
g2
(dp1419
g4
I0
sg5
I98
ssg6
I98
sg7
g8
((lp1420
I498007937
aI1035791918
aI6000772
aI17466758
aI498012169
aI2593165068
aI88889613
aI370442398
aI577811727
aI1462799250
aI2194541678
aI60228376
aI2183994523
aI497993118
aI999453985
aI1089342374
aI1583817644
aI194499826
aI2793168046
aI319402270
aI382431418
aI32300018
aI198607426
aI501132078
aI604051910
aI15699147
aI553990736
aI2242439771
aI194177631
aI2857570290
aI309883618
aI295093243
aI990332774
aI2236222567
aI2214054761
aI153876973
aI115981166
aI79094653
aI71959922
aI2260008948
aI731956597
aI2773517432
aI498015739
aI83791997
aI436844799
atp1421
Rp1422
sg12
I5
sg13
g14
(g15
tp1423
Rp1424
Vhttp://ow.ly/2Q36Ri
p1425
I2
sVhttp://ift.tt/1DOyRRG
p1426
I2
sVhttp://ift.tt/1GcZVxS
p1427
I2
sVhttp://goo.gl/fb/mcVMXT
p1428
I2
sVhttp://goo.gl/fb/dhwBDj
p1429
I2
sVhttp://bit.ly/1wXdfjL
p1430
I2
sVhttp://gatesstreetheat.com/2014/11/03/british-banker-appears-in-hong-kong-court-charged-with-double-murder/
p1431
I2
sVhttp://bit.ly/1o7NpKb
p1432
I2
sVhttp://dlvr.it/7PNCsh
p1433
I2
sVhttp://www.bangkokpost.com/news/asia/441122/british-banker-appears-in-hong-kong-court-charged-with-double-murder
p1434
I2
sVhttp://ow.ly/2Q38Yq
p1435
I2
sVhttp://ow.ly/2Q372l
p1436
I2
sVhttp://dlvr.it/7PNjDZ
p1437
I2
sVhttp://goo.gl/wbaLrt
p1438
I2
sVhttp://dlvr.it/7PNKZb
p1439
I2
sVhttp://ift.tt/1uleRHf
p1440
I2
sVhttp://yhoo.it/1wWEE7u
p1441
I2
sVhttp://dlvr.it/7PNDQN
p1442
I2
sVhttp://ow.ly/2Q37uL
p1443
I2
sVhttp://dlvr.it/7PPxZg
p1444
I2
sVhttp://dlvr.it/7PNfwt
p1445
I2
sVhttp://ift.tt/13xF49K
p1446
I10
sVhttp://dlvr.it/7PNG2b
p1447
I2
sVhttp://ow.ly/2Q373I
p1448
I2
sVhttp://dlvr.it/7PNdmz
p1449
I2
sVhttp://www.businessinsider.com/afp-british-banker-appears-in-hong-kong-court-charged-with-double-murder-2014-11
p1450
I2
sVhttp://bit.ly/1Ec3XVA
p1451
I2
sVhttp://rapidclimb.com
p1452
I2
sVhttp://dlvr.it/7PNN0l
p1453
I2
sVhttp://ift.tt/13xFlcI
p1454
I10
sVhttp://ln.is/businessinsider.com/0UyAq
p1455
I2
sVhttp://ow.ly/2Q36QM
p1456
I2
sVhttp://dlvr.it/7PNHNt
p1457
I2
sVhttp://feedproxy.google.com/~r/businessinsider/~3/BWNOR-r52Ks/afp-british-banker-appears-in-hong-kong-court-charged-with-double-murder-2014-11
p1458
I10
sVhttp://goo.gl/fb/anOa4E
p1459
I2
sVhttp://ow.ly/2Q383c
p1460
I2
sVhttp://dlvr.it/7PP1R6
p1461
I2
sVhttp://ow.ly/2Q36XS
p1462
I2
ssg215
Vbritish banker appears in hong kong court charged with double murder
p1463
sg217
I34
sg218
I2
sg219
I11
sa(dp1464
g2
(dp1465
g4
I64
sg5
I34
ssg6
I98
sg7
g8
((lp1466
I2771004800
aI4898091
aI33396486
aI312677640
aI2178611209
aI428971031
aI1705612172
aI974209549
aI364896785
aI115668371
aI1370516372
aI297330839
aI1543010714
aI21784741
aI2161859750
aI274369575
aI18270633
aI19158571
aI2334825008
aI2350726069
aI2316634550
aI336489016
aI425580734
aI340503105
aI2336875844
aI42858599
aI2607136711
aI899439308
aI545979082
aI18949452
aI1407559375
aI1556565720
aI713034329
aI2814428507
aI15861220
aI2334141415
aI998549226
aI15861355
aI546521838
aI976166899
aI2350675700
aI147976952
aI2804434682
aI2857507324
aI2626128637
aI182473471
atp1467
Rp1468
sg12
I5
sg13
g14
(g15
tp1469
Rp1470
Vhttp://on.ft.com/1A0r6LS
p1471
I4
sVhttp://fb.me/1D7RQXU02
p1472
I2
sVhttp://ift.tt/1A1nZDn
p1473
I2
sVhttp://ift.tt/1wVrTKu
p1474
I2
sVhttp://ift.tt/1DM5cbV
p1475
I2
sVhttp://on.ft.com/1A0qYfp
p1476
I2
sVhttp://ift.tt/1DNiQLK
p1477
I2
sVhttp://on.ft.com/1A0GNTb
p1478
I22
sVhttp://dlvr.it/7PF3mg
p1479
I2
sVhttp://on.ft.com/1A0rnyt
p1480
I10
sVhttp://ift.tt/1twinMQ
p1481
I12
sVhttp://on.ft.com/1xPrpni
p1482
I36
sVhttp://wp.me/p2ZFgg-kkR
p1483
I2
ssg215
Vbanker charged after hong kong murders
p1484
sg217
I35
sg218
I2
sg219
I11
sa(dp1485
g2
(dp1486
g4
I92
sg5
I2
ssg6
I94
sg7
g8
((lp1487
I45741827
aI910956684
aI845066893
aI1560174734
aI294559888
aI427186584
aI2268205458
aI82330132
aI122190485
aI2724025879
aI715810328
aI382386457
aI2723705754
aI1074541039
aI2817761953
aI73132507
aI2340367016
aI186557997
aI185798831
aI10333872
aI336489016
aI1905343417
aI116350650
aI398268731
aI2288758466
aI213118052
aI2868325832
aI895230025
aI1284216140
aI20562637
aI46248525
aI2884971108
aI315356623
aI2724429276
aI2837603677
aI2749107552
aI2508352098
aI337945060
aI2797704809
aI2741273706
aI876126098
aI2723518062
aI140565871
aI144524144
aI877449722
aI48887547
aI613482622
atp1488
Rp1489
sg12
I5
sg13
g14
(g15
tp1490
Rp1491
Vhttp://buff.ly/10Ii8n7
p1492
I94
ssg215
Vheres what chinas richest man thinks about the hong kong protests
p1493
sg217
I36
sg218
I2
sg219
I11
sa(dp1494
g2
(dp1495
g4
I0
sg5
I80
ssg6
I80
sg7
g8
((lp1496
I2816846208
aI2817010471
atp1497
Rp1498
sg12
I5
sg13
g14
(g15
tp1499
Rp1500
Vhttp://dlvr.it/7P00rD
p1501
I2
sVhttp://dlvr.it/7NzzQm
p1502
I2
sVhttp://dlvr.it/7Nzzb7
p1503
I2
sVhttp://dlvr.it/7NzxxX
p1504
I2
sVhttp://dlvr.it/7NzycQ
p1505
I2
sVhttp://dlvr.it/7NzzpP
p1506
I2
sVhttp://dlvr.it/7NzzQr
p1507
I2
sVhttp://dlvr.it/7NzzvR
p1508
I2
sVhttp://bit.ly/1wzgE7U
p1509
I80
sVhttp://dlvr.it/7Nzz4n
p1510
I2
sVhttp://dlvr.it/7Nzzmw
p1511
I2
sVhttp://dlvr.it/7P007V
p1512
I2
sVhttp://dlvr.it/7P02B6
p1513
I2
sVhttp://dlvr.it/7P037b
p1514
I2
sVhttp://dlvr.it/7P00rc
p1515
I2
sVhttp://dlvr.it/7Nzz02
p1516
I2
sVhttp://dlvr.it/7P015C
p1517
I2
sVhttp://dlvr.it/7NzyKl
p1518
I2
sVhttp://dlvr.it/7P00SW
p1519
I2
sVhttp://dlvr.it/7Nzxy4
p1520
I2
sVhttp://dlvr.it/7P04Pn
p1521
I2
sVhttp://dlvr.it/7P04nQ
p1522
I2
sVhttp://dlvr.it/7P02Ny
p1523
I2
sVhttp://dlvr.it/7P04Th
p1524
I2
sVhttp://dlvr.it/7P03lB
p1525
I2
sVhttp://dlvr.it/7P00v8
p1526
I2
sVhttp://dlvr.it/7P025D
p1527
I2
sVhttp://dlvr.it/7P045M
p1528
I2
sVhttp://dlvr.it/7P04pb
p1529
I2
sVhttp://dlvr.it/7P036V
p1530
I2
sVhttp://dlvr.it/7Nzyty
p1531
I2
sVhttp://dlvr.it/7NzyBJ
p1532
I2
sVhttp://dlvr.it/7P02Dx
p1533
I2
sVhttp://dlvr.it/7P01Sp
p1534
I2
sVhttp://dlvr.it/7P02rf
p1535
I2
sVhttp://dlvr.it/7NzyK5
p1536
I2
sVhttp://dlvr.it/7Nzxff
p1537
I2
sVhttp://dlvr.it/7P040c
p1538
I2
sVhttp://dlvr.it/7P02q2
p1539
I2
sVhttp://dlvr.it/7P03sJ
p1540
I2
sVhttp://dlvr.it/7P002r
p1541
I2
ssg215
Vforex money british man held over hong kong murders  bbc news
p1542
sg217
I37
sg218
I2
sg219
I11
sa(dp1543
g2
(dp1544
g4
I24
sg5
I52
ssg6
I76
sg7
g8
((lp1545
I2582559360
aI38400130
aI294658056
aI165743372
aI312430861
aI962892781
aI2842243485
aI268426017
aI2823892516
aI37874853
aI1583817644
aI124731823
aI470217997
aI388584505
aI17770816
aI2311861956
aI2212753740
aI88889613
aI278117588
aI2280325974
aI21196759
aI36050009
aI2489597540
aI115314277
aI2236222567
aI605081194
aI2236217323
aI2860967660
aI464762477
aI2194541678
aI2857570290
aI295093243
aI1357558122
aI1195087230
aI1364013439
atp1546
Rp1547
sg12
I5
sg13
g14
(g15
tp1548
Rp1549
Vhttps://www.yahoo.com/news/hong-kong-police-grill-british-trader-over-double-061907788.html
p1550
I2
sVhttp://goo.gl/7SKonm
p1551
I10
sVhttp://fb.me/1BCAdWp9k
p1552
I2
sVhttp://ift.tt/1wWrDZO
p1553
I2
sVhttp://ift.tt/1G8PNGp
p1554
I2
sVhttp://yhoo.it/1ujBITx
p1555
I2
sVhttp://feedly.com/k/1qlKYzx
p1556
I2
sVhttp://ift.tt/13wII3K
p1557
I2
sVhttp://goo.gl/J7drkK
p1558
I2
sVhttp://dlvr.it/7PFQ0X
p1559
I2
sVhttp://goo.gl/kiQ7MX
p1560
I2
sVhttp://dlvr.it/7PFbK9
p1561
I2
sVhttp://cna.asia/13x1Iiw
p1562
I18
sVhttp://news.yahoo.com/hong-kong-police-grill-british-trader-over-double-061907788.html
p1563
I4
sVhttp://dlvr.it/7PFTkv
p1564
I2
sVhttp://dlvr.it/7PFZzJ
p1565
I2
sVhttp://dlvr.it/7PHFRr
p1566
I2
sVhttp://goo.gl/fb/XU2AXY
p1567
I2
sVhttp://ift.tt/1t2Ptip
p1568
I6
sVhttp://dlvr.it/7PFTQJ
p1569
I2
sVhttp://dlvr.it/7PFGGx
p1570
I2
sVhttp://cna.asia/1A0H09d
p1571
I4
ssg215
Vhong kong police charge british banker with double murder
p1572
sg217
I38
sg218
I2
sg219
I11
sa(dp1573
g2
(dp1574
g4
I74
sg5
I2
ssg6
I76
sg7
g8
((lp1575
I2456039043
aI279390084
aI637218056
aI15984911
aI1139235732
aI386131868
aI428128285
aI1664059166
aI2753483295
aI2832156325
aI2851728039
aI278914984
aI714951722
aI1695104558
aI2839364274
aI497092794
aI25785887
aI2444035776
aI2414457033
aI1022779850
aI53399371
aI617164748
aI43092557
aI2355923539
aI586187605
aI2347465047
aI133912207
aI2663828317
aI621743583
aI14875623
aI2849702120
aI199967977
aI2845078119
aI28003949
aI365905520
aI110065397
aI430579114
atp1576
Rp1577
sg12
I5
sg13
g14
(g15
tp1578
Rp1579
Vhttp://www.theepochtimes.com/n3/1052288-hackers-leak-phone-numbers-of-250-hong-kong-police/
p1580
I76
ssg215
Vhackers leak phone numbers of 250 hongkong police   u2026 ophongkong occupycentral hongkong
p1581
sg217
I39
sg218
I2
sg219
I11
sa(dp1582
g2
(dp1583
g4
I0
sg5
I68
ssg6
I68
sg7
g8
((lp1584
I1643415110
aI2478704934
aI2276721831
aI584508110
aI960735024
aI2463736220
aI750632095
atp1585
Rp1586
sg12
I5
sg13
g14
(g15
tp1587
Rp1588
Vhttp://ln.is/abcn.ws/4mrO4
p1589
I2
sVhttp://ln.is/abcn.ws/11K08
p1590
I2
sVhttp://news24h.allnews24h.com/MH9y
p1591
I2
sVhttp://ln.is/abcn.ws/qefNI
p1592
I2
sVhttp://ln.is/abcn.ws/56BEK
p1593
I2
sVhttp://ln.is/abcn.ws/CJw9s
p1594
I2
sVhttp://ln.is/abcn.ws/5bQpg
p1595
I2
sVhttp://ln.is/abcn.ws/Iv3Om
p1596
I2
sVhttp://ln.is/abcn.ws/ReZ8K
p1597
I2
sVhttp://ln.is/abcn.ws/66gR2
p1598
I2
sVhttp://abcn.ws/1t5cDo5
p1599
I34
sVhttp://goo.gl/YjCzsv
p1600
I2
sVhttp://ln.is/abcn.ws/bCeJY
p1601
I2
sVhttp://ln.is/abcn.ws/6vFse
p1602
I2
sVhttp://ln.is/abcn.ws/pxU0u
p1603
I2
sVhttp://ln.is/abcn.ws/3mMBM
p1604
I2
sVhttp://ln.is/abcn.ws/2SX8O
p1605
I2
ssg215
Vforeign man charged in hong kong double killing hong kong police charge foreign man suspected of killing 2 women
p1606
sg217
I40
sg218
I2
sg219
I11
sa(dp1607
g2
(dp1608
g4
I48
sg5
I20
ssg6
I68
sg7
g8
((lp1609
I309843971
aI384736648
aI384729994
aI783013908
aI16973333
aI1279485974
aI73682714
aI323936160
aI307452066
aI42175779
aI629951652
aI237674151
aI392860200
aI2750210730
aI2840378924
aI1949036077
aI279979572
aI972936630
aI302654778
aI537014337
aI2603267395
aI2829894213
aI1555231692
aI2718164052
aI2857702997
aI133006939
aI50812767
aI402937312
aI1185026786
aI486878310
aI400049769
atp1610
Rp1611
sg12
I5
sg13
g14
(g15
tp1612
Rp1613
Vhttp://bit.ly/1zZFZyb
p1614
I2
sVhttp://bit.ly/1ttdJxJ
p1615
I8
sVhttp://bit.ly/1zq8i7H
p1616
I6
sVhttp://ift.tt/1vzE1MT
p1617
I2
sVhttp://ind.pn/1yOANJ4
p1618
I50
ssg215
Vbritish man accused of double murder in hong kong named
p1619
sg217
I41
sg218
I2
sg219
I11
sa(dp1620
g2
(dp1621
g4
I32
sg5
I34
ssg6
I66
sg7
g8
((lp1622
I103245828
aI2369483222
aI274578952
aI1544733578
aI80430679
aI443939340
aI2249330958
aI2583372339
aI2507678102
aI44162457
aI1664059166
aI289148078
aI2779049977
aI2801811705
aI349878970
aI160930875
aI604548289
aI505848389
aI528611654
aI836218824
aI956324941
aI326212431
aI2455578710
aI21196759
aI7587032
aI2742900447
aI837933536
aI1003202916
aI443940207
aI2807588600
aI1261090681
atp1623
Rp1624
sg12
I5
sg13
g14
(g15
tp1625
Rp1626
Vhttp://oran.ge/1vxs22A
p1627
I2
sVhttp://bit.ly/1uaZK2o
p1628
I2
sVhttp://news.sky.com
p1629
I2
sVhttp://news.sky.com/story/1365115/briton-questioned-over-hong-kong-murders
p1630
I38
sVhttp://ow.ly/2Q1EJO
p1631
I2
sVhttp://bit.ly/1o400Ov
p1632
I2
sVhttp://www.lbc.co.uk/briton-questioned-over-hong-kong-murders-99685
p1633
I2
sVhttp://news.sky.com/story/1365115
p1634
I2
sVhttp://j.mp/1tsVys3
p1635
I2
sVhttp://dlvr.it/7P01Py
p1636
I2
sVhttp://dlvr.it/7NzqGB
p1637
I2
sVhttp://ift.tt/1wTciJn
p1638
I4
sVhttp://bit.ly/1wVel0n
p1639
I4
sVhttp://dlvr.it/7P09cC
p1640
I2
ssg215
Vbriton questioned over hong kong murders
p1641
sg217
I42
sg218
I2
sg219
I11
sa(dp1642
g2
(dp1643
g4
I2
sg5
I62
ssg6
I64
sg7
g8
((lp1644
I1282825729
aI1352913667
aI1016733578
aI1646906642
aI226695189
aI1281506071
aI124108056
aI2288735515
aI39954846
aI43582755
aI2413177253
aI15936294
aI191025836
aI1901394096
aI2202375985
aI2337999540
aI2853357370
aI616851006
aI117443924
aI2810757463
aI2335960920
aI2213896412
aI2468022630
aI2613891942
aI756685928
aI570722541
aI1285958504
atp1645
Rp1646
sg12
I5
sg13
g14
(g15
tp1647
Rp1648
Vhttp://ift.tt/1tuavf1
p1649
I2
sVhttp://tinyurl.com/mbefauk
p1650
I2
sVhttp://ift.tt/1uaXGrk
p1651
I2
sVhttp://ift.tt/13u7hOy
p1652
I2
sVhttp://bit.ly/1DJdelF
p1653
I2
sVhttp://bbc.in/1tOhgrN
p1654
I2
sVhttp://goo.gl/fb/fWfODv
p1655
I4
sVhttp://bit.ly/1uaVmjV
p1656
I2
sVhttp://popstarpress.com/?p=2730
p1657
I4
sVhttp://bit.ly/1s48nGj
p1658
I2
sVhttp://zpzp.eu/c.php?url=http://dlvr.it/7Nzv83
p1659
I2
sVhttp://goo.gl/fb/GkXEj0
p1660
I2
sVhttp://bit.ly/1sZGn5U
p1661
I2
sVhttp://ift.tt/1uiDC72
p1662
I2
sVhttp:\u005c/\u005c/t.co\u005c/AUPuMRwpcK
p1663
I2
sVhttp://bit.ly/1o3wXKY
p1664
I2
sVhttp://bit.ly/1sZElmc
p1665
I2
sVhttp://dlvr.it/7P950t
p1666
I2
sVhttp://dlvr.it/7NztnX
p1667
I2
sVhttp://bit.ly/1woP7IY
p1668
I2
sVhttp://dlvr.it/7NzrZX
p1669
I2
sVhttp://757l.tk/10c55cB
p1670
I6
sVhttp://goo.gl/fb/EuVgQj
p1671
I2
sVhttp://goo.gl/fb/4XDapj
p1672
I2
sVhttp://757l.tk/1DKYcfm
p1673
I2
ssg215
Vbritish man held over hong kong murders  bbc news
p1674
sg217
I43
sg218
I2
sg219
I11
sa(dp1675
g2
(dp1676
g4
I62
sg5
I2
ssg6
I64
sg7
g8
((lp1677
I2594777088
aI194623104
aI140243083
aI954407822
aI2830437775
aI26468371
aI17735061
aI1578979350
aI428971031
aI811356452
aI37092528
aI28137012
aI1209338426
aI1495806018
aI55469963
aI42049129
aI1697509327
aI28600400
aI537577042
aI352157070
aI884387130
aI186700511
aI2882830560
aI33031271
aI2583625705
aI35365619
aI371769589
aI29920768
aI2831797879
aI216478712
aI108556027
aI3108351
atp1678
Rp1679
sg12
I5
sg13
g14
(g15
tp1680
Rp1681
Vhttp://on.wsj.com/1wYxheP
p1682
I64
ssg215
Vbritish banker in hong kong charged with murder after two women were found dead in an apartment
p1683
sg217
I44
sg218
I2
sg219
I11
sa(dp1684
g2
(dp1685
g4
I0
sg5
I58
ssg6
I58
sg7
g8
((lp1686
I2780463872
aI2836354694
aI2834911374
aI2780523282
aI356533780
aI2834925678
aI126389029
aI2781940778
aI2842604844
aI567281967
aI2821562544
aI2781945908
aI2836396345
aI2835010111
aI2780298571
aI2836331852
aI584508110
aI2835014863
aI2834961872
aI2780476628
aI2868100566
aI2835005791
aI2836355408
aI2834368747
aI2780227308
aI2834931438
aI2836328828
aI2781890346
atp1687
Rp1688
sg12
I5
sg13
g14
(g15
tp1689
Rp1690
Vhttp://on.wsj.com/1wY3xyB
p1691
I2
sVhttp://on.wsj.com/1wpJUjV
p1692
I16
sVhttp://on.wsj.com/1vBKXJo
p1693
I2
sVhttp://on.wsj.com/1vBToo0
p1694
I36
sVhttp://news24h.allnews24h.com/MGlX
p1695
I2
ssg215
Vhong kong official dismisses calls for vote a top hong kong official rejected proposals by protest organizers
p1696
sg217
I45
sg218
I2
sg219
I11
sa(dp1697
g2
(dp1698
g4
I52
sg5
I6
ssg6
I58
sg7
g8
((lp1699
I2385964938
aI200896018
aI2774970552
aI624413
aI1664059166
aI1020182690
aI2291655589
aI2774039210
aI466654252
aI370525233
aI2754345013
aI213812024
aI2612640956
aI343052864
aI266450753
aI2385944899
aI593739845
aI544775242
aI2291026128
aI336489016
aI1107448404
aI1941445848
aI386038876
aI2769736419
aI486112997
aI49146355
aI989657845
aI218789497
aI2857507324
atp1700
Rp1701
sg12
I5
sg13
g14
(g15
tp1702
Rp1703
Vhttp://on.mktw.net/1xPCmVU
p1704
I54
sVhttp://www.snsanalytics.com/q4qzy4
p1705
I4
ssg215
Vbritish banker accused of murdering 2 women in hong kong
p1706
sg217
I46
sg218
I2
sg219
I11
sa(dp1707
g2
(dp1708
g4
I52
sg5
I6
ssg6
I58
sg7
g8
((lp1709
I1398700290
aI423121539
aI2270416014
aI13895312
aI34713362
aI363199891
aI54930709
aI2441092381
aI171589790
aI80995743
aI314494880
aI25436835
aI18270633
aI183580317
aI32922549
aI868379449
aI1209338426
aI2828836168
aI2276478156
aI181006671
aI2252944470
aI544193337
aI782270054
aI376722924
aI40064626
aI2786973555
aI416322549
aI279640825
aI751262845
atp1710
Rp1711
sg12
I5
sg13
g14
(g15
tp1712
Rp1713
Vhttp://ift.tt/1sQsdE8
p1714
I2
sVhttp://bloom.bg/1wUx92h
p1715
I2
sVhttp://bloom.bg/1xQqgMh
p1716
I54
ssg215
Vsales of mcnuggets and rolex show its business as usual in hong kong amid protests
p1717
sg217
I47
sg218
I2
sg219
I11
sa(dp1718
g2
(dp1719
g4
I52
sg5
I2
ssg6
I54
sg7
g8
((lp1720
I2441025792
aI470574721
aI380648579
aI2741661968
aI78787098
aI275942684
aI786405282
aI2237450916
aI152548005
aI301723686
aI2175864487
aI126810099
aI335897268
aI972936630
aI47840442
aI72299713
aI155989830
aI6591312
aI10595802
aI27734496
aI2359876368
aI395895021
aI97768047
aI318358387
aI2228171385
aI553108731
aI30588028
atp1721
Rp1722
sg12
I5
sg13
g14
(g15
tp1723
Rp1724
Vhttp://u.afp.com/6YM
p1725
I54
ssg215
Vhong kong police are questioning a british trader after a grisly discovery of two female corpses in his apartment
p1726
sg217
I48
sg218
I2
sg219
I11
sa(dp1727
g2
(dp1728
g4
I54
sg5
I0
ssg6
I54
sg7
g8
((lp1729
I603265921
aI342441219
aI1713519620
aI474738305
aI2365875212
aI351515278
aI576416673
aI773789220
aI1559554982
aI217911341
aI1651285808
aI492471861
aI460571337
aI969066037
aI274183107
aI580924616
aI2321606089
aI1261017546
aI1250422093
aI477111631
aI900676945
aI719155922
aI594915556
aI588611557
aI2341076690
aI2566515057
aI1394559997
atp1730
Rp1731
sg12
I5
sg13
g14
(g15
tp1732
Rp1733
Vhttp:\u005c/\u005c/t.co\u005c/bRh7UkYW2W
p1734
I54
ssg215
Valesso en hong kongud83cudde8ud83cuddf3
p1735
sg217
I49
sg218
I2
sg219
I11
sa(dp1736
g2
(dp1737
g4
I52
sg5
I2
ssg6
I54
sg7
g8
((lp1738
I2441025792
aI401094657
aI380648579
aI45220870
aI129067271
aI2307416202
aI2544829327
aI2741661968
aI54747537
aI248471826
aI95480471
aI756158490
aI22822556
aI881582755
aI2237450916
aI91398058
aI1243527738
aI36678591
aI201123139
aI1085568612
aI101932773
aI605081194
aI41780203
aI952410990
aI1021025779
aI428023928
aI512327871
atp1739
Rp1740
sg12
I5
sg13
g14
(g15
tp1741
Rp1742
sg215
Vbreaking british banker rurik jutting appears in hong kong court charged with double murder
p1743
sg217
I50
sg218
I2
sg219
I11
sa(dp1744
g2
(dp1745
g4
I0
sg5
I54
ssg6
I54
sg7
g8
((lp1746
I555269124
aI1975367341
aI395132433
aI28818582
aI2433533216
aI1416828066
aI406738723
aI338928425
aI2868189997
aI2274839983
aI448637877
aI389770680
aI1134894140
aI368329795
aI357438536
aI1268719946
aI2868140876
aI584508110
aI2459920208
aI1698145614
aI384917592
aI1898757852
aI213098960
aI111284975
aI853088881
aI633559154
aI1597096567
atp1747
Rp1748
sg12
I5
sg13
g14
(g15
tp1749
Rp1750
Vhttp://nbcnews.to/1ubqa47
p1751
I2
sVhttp://nbcnews.to/1wVBoZa
p1752
I32
sVhttp://nbcnews.to/1ubnZxy
p1753
I2
sVhttp://nbcnews.to/1wVA3Bs
p1754
I4
sVhttp://news24h.allnews24h.com/MEdW
p1755
I2
sVhttp://nbcnews.to/1wp2dWw
p1756
I10
sVhttp://nbcnews.to/1wVA3l6
p1757
I2
ssg215
Vbanker held over murders of hong kong women a bank of america merrill lynch employee has been arrested in hon
p1758
sg217
I51
sg218
I2
sg219
I11
sa(dp1759
g2
(dp1760
g4
I50
sg5
I2
ssg6
I52
sg7
g8
((lp1761
I48654466
aI2212891281
aI248154131
aI520401044
aI2269464349
aI14138785
aI16343974
aI67272363
aI1113983916
aI305704776
aI112409658
aI165502910
aI163563071
aI123949508
aI1485511880
aI31090000
aI330628183
aI1933758433
aI253508578
aI285706984
aI1376778474
aI432444015
aI2187220087
aI79278072
aI1636321404
aI191456895
atp1762
Rp1763
sg12
I5
sg13
g14
(g15
tp1764
Rp1765
Vhttp://fw.to/gYi8SFV
p1766
I52
ssg215
Vbritish financier arrested on suspicion of murder after two women were found dead inside his hong kong flat
p1767
sg217
I52
sg218
I2
sg219
I11
sa(dp1768
g2
(dp1769
g4
I0
sg5
I52
ssg6
I52
sg7
g8
((lp1770
I309843971
aI1349202180
aI1681725830
aI2249330958
aI219421471
aI515550497
aI2504194087
aI1202463272
aI956311722
aI1092378031
aI520230960
aI233156917
aI1224154813
aI21295180
aI2359318093
aI2725952336
aI2242439771
aI309883618
aI452029413
aI1020397926
aI153876973
aI2260008948
aI813064693
aI2773517432
atp1771
Rp1772
sg12
I5
sg13
g14
(g15
tp1773
Rp1774
Vhttp://dlvr.it/7P7XRJ
p1775
I2
sVhttp://dlvr.it/7P7NnS
p1776
I2
sVhttp://goo.gl/fb/qKQQp9
p1777
I2
sVhttp://goo.gl/fb/mzp9Rh
p1778
I2
sVhttp://straightoutthegate.com/news-gate/briton-being-held-over-hong-kong-double-murder-video-report/
p1779
I2
sVhttp://dlvr.it/7P8fD9
p1780
I2
sVhttp://theguardian.com
p1781
I2
sVhttp://goo.gl/fb/cj0U9D
p1782
I2
sVhttp://ift.tt/1rMXp6X
p1783
I4
sVhttp://j.mp/13vqmjw
p1784
I2
sVhttp://dlvr.it/7P7Wrj
p1785
I2
sVhttp://dlvr.it/7P7Q7t
p1786
I2
sVhttp://bit.ly/1ucDyFf
p1787
I2
sVhttp://ow.ly/2Q255U
p1788
I2
sVhttp://ift.tt/1tvg8tk
p1789
I10
sVhttp://theallnews.com/briton-being-held-over-hong-kong-double-murder-video-report/
p1790
I2
sVhttp://dlvr.it/7P7Nvz
p1791
I2
sVhttp://j.mp/1zZd6lJ
p1792
I2
sVhttp://bit.ly/1wUmcfK
p1793
I2
sVhttp://ow.ly/2Q24pB
p1794
I2
sVhttp://trib.al/XK915qc
p1795
I2
sVhttp://dlvr.it/7P7YBL
p1796
I2
ssg215
Vbriton being held over hong kong double murder  video report
p1797
sg217
I53
sg218
I2
sg219
I11
sa(dp1798
g2
(dp1799
g4
I0
sg5
I52
ssg6
I52
sg7
g8
((lp1800
I332255620
aI28562949
aI2598264720
aI633019352
aI335461141
aI2340427167
aI2882447137
aI2668132136
aI363699504
aI526602308
aI61962693
aI335604422
aI305299021
aI31330515
aI721389398
aI2868100566
aI763803607
aI2264819672
aI755074915
aI2295150692
aI290785126
aI133998444
aI375075823
aI2229021782
aI102333311
atp1801
Rp1802
sg12
I5
sg13
g14
(g15
tp1803
Rp1804
Vhttp://nyti.ms/1tOUT5q
p1805
I2
sVhttp://nyti.ms/1o41Fnk
p1806
I2
sVhttp://nyti.ms/1ubusZo
p1807
I14
sVhttp://nyti.ms/1wVHAjU
p1808
I34
ssg215
Vforeign bofa merrill lynch banker linked to hong kong murders source a bank of america merrill lynch employe
p1809
sg217
I54
sg218
I2
sg219
I11
sa(dp1810
g2
(dp1811
g4
I10
sg5
I42
ssg6
I52
sg7
g8
((lp1812
I2353079736
aI57455785
aI40173650
aI46583723
atp1813
Rp1814
sg12
I5
sg13
g14
(g15
tp1815
Rp1816
Vhttp://ift.tt/1o5ncMm
p1817
I2
sVhttp://ift.tt/1DKSCcM
p1818
I2
sVhttp://ift.tt/1udKtxL
p1819
I2
sVhttp://ift.tt/1G8XOet
p1820
I2
sVhttp://ift.tt/1wUfULg
p1821
I2
sVhttp://ift.tt/1wYI0WK
p1822
I4
sVhttp://ift.tt/1G8OeIH
p1823
I4
sVhttp://ift.tt/1o474L7
p1824
I2
sVhttp://ift.tt/1wV70z0
p1825
I2
sVhttp://ift.tt/1A1Op84
p1826
I4
sVhttp://ift.tt/10dkadZ
p1827
I2
sVhttp://ift.tt/1wUjPuP
p1828
I2
sVhttp://ift.tt/10g1WZo
p1829
I2
sVhttp://ift.tt/1ue4Hr7
p1830
I2
sVhttp://ift.tt/1tvVXvt
p1831
I2
sVhttp://ift.tt/1wU4GpY
p1832
I2
sVhttp://ift.tt/1rMgIgQ
p1833
I2
sVhttp://ift.tt/1qkRTZY
p1834
I2
sVhttp://ift.tt/1t0w5Co
p1835
I2
sVhttp://ift.tt/1rOtlYB
p1836
I6
sVhttp://ift.tt/10gefoB
p1837
I2
ssg215
Vlessig what hong kong protests should teach us  cnn blog   hongkong
p1838
sg217
I55
sg218
I2
sg219
I11
sa(dp1839
g2
(dp1840
g4
I50
sg5
I2
ssg6
I52
sg7
g8
((lp1841
I15720449
aI46370567
aI115847052
aI16166161
aI608081305
aI141122330
aI18716325
aI44562343
aI177535404
aI17616304
aI2823445693
aI186399678
aI387915584
aI2658491587
aI74418756
aI2414457033
aI788697546
aI39205327
aI1542698192
aI2173330902
aI280868082
aI2866541684
aI2417534462
aI383685367
aI451487229
aI142218878
atp1842
Rp1843
sg12
I5
sg13
g14
(g15
tp1844
Rp1845
Vhttp://money.cnn.com/2014/11/02/news/economy/hong-kong-tycoons/index.html?iid=Lead
p1846
I52
ssg215
Vhong kong has a tycoon problem by cnns sophiayan     occupyhk
p1847
sg217
I56
sg218
I2
sg219
I11
sa(dp1848
g2
(dp1849
g4
I0
sg5
I52
ssg6
I52
sg7
g8
((lp1850
I309843971
aI1349202180
aI1681725830
aI2729681561
aI1254053018
aI219421471
aI515550497
aI956311722
aI1092378031
aI520230960
aI233156917
aI1224154813
aI2359318093
aI2725952336
aI212741202
aI2242439771
aI309883618
aI452029413
aI153876973
aI106760175
aI2260008948
aI813064693
aI1637233782
aI2773517432
atp1851
Rp1852
sg12
I5
sg13
g14
(g15
tp1853
Rp1854
Vhttp://trib.al/ajOlDHW
p1855
I2
sVhttp://straightoutthegate.com/news-gate/british-banker-rurik-jutting-appears-in-hong-kong-court-charged-with-murders/
p1856
I2
sVhttp://goo.gl/fb/ddUTT8
p1857
I2
sVhttp://ift.tt/1DOHT19
p1858
I10
sVhttp://sco.lt/52qhY9
p1859
I2
sVhttp://bit.ly/10hfJPp
p1860
I2
sVhttp://gu.com/p/43xfj/stw
p1861
I2
sVhttp://dlvr.it/7PNtPd
p1862
I2
sVhttp://ow.ly/2Q3cTV
p1863
I2
sVhttp://dlvr.it/7PNw5g
p1864
I2
sVhttp://goo.gl/fb/5LP1rI
p1865
I2
sVhttp://dlvr.it/7PP8r4
p1866
I2
sVhttp://j.mp/1A2oixR
p1867
I2
sVhttp://dlvr.it/7PP2Dp
p1868
I2
sVhttp://dlvr.it/7PNtD4
p1869
I2
sVhttp://bit.ly/1wqWwYe
p1870
I2
sVhttp://ift.tt/1t5r63r
p1871
I4
sVhttp://dlvr.it/7PNrCx
p1872
I2
sVhttp://goo.gl/fb/O5RTSa
p1873
I2
sVhttp://bit.ly/10dPoRY
p1874
I2
sVhttp://dlvr.it/7PPP7N
p1875
I2
ssg215
Vbritish banker rurik jutting appears in hong kong court charged with murders
p1876
sg217
I57
sg218
I2
sg219
I11
sa(dp1877
g2
(dp1878
g4
I48
sg5
I2
ssg6
I50
sg7
g8
((lp1879
I2441025792
aI2267177856
aI380648579
aI39017226
aI129534609
aI149601437
aI148374688
aI16224675
aI2237450916
aI2614531878
aI223382695
aI332716328
aI510370731
aI1581585452
aI335897268
aI17899274
aI766658
aI127493575
aI122994768
aI70996818
aI21196759
aI101932773
aI1608494760
aI2801811705
aI23620605
atp1880
Rp1881
sg12
I5
sg13
g14
(g15
tp1882
Rp1883
Vhttp://u.afp.com/6gf
p1884
I50
ssg215
Vhong kong police grill british merrill lynch banker over double murder  latest by denniskhchong   wanchai
p1885
sg217
I58
sg218
I2
sg219
I11
sa(dp1886
g2
(dp1887
g4
I48
sg5
I2
ssg6
I50
sg7
g8
((lp1888
I1715128962
aI11725572
aI108768774
aI2800728849
aI2355276692
aI2788078109
aI312598945
aI2867948581
aI71220657
aI129814961
aI2839364274
aI747668149
aI2451917498
aI186399678
aI19163079
aI2216327884
aI1258400719
aI2877994873
aI2335088856
aI2836161115
aI599862125
aI2457233902
aI526244601
aI413365626
atp1889
Rp1890
sg12
I5
sg13
g14
(g15
tp1891
Rp1892
Vhttp://umbrellarthk.com/fight-for-hong-kong-umbrella-art/
p1893
I50
ssg215
Vfight for hong kong  u4f54u9818u4e2du74b0 umbrellarevolution hongkong u96e8u5098u9769u547d occupycentral  hkprotests
p1894
sg217
I59
sg218
I2
sg219
I11
sa(dp1895
g2
(dp1896
g4
I18
sg5
I30
ssg6
I48
sg7
g8
((lp1897
I905100416
aI1576463233
aI2167290884
aI368072974
aI2451260952
aI14138785
aI211757224
aI956311722
aI281368884
aI1255328952
aI505848389
aI170253639
aI1924796616
aI14389212
aI19706851
aI2400888164
aI1020397926
aI353656422
aI2701597927
aI561098353
aI101844599
aI108405369
atp1898
Rp1899
sg12
I5
sg13
g14
(g15
tp1900
Rp1901
Vhttp://j.mp/1A1Ppcc
p1902
I2
sVhttp://www.telegraph.co.uk/news/worldnews/asia/hongkong/11204655/Hong-Kong-murders-British-banker-to-appear-in-court-charged-with-double-killing.html
p1903
I2
sVhttp://ow.ly/2Q30r8
p1904
I2
sVhttp://ift.tt/1GcuSCA
p1905
I4
sVhttp://bit.ly/1ufnLoZ
p1906
I2
sVhttp://Telegraph.co.uk
p1907
I2
sVhttp://bit.ly/1ufnMtg
p1908
I2
sVhttp://dlvr.it/7PPggm
p1909
I2
sVhttp://dlvr.it/7PLFq5
p1910
I2
sVhttp://bit.ly/1wWIOKK
p1911
I2
sVhttp://ow.ly/2Q2ZW2
p1912
I2
sVhttp://tgr.ph/1A1Jm7N
p1913
I12
sVhttp://tgr.ph/1A1Mdxe
p1914
I10
sVhttp://goo.gl/fb/rBuful
p1915
I2
sVhttp://okjoinery.co.uk
p1916
I2
sVhttp://dlvr.it/7PKzJN
p1917
I2
ssg215
Vhong kong murders british banker to appear in court charged with double killing
p1918
sg217
I60
sg218
I2
sg219
I11
sa(dp1919
g2
(dp1920
g4
I0
sg5
I48
ssg6
I48
sg7
g8
((lp1921
I2655064370
aI2655042708
atp1922
Rp1923
sg12
I5
sg13
g14
(g15
tp1924
Rp1925
Vhttp://dlvr.it/7P04PT
p1926
I2
sVhttp://dlvr.it/7P0168
p1927
I2
sVhttp://dlvr.it/7Nzy9K
p1928
I2
sVhttp://dlvr.it/7NzzDd
p1929
I2
sVhttp://dlvr.it/7P02fk
p1930
I2
sVhttp://dlvr.it/7P00TT
p1931
I2
sVhttp://goo.gl/Lrwyrh
p1932
I48
sVhttp://dlvr.it/7NzzP6
p1933
I2
sVhttp://dlvr.it/7P00Qt
p1934
I2
sVhttp://dlvr.it/7P019s
p1935
I2
sVhttp://dlvr.it/7Nzy9d
p1936
I2
sVhttp://dlvr.it/7P04YR
p1937
I2
sVhttp://dlvr.it/7P00Nx
p1938
I2
sVhttp://dlvr.it/7NzzDq
p1939
I2
sVhttp://dlvr.it/7NzzrB
p1940
I2
sVhttp://dlvr.it/7NzzwZ
p1941
I2
sVhttp://dlvr.it/7P002H
p1942
I2
sVhttp://dlvr.it/7P023M
p1943
I2
sVhttp://dlvr.it/7NzyRl
p1944
I2
sVhttp://dlvr.it/7NzxbG
p1945
I2
sVhttp://dlvr.it/7P00sm
p1946
I2
sVhttp://dlvr.it/7Nzz9B
p1947
I2
sVhttp://dlvr.it/7P04Qx
p1948
I2
sVhttp://dlvr.it/7NzxjC
p1949
I2
sVhttp://dlvr.it/7NzzTG
p1950
I2
ssg215
Vandroid lg british man held over hong kong murders  bbc news
p1951
sg217
I61
sg218
I2
sg219
I11
sa(dp1952
g2
(dp1953
g4
I0
sg5
I46
ssg6
I46
sg7
g8
((lp1954
I107428076
aI968168774
aI616851006
atp1955
Rp1956
sg12
I5
sg13
g14
(g15
tp1957
Rp1958
Vhttp://ift.tt/1uaXGrk
p1959
I42
sVhttp://wp.me/p4vvyk-slY
p1960
I2
sVhttp://wp.me/p4vvyk-snS
p1961
I2
sVhttp://wp.me/p4vvyk-spE
p1962
I2
sVhttp://wp.me/p4vvyk-srs
p1963
I2
sVhttp://wp.me/p4vvyk-sne
p1964
I2
sVhttp://wp.me/p4vvyk-su2
p1965
I2
sVhttp://wp.me/p4vvyk-ss6
p1966
I2
sVhttp://wp.me/p4vvyk-slk
p1967
I2
sVhttp://blog.phmcgpe.com/2014/11/02/british-man-held-over-hong-kong-murders-bbc-news-2/
p1968
I4
sVhttp://ift.tt/1DJILUz
p1969
I4
sVhttp://wp.me/p4vvyk-sjs
p1970
I2
sVhttp://wp.me/p4vvyk-sk4
p1971
I2
sVhttp://ift.tt/1wTHYlm
p1972
I4
sVhttp://wp.me/p4vvyk-sto
p1973
I2
sVhttp://wp.me/p4vvyk-sqS
p1974
I2
sVhttp://ift.tt/1wTnl5n
p1975
I4
sVhttp://wp.me/p4vvyk-smC
p1976
I2
sVhttp://wp.me/p4vvyk-skG
p1977
I2
sVhttp://ift.tt/1wWi4uE
p1978
I4
sVhttp://ift.tt/1o3SzHg
p1979
I4
sVhttp://wp.me/p4vvyk-ssK
p1980
I2
sVhttp://wp.me/p4vvyk-sim
p1981
I2
sVhttp://wp.me/p4vvyk-siS
p1982
I2
sVhttp://ift.tt/1xNxHUw
p1983
I4
sVhttp://wp.me/p4vvyk-sp8
p1984
I2
sVhttp://wp.me/p4vvyk-shI
p1985
I8
sVhttp://ift.tt/1EaMoFj
p1986
I4
sVhttp://wp.me/p4vvyk-sou
p1987
I2
sVhttp://ift.tt/1xNKgiI
p1988
I4
sVhttp://ift.tt/13uRUpl
p1989
I2
sVhttp://wp.me/p4vvyk-sqe
p1990
I2
ssg215
Vbritish man held over hong kong murders u2013 bbc news
p1991
sg217
I62
sg218
I2
sg219
I11
sa(dp1992
g2
(dp1993
g4
I2
sg5
I44
ssg6
I46
sg7
g8
((lp1994
I2725952336
aI2412998365
aI309843971
aI1349202180
aI233156917
aI2270888775
aI956311722
aI2359318093
aI1943982446
aI153876973
aI2802661616
aI2260008948
aI813064693
aI1637233782
aI515550497
aI2773517432
aI309883618
aI259202358
aI1092378031
aI1224154813
aI219421471
atp1995
Rp1996
sg12
I5
sg13
g14
(g15
tp1997
Rp1998
Vhttp://gu.com/p/43xcb/stw
p1999
I2
sVhttp://bit.ly/1tQsZpM
p2000
I2
sVhttp://dlvr.it/7PF39T
p2001
I2
sVhttp://dlvr.it/7PFTNn
p2002
I2
sVhttp://dlvr.it/7PFBH7
p2003
I2
sVhttp://straightoutthegate.com/news-gate/british-banker-charged-with-two-counts-of-murder-in-hong-kong/
p2004
I2
sVhttp://dlvr.it/7PF2Q5
p2005
I2
sVhttp://goo.gl/fb/lJgjtG
p2006
I2
sVhttp://trib.al/iV2kXyt
p2007
I4
sVhttp://ift.tt/1GbeuCg
p2008
I6
sVhttp://dlvr.it/7PF5cd
p2009
I2
sVhttp:\u005c/\u005c/t.co\u005c/GZ05rFu8sj
p2010
I2
sVhttp://dlvr.it/7PF7Qg
p2011
I2
sVhttp://dlvr.it/7PFBY5
p2012
I2
sVhttp://ift.tt/1GbeuCi
p2013
I8
sVhttp://feeds.theguardian.com/c/34708/f/663828/s/40147e9d/sc/24/l/0L0Stheguardian0N0Cworld0C20A140Cnov0C0A20Cbritish0Ebanker0Echarged0Emurder0Ehong0Ekong/story01.htm
p2014
I2
sVhttp://j.mp/1A0ApeJ
p2015
I2
ssg215
Vbritish banker charged with two counts of murder in hong kong
p2016
sg217
I63
sg218
I2
sg219
I11
sa(dp2017
g2
(dp2018
g4
I44
sg5
I2
ssg6
I46
sg7
g8
((lp2019
I34665792
aI2693129476
aI2415129116
aI512120095
aI18856867
aI18270633
aI887957676
aI364401071
aI2349421616
aI128001460
aI2773859766
aI616479546
aI300150080
aI64309323
aI15066963
aI595841888
aI278264929
aI2208541680
aI1252417778
aI2243052661
aI20715638
aI218789497
aI1962596220
atp2020
Rp2021
sg12
I5
sg13
g14
(g15
tp2022
Rp2023
sg215
Vhong kong police charge jutting for murder of two women he was into that whole yale thing
p2024
sg217
I64
sg218
I2
sg219
I11
sa(dp2025
g2
(dp2026
g4
I42
sg5
I2
ssg6
I44
sg7
g8
((lp2027
I363161920
aI2782953538
aI215789423
aI285399460
aI29200613
aI588345726
aI88192007
aI1059288685
aI59936143
aI27443857
aI2839364274
aI55814899
aI15774741
aI13002422
aI2228171385
aI20541656
aI45724345
aI1258400719
aI29475069
aI2854235262
aI2156059381
atp2028
Rp2029
sg12
I5
sg13
g14
(g15
tp2030
Rp2031
Vhttp://www.scmp.com/business/article/1630961/beijing-risks-losing-entire-generation
p2032
I44
ssg215
Vchina can ignore occupycentral but the price lose 1 new generation of hong kong   my column
p2033
sg217
I65
sg218
I2
sg219
I11
sa(dp2034
g2
(dp2035
g4
I42
sg5
I2
ssg6
I44
sg7
g8
((lp2036
I2314450314
aI428971031
aI26468371
aI15013678
aI1596234775
aI611573019
aI482198564
aI2586336806
aI283807534
aI17893073
aI2783201219
aI155989830
aI28600400
aI2409435985
aI3108351
aI1220653914
aI2487791838
aI2164107473
aI21771755
aI21986927
aI563728767
aI732016639
atp2037
Rp2038
sg12
I5
sg13
g14
(g15
tp2039
Rp2040
Vhttp://on.wsj.com/1o36Pjo
p2041
I44
ssg215
Vheres our update on the banker held in hong kong murder probe   with stegersaurus
p2042
sg217
I66
sg218
I2
sg219
I11
sa(dp2043
g2
(dp2044
g4
I0
sg5
I42
ssg6
I42
sg7
g8
((lp2045
I1951722848
aI269889569
aI2609660358
aI590312609
aI985584720
aI2279052907
aI1510080007
aI230673965
aI1303136983
aI817074512
aI851815249
aI1603601010
aI232769907
aI2882437664
aI1473829813
aI475006262
aI1278597655
aI126600280
aI2459920208
aI2807588600
aI607283292
atp2046
Rp2047
sg12
I5
sg13
g14
(g15
tp2048
Rp2049
Vhttp://bit.ly/1vC4PfG
p2050
I2
sVhttp://bit.ly/1vC4zgv
p2051
I12
sVhttp://reut.rs/1wWo8Ta
p2052
I4
sVhttp://bit.ly/1ueWWkN
p2053
I2
sVhttp://bit.ly/1vC4Os9
p2054
I16
sVhttp://bit.ly/1vC4XLW
p2055
I2
sVhttp://trun.us/DqI
p2056
I2
sVhttp://reut.rs/1uf3kbG
p2057
I2
ssg215
Vbritish banker charged with murder of two women in hong kong hong kong reuters  hong kong police have char
p2058
sg217
I67
sg218
I2
sg219
I11
sa(dp2059
g2
(dp2060
g4
I36
sg5
I4
ssg6
I40
sg7
g8
((lp2061
I729642672
aI515275843
aI283327299
aI609121956
aI914602134
aI1951936646
aI2409435985
aI2828836168
aI2178611209
aI112620298
aI185798831
aI546228016
aI1963690993
aI38727901
aI62616019
aI2843914294
aI2768349599
aI55427837
aI1486117886
aI2395967496
atp2062
Rp2063
sg12
I5
sg13
g14
(g15
tp2064
Rp2065
Vhttp://on.wsj.com/1o36Pjo
p2066
I40
ssg215
V29yearold british banking executive held in hong kong murder probe one of the victims found in a suitcase
p2067
sg217
I68
sg218
I2
sg219
I11
sa(dp2068
g2
(dp2069
g4
I2
sg5
I38
ssg6
I40
sg7
g8
((lp2070
I16526760
aI2191985420
atp2071
Rp2072
sg12
I5
sg13
g14
(g15
tp2073
Rp2074
Vhttp://fb.me/3jhUPoo4s
p2075
I2
sVhttp://fb.me/VAJPp1Vt
p2076
I2
sVhttp://fb.me/4iCpJ1rtB
p2077
I2
sVhttp://fb.me/3ywSQAfIZ
p2078
I2
sVhttp://fb.me/1pme3rXwz
p2079
I2
sVhttp://fb.me/36t3FeOJP
p2080
I2
sVhttp://fb.me/3AMe5Zov6
p2081
I2
sVhttp://fb.me/2V15VpRGn
p2082
I2
sVhttp://fb.me/1MgZscJZY
p2083
I2
sVhttp://fb.me/1FtwGnuoH
p2084
I2
sVhttp://fb.me/6Zoc6lWhF
p2085
I2
sVhttp://fb.me/6MYHAvZYn
p2086
I2
sVhttp://fb.me/7cZh1N5O3
p2087
I4
sVhttp://fb.me/6Y6HygM6A
p2088
I2
sVhttp://fb.me/2f5FvUNB6
p2089
I2
sVhttp://fb.me/72A8iLz79
p2090
I2
sVhttp://fb.me/2ujD4Vpsj
p2091
I2
sVhttp://fb.me/44rpaEaZi
p2092
I2
sVhttp://fb.me/2IQCBM6Rf
p2093
I2
ssg215
Vcensored postu3010u4ecau65e5u4e2du5b78u751fu5febu9583u884cu52d5u3011u9999u6e2fu4e2du5b78u751fu597du5622uff01good todays students find shem in hong kong students mad good good
p2094
sg217
I69
sg218
I2
sg219
I11
sa(dp2095
g2
(dp2096
g4
I0
sg5
I40
ssg6
I40
sg7
g8
((lp2097
I1282876256
aI1459288513
aI610168005
aI1474088551
aI1241309738
aI1371551083
aI628381901
aI710776945
aI1014445069
aI621531088
aI1839083640
aI836983704
aI741736717
aI864146389
aI324670614
aI610315992
aI860986105
aI625212603
aI857677340
aI1243818943
atp2098
Rp2099
sg12
I5
sg13
g14
(g15
tp2100
Rp2101
sg215
Vbriton held over hong kong murders a 29yearold british man is arrested in hong kong after the bodies of two women were found in an
p2102
sg217
I70
sg218
I2
sg219
I11
sa(dp2103
g2
(dp2104
g4
I38
sg5
I2
ssg6
I40
sg7
g8
((lp2105
I99651936
aI1607084208
aI36080516
aI19038934
aI1265164584
aI224502057
aI2763477546
aI263984652
aI1673260717
aI1265177454
aI263996232
aI383770705
aI2730944019
aI1265174318
aI1132366646
aI47414473
aI2172746937
aI305259802
aI251328549
aI1265180191
atp2106
Rp2107
sg12
I5
sg13
g14
(g15
tp2108
Rp2109
sg215
Vhong kong police arrest british man 29 in deaths of 2 women one body found in suitcase on balcony of mans apartment
p2110
sg217
I71
sg218
I2
sg219
I11
sa(dp2111
g2
(dp2112
g4
I38
sg5
I2
ssg6
I40
sg7
g8
((lp2113
I2274151296
aI290700705
aI2327677776
aI543567716
aI621419621
aI892197414
aI921379783
aI112556616
aI2572221161
aI92189292
aI946796749
aI18155983
aI37092528
aI199114504
aI637158770
aI164758483
aI2308867254
aI612473
aI1642135962
aI2199392815
atp2114
Rp2115
sg12
I5
sg13
g14
(g15
tp2116
Rp2117
Vhttp://bbc.in/1xNXgEN
p2118
I40
ssg215
Vhong kong british banker rurik jutting arrives at court on murder charges via byrnechina
p2119
sg217
I72
sg218
I2
sg219
I11
sa(dp2120
g2
(dp2121
g4
I0
sg5
I40
ssg6
I40
sg7
g8
((lp2122
I1282876256
aI1459288513
aI610168005
aI1474088551
aI1241309738
aI1371551083
aI610315992
aI628381901
aI710776945
aI1014445069
aI621531088
aI836983704
aI741736717
aI864146389
aI324670614
aI1839083640
aI860986105
aI625212603
aI857677340
aI1243818943
atp2123
Rp2124
sg12
I5
sg13
g14
(g15
tp2125
Rp2126
sg215
Vbriton held over hong kong murders a 29yearold british man has been arrested in hong kong after the bodies of two women were found
p2127
sg217
I73
sg218
I2
sg219
I11
sa(dp2128
g2
(dp2129
g4
I2
sg5
I38
ssg6
I40
sg7
g8
((lp2130
I379760672
aI2384818352
aI2384864515
aI2384771365
aI16273831
aI182405906
aI2384801516
aI2376716618
aI21543628
aI2384806386
aI2384735694
aI2384781392
aI2384750642
aI949382515
aI2384863694
aI312105497
aI2384813786
aI2384876533
aI41170844
aI2371421413
atp2131
Rp2132
sg12
I5
sg13
g14
(g15
tp2133
Rp2134
Vhttp://bit.ly/1A1J9Bk
p2135
I2
sVhttp://ift.tt/1rQ0EdW
p2136
I30
sVhttp://bit.ly/1xQffdL
p2137
I4
sVhttp://dlvr.it/7PL9TH
p2138
I2
sVhttp://dlvr.it/7PLHPD
p2139
I2
ssg215
Vbritish banker charged with murder of 2 women in hong kong
p2140
sg217
I74
sg218
I2
sg219
I11
sa(dp2141
g2
(dp2142
g4
I38
sg5
I0
ssg6
I38
sg7
g8
((lp2143
I55166691
aI44228135
aI18551719
aI20913353
aI788697546
aI160761319
aI19564300
aI461777869
aI2255528509
aI1348439664
aI14831475
aI2173330902
aI64916983
aI342590731
aI14338267
aI127791708
aI198700618
aI142218878
aI42301087
atp2144
Rp2145
sg12
I5
sg13
g14
(g15
tp2146
Rp2147
sg215
Vive never been allowed inside a courtroom in mainland china in hong kong you just walk right in china makes the prosaicu2026
p2148
sg217
I75
sg218
I2
sg219
I11
sa(dp2149
g2
(dp2150
g4
I0
sg5
I38
ssg6
I38
sg7
g8
((lp2151
I1555761379
aI2552593892
aI1020397926
aI1171577766
aI559757127
aI450038568
aI273670058
aI444714795
aI353693997
aI2634821966
aI152491277
aI517212934
aI37230170
aI212741202
aI56235667
aI2200238490
aI452029413
aI1384144730
aI161602303
atp2152
Rp2153
sg12
I5
sg13
g14
(g15
tp2154
Rp2155
Vhttp://gu.com/p/43x49
p2156
I4
sVhttp://fb.me/76PRNI277
p2157
I2
sVhttp://gu.com/p/43x49/stw
p2158
I4
sVhttp://ow.ly/2Q1NIz
p2159
I2
sVhttp://bit.ly/1zYu1od
p2160
I2
sVhttp://ow.ly/2Q1PrC
p2161
I2
sVhttp://bit.ly/1vyfXtT
p2162
I2
sVhttp://flip.it/FRDWJ
p2163
I2
sVhttp://bit.ly/1wnHxOz
p2164
I2
sVhttp://ow.ly/2Q1OT6
p2165
I2
sVhttp://bit.ly/1wVVm5U
p2166
I4
sVhttp://bit.ly/1u8mvEi
p2167
I4
sVhttp://www.theguardian.com/world/2014/nov/01/briton-held-over-hong-kong-murders-police-arrest-bodies-women-wan-chai
p2168
I2
ssg215
Vbriton held over hong kong murders after bodies of two women found
p2169
sg217
I76
sg218
I2
sg219
I11
sa(dp2170
g2
(dp2171
g4
I38
sg5
I0
ssg6
I38
sg7
g8
((lp2172
I222847105
aI2422806595
aI1066879513
aI576320485
aI67319718
aI158483847
aI244814505
aI1641982219
aI27223693
aI374410861
aI100337625
aI621341939
aI2530671764
aI632383913
aI367355800
aI226556953
aI17924892
aI85682813
aI2171590015
atp2173
Rp2174
sg12
I5
sg13
g14
(g15
tp2175
Rp2176
sg215
Vpolice abuse of sex workers is a serious problem in hong kong amp they dont take crimes against sex workers seriouslyu2026
p2177
sg217
I77
sg218
I2
sg219
I11
sa(dp2178
g2
(dp2179
g4
I34
sg5
I4
ssg6
I38
sg7
g8
((lp2180
I17616304
aI307763555
aI74418756
aI18716325
aI1250559739
aI571016236
aI49051295
aI210284716
aI17730392
aI21181297
aI2302326066
aI69033555
aI383685367
aI2335088856
aI2357166500
aI17853818
aI14338267
aI497674505
aI186648261
atp2181
Rp2182
sg12
I5
sg13
g14
(g15
tp2183
Rp2184
Vhttp://www.mrjam.org/2014/11/10-dangerous-myths-about-the-hong-kong-protests.html
p2185
I38
ssg215
Villegal ruining business pointless 10 myths about the occupyhk protests by nuryvittachi
p2186
sg217
I78
sg218
I2
sg219
I11
sa(dp2187
g2
(dp2188
g4
I0
sg5
I38
ssg6
I38
sg7
g8
((lp2189
I1282876256
aI1459288513
aI610168005
aI1474088551
aI1241309738
aI1371551083
aI869425164
aI628381901
aI1014445069
aI621531088
aI710776945
aI741736717
aI864146389
aI324670614
aI610315992
aI860986105
aI625212603
aI857677340
aI1243818943
atp2190
Rp2191
sg12
I5
sg13
g14
(g15
tp2192
Rp2193
sg215
Vvideo briton held over hong kong murders a british national has been arrested in hong kong after the bodies of two women were found
p2194
sg217
I79
sg218
I2
sg219
I11
sa(dp2195
g2
(dp2196
g4
I36
sg5
I2
ssg6
I38
sg7
g8
((lp2197
I712157088
aI932320676
aI2636688229
aI133635281
aI8045512
aI96323946
aI6531182
aI585655887
aI105540008
aI215571123
aI28137012
aI336625173
aI39205327
aI608081305
aI82330132
aI1209338426
aI46574255
aI34625116
aI2794704285
atp2198
Rp2199
sg12
I5
sg13
g14
(g15
tp2200
Rp2201
Vhttp://on.wsj.com/13oBEWK
p2202
I38
ssg215
Vin hong kong this god is worshiped  by protesters police and gangsters
p2203
sg217
I80
sg218
I2
sg219
I11
sa(dp2204
g2
(dp2205
g4
I30
sg5
I6
ssg6
I36
sg7
g8
((lp2206
I22232322
aI1340178907
aI1527119364
aI517086021
aI18270633
aI2841285866
aI1028537388
aI2203320110
aI19173241
aI2747489104
aI34713362
aI2252944470
aI42049129
aI544193337
aI1209338426
aI2728929723
aI225423130
aI2152190053
atp2207
Rp2208
sg12
I5
sg13
g14
(g15
tp2209
Rp2210
Vhttp://ift.tt/1sQsdE8
p2211
I2
sVhttp://bloom.bg/1zqQhWM
p2212
I34
sVhttp://tmi.me/1eQH7I
p2213
I2
ssg215
Vhong kong finance chief scolds protesters planning next move
p2214
sg217
I81
sg218
I2
sg219
I11
sa(dp2215
g2
(dp2216
g4
I8
sg5
I28
ssg6
I36
sg7
g8
((lp2217
I1606064910
aI2242439771
aI1911089510
aI1375526088
aI528829450
aI940000238
aI2207430032
aI702031146
aI1924796616
aI2572640725
aI463814103
aI2773517432
aI1261090681
aI2431308042
aI1669934971
aI11855772
aI1544805674
aI550132670
atp2218
Rp2219
sg12
I5
sg13
g14
(g15
tp2220
Rp2221
Vhttp://dlvr.it/7P2Z4y
p2222
I2
sVhttp://nbcnews.to/1wVBoYY
p2223
I2
sVhttp://ift.tt/1tuwfra
p2224
I2
sVhttp://nbcnews.com
p2225
I2
sVhttp://nbcnews.to/1wVBoZa
p2226
I2
sVhttp://j.mp/1tsYTqX
p2227
I2
sVhttp://nbcnews.to/1ubkg2O
p2228
I10
sVhttp://nbcnews.to/1wp2dWw
p2229
I4
sVhttp://goo.gl/Vmlcb0
p2230
I2
sVhttp://dlvr.it/7P2bC3
p2231
I2
sVhttp://nbcnews.to/1vy3kio
p2232
I2
sVhttp://bit.ly/WMB61Q
p2233
I2
sVhttp://ift.tt/1DJxSlP
p2234
I2
ssg215
Vbanker held over murders of hong kong women
p2235
sg217
I82
sg218
I2
sg219
I11
sa(dp2236
g2
(dp2237
g4
I16
sg5
I20
ssg6
I36
sg7
g8
((lp2238
I467508944
aI195747434
aI461249931
aI474253999
aI2418964464
aI529243313
aI2873016498
aI37034483
aI461260532
aI421845502
aI2579925552
aI2321517172
aI2843543354
aI2765566939
aI163085852
aI100965930
aI2838956702
aI2847020799
atp2239
Rp2240
sg12
I5
sg13
g14
(g15
tp2241
Rp2242
Vhttp://dlvr.it/7PM9ZT
p2243
I2
sVhttp://ift.tt/1ufIdGp
p2244
I2
sVhttp://www.ndtv.com/article/world/briton-arrested-in-hong-kong-for-double-murder-615380
p2245
I22
sVhttp://bit.ly/1t4O9eE
p2246
I4
sVhttp://bit.ly/1wqM2rQ
p2247
I2
sVhttp://ift.tt/1ufIdGm
p2248
I2
sVhttp://rss2twi.com/link/WorldNewsRDT/?post_id=5431871
p2249
I2
ssg215
Vbriton arrested in hong kong for double murder
p2250
sg217
I83
sg218
I2
sg219
I11
sa(dp2251
g2
(dp2252
g4
I0
sg5
I36
ssg6
I36
sg7
g8
((lp2253
I806613697
aI807326594
aI808587618
aI965898852
aI599351397
aI964162118
aI632241729
aI623681404
aI964401932
aI791998387
aI802150255
aI798047312
aI802582129
aI929501875
aI599245877
aI965901050
aI964374300
aI993313789
atp2254
Rp2255
sg12
I5
sg13
g14
(g15
tp2256
Rp2257
Vhttp://bbc.in/1vyWV6L
p2258
I8
sVhttp://bbc.in/1wWKkxq
p2259
I24
sVhttp://bbc.in/1ucks20
p2260
I4
ssg215
Vhong kong police question briton   sebheupdate
p2261
sg217
I84
sg218
I2
sg219
I11
sa(dp2262
g2
(dp2263
g4
I2
sg5
I34
ssg6
I36
sg7
g8
((lp2264
I2466580130
aI452029413
aI629689831
aI2731012136
aI190121033
aI17038090
aI2744537131
aI88889613
aI363494152
aI527283442
aI2675396563
aI1895239670
aI2837777528
aI224560091
aI2716028982
aI257961309
aI293415807
atp2265
Rp2266
sg12
I5
sg13
g14
(g15
tp2267
Rp2268
Vhttp://dineroybolsa.com/s/111727
p2269
I2
sVhttp://ift.tt/1tOrHLW
p2270
I2
sVhttp://dlvr.it/7P004Z
p2271
I2
sVhttp://dlvr.it/7P0P6Q
p2272
I2
sVhttp://reut.rs/1sZHliF
p2273
I4
sVhttp://goo.gl/THX2t5
p2274
I2
sVhttp://goo.gl/fb/fwjSok
p2275
I2
sVhttp://ow.ly/2Q1CV7
p2276
I2
sVhttp://tmblr.co/ZS_jnm1Ubb8QE
p2277
I2
sVhttp://ift.tt/1qjBfd0
p2278
I2
sVhttp://dlvr.it/7NzzTJ
p2279
I2
sVhttp://reut.rs/1vxmAMU
p2280
I4
sVhttp://ift.tt/1G8QuzI
p2281
I2
sVhttp://ow.ly/2Q1EYe
p2282
I2
sVhttp://dlvr.it/7P0VY3
p2283
I2
sVhttp://sansani.com/foreign-bofa-merrill-lynch-banker-linked-to-hong-kong-murders-source/
p2284
I2
ssg215
Vforeign bofa merrill lynch banker linked to hong kong murders  source
p2285
sg217
I85
sg218
I2
sg219
I11
sa(dp2286
g2
(dp2287
g4
I4
sg5
I30
ssg6
I34
sg7
g8
((lp2288
I259501153
aI2368577222
aI74673510
aI2431107457
aI1687573195
aI2837295532
aI1720046125
aI2635385424
aI887583224
aI418100019
aI872655614
aI270909046
aI1643374520
aI1644035611
aI484878302
atp2289
Rp2290
sg12
I5
sg13
g14
(g15
tp2291
Rp2292
Vhttp://ow.ly/2Q1Fy0
p2293
I4
sVhttp://tinyurl.com/p9e37yv
p2294
I2
sVhttp://www.reuters.com/article/2014/11/02/hongkong-murder-banker-idUSL4N0SS04V20141102?feedType=RSS&amp;feedName=rbssFinancialServicesAndRealEstateNews
p2295
I2
sVhttp://goo.gl/fb/AHQTGY
p2296
I2
sVhttp://ow.ly/2Q1EzS
p2297
I2
sVhttp://tinyurl.com/owm8bru
p2298
I2
sVhttp://ow.ly/2Q1DhM
p2299
I2
sVhttp://goo.gl/fb/LYYCR3
p2300
I2
sVhttp://ow.ly/2Q1Dfu
p2301
I2
sVhttp://goo.gl/fb/rN4QCX
p2302
I2
sVhttp://feeds.reuters.com/~r/reuters/financialServicesRealEstateNews/~3/YTTyutLxRgQ/story01.htm
p2303
I2
sVhttp://fb.me/2I5N5kgvr
p2304
I2
sVhttp://feeds.reuters.com/~r/news/usmarkets/~3/UIUTcWHOVOY/story01.htm
p2305
I2
sVhttp://goo.gl/fb/pLKu9p
p2306
I2
sVhttp://bit.ly/1wTe8tL
p2307
I2
ssg215
Vupdate 1foreign bofa merrill lynch banker linked to hong kong murderssource
p2308
sg217
I86
sg218
I2
sg219
I11
sa(dp2309
g2
(dp2310
g4
I0
sg5
I34
ssg6
I34
sg7
g8
((lp2311
I56043777
aI1020397926
aI24481831
aI564662633
aI2546565066
aI2495159852
aI50416461
aI343138737
aI574853295
aI213807313
aI115000403
aI50310452
aI37401847
aI1463868600
aI2818875754
aI2420883037
aI234611710
atp2312
Rp2313
sg12
I5
sg13
g14
(g15
tp2314
Rp2315
Vhttp://ow.ly/2Q1UnH
p2316
I2
sVhttp://ow.ly/2Q1X2E
p2317
I2
sVhttp://ow.ly/2Q1XMv
p2318
I2
sVhttp://ow.ly/2Q1Xkw
p2319
I2
sVhttp://ow.ly/2Q1WoD
p2320
I2
sVhttp://ow.ly/2Q1XuF
p2321
I2
sVhttp://ow.ly/2Q1XqK
p2322
I2
sVhttp://ow.ly/2Q1UOF
p2323
I2
sVhttp://ow.ly/2Q1XLv
p2324
I2
sVhttp://ow.ly/2Q1UUT
p2325
I2
sVhttp://ow.ly/2Q1Xol
p2326
I4
sVhttp://ow.ly/2Q1Xj4
p2327
I2
sVhttp://ow.ly/2Q1XvJ
p2328
I2
sVhttp://ow.ly/2Q1WEw
p2329
I2
sVhttp://ow.ly/2Q1UMp
p2330
I4
ssg215
Vhong kong police question briton  hong kong police continue to question a 29yearold british man arrested on sus
p2331
sg217
I87
sg218
I2
sg219
I11
sa(dp2332
g2
(dp2333
g4
I0
sg5
I34
ssg6
I34
sg7
g8
((lp2334
I2579925552
aI20044326
aI199373425
aI18294537
aI32459434
aI119546955
aI233111789
aI150286640
aI78725424
aI378839832
aI135752181
aI174172216
aI2843543354
aI359290127
aI159935292
aI280278878
aI2847020799
atp2335
Rp2336
sg12
I5
sg13
g14
(g15
tp2337
Rp2338
Vhttp://rss2twi.com/link/WorldNewsRDT/?post_id=5390642
p2339
I2
sVhttp://flip.it/jbDZU
p2340
I2
sVhttp://shar.es/10GD4h
p2341
I2
sVhttp://flip.it/fuqD8
p2342
I2
sVhttp://gu.com/p/43x5p/tw
p2343
I2
sVhttp://gu.com/p/43x5p
p2344
I2
sVhttp://bit.ly/1ubtITQ
p2345
I2
sVhttp://ift.tt/1tNxu4o
p2346
I2
sVhttp://www.theguardian.com/world/2014/nov/02/british-banker-arrested-hong-kong-murders
p2347
I4
sVhttp://flip.it/NeQ1q
p2348
I2
sVhttp://flip.it/V5A54
p2349
I2
sVhttp://flip.it/Gs2Y1
p2350
I2
sVhttp://flip.it/YJd1u
p2351
I2
sVhttp://flip.it/EoalB
p2352
I2
sVhttp://flip.it/edOHD
p2353
I2
sVhttp://gu.com/p/43x5p/stw
p2354
I2
ssg215
Vbritish banker arrested over double murder in hong kong
p2355
sg217
I88
sg218
I2
sg219
I11
sa(dp2356
g2
(dp2357
g4
I32
sg5
I2
ssg6
I34
sg7
g8
((lp2358
I295234304
aI2873601248
aI605203010
aI74418756
aI18716325
aI15720449
aI387915584
aI177535404
aI39205327
aI71220657
aI41626132
aI499133045
aI311999670
aI2866541684
aI2838238556
aI2788078109
aI142218878
atp2359
Rp2360
sg12
I5
sg13
g14
(g15
tp2361
Rp2362
Vhttp://briefs.blpprofessional.com/viz/Hong-Kong-Protests-Dent-Approval-Ratings-Not-Markets/index.html
p2363
I34
ssg215
Vbloomberg occupyhk makes barely a dent on markets but hk chief popularity dives
p2364
sg217
I89
sg218
I2
sg219
I11
sa(dp2365
g2
(dp2366
g4
I0
sg5
I34
ssg6
I34
sg7
g8
((lp2367
I1462847136
aI2464565953
aI2337544130
aI2486757795
aI2413177253
aI2336249574
aI2464655816
aI1016733578
aI191025836
aI2510050821
aI2852111254
aI2288735515
aI556765019
aI1120061436
aI109974397
aI2510104799
atp2368
Rp2369
sg12
I5
sg13
g14
(g15
tp2370
Rp2371
Vhttp://ift.tt/1o4IPwf
p2372
I2
sVhttp://dlvr.it/7P5p33
p2373
I2
sVhttp://goo.gl/VkbqSb
p2374
I2
sVhttp://zpzp.eu/c.php?url=http://dlvr.it/7PBcy7
p2375
I2
sVhttp://ow.ly/2Q25mm
p2376
I2
sVhttp://757l.tk/1DK9eBq
p2377
I14
sVhttp://news.google.com/news/url?sa=t&fd=R&ct2=uk&usg=AFQjCNGJ06lS1bDdKRGjPDNWMsOtcryCUA&clid=c3a7d30bb8a4878e06b80cf16b898331&cid=52778645956681&ei=tytWVKirCcztggfJ6YHgAQ&url=http://www.bbc.co.uk/news/world-asia-29871031
p2378
I2
sVhttp://goo.gl/fb/EXKbZc
p2379
I2
sVhttp://nblo.gs/115GBx
p2380
I2
sVhttp://dlvr.it/7P6Mwj
p2381
I2
sVhttp://ift.tt/1DK7TL1
p2382
I2
ssg215
Vhong kong deaths police continue to question briton  bbc news
p2383
sg217
I90
sg218
I2
sg219
I11
sa(dp2384
g2
(dp2385
g4
I12
sg5
I22
ssg6
I34
sg7
g8
((lp2386
I28139873
aI630732363
aI22901158
aI465079312
aI582689833
aI16097707
aI153876973
aI65466158
aI2792802479
aI2579925552
aI1391049878
aI346046232
aI2843543354
aI66284799
aI296539693
aI2408524862
aI2847020799
atp2387
Rp2388
sg12
I5
sg13
g14
(g15
tp2389
Rp2390
Vhttp://ift.tt/1G8Xuwx
p2391
I2
sVhttp://dlvr.it/7P4cyP
p2392
I2
sVhttp://ift.tt/1qkGHfH
p2393
I4
sVhttp://online.wsj.com/articles/banker-held-in-hong-kong-murder-probe-1414897059
p2394
I2
sVhttp://dlvr.it/7NzJZx
p2395
I2
sVhttp://on.wsj.com/1DJHtJd
p2396
I14
sVhttp://rss2twi.com/link/WorldNewsRDT/?post_id=5392469
p2397
I2
sVhttp://on.wsj.com/1tOfxCN
p2398
I2
sVhttp://ow.ly/2Q22vb
p2399
I2
sVhttp://on.wsj.com/1G9N3J9
p2400
I2
ssg215
Vbanker held in hong kong murder probe
p2401
sg217
I91
sg218
I2
sg219
I11
sa(dp2402
g2
(dp2403
g4
I0
sg5
I34
ssg6
I34
sg7
g8
((lp2404
I413010560
aI2575163360
aI109491412
aI154588808
aI24210409
aI1154596363
aI2834391724
aI82181453
aI73287695
aI2796884552
aI31330515
aI2334087828
aI1303136983
aI15866233
aI123936058
aI78906843
aI1920663486
atp2405
Rp2406
sg12
I5
sg13
g14
(g15
tp2407
Rp2408
Vhttp://read.bi/1ufpQkV
p2409
I2
sVhttp://bit.ly/1wqJPN7
p2410
I20
sVhttp://bit.ly/1t4Dscj
p2411
I12
ssg215
Vbritish banker to appear in hong kong court charged with double murder hong kong afp  a british banker wil
p2412
sg217
I92
sg218
I2
sg219
I11
sa(dp2413
g2
(dp2414
g4
I0
sg5
I34
ssg6
I34
sg7
g8
((lp2415
I628394139
aI600883812
aI628271141
aI600614567
aI604123081
aI624931276
aI626220974
aI629793299
aI600894228
aI631356277
aI219915030
aI627529646
aI624953882
aI600814751
aI224421052
aI627658109
aI600799231
atp2416
Rp2417
sg12
I5
sg13
g14
(g15
tp2418
Rp2419
Vhttp://bit.ly/1d5qTtO
p2420
I34
ssg215
Vtopstories update 1foreign bofa merrill lynch banker linked to hong kong murders   reuters
p2421
sg217
I93
sg218
I2
sg219
I11
sa(dp2422
g2
(dp2423
g4
I0
sg5
I32
ssg6
I32
sg7
g8
((lp2424
I1633494625
aI2205109382
aI1594098152
aI1532141833
aI2355519307
aI861314862
aI401532680
aI851939288
aI1102029902
aI2186531767
aI2181240056
aI1115249160
aI421885981
aI798783390
atp2425
Rp2426
sg12
I5
sg13
g14
(g15
tp2427
Rp2428
Vhttp://ln.is/abcn.ws/YczmK
p2429
I2
sVhttp://abcn.ws/1t5ctgB
p2430
I10
sVhttp://abcn.ws/1t5cDo5
p2431
I18
sVhttp://ln.is/abcn.ws/VAmEi
p2432
I2
ssg215
Vyeremiito21 british man charged in hong kong double killing hong kong police charge briti   via yeremiix3
p2433
sg217
I94
sg218
I2
sg219
I11
sa(dp2434
g2
(dp2435
g4
I0
sg5
I32
ssg6
I32
sg7
g8
((lp2436
I1247341705
aI1638004682
aI2222093707
aI323799245
aI2519081550
aI2436530287
aI724570608
aI105426739
aI2172571639
aI477811288
aI1637945497
aI1558604186
aI1881000860
aI1638909535
atp2437
Rp2438
sg12
I5
sg13
g14
(g15
tp2439
Rp2440
Vhttp://on.ft.com/1vBdYFc
p2441
I4
sVhttp://goo.gl/3Ai3bU
p2442
I2
sVhttp://on.ft.com/1vAZ2H7
p2443
I2
sVhttp://goo.gl/B0Gq5W
p2444
I2
sVhttp://migre.me/mCWSj
p2445
I2
sVhttp://migre.me/mCWSt
p2446
I2
sVhttp://on.ft.com/1o6czcn
p2447
I2
sVhttp://on.ft.com/1ue0sMp
p2448
I2
sVhttp://goo.gl/BX1jIY
p2449
I4
ssg215
Vbanker charged after hong kong murders suspect to appear in court on monday after one victim found in suitcase
p2450
sg217
I95
sg218
I2
sg219
I11
sa(dp2451
g2
(dp2452
g4
I28
sg5
I4
ssg6
I32
sg7
g8
((lp2453
I197050061
aI2603267395
aI146799429
aI211757224
aI334120841
aI140144781
aI307869614
aI14569869
aI42123026
aI148937332
aI2191984092
aI408333245
aI63528313
aI2853222556
aI2842243485
aI249075294
atp2454
Rp2455
sg12
I5
sg13
g14
(g15
tp2456
Rp2457
Vhttp://bit.ly/1G9Z2Gy
p2458
I32
ssg215
Vbritish banker arrested over hong kong murders named as rurick jutting    c4news
p2459
sg217
I96
sg218
I2
sg219
I11
sa(dp2460
g2
(dp2461
g4
I0
sg5
I32
ssg6
I32
sg7
g8
((lp2462
I2314112417
aI1917198115
aI2613891942
aI1171577766
aI756685928
aI2533014732
aI1909358222
aI24454130
aI1474732596
aI1299854041
aI117443924
aI16229343
atp2463
Rp2464
sg12
I5
sg13
g14
(g15
tp2465
Rp2466
Vhttp://bit.ly/1tOB0LZ
p2467
I4
sVhttp://bit.ly/1o3YWdr
p2468
I2
sVhttp://757l.tk/1vxyzKu
p2469
I2
sVhttp://bit.ly/1o3Lerb
p2470
I2
sVhttp://ow.ly/2Q1Gyu
p2471
I2
sVhttp://go.boysofts.com/KDB
p2472
I2
sVhttp://go.boysofts.com/KDC
p2473
I2
sVhttp://bit.ly/1wVpnTx
p2474
I2
sVhttp://ow.ly/2Q1Gdo
p2475
I2
sVhttp://ow.ly/2Q1GGg
p2476
I2
sVhttp://ow.ly/2Q1Hb9
p2477
I2
sVhttp://bit.ly/1wVp2QN
p2478
I2
sVhttp://bit.ly/1o3Ler7
p2479
I4
ssg215
Vupdate 2foreign bofa merrill lynch banker linked to hong kong murders   reuters
p2480
sg217
I97
sg218
I2
sg219
I11
sa(dp2481
g2
(dp2482
g4
I0
sg5
I32
ssg6
I32
sg7
g8
((lp2483
I2882437664
aI1490390305
aI810755659
aI188703588
aI2609660358
aI2492075561
aI1281457867
aI1470703406
aI851815249
aI1487785651
aI227440917
aI1303136983
aI23459643
aI2882441630
atp2484
Rp2485
sg12
I5
sg13
g14
(g15
tp2486
Rp2487
Vhttp://goo.gl/YCb50D
p2488
I2
sVhttp://bit.ly/1o3BL2V
p2489
I2
sVhttp://bit.ly/1vxBfrE
p2490
I2
sVhttp://bit.ly/1uaXQ1G
p2491
I4
sVhttp://bit.ly/1o3BJrV
p2492
I2
sVhttp://bit.ly/1vxojSo
p2493
I2
sVhttp://goo.gl/3Ai3bU
p2494
I2
sVhttp://goo.gl/TFqouN
p2495
I2
sVhttp://bit.ly/1uaXQ1V
p2496
I2
sVhttp://bit.ly/1wVcNDI
p2497
I2
sVhttp://bit.ly/1wVcNU9
p2498
I10
ssg215
Vupdate 1foreign bofa merrill lynch banker linked to hong kong murderssource  two women found dead in apart
p2499
sg217
I98
sg218
I2
sg219
I11
sa(dp2500
g2
(dp2501
g4
I2
sg5
I30
ssg6
I32
sg7
g8
((lp2502
I1131237216
aI43210945
aI1908536514
aI33344003
aI194658150
aI70896129
aI49233000
aI924096906
aI389981483
aI22797771
aI1949130576
aI97736826
aI22295354
aI1961038364
aI129410589
aI378899265
atp2503
Rp2504
sg12
I5
sg13
g14
(g15
tp2505
Rp2506
Vhttp://nyti.ms/10eswSI
p2507
I2
sVhttp://nyti.ms/1xOf9U5
p2508
I2
sVhttp://ift.tt/1s4MYNc
p2509
I26
sVhttp://nyti.ms/1rN50lZ
p2510
I2
ssg215
Vhong kong police arrest briton after womenu2019s bodies are found in apartment by michael forsythe via nyt the new
p2511
sg217
I99
sg218
I2
sg219
I11
sa(dp2512
g2
(dp2513
g4
I2
sg5
I30
ssg6
I32
sg7
g8
((lp2514
I2459920208
aI2780180496
aI119807651
aI137482856
aI140163817
aI1301867562
aI1154596363
aI2834391724
aI856354568
aI42567856
aI2796884552
aI2194518738
aI109491412
aI123936058
aI78906843
aI1920663486
atp2515
Rp2516
sg12
I5
sg13
g14
(g15
tp2517
Rp2518
Vhttp://binged.it/1vxuMwG
p2519
I2
sVhttp://yhoo.it/1vxrAkM
p2520
I2
sVhttp://yhoo.it/1vxrAkO
p2521
I2
sVhttp://read.bi/1o3ElWJ
p2522
I2
sVhttp://yhoo.it/1ubdk5V
p2523
I2
sVhttp://bit.ly/1wVi1zm
p2524
I2
sVhttp://read.bi/1o3Dci0
p2525
I10
sVhttp://bit.ly/1wVi0eE
p2526
I10
ssg215
Vhong kong police grill british trader over double murder hong kong afp  hong kong police were sunday quest
p2527
sg217
I100
sg218
I2
sg219
I11
sa(dp2528
g2
(dp2529
g4
I28
sg5
I2
ssg6
I30
sg7
g8
((lp2530
I2809901188
aI984130021
aI182506310
aI40226983
aI543567716
aI505848389
aI2831890735
aI1942540243
aI2716679574
aI2228171385
aI612473
aI2854872346
aI1669934971
aI2388301757
aI303362405
atp2531
Rp2532
sg12
I5
sg13
g14
(g15
tp2533
Rp2534
Vhttp://bbc.in/1zqNXix
p2535
I30
ssg215
Vmondays papers merkels rebuff and the hong kong murders
p2536
sg217
I101
sg218
I2
sg219
I11
sa(dp2537
g2
(dp2538
g4
I0
sg5
I30
ssg6
I30
sg7
g8
((lp2539
I1901394096
aI465420422
aI2613891942
aI2344657290
aI622750318
aI463907759
aI464461104
aI2344780945
aI2343966386
aI463891190
aI2344721209
aI1727627353
aI2344555866
aI2343496862
aI2343890678
atp2540
Rp2541
sg12
I5
sg13
g14
(g15
tp2542
Rp2543
Vhttp://dlvr.it/7P0BJH
p2544
I2
sVhttp://dlvr.it/7P06M2
p2545
I2
sVhttp://dlvr.it/7P0B4R
p2546
I2
sVhttp://dlvr.it/7P04rC
p2547
I2
sVhttp://dlvr.it/7P0B4p
p2548
I2
sVhttp://dlvr.it/7P05CG
p2549
I2
sVhttp://bit.ly/1d5qTtO
p2550
I4
sVhttp://dlvr.it/7P06nQ
p2551
I2
sVhttp://dlvr.it/7P06cW
p2552
I2
sVhttp://dlvr.it/7P0C7L
p2553
I2
sVhttp://bit.ly/1vxozAV
p2554
I2
sVhttp://dlvr.it/7P0CHN
p2555
I2
sVhttp://dlvr.it/7P08yW
p2556
I2
ssg215
Vupdate 1foreign bofa merrill lynch banker linked to hong kong murders   reuters
p2557
sg217
I102
sg218
I2
sg219
I11
sa(dp2558
g2
(dp2559
g4
I18
sg5
I12
ssg6
I30
sg7
g8
((lp2560
I41490528
aI14138785
aI19706851
aI2167290884
aI505848389
aI353656422
aI2701597927
aI2717765896
aI91398058
aI568741549
aI130568334
aI312726037
aI73458071
aI425580734
atp2561
Rp2562
sg12
I5
sg13
g14
(g15
tp2563
Rp2564
Vhttp://dlvr.it/7PPsS3
p2565
I2
sVhttp://dlvr.it/7PQ1W6
p2566
I2
sVhttp://j.mp/10dVO3B
p2567
I2
sVhttp://tgr.ph/10dSw0b
p2568
I14
sVhttp://tgr.ph/1A2Cas3
p2569
I8
sVhttp://ift.tt/1t5oToT
p2570
I2
ssg215
Vhong kong murders british banker appears in court charged with double killing
p2571
sg217
I103
sg218
I2
sg219
I11
sa(dp2572
g2
(dp2573
g4
I0
sg5
I30
ssg6
I30
sg7
g8
((lp2574
I2223930445
aI2669849293
aI1489796270
aI2793168046
aI347328081
aI2792802479
aI2445619604
aI1934287598
aI258879800
aI2784094292
aI381674927
aI731956597
atp2575
Rp2576
sg12
I5
sg13
g14
(g15
tp2577
Rp2578
Vhttp://ift.tt/1A2sGNg
p2579
I4
sVhttp://rss.cnn.com/~r/rss/money_topstories/~3/IwCMFWtVAqk/index.html
p2580
I2
sVhttp://MyTrainingVideo.com
p2581
I2
sVhttps://twibble.io
p2582
I4
sVhttp://ift.tt/1ug4DqR
p2583
I2
sVhttp://ift.tt/1txPmAy
p2584
I4
sVhttp://dlvr.it/7PP5cJ
p2585
I2
sVhttp://cnn.it/1txQrIt
p2586
I2
sVhttp://ift.tt/1ug4dRs
p2587
I4
sVhttp://rss.cnn.com/~r/rss/money_news_international/~3/LjwoZ3z47Jw/index.html
p2588
I2
sVhttp://rss.cnn.com/~r/rss/edition_business/~3/LoACDABahXg/index.html
p2589
I2
sVhttp://p.ost.im/2bHrpC
p2590
I2
sVhttp://goo.gl/fb/8yKBQO
p2591
I2
ssg215
Vbanker charged in hong kong murders
p2592
sg217
I104
sg218
I2
sg219
I11
sa(dp2593
g2
(dp2594
g4
I0
sg5
I30
ssg6
I30
sg7
g8
((lp2595
I1459288513
aI610168005
aI1474088551
aI1241309738
aI1371551083
aI741736717
aI628381901
aI621531088
aI710776945
aI864146389
aI324670614
aI836983704
aI625212603
aI857677340
atp2596
Rp2597
sg12
I5
sg13
g14
(g15
tp2598
Rp2599
sg215
Vhong kong police question briton hong kong police continue to question a 29yearold british man arrested on suspicion of murder af
p2600
sg217
I105
sg218
I2
sg219
I11
sa(dp2601
g2
(dp2602
g4
I28
sg5
I2
ssg6
I30
sg7
g8
((lp2603
I531796194
aI11725572
aI2744040406
aI41848616
aI2570669756
aI101056138
aI2836223532
aI1542698192
aI2839364274
aI303862998
aI2471738839
aI17730392
aI1978430586
aI14784955
aI340878876
atp2604
Rp2605
sg12
I5
sg13
g14
(g15
tp2606
Rp2607
Vhttp:\u005c/\u005c/t.co\u005c/wlHs22a7Xh
p2608
I2
sVhttp:\u005c/\u005c/t.\u005cu2026
p2609
I28
ssg215
Vhong kong alliance for peace amp democracy says it has collected 15 million  antioccupycentral signatures as of sat
p2610
sg217
I106
sg218
I2
sg219
I11
sa(dp2611
g2
(dp2612
g4
I30
sg5
I0
ssg6
I30
sg7
g8
((lp2613
I48654466
aI411761382
aI74181169
aI70871976
aI268054350
aI15827727
aI186822864
aI392860200
aI29851314
aI47977332
aI21196759
aI2801811705
aI412364447
aI410000605
aI253613937
atp2614
Rp2615
sg12
I5
sg13
g14
(g15
tp2616
Rp2617
Vhttp://fw.to/CzHGs2W
p2618
I30
ssg215
Vbritish banker arrested in hong kong in connection with murder of two women   reutersfacebook htu2026
p2619
sg217
I107
sg218
I2
sg219
I11
sa(dp2620
g2
(dp2621
g4
I28
sg5
I2
ssg6
I30
sg7
g8
((lp2622
I2441025792
aI120316770
aI380648579
aI2237450916
aI496949253
aI45220870
aI972936630
aI30588028
aI156039819
aI517212934
aI42719058
aI2729051702
aI2723705754
aI274909596
aI14303901
atp2623
Rp2624
sg12
I5
sg13
g14
(g15
tp2625
Rp2626
Vhttp://u.afp.com/6QB
p2627
I30
ssg215
Vupdate academically gifted sporty amp socially awkward  the british banker accused of double hong kong murder
p2628
sg217
I108
sg218
I2
sg219
I11
sa(dp2629
g2
(dp2630
g4
I22
sg5
I8
ssg6
I30
sg7
g8
((lp2631
I82249731
aI2244220776
aI19751276
aI34888938
aI291836236
aI23922797
aI729642672
aI2202375985
aI82330132
aI15774741
aI894028118
aI41783193
aI67710876
aI27151805
aI18895774
atp2632
Rp2633
sg12
I5
sg13
g14
(g15
tp2634
Rp2635
Vhttp://www.scmp.com/news/hong-kong/article/1630194/murders-grip-attention-hong-kong-one-worlds-safest-cities
p2636
I28
sVhttp://fb.me/35xsnULlX
p2637
I2
ssg215
Vmurders grip the attention in hong kong one of the worlds safest cities
p2638
sg217
I109
sg218
I2
sg219
I11
sa(dp2639
g2
(dp2640
g4
I0
sg5
I28
ssg6
I28
sg7
g8
((lp2641
I758135328
aI390544962
aI54347587
aI97201829
aI17827878
aI109206539
aI36317164
aI1086991118
aI58163824
aI307953138
aI23689142
aI15601464
aI101718105
aI17913982
atp2642
Rp2643
sg12
I5
sg13
g14
(g15
tp2644
Rp2645
Vhttp://weeder.org/rLH2Ntw
p2646
I28
ssg215
Vdemocracy through art a photo essay on the umbrella revolution   photography arts
p2647
sg217
I110
sg218
I2
sg219
I11
sa(dp2648
g2
(dp2649
g4
I0
sg5
I28
ssg6
I28
sg7
g8
((lp2650
I2385945248
aI2385555074
aI2385944899
aI2818027783
aI150146062
aI2814556046
aI2796054162
aI988125518
aI2814649526
aI2814840025
aI2816555738
aI2794077595
aI2816765084
aI2817049525
atp2651
Rp2652
sg12
I5
sg13
g14
(g15
tp2653
Rp2654
Vhttp://dlvr.it/7PNrR0
p2655
I2
sVhttp://dlvr.it/7PNs77
p2656
I2
sVhttp://dlvr.it/7PNs3P
p2657
I2
sVhttp://dlvr.it/7PNtHm
p2658
I2
sVhttp://dlvr.it/7PNnhG
p2659
I2
sVhttp://dlvr.it/7PNwfx
p2660
I2
sVhttp://dlvr.it/7PNq3v
p2661
I2
sVhttp://dlvr.it/7PNrDg
p2662
I2
sVhttp://dlvr.it/7PNs2j
p2663
I2
sVhttp://dlvr.it/7PNrV8
p2664
I2
sVhttp://dlvr.it/7PN6zW
p2665
I2
sVhttp://dlvr.it/7PNvRY
p2666
I2
sVhttp://dlvr.it/7PNs41
p2667
I2
sVhttp://dlvr.it/7PNs0n
p2668
I2
ssg215
Vbriton in court over hong kong deaths a 29yearold british banker accused of murdering two women in hong kongu2026
p2669
sg217
I111
sg218
I2
sg219
I11
sa(dp2670
g2
(dp2671
g4
I22
sg5
I6
ssg6
I28
sg7
g8
((lp2672
I51752944
aI2252944470
aI76571751
aI2828836168
aI18270633
aI368072974
aI52834959
aI2747489104
aI2838399121
aI34713362
aI989459318
aI544193337
aI1209338426
aI204195016
atp2673
Rp2674
sg12
I5
sg13
g14
(g15
tp2675
Rp2676
Vhttp://ift.tt/1sQsdE8
p2677
I2
sVhttp://bloom.bg/1Gd5wV6
p2678
I24
sVhttp://mobile.bloomberg.com/news/2014-11-03/banker-rurik-jutting-charged-with-two-hong-kong-murders.html
p2679
I2
ssg215
Vbanker rurik jutting charged with two hong kong murders
p2680
sg217
I112
sg218
I2
sg219
I11
sa(dp2681
g2
(dp2682
g4
I2
sg5
I26
ssg6
I28
sg7
g8
((lp2683
I2368577222
aI552367974
aI2837295532
aI383867563
aI823879244
aI1720046125
aI762407948
aI1119494035
aI568587189
aI562519702
aI2274675319
aI1600120058
aI2368609309
aI484878302
atp2684
Rp2685
sg12
I5
sg13
g14
(g15
tp2686
Rp2687
Vhttp://www.reuters.com/article/2014/11/02/hongkong-murder-banker-idUSL4N0SS04V20141102?feedType=RSS&amp;feedName=rbssFinancialServicesAndRealEstateNews
p2688
I2
sVhttp://dlvr.it/7P2ffZ
p2689
I2
sVhttp://bit.ly/1wTnrKj
p2690
I2
sVhttp://dlvr.it/7P2ff1
p2691
I2
sVhttp://dlvr.it/7P2ffj
p2692
I2
sVhttp://feeds.reuters.com/~r/reuters/financialServicesRealEstateNews/~3/YTTyutLxRgQ/story01.htm
p2693
I4
sVhttp://ow.ly/2Q1M4d
p2694
I2
sVhttp://ow.ly/2Q1Jna
p2695
I2
sVhttp://ow.ly/2Q1KCG
p2696
I2
sVhttp://feeds.reuters.com/~r/news/usmarkets/~3/UIUTcWHOVOY/story01.htm
p2697
I6
ssg215
Vupdate 2foreign bofa merrill lynch banker linked to hong kong murderssource
p2698
sg217
I113
sg218
I2
sg219
I11
sa(dp2699
g2
(dp2700
g4
I26
sg5
I2
ssg6
I28
sg7
g8
((lp2701
I1173033602
aI10641412
aI2793212108
aI97487983
aI2887040012
aI14869551
aI957934736
aI33128373
aI2288086934
aI2160369655
aI336489016
aI31054447
aI2373995485
aI2605836606
atp2702
Rp2703
sg12
I5
sg13
g14
(g15
tp2704
Rp2705
Vhttp://qz.com/289160
p2706
I28
ssg215
Vhong kong is still a very easy place to do business even after a month of protests   by lilkuo
p2707
sg217
I114
sg218
I2
sg219
I11
sa(dp2708
g2
(dp2709
g4
I8
sg5
I20
ssg6
I28
sg7
g8
((lp2710
I19706851
aI2167290884
aI353656422
aI1020397926
aI2701597927
aI19489800
aI2178611209
aI956311722
aI432084683
aI152491277
aI2291591784
aI80430679
aI2845510809
atp2711
Rp2712
sg12
I5
sg13
g14
(g15
tp2713
Rp2714
Vhttp://j.mp/1A0XZbc
p2715
I2
sVhttp://dlvr.it/7PGZJk
p2716
I2
sVhttp://www.telegraph.co.uk/news/worldnews/asia/hongkong/11204321/Hong-Kong-murders-Police-investigate-thousands-of-images-of-dead-bodies-on-Rurik-Juttings-phone.html
p2717
I2
sVhttp://ift.tt/1DMfdFV
p2718
I4
sVhttp://tgr.ph/1A0BSSp
p2719
I10
sVhttp://bit.ly/1wVRJMk
p2720
I2
sVhttp://ow.ly/2Q2ufn
p2721
I2
sVhttp://flip.it/vcDSe
p2722
I2
sVhttp://dlvr.it/7PFbfh
p2723
I2
ssg215
Vhong kong murders police investigate thousands of images of dead bodies on rurik juttings phone
p2724
sg217
I115
sg218
I2
sg219
I11
sa(dp2725
g2
(dp2726
g4
I18
sg5
I10
ssg6
I28
sg7
g8
((lp2727
I2445679651
aI2759522404
aI20986375
aI365936520
aI31085388
aI23922797
aI72179631
aI2595946512
aI19354835
aI2857702997
aI154687418
aI67710876
aI626345722
aI1664059166
atp2728
Rp2729
sg12
I5
sg13
g14
(g15
tp2730
Rp2731
Vhttp://www.scmp.com/news/hong-kong/article/1629862/foreign-national-arrested-police-investigate-double-wan-chai-murder
p2732
I18
sVhttp://m.scmp.com/news/hong-kong/article/1629862/foreign-national-arrested-police-investigate-double-wan-chai-murder
p2733
I10
ssg215
Vwan chai double murder suspect resigned from bank job before arrest
p2734
sg217
I116
sg218
I2
sg219
I11
sa(dp2735
g2
(dp2736
g4
I26
sg5
I2
ssg6
I28
sg7
g8
((lp2737
I2835203169
aI11725572
aI71977222
aI108768774
aI68584743
aI2459119880
aI49412814
aI39205327
aI2839364274
aI3149651
aI2865977238
aI2335088856
aI9581822
aI39498918
atp2738
Rp2739
sg12
I5
sg13
g14
(g15
tp2740
Rp2741
Vhttp://www.wikitree.us/story/5488
p2742
I28
ssg215
Vhong kong protest to last more than expected occupyhk occupycentral umbrellarevolution
p2743
sg217
I117
sg218
I2
sg219
I11
sa(dp2744
g2
(dp2745
g4
I4
sg5
I24
ssg6
I28
sg7
g8
((lp2746
I567522948
aI731956597
aI289148078
aI73076464
aI202616721
aI2260008948
aI2877872245
aI1754641
aI354544791
aI1359965784
aI2797625625
aI2458159610
aI216895354
aI2778935071
atp2747
Rp2748
sg12
I5
sg13
g14
(g15
tp2749
Rp2750
Vhttp://ift.tt/1tRzfh5
p2751
I6
sVhttp://bit.ly/10dH44J
p2752
I2
sVhttp://rss.nytimes.com/c/34625/f/642565/s/401331e4/sc/11/l/0L0Snytimes0N0C20A140C110C0A30Cworld0Casia0Chong0Ekong0Ewomens0Ebodies0Efound0Bhtml0Dpartner0Frss0Gemc0Frss/story01.htm
p2753
I2
sVhttp://ift.tt/1wYOxAw
p2754
I2
sVhttp://ift.tt/1tRzgBz
p2755
I2
sVhttp://dlvr.it/7PLpPN
p2756
I2
sVhttp://ift.tt/1o7sW8n
p2757
I4
sVhttp://ugto.pw/Cim
p2758
I2
sVhttp://nyti.ms/1A22iTK
p2759
I6
sVhttp://bit.ly/1ul83cD
p2760
I2
ssg215
Vhong kong police arrest briton after bodies found
p2761
sg217
I118
sg218
I2
sg219
I11
sa(dp2762
g2
(dp2763
g4
I0
sg5
I28
ssg6
I28
sg7
g8
((lp2764
I2567698261
aI2567696054
atp2765
Rp2766
sg12
I5
sg13
g14
(g15
tp2767
Rp2768
Vhttp://BAKMODA.COM
p2769
I40
sVhttp://bakmoda.com
p2770
I16
sVhttp://dlvr.it/7P5vy8
p2771
I2
sVhttp://dlvr.it/7P69zn
p2772
I2
sVhttp://dlvr.it/7P5wWK
p2773
I2
sVhttp://dlvr.it/7P5vXp
p2774
I2
sVhttp://dlvr.it/7P5rHV
p2775
I2
sVhttp://dlvr.it/7P65pm
p2776
I2
sVhttp://dlvr.it/7P6B6b
p2777
I2
sVhttp://dlvr.it/7P5xFX
p2778
I2
sVhttp://dlvr.it/7P5pBq
p2779
I2
sVhttp://dlvr.it/7P69gs
p2780
I2
sVhttp://dlvr.it/7P5q7D
p2781
I2
sVhttp://dlvr.it/7P5rYr
p2782
I2
sVhttp://dlvr.it/7P5ttJ
p2783
I2
sVhttp://dlvr.it/7P5t1r
p2784
I2
ssg215
Vusa      hong kong police question briton   usa
p2785
sg217
I119
sg218
I2
sg219
I11
sa(dp2786
g2
(dp2787
g4
I0
sg5
I28
ssg6
I28
sg7
g8
((lp2788
I1282876256
aI1459288513
aI1474088551
aI1241309738
aI1371551083
aI1014445069
aI741736717
aI628381901
aI864146389
aI324670614
aI610315992
aI860986105
aI857677340
aI1243818943
atp2789
Rp2790
sg12
I5
sg13
g14
(g15
tp2791
Rp2792
sg215
Vbriton in court over hong kong deaths a 29yearold british man accused of murdering two women in hong kong after their bodies were
p2793
sg217
I120
sg218
I2
sg219
I11
sa(dp2794
g2
(dp2795
g4
I28
sg5
I0
ssg6
I28
sg7
g8
((lp2796
I14181969
aI429712104
aI177535404
aI350298666
aI1187139175
aI2317223948
aI260621934
aI21181297
aI17571956
aI34888938
aI383685367
aI2866541684
aI2436473948
aI451487229
atp2797
Rp2798
sg12
I5
sg13
g14
(g15
tp2799
Rp2800
Vhttp://www.bloomberg.com/news/2014-11-02/hong-kong-mcnuggets-rolex-sales-show-business-as-usual.html
p2801
I28
ssg215
Vhong kong mcnuggets rolex sales show business as usual   occupyhk not very significant effect ou2026
p2802
sg217
I121
sg218
I2
sg219
I11
sa(dp2803
g2
(dp2804
g4
I12
sg5
I14
ssg6
I26
sg7
g8
((lp2805
I309843971
aI2330516804
aI90733366
aI264004582
aI2800648561
aI15910668
aI1179710990
aI742016113
aI321884835
aI136039190
aI2773517432
aI28689241
aI134971995
atp2806
Rp2807
sg12
I5
sg13
g14
(g15
tp2808
Rp2809
Vhttp://dlvr.it/7PN3k3
p2810
I2
sVhttp://www.rawstory.com/rs/2014/11/hong-kong-authorities-press-murder-charges-against-british-banker-in-death-of-sex-workers/#.VFb1rJQ7qAg.twitter
p2811
I2
sVhttp://ift.tt/1DOrqd9
p2812
I2
sVhttp://ift.tt/1o7JpJJ
p2813
I2
sVhttp://www.rawstory.com/rs/2014/11/hong-kong-authorities-press-murder-charges-against-british-banker-in-death-of-sex-workers/#.VFb8LPoFzAQ.twitter
p2814
I2
sVhttp://dlvr.it/7PMsBw
p2815
I2
sVhttp://www.rawstory.com/rs/2014/11/hong-kong-authorities-press-murder-charges-against-british-banker-in-death-of-sex-workers/
p2816
I12
sVhttp://www.occuworld.org/news/1667844
p2817
I2
ssg215
Vhong kong authorities press murder charges against british banker in death of sex workers
p2818
sg217
I122
sg218
I2
sg219
I11
sa(dp2819
g2
(dp2820
g4
I0
sg5
I26
ssg6
I26
sg7
g8
((lp2821
I2230368257
aI85080611
aI195714277
aI78195425
aI2393968812
aI156114543
aI2808085904
aI2334738643
aI480127349
aI436469782
aI1142515951
aI613493565
aI16323998
atp2822
Rp2823
sg12
I5
sg13
g14
(g15
tp2824
Rp2825
Vhttp://yhoo.it/1wVj6Hf
p2826
I2
sVhttp://f24.my/1ub9idG
p2827
I2
sVhttp://yhoo.it/1vxrAkM
p2828
I12
sVhttp://yhoo.it/1vxrAkO
p2829
I10
ssg215
Vhong kong police grill british trader over double murder hong kong police were sunday questioning a 29yearo
p2830
sg217
I123
sg218
I2
sg219
I11
sa(dp2831
g2
(dp2832
g4
I10
sg5
I16
ssg6
I26
sg7
g8
((lp2833
I426290352
aI446140418
aI2422714212
aI16887175
aI392860200
aI14151559
aI409109615
aI453176496
aI2224944530
aI947490014
aI2773517432
aI384225822
aI540812533
atp2834
Rp2835
sg12
I5
sg13
g14
(g15
tp2836
Rp2837
Vhttp://www.newstalk.net/news/1/1178599
p2838
I2
sVhttp://dlvr.it/7P6dXH
p2839
I2
sVhttp://dlvr.it/7P6b4z
p2840
I2
sVhttp://www.mirror.co.uk/news/world-news/hong-kong-murders-police-quiz-4553042
p2841
I14
sVhttp://ift.tt/1o4zZPj
p2842
I2
sVhttp://dlvr.it/7P6Xzf
p2843
I2
sVhttp://dlvr.it/7P6Wks
p2844
I2
ssg215
Vhong kong murders police quiz merrill lynch banker over brutal killing of two sex workers
p2845
sg217
I124
sg218
I2
sg219
I11
sa(dp2846
g2
(dp2847
g4
I0
sg5
I26
ssg6
I26
sg7
g8
((lp2848
I2353079736
atp2849
Rp2850
sg12
I5
sg13
g14
(g15
tp2851
Rp2852
Vhttp://ift.tt/1vAsSvp
p2853
I2
sVhttp://ift.tt/1DKzFHn
p2854
I2
sVhttp://ift.tt/1wUfUuN
p2855
I2
sVhttp://ift.tt/1rMgGW3
p2856
I2
sVhttp://ift.tt/1zZAlvY
p2857
I2
sVhttp://ift.tt/1t0w5Cx
p2858
I2
sVhttp://ift.tt/1qkRTZO
p2859
I2
sVhttp://ift.tt/1tvVVna
p2860
I2
sVhttp://ift.tt/1o5ncw0
p2861
I2
sVhttp://ift.tt/1wU4IhN
p2862
I2
sVhttp://ift.tt/1wTmH7T
p2863
I2
sVhttp://ift.tt/1rMoQhk
p2864
I2
sVhttp://ift.tt/10dk8mk
p2865
I2
ssg215
Vhong kongs occupy generation  new york times   hongkong
p2866
sg217
I125
sg218
I2
sg219
I11
sa(dp2867
g2
(dp2868
g4
I26
sg5
I0
ssg6
I26
sg7
g8
((lp2869
I512535168
aI219657186
aI1143145860
aI61263446
aI30939912
aI165548745
aI2804471402
aI131600939
aI29609901
aI54213460
aI1941481110
aI112476868
aI2729890966
atp2870
Rp2871
sg12
I5
sg13
g14
(g15
tp2872
Rp2873
Vhttp://instagram.com/p/u6qDEeKBPD/
p2874
I26
ssg215
Vok so how did this doll company in hong kong get away with this priscus remind you of another gaulu2026
p2875
sg217
I126
sg218
I2
sg219
I11
sa(dp2876
g2
(dp2877
g4
I0
sg5
I26
ssg6
I26
sg7
g8
((lp2878
I2751674628
aI25958760
aI2606083159
aI1700243311
aI2459920208
aI2334738643
aI107484181
aI633248951
aI962165785
atp2879
Rp2880
sg12
I5
sg13
g14
(g15
tp2881
Rp2882
Vhttp://bit.ly/1sZElmc
p2883
I4
sVhttp://ywzr.a.boysofts.com/1VOq
p2884
I2
sVhttp://bit.ly/1uaLO8F
p2885
I2
sVhttp://bit.ly/1vxeT9E
p2886
I6
sVhttp://bit.ly/1vxjXe9
p2887
I2
sVhttp://bit.ly/1sZYUyW
p2888
I2
sVhttp://bit.ly/1o3yxN2
p2889
I2
sVhttp://bit.ly/1sZQ6ZY
p2890
I2
sVhttp://ywzr.a.boysofts.com/1VQE
p2891
I2
sVhttp://bit.ly/1vxzwCD
p2892
I2
ssg215
Vbritish man held over hong kong murders  bbc news bbc newsbritish man held over hong kong murdersbbc newsa 2
p2893
sg217
I127
sg218
I2
sg219
I11
sa(dp2894
g2
(dp2895
g4
I0
sg5
I26
ssg6
I26
sg7
g8
((lp2896
I2314112417
aI1653051650
aI1352913667
aI2413177253
aI272467910
aI1282825729
aI1317792486
aI2821094563
aI2337999540
aI1281506071
aI2335960920
aI39954846
aI176400197
atp2897
Rp2898
sg12
I5
sg13
g14
(g15
tp2899
Rp2900
Vhttp://bit.ly/1Gdghqh
p2901
I2
sVhttp://ow.ly/2Q3bsB
p2902
I2
sVhttp:\u005c/\u005c/t.co\u005c/XJBg11FbCe
p2903
I2
sVhttp://goo.gl/fb/z5dgZe
p2904
I2
sVhttp://757l.tk/1txROXE
p2905
I6
sVhttp://bit.ly/1tRTsn3
p2906
I2
sVhttp://bit.ly/1s6BjgI
p2907
I2
sVhttp://ift.tt/10hongL
p2908
I2
sVhttp://bit.ly/1s6Bkl3
p2909
I2
sVhttp://ift.tt/1Gdf02L
p2910
I2
sVhttp://j.mp/1A2CWFn
p2911
I2
ssg215
Vhong kong police arrest british banker after 2 womens bodies are found  new york times
p2912
sg217
I128
sg218
I2
sg219
I11
sa(dp2913
g2
(dp2914
g4
I24
sg5
I2
ssg6
I26
sg7
g8
((lp2915
I336717052
aI1031262283
aI220811021
aI111247502
aI821921425
aI1352559571
aI267219188
aI2761412183
aI2574640506
aI619374235
aI725553660
aI2299216254
atp2916
Rp2917
sg12
I5
sg13
g14
(g15
tp2918
Rp2919
Vhttp://bit.ly/NiumeRighthere
p2920
I26
ssg215
Va series of shocking pictures of the huge protests in hong kong   hongkong occupy
p2921
sg217
I129
sg218
I2
sg219
I11
sa(dp2922
g2
(dp2923
g4
I0
sg5
I26
ssg6
I26
sg7
g8
((lp2924
I2829399136
aI545983571
aI2252437764
aI1031323813
aI179912967
aI79570663
aI190289004
aI176320546
aI2293327250
aI1708260019
aI38075838
aI1239118980
aI1002312702
atp2925
Rp2926
sg12
I5
sg13
g14
(g15
tp2927
Rp2928
Vhttp://ift.tt/1s4MYNc
p2929
I24
sVhttp://www.nytimes.com/2014/11/03/world/asia/hong-kong-womens-bodies-found.html
p2930
I2
ssg215
Vhong kong police arrest briton after womenu2019s bodies are found in apartment by michael forsythe via nyt
p2931
sg217
I130
sg218
I2
sg219
I11
sa(dp2932
g2
(dp2933
g4
I0
sg5
I26
ssg6
I26
sg7
g8
((lp2934
I62216003
aI1658958260
aI67556325
aI2180504489
aI2371632229
aI2388141390
aI2334984050
aI401732051
aI2596861812
aI20341657
aI2164277532
aI2479926271
atp2935
Rp2936
sg12
I5
sg13
g14
(g15
tp2937
Rp2938
Vhttp://bbc.in/1o4nRh6
p2939
I2
sVhttp://j.mp/1wVWy9A
p2940
I2
sVhttp://bbc.in/1u7V2m8
p2941
I2
sVhttp://bbc.in/1wSJulc
p2942
I14
sVhttp://bbc.in/1wVWBSG
p2943
I2
sVhttp://bbc.in/1u7V11y
p2944
I4
ssg215
Vbriton held over hong kong murders a 29yearold british man is arrested in hong kong after the bodies of two
p2945
sg217
I131
sg218
I2
sg219
I11
sa(dp2946
g2
(dp2947
g4
I0
sg5
I26
ssg6
I26
sg7
g8
((lp2948
I2353079736
atp2949
Rp2950
sg12
I5
sg13
g14
(g15
tp2951
Rp2952
Vhttp://ift.tt/1vA8J8C
p2953
I2
sVhttp://ift.tt/1ue4Hrh
p2954
I2
sVhttp://ift.tt/10gEtqV
p2955
I2
sVhttp://ift.tt/1wWUvTm
p2956
I2
sVhttp://ift.tt/1o7wXK1
p2957
I2
sVhttp://ift.tt/13wutff
p2958
I2
sVhttp://ift.tt/13x4AMb
p2959
I2
sVhttp://ift.tt/10fsMkc
p2960
I2
sVhttp://ift.tt/10gei3M
p2961
I2
sVhttp://ift.tt/1wXkw3c
p2962
I2
sVhttp://ift.tt/1DOrz0c
p2963
I2
sVhttp://ift.tt/1vAsSLL
p2964
I2
sVhttp://ift.tt/1uezN27
p2965
I2
ssg215
Vhong kong official dismisses calls for referendum amid protests  wall street journal   hongkong
p2966
sg217
I132
sg218
I2
sg219
I11
sa(dp2967
g2
(dp2968
g4
I20
sg5
I6
ssg6
I26
sg7
g8
((lp2969
I2685275712
aI1903011139
aI483395237
aI243318995
aI1731399241
aI2313836011
aI894668179
aI91528467
aI1646684185
aI470919829
aI438224887
aI313319609
aI2832200587
atp2970
Rp2971
sg12
I5
sg13
g14
(g15
tp2972
Rp2973
Vhttp://cnb.cx/1wTMBsZ
p2974
I4
sVhttp://bitly.com/1uhRMVO
p2975
I2
sVhttp://www.cnbc.com/id/102143520
p2976
I20
ssg215
Vbritish banker linked to hong kong murders
p2977
sg217
I133
sg218
I2
sg219
I11
sa(dp2978
g2
(dp2979
g4
I4
sg5
I22
ssg6
I26
sg7
g8
((lp2980
I2466580130
aI2344999803
aI1317792486
aI364930955
aI2593165068
aI2403126061
aI153876973
aI2426769016
aI219915030
aI2815553720
aI410076442
aI2242439771
aI27404671
atp2981
Rp2982
sg12
I5
sg13
g14
(g15
tp2983
Rp2984
Vhttp://dlvr.it/7PNQTt
p2985
I2
sVhttp://bit.ly/1DP07zF
p2986
I4
sVhttp://757l.tk/1t5fRbi
p2987
I2
sVhttp://757l.tk/1DOtTV2
p2988
I2
sVhttp://bit.ly/1s6kra7
p2989
I2
sVhttp://757l.tk/1wX8A1x
p2990
I2
sVhttp://ift.tt/1t5aqJr
p2991
I6
ssg215
Vbritish banker rurik jutting appears in hong kong court charged with double murder  afp
p2992
sg217
I134
sg218
I2
sg219
I11
sa(dp2993
g2
(dp2994
g4
I24
sg5
I2
ssg6
I26
sg7
g8
((lp2995
I222847105
aI1578531811
aI431647501
aI104556485
aI1641192589
aI21208813
aI19395472
aI621341939
aI839733174
aI807047064
aI18256133
aI58327005
aI576320485
atp2996
Rp2997
sg12
I5
sg13
g14
(g15
tp2998
Rp2999
Vhttp://www.bbc.co.uk/news/world-asia-29866284
p3000
I26
ssg215
Vbritish banker held over the suspected murders of two sex workers in hong kong
p3001
sg217
I135
sg218
I2
sg219
I11
sa(dp3002
g2
(dp3003
g4
I2
sg5
I24
ssg6
I26
sg7
g8
((lp3004
I951527077
aI624970313
aI2793168046
aI2471094589
aI2688164048
aI2260008948
aI542324757
aI211621080
aI2706997722
aI2242439771
aI847134716
aI2626128637
aI731956597
atp3005
Rp3006
sg12
I5
sg13
g14
(g15
tp3007
Rp3008
Vhttp://goo.gl/c60N8
p3009
I2
sVhttp://on.mktw.net/1wVXdXu
p3010
I2
sVhttp:\u005c/\u005c/t.co\u005c/YtWW5tTeME
p3011
I2
sVhttp://ow.ly/2Q2Bkz
p3012
I2
sVhttp://twitter.com/MollyTetsuya/status/529019807078051841/photo/1
p3013
I2
sVhttp://on.mktw.net/1s5APaS
p3014
I4
sVhttp://ift.tt/1vBffvY
p3015
I10
sVhttp://goo.gl/fb/q3d6dU
p3016
I2
sVhttp://ift.tt/1o6qdfo
p3017
I2
ssg215
Vthe wall street journal british banker accused of murdering 2 women in hong kong
p3018
sg217
I136
sg218
I2
sg219
I11
sa(dp3019
g2
(dp3020
g4
I24
sg5
I0
ssg6
I24
sg7
g8
((lp3021
I90831984
aI505848389
aI280385318
aI272193704
aI121812371
aI2156561740
aI242670355
aI1626087632
aI2879932243
aI902196660
aI2676050774
aI2488367000
atp3022
Rp3023
sg12
I5
sg13
g14
(g15
tp3024
Rp3025
sg215
Vsky sources british murder suspect rurik jutting put under holding charge in hong kong and will appear before a magistrau2026
p3026
sg217
I137
sg218
I2
sg219
I11
sa(dp3027
g2
(dp3028
g4
I22
sg5
I2
ssg6
I24
sg7
g8
((lp3029
I589729875
aI60218483
aI979794758
aI453213063
aI2459119880
aI2675509980
aI540253218
aI111225038
aI89392211
aI2353626132
aI2801259639
aI340878876
atp3030
Rp3031
sg12
I5
sg13
g14
(g15
tp3032
Rp3033
Vhttp://www.wikitree.us/story/5488
p3034
I24
ssg215
Vhujia hong kong protest to last more than expected
p3035
sg217
I138
sg218
I2
sg219
I11
sa(dp3036
g2
(dp3037
g4
I24
sg5
I0
ssg6
I24
sg7
g8
((lp3038
I52387489
aI2742104771
aI2470921124
aI44036518
aI76966878
aI155664777
aI2801092461
aI20372050
aI2565267349
aI2804575033
aI98165086
aI2387074911
atp3039
Rp3040
sg12
I5
sg13
g14
(g15
tp3041
Rp3042
sg215
Vmartinhaboing lobaoeletrico silvianunes vejam as recentes manifestau00e7u00f5es a casa branca se posicionou a favor dos protestos u2026
p3043
sg217
I139
sg218
I2
sg219
I11
sa(dp3044
g2
(dp3045
g4
I0
sg5
I24
ssg6
I24
sg7
g8
((lp3046
I48628900
aI1932263718
aI530840390
aI14411373
aI5186221
aI145002804
aI49605046
aI282135000
aI37230170
aI861083004
aI521749341
aI486316197
atp3047
Rp3048
sg12
I5
sg13
g14
(g15
tp3049
Rp3050
Vhttp://flip.it/Mt0Xf
p3051
I2
sVhttp://www.theguardian.com/world/shortcuts/2014/nov/02/hong-kong-umbrella-square-wifi-bottled-water
p3052
I8
sVhttp://flip.it/LXJp5
p3053
I2
sVhttp://flip.it/P2fWa
p3054
I2
sVhttp://flip.it/alXAt
p3055
I2
sVhttp://flip.it/sk2lb
p3056
I2
sVhttp://flip.it/n6kDj
p3057
I2
sVhttp://gu.com/p/43vcc
p3058
I4
ssg215
Vhong kongu2019s u2018umbrella squareu2019 one month on how are protestors living
p3059
sg217
I140
sg218
I2
sg219
I11
sa(dp3060
g2
(dp3061
g4
I22
sg5
I2
ssg6
I24
sg7
g8
((lp3062
I2519278747
aI775856869
aI221077288
aI550298956
aI2827287531
aI2397197324
aI2163693229
aI1142001710
aI2395864556
aI97563287
aI997058011
aI110340701
atp3063
Rp3064
sg12
I5
sg13
g14
(g15
tp3065
Rp3066
Vhttp:\u005c/\u005c/t.co\u005c/JdJwmo2DcJ
p3067
I24
ssg215
Vud64ducf69 ubbfcuc8fcud654 uc6b4ub3d9 uc9c0uc9c0ud574uc90duc2dcub2e4 uc5ecuae30 ud314ub85c ud2b8uc717oclphk support hong kong democratic movementoclphk
p3068
sg217
I141
sg218
I2
sg219
I11
sa(dp3069
g2
(dp3070
g4
I24
sg5
I0
ssg6
I24
sg7
g8
((lp3071
I94894401
aI26251971
aI212023751
aI483157896
aI53157193
aI707884075
aI1294711250
aI259374996
aI718720117
aI568466806
aI1953257431
aI1188467743
atp3072
Rp3073
sg12
I5
sg13
g14
(g15
tp3074
Rp3075
Vhttp://www.dailymail.co.uk/news/article-2817063/British-banker-arrested-murder-woman-s-naked-body-throat-slashed-second-female-corpse-stuffed-suitcase-Hong-Kong-flat.html?ito=social-facebook
p3076
I24
ssg215
Vbritish banker arrested for double murder after slashing womans throat then calling police   htu2026
p3077
sg217
I142
sg218
I2
sg219
I11
sa(dp3078
g2
(dp3079
g4
I24
sg5
I0
ssg6
I24
sg7
g8
((lp3080
I2840433061
aI568667574
aI48766152
aI57455785
aI73458071
aI2746259535
aI386896337
aI142210899
aI29034709
aI248892534
aI81139127
aI47775742
atp3081
Rp3082
sg12
I5
sg13
g14
(g15
tp3083
Rp3084
Vhttp://cnn.it/1qh1QHC
p3085
I24
ssg215
Vwhat hong kong protests can teach us about democracy lessigs take   watch full interview sunday u2026
p3086
sg217
I143
sg218
I2
sg219
I11
sa(dp3087
g2
(dp3088
g4
I2
sg5
I20
ssg6
I22
sg7
g8
((lp3089
I18990144
aI28277184
aI1720046125
aI1451808590
aI337602704
aI1119494035
aI2855811860
aI484878302
aI1560801559
aI968291256
aI296493118
atp3090
Rp3091
sg12
I5
sg13
g14
(g15
tp3092
Rp3093
Vhttp://dlvr.it/7P7zCJ
p3094
I2
sVhttp://fb.me/6SWmnaInT
p3095
I2
sVhttp://bit.ly/1wWRkKD
p3096
I2
sVhttp://bit.ly/1tPA7mf
p3097
I2
sVhttp://feeds.reuters.com/~r/reuters/financialServicesRealEstateNews/~3/YTTyutLxRgQ/story01.htm
p3098
I4
sVhttp://dlvr.it/7P7rmv
p3099
I2
sVhttp://ift.tt/1wUhoVQ
p3100
I6
ssg215
Vupdate 3british banker arrested in hong kong double murder case
p3101
sg217
I144
sg218
I2
sg219
I11
sa(dp3102
g2
(dp3103
g4
I18
sg5
I4
ssg6
I22
sg7
g8
((lp3104
I108768774
aI2276197255
aI429712104
aI2833217546
aI798890670
aI1548265903
aI68414227
aI1095196046
aI105299483
aI597573500
atp3105
Rp3106
sg12
I5
sg13
g14
(g15
tp3107
Rp3108
Vhttp:\u005c/\u005c/t.co\u005c/c9EIg9WZRG
p3109
I20
ssg215
Vtent city  the prodemocracy protesters camp site in hong kong by nasfouri occupyhk afp
p3110
sg217
I145
sg218
I2
sg219
I11
sa(dp3111
g2
(dp3112
g4
I20
sg5
I2
ssg6
I22
sg7
g8
((lp3113
I363161920
aI275236960
aI574561631
aI524901955
aI2798533159
aI125321615
aI2444984626
aI82330132
aI2608956567
aI2738397743
aI95253375
atp3114
Rp3115
sg12
I5
sg13
g14
(g15
tp3116
Rp3117
Vhttp:\u005c/\u005c/t.co\u005c/80J7hZNj\u005cu2026
p3118
I20
sVhttp:\u005c/\u005c/t.co\u005c/80J7hZNjRp
p3119
I2
ssg215
Vbreaking british banker rurik jutting appears in hong kong court charged with double murder afp
p3120
sg217
I146
sg218
I2
sg219
I11
sa(dp3121
g2
(dp3122
g4
I16
sg5
I6
ssg6
I22
sg7
g8
((lp3123
I1250531
aI76528558
aI34593320
aI14926475
aI17740429
aI499423390
aI43517172
aI2175021342
aI733953912
aI40353438
aI2835130069
atp3124
Rp3125
sg12
I5
sg13
g14
(g15
tp3126
Rp3127
Vhttp://flip.it/Obmjp
p3128
I2
sVhttp://trov.es/1tPzucw
p3129
I20
ssg215
Vmeet the american china says is behind hong kongs protests
p3130
sg217
I147
sg218
I2
sg219
I11
sa(dp3131
g2
(dp3132
g4
I0
sg5
I22
ssg6
I22
sg7
g8
((lp3133
I2796884552
aI137482856
aI1301867562
aI1154596363
aI2834391724
aI42567856
aI856354568
aI109491412
aI15866233
aI123936058
aI78906843
atp3134
Rp3135
sg12
I5
sg13
g14
(g15
tp3136
Rp3137
Vhttp://bit.ly/10h3RwN
p3138
I10
sVhttp://read.bi/1wZ0A0G
p3139
I2
sVhttp://read.bi/13xVGOH
p3140
I6
sVhttp://bit.ly/1o7NpKb
p3141
I4
ssg215
Vbritish banker appears in hong kong court charged with double murder hong kong afp  a british banker appea
p3142
sg217
I148
sg218
I2
sg219
I11
sa(dp3143
g2
(dp3144
g4
I0
sg5
I22
ssg6
I22
sg7
g8
((lp3145
I259501153
aI562519702
aI552367974
aI383867563
aI2837295532
aI2635385424
aI418100019
aI270909046
aI1643374520
atp3146
Rp3147
sg12
I5
sg13
g14
(g15
tp3148
Rp3149
Vhttp://dlvr.it/7PQ17S
p3150
I2
sVhttp://goo.gl/fb/K27280
p3151
I2
sVhttp://goo.gl/fb/KR6Abl
p3152
I2
sVhttp://dlvr.it/7PPzf6
p3153
I2
sVhttp://tinyurl.com/lgv7z7m
p3154
I2
sVhttp://www.reuters.com/article/2014/11/03/hongkong-murder-banker-idUSL4N0ST12J20141103?feedType=RSS&amp;feedName=rbssFinancialServicesAndRealEstateNews
p3155
I2
sVhttp://dlvr.it/7PPygt
p3156
I2
sVhttp://tinyurl.com/l8jbvp7
p3157
I2
sVhttp://ow.ly/2Q3aKJ
p3158
I2
sVhttp://goo.gl/fb/dtLy8p
p3159
I2
sVhttp://goo.gl/fb/xreAAD
p3160
I2
ssg215
Vupdate 1british banker charged with murder of two women in hong kong
p3161
sg217
I149
sg218
I2
sg219
I11
sa(dp3162
g2
(dp3163
g4
I22
sg5
I0
ssg6
I22
sg7
g8
((lp3164
I2831632453
aI10070162
aI108768774
aI231075405
aI159671793
aI2839364274
aI268982264
aI17730392
aI270626489
aI514455738
aI2788078109
atp3165
Rp3166
sg12
I5
sg13
g14
(g15
tp3167
Rp3168
Vhttp://bloom.bg/1vAAoGx
p3169
I22
ssg215
Vhong kong finance chief tsang scolds occupyhk protesters as they plan next move   via bloombergnews ocu2026
p3170
sg217
I150
sg218
I2
sg219
I11
sa(dp3171
g2
(dp3172
g4
I0
sg5
I22
ssg6
I22
sg7
g8
((lp3173
I2372153376
aI127974306
aI43686699
aI135090375
aI33558921
aI36026059
aI88889613
aI139332366
aI1179710990
aI2877872245
aI226778810
atp3174
Rp3175
sg12
I5
sg13
g14
(g15
tp3176
Rp3177
Vhttp://bit.ly/1A2h5xQ
p3178
I2
sVhttp://fb.me/6PI2mkFkH
p3179
I2
sVhttp://twitter.com/N_H_Asia/status/529118429308284928/photo/1
p3180
I2
sVhttp://ift.tt/1txKawr
p3181
I2
sVhttp://www.occuworld.org/news/1668100
p3182
I2
sVhttp://bit.ly/1ulcnJ0
p3183
I2
sVhttp://ift.tt/1wZ9DyE
p3184
I2
sVhttp://bit.ly/1ufSbaI
p3185
I2
sVhttp://bit.ly/1Ec3JgY
p3186
I2
sVhttp://reut.rs/1Ec7seG
p3187
I4
ssg215
Vbritish banker charged with murder of two women arrives in hong kong court
p3188
sg217
I151
sg218
I2
sg219
I11
sa(dp3189
g2
(dp3190
g4
I0
sg5
I22
ssg6
I22
sg7
g8
((lp3191
I2882437664
aI1490390305
aI2609660358
aI2492075561
aI1281457867
aI1470703406
aI851815249
aI227440917
aI1303136983
aI2882441630
atp3192
Rp3193
sg12
I5
sg13
g14
(g15
tp3194
Rp3195
Vhttp://goo.gl/YCb50D
p3196
I2
sVhttp://bit.ly/1vC8r17
p3197
I2
sVhttp://goo.gl/3Ai3bU
p3198
I2
sVhttp://bit.ly/1vC8qKH
p3199
I4
sVhttp://bit.ly/1wWn9lW
p3200
I2
sVhttp://bit.ly/13wWZxm
p3201
I8
sVhttp://bit.ly/13wX1VK
p3202
I2
ssg215
Vbritish banker charged with murder of two women in hong kong  boa says exemployee has same name of man medi
p3203
sg217
I152
sg218
I2
sg219
I11
sa(dp3204
g2
(dp3205
g4
I0
sg5
I22
ssg6
I22
sg7
g8
((lp3206
I2882447137
aI1512455426
aI1617077923
aI1004395910
aI173556553
aI358076574
aI1732560242
aI370386837
aI398433081
aI505267902
atp3207
Rp3208
sg12
I5
sg13
g14
(g15
tp3209
Rp3210
Vhttp://nyti.ms/1t34zEv
p3211
I2
sVhttp://nyti.ms/1ucDF3x
p3212
I12
sVhttp://nyti.ms/1o6HdSJ
p3213
I2
sVhttp://nyti.ms/1ucDDIT
p3214
I6
ssg215
Vhong kong police arrest briton after womenu2019s bodies are found in apartment one woman had her throat slashed a
p3215
sg217
I153
sg218
I2
sg219
I11
sa(dp3216
g2
(dp3217
g4
I0
sg5
I22
ssg6
I22
sg7
g8
((lp3218
I905100416
aI2167290884
aI2510050821
aI1020397926
aI2701597927
aI2417739657
aI956311722
aI323685593
aI2492983705
atp3219
Rp3220
sg12
I5
sg13
g14
(g15
tp3221
Rp3222
Vhttp://ift.tt/1rN8Yeh
p3223
I4
sVhttp://dlvr.it/7P8Qm3
p3224
I2
sVhttp://goo.gl/fb/4ADfrx
p3225
I2
sVhttp://ow.ly/2Q2com
p3226
I2
sVhttp://dlvr.it/7P8glV
p3227
I2
sVhttp://Telegraph.co.uk
p3228
I8
sVhttp://757l.tk/1GbX8Fl
p3229
I4
sVhttp://ift.tt/1s5SPSg
p3230
I2
sVhttp://dlvr.it/7PGQyd
p3231
I2
sVhttp://telegraph.feedsportal.com/c/32726/f/568301/s/401286c1/sc/6/l/0L0Stelegraph0O0Cnews0Cworldnews0Casia0Chongkong0C1120A38360CHong0EKong0Edouble0Emurder0Ebodies0Ecarried0Eout0Eof0EBritish0Emans0Eflat0Bhtml/story01.htm
p3232
I2
ssg215
Vhong kong double murder bodies carried out of british mans flat
p3233
sg217
I154
sg218
I2
sg219
I11
sa.