(lp0
(dp1
S'status'
p2
(dp3
S'retweet'
p4
I29
sS'original'
p5
I256
ssS'count'
p6
I285
sS'user_ids'
p7
c__builtin__
set
p8
((lp9
I49021440
aI717477187159363584
aI14259716
aI472589320
aI1906072586
aI2456826896
aI229481305
aI2429107224
aI142277145
aI261093402
aI3004044829
aI22477859
aI2153665578
aI2493388848
aI36735027
aI760826425
aI15736890
aI104334907
aI3110281226
aI360967238
aI284554824
aI2210283084
aI267122769
aI2403832916
aI2149437525
aI1041252439
aI233917533
aI17694306
aI16557667
aI2725005925
aI899552364
aI88045166
aI439672434
aI1655766132
aI269226613
aI205776502
aI49047671
aI18345594
aI740416304155332612
aI21003901
aI266943104
aI50885249
aI15466627
aI4460610694
aI64008841
aI1485495438
aI18459796
aI874752151
aI582367896
aI125674137
aI43496095
aI786685161970733056
aI25727653
aI2251894446
aI55394482
aI38226099
aI2893914293
aI90537143
aI32509625
aI236973242
aI3040944827
aI83473354
aI228134082
aI1291737787
aI3750389961
aI597807308
aI151743182
aI1855467733
aI3280374488
aI371573470
aI142592735
aI1097105120
aI87640290
aI743224333968023552
aI328613098
aI1625690348
aI64040174
aI268066033
aI75080436
aI1571215093
aI1308509430
aI15735034
aI18230524
aI348447997
aI1539727614
aI279167748
aI298938630
aI19491594
aI2255316241
aI1280158482
aI2316061982
aI576882464
aI2464867113
aI4005006215
aI4769536303
aI1029848881
aI21680436
aI18012981
aI752511798
aI43168576
aI1098885444
aI32389958
aI2253700938
aI2063181
aI215510355
aI55418201
aI982647132
aI842685444
aI2236690784
aI2165511739
aI37949797
aI546483558
aI1117612238
aI11073512
aI1334228852
aI17246581
aI2367785335
aI208105850
aI861682045
aI35956095
aI3128580480
aI2605005697
aI18261890
aI1535146375
aI1419355021
aI466099598
aI426231960
aI69519762
aI128449177
aI34426779
aI282692509
aI42508703
aI232167331
aI261705126
aI1419528619
aI3474409394
aI873723319
aI4865974714
aI3596687292
aI38550646
aI2869505470
aI834548672
aI223989188
aI625662405
aI17726407
aI2374718922
aI181984719
aI28600275
aI402600917
aI336328667
aI38808541
aI604076513
aI404721128
aI349411311
aI21861371
aI775439870
atp10
Rp11
sS'hour'
p12
I20
sS'url'
p13
ccollections
defaultdict
p14
(c__builtin__
int
p15
tp16
Rp17
Vhttp://tinyurl.com/j2j9ert
p18
I1
sVhttp://tinyurl.com/hssy77v
p19
I1
sVhttp://tinyurl.com/z5ojwrq
p20
I1
sVhttp://tinyurl.com/h7wzevx
p21
I1
sVhttp://tinyurl.com/josump3
p22
I1
sVhttp://tinyurl.com/gozz7me
p23
I1
sVhttp://tinyurl.com/gpnuomb
p24
I1
sVhttp://tinyurl.com/gwdn5n7
p25
I1
sVhttp://tinyurl.com/zts2ajd
p26
I1
sVhttp://tinyurl.com/hqy6gsp
p27
I1
sVhttp://tinyurl.com/zcsqcrs
p28
I7
sVhttp://tinyurl.com/zn3l65b
p29
I1
sVhttp://tinyurl.com/zxvy2cn
p30
I1
sVhttp://tinyurl.com/jmc6nar
p31
I1
sVhttp://tinyurl.com/jt97vxo
p32
I1
sVhttp://tinyurl.com/grqkhdx
p33
I1
sVhttp://tinyurl.com/hjb4vv6
p34
I1
sVhttp://tinyurl.com/zqw7vod
p35
I1
sVhttp://tinyurl.com/z9gcvxy
p36
I2
sVhttp://tinyurl.com/hyfd45w
p37
I1
sVhttp://tinyurl.com/ht9g3a3
p38
I1
sVhttp://tinyurl.com/gu6m7sa
p39
I1
sVhttp://tinyurl.com/zldz6fs
p40
I1
sVhttp://tinyurl.com/h89szgn
p41
I1
sVhttp://tinyurl.com/hva5aew
p42
I1
sVhttp://tinyurl.com/h54rzmq
p43
I1
sVhttp://tinyurl.com/zlrforj
p44
I1
sVhttp://tinyurl.com/h3jkvuv
p45
I1
sVhttp://tinyurl.com/zu975lt
p46
I1
sVhttp://tinyurl.com/zwerjub
p47
I1
sVhttp://tinyurl.com/zq743uv
p48
I1
sVhttp://ln.is/tinyurl.com/G72oW
p49
I1
sVhttp://tinyurl.com/hgctc5s
p50
I1
sVhttp://tinyurl.com/jnf284g
p51
I1
sVhttp://tinyurl.com/gn9mrbb
p52
I1
sVhttp://tinyurl.com/j5uaa67
p53
I1
sVhttp://tinyurl.com/zrwevtw
p54
I1
sVhttp://tinyurl.com/j4q5r7v
p55
I1
sVhttp://tinyurl.com/zo2cszh
p56
I1
sVhttp://tinyurl.com/zuhudxb
p57
I1
sVhttp://tinyurl.com/hdrx8nv
p58
I1
sVhttp://tinyurl.com/jp3t9mc
p59
I1
sVhttp://tinyurl.com/zo892o2
p60
I1
sVhttp://tinyurl.com/husobfq
p61
I1
sVhttp://tinyurl.com/zw5dm7m
p62
I1
sVhttp://tinyurl.com/z7pqhn3
p63
I1
sVhttp://tinyurl.com/huyr7ra
p64
I1
sVhttp://tinyurl.com/znulv5n
p65
I1
sVhttp://tinyurl.com/hz5847s
p66
I1
sVhttp://tinyurl.com/jh5v8zl
p67
I1
sVhttp://tinyurl.com/jqfwchu
p68
I1
sVhttp://tinyurl.com/zn9emyw
p69
I1
sVhttp://tinyurl.com/j6rcc38
p70
I1
sVhttp://tinyurl.com/hazezcu
p71
I1
sVhttp://tinyurl.com/hetccu5
p72
I1
sVhttp://tinyurl.com/zcb6zh5
p73
I1
sVhttp://tinyurl.com/j6565rj
p74
I3
sVhttp://tinyurl.com/h8ws6cg
p75
I1
sVhttp://tinyurl.com/glcu5t6
p76
I1
sVhttp://tinyurl.com/hz3fpfq
p77
I1
sVhttp://tinyurl.com/hsoggnr
p78
I1
sVhttp://tinyurl.com/z8ylagd
p79
I1
sVhttp://tinyurl.com/j2nnb8y
p80
I1
sVhttp://tinyurl.com/gvkw8ue
p81
I1
sVhttp://tinyurl.com/hqghzqv
p82
I1
sVhttp://tinyurl.com/je64jpx
p83
I1
sVhttp://tinyurl.com/h58ve39
p84
I3
sVhttp://tinyurl.com/zbnpoxz
p85
I1
sVhttp://tinyurl.com/gpfk9jf
p86
I1
sVhttp://tinyurl.com/j3yafqd
p87
I1
sVhttp://tinyurl.com/jpkmmcv
p88
I1
sVhttp://tinyurl.com/hw2ekq8
p89
I1
sVhttp://tinyurl.com/gv7dzoa
p90
I1
sVhttp://tinyurl.com/zf2t4sn
p91
I1
sVhttp://tinyurl.com/jfgs342
p92
I1
sVhttp://tinyurl.com/zlr3tlw
p93
I1
sVhttp://tinyurl.com/hcczm6w
p94
I1
sVhttp://tinyurl.com/jstzdnl
p95
I1
sVhttp://tinyurl.com/h8buv8e
p96
I1
sVhttp://tinyurl.com/jmdj9ra
p97
I1
sVhttp://tinyurl.com/jrzo8wn
p98
I1
sVhttp://tinyurl.com/z9rx2zd
p99
I1
sVhttp://tinyurl.com/zmfb5pn
p100
I1
sVhttp://tinyurl.com/zrppa4a
p101
I1
sVhttp://tinyurl.com/hedp729
p102
I1
sVhttp://tinyurl.com/hoees2k
p103
I1
sVhttp://tinyurl.com/h7xqphr
p104
I1
sVhttp://tinyurl.com/gunyy4c
p105
I1
sVhttp://tinyurl.com/hy6zbcm
p106
I1
sVhttp://tinyurl.com/jqjr4yn
p107
I1
sVhttp://tinyurl.com/hvb8qyp
p108
I1
sVhttp://tinyurl.com/h484bvc
p109
I2
sVhttp://tinyurl.com/z6f5pjv
p110
I1
sVhttp://tinyurl.com/hq2cnof
p111
I1
sVhttp://tinyurl.com/zoxwbw2
p112
I1
sVhttp://tinyurl.com/j28ma9h
p113
I1
sVhttp://tinyurl.com/jtcscqp
p114
I1
sVhttp://tinyurl.com/j4tkqg5
p115
I1
sVhttp://tinyurl.com/z2outgx
p116
I1
sVhttp://tinyurl.com/hkcypcx
p117
I1
sVhttp://tinyurl.com/zfnt48m
p118
I1
sVhttp://tinyurl.com/hesg7y4
p119
I1
sVhttp://tinyurl.com/gluxjje
p120
I1
sVhttp://tinyurl.com/hn7bqgj
p121
I1
sVhttp://tinyurl.com/zzlsk4a
p122
I1
sVhttp://tinyurl.com/hze2uy5
p123
I2
sVhttp://tinyurl.com/hvk3zs2
p124
I1
sVhttp://tinyurl.com/jt3usoz
p125
I1
sVhttp://tinyurl.com/hk6rebo
p126
I1
sVhttp://tinyurl.com/gohcxqo
p127
I1
sVhttp://tinyurl.com/hojoubq
p128
I1
sVhttp://tinyurl.com/z9282uz
p129
I1
sVhttp://tinyurl.com/z62q99h
p130
I1
sVhttp://tinyurl.com/h2n2alc
p131
I1
sVhttp://tinyurl.com/gvwfjbr
p132
I1
sVhttp://tinyurl.com/jkv8hea
p133
I1
sVhttp://tinyurl.com/h3ysm2e
p134
I1
sVhttp://tinyurl.com/zq3jddr
p135
I1
sVhttp://tinyurl.com/zr2wvw9
p136
I1
sVhttp://tinyurl.com/zym9ld3
p137
I1
sVhttp://tinyurl.com/hgl5x2q
p138
I1
sVhttp://tinyurl.com/zdjqpyh
p139
I1
sVhttp://tinyurl.com/hem9vsu
p140
I3
sVhttp://tinyurl.com/hpre3r6
p141
I1
sVhttp://tinyurl.com/zsmfgso
p142
I1
sVhttp://tinyurl.com/zoy6lmr
p143
I1
sVhttp://tinyurl.com/heldpwt
p144
I1
sVhttp://tinyurl.com/h55nozr
p145
I1
sVhttp://tinyurl.com/zppw8sf
p146
I1
sVhttp://tinyurl.com/j9wakl8
p147
I1
sVhttp://tinyurl.com/h5m739o
p148
I1
sVhttp://tinyurl.com/hf2sm2y
p149
I1
sVhttp://tinyurl.com/h3hfrua
p150
I1
sVhttp://tinyurl.com/hqrns8m
p151
I3
sVhttp://tinyurl.com/ze643vb
p152
I1
sVhttp://tinyurl.com/h3gxh4u
p153
I1
sVhttp://tinyurl.com/huawyk9
p154
I1
sVhttp://tinyurl.com/h56jues
p155
I1
sVhttp://tinyurl.com/zo7ctsy
p156
I1
sVhttp://tinyurl.com/jnsauav
p157
I1
sVhttp://tinyurl.com/z99agvq
p158
I1
sVhttp://tinyurl.com/gm6eh93
p159
I1
sVhttp://tinyurl.com/zlpbhtu
p160
I1
sVhttp://tinyurl.com/zogketu
p161
I1
sVhttp://tinyurl.com/h7bnxwt
p162
I1
sVhttp://tinyurl.com/h4ly5w7
p163
I1
sVhttp://tinyurl.com/hsfee6p
p164
I2
sVhttp://tinyurl.com/hf6g3s2
p165
I2
sVhttp://tinyurl.com/jt2olss
p166
I1
sVhttp://tinyurl.com/gm7ko4q
p167
I1
sVhttp://tinyurl.com/hsj6eel
p168
I1
sVhttp://tinyurl.com/zzv6qz2
p169
I1
sVhttp://tinyurl.com/h33lxrg
p170
I1
sVhttp://tinyurl.com/jc8fpdr
p171
I1
sVhttp://tinyurl.com/zxueugb
p172
I1
sVhttp://tinyurl.com/j5ckojk
p173
I1
sVhttp://tinyurl.com/zonk4m8
p174
I1
sVhttp://tinyurl.com/hys2lg2
p175
I1
sVhttp://tinyurl.com/hwnlttw
p176
I1
sVhttp://tinyurl.com/z6kfrt4
p177
I1
sVhttp://tinyurl.com/zafj6ro
p178
I1
sVhttp://tinyurl.com/j5n7t4w
p179
I1
sVhttp://tinyurl.com/jk7cnmg
p180
I1
sVhttp://tinyurl.com/jgo4hat
p181
I1
sVhttp://tinyurl.com/hguzupf
p182
I1
sVhttp://tinyurl.com/jscpyx2
p183
I1
sVhttp://tinyurl.com/j7ktng5
p184
I1
sVhttp://tinyurl.com/ju9uenq
p185
I1
sVhttp://tinyurl.com/jbb6dqy
p186
I1
sVhttp://tinyurl.com/ju5dryo
p187
I1
sVhttp://tinyurl.com/zdwkrqf
p188
I1
sVhttp://tinyurl.com/hhfzhbo
p189
I1
sVhttp://tinyurl.com/znyg24n
p190
I1
sVhttp://tinyurl.com/j7y2xsu
p191
I1
sVhttp://tinyurl.com/jcpj642
p192
I1
sVhttp://tinyurl.com/zzcv323
p193
I1
sVhttp://tinyurl.com/hljduro
p194
I1
sVhttp://tinyurl.com/zpadu6h
p195
I1
sVhttp://tinyurl.com/jvbxkpd
p196
I1
sVhttp://tinyurl.com/jsfqato
p197
I1
sVhttp://tinyurl.com/zug9jn4
p198
I1
sVhttp://tinyurl.com/hct2xut
p199
I1
sVhttp://tinyurl.com/hqkvf73
p200
I1
sVhttp://tinyurl.com/jxtx2hk
p201
I1
sVhttp://tinyurl.com/j5gvtns
p202
I1
sVhttp://tinyurl.com/jkcph7j
p203
I1
sVhttp://tinyurl.com/zqjgk8c
p204
I1
sVhttp://tinyurl.com/jyh7blb
p205
I3
sVhttp://tinyurl.com/zw2f3ju
p206
I1
sVhttp://tinyurl.com/zezjbhm
p207
I1
sVhttp://tinyurl.com/guxyd8j
p208
I1
sVhttp://tinyurl.com/jg8hbgx
p209
I2
sVhttp://tinyurl.com/h5h9q94
p210
I1
sVhttp://tinyurl.com/jr844eb
p211
I1
sVhttp://tinyurl.com/jepw9c8
p212
I1
sVhttp://tinyurl.com/zfhu5r7
p213
I1
sVhttp://tinyurl.com/gulbdl7
p214
I1
sVhttp://tinyurl.com/jeazg55
p215
I1
sVhttp://tinyurl.com/hrpm3yo
p216
I2
sVhttp://tinyurl.com/zqse4aj
p217
I1
sVhttp://tinyurl.com/hecjx6j
p218
I1
sVhttp://tinyurl.com/j48dhce
p219
I1
sVhttp://tinyurl.com/jefszeb
p220
I1
sVhttp://tinyurl.com/h5vgfhz
p221
I1
sVhttp://tinyurl.com/hha8f2z
p222
I1
sVhttp://tinyurl.com/jpgyg9y
p223
I1
sVhttp://tinyurl.com/zqtqnr2
p224
I3
sVhttp://tinyurl.com/hn74gpr
p225
I1
sVhttp://tinyurl.com/jk99ktd
p226
I2
sVhttp://tinyurl.com/hvr5wta
p227
I1
sVhttp://tinyurl.com/gu3j3pn
p228
I1
sVhttp://tinyurl.com/z5x6scz
p229
I1
sVhttp://tinyurl.com/hsl8r6c
p230
I1
sVhttp://tinyurl.com/gphvq7t
p231
I1
sVhttp://tinyurl.com/jld9zcr
p232
I1
sVhttp://tinyurl.com/zmtrtxq
p233
I1
sVhttp://tinyurl.com/hrp5me9
p234
I1
sVhttp://tinyurl.com/zm9o2gs
p235
I1
sVhttp://tinyurl.com/h7wua3k
p236
I1
sVhttp://tinyurl.com/gr2bvck
p237
I1
sVhttp://tinyurl.com/jz7lgjj
p238
I1
sVhttp://tinyurl.com/jbowdmu
p239
I2
sVhttp://tinyurl.com/jdvgxrd
p240
I2
sVhttp://tinyurl.com/hd63xjt
p241
I1
sVhttp://tinyurl.com/z9cs7fu
p242
I1
sVhttp://tinyurl.com/jeqsf89
p243
I1
sVhttp://tinyurl.com/gw5782h
p244
I1
sVhttp://tinyurl.com/h9uaxz3
p245
I1
sVhttp://tinyurl.com/jawud2d
p246
I2
sVhttp://tinyurl.com/zm4oy7b
p247
I1
sVhttp://tinyurl.com/z4k5fts
p248
I1
sVhttp://tinyurl.com/gnewtkh
p249
I1
sVhttp://tinyurl.com/h3u83ga
p250
I1
sVhttp://tinyurl.com/jxd5jvw
p251
I1
sVhttp://tinyurl.com/hteg4jk
p252
I1
sVhttp://tinyurl.com/zjkk9hg
p253
I1
sVhttp://tinyurl.com/jnu393x
p254
I1
sVhttp://tinyurl.com/jkr6g6p
p255
I1
sVhttp://tinyurl.com/j34ktjp
p256
I1
sVhttp://tinyurl.com/jcrbht4
p257
I1
sVhttp://tinyurl.com/zuuofp9
p258
I1
sVhttp://tinyurl.com/jum9vy7
p259
I1
sVhttp://tinyurl.com/hdfxhm3
p260
I1
sVhttp://tinyurl.com/gupmzpf
p261
I1
sVhttp://tinyurl.com/z23yo7x
p262
I1
sVhttp://tinyurl.com/zg4m45z
p263
I1
sVhttp://tinyurl.com/gpzrw3u
p264
I1
sVhttp://tinyurl.com/j7rtd8g
p265
I1
sVhttp://tinyurl.com/hfgng4s
p266
I1
sVhttp://tinyurl.com/zaub3tz
p267
I1
sVhttp://tinyurl.com/hropu5n
p268
I1
sVhttp://tinyurl.com/zgbeh74
p269
I1
sVhttp://tinyurl.com/jy6a63a
p270
I1
sVhttp://tinyurl.com/z9eaz8a
p271
I1
sVhttp://tinyurl.com/j7mjawa
p272
I1
sVhttp://tinyurl.com/hmz8bgr
p273
I1
ssS'text'
p274
Vus mosque holds memorial for jihad assassin who murdered pakistani governor because he opposed
p275
sS'id'
p276
I1
sS'day'
p277
I19
sS'month'
p278
I2
sa(dp279
g2
(dp280
g4
I21
sg5
I256
ssg6
I277
sg7
g8
((lp281
I717477187159363584
aI2903194624
aI14259716
aI766079939921805312
aI1906072586
aI2456826896
aI229481305
aI2429107224
aI142277145
aI261093402
aI3004044829
aI22477859
aI2153665578
aI2493388848
aI760826425
aI15736890
aI104334907
aI3110281226
aI360967238
aI284554824
aI2210283084
aI267122769
aI2403832916
aI2149437525
aI1041252439
aI799415535104561152
aI233917533
aI631224927
aI1291737787
aI2725005925
aI24368748
aI88045166
aI1655766132
aI269226613
aI205776502
aI49047671
aI18345594
aI740416304155332612
aI48961660
aI21003901
aI266943104
aI50885249
aI15466627
aI4460610694
aI64008841
aI18459796
aI874752151
aI582367896
aI125674137
aI529604764
aI43496095
aI25727653
aI2251894446
aI55394482
aI2893914293
aI90537143
aI32509625
aI236973242
aI3040944827
aI228134082
aI38550646
aI3750389961
aI597807308
aI151743182
aI51609807
aI1855467733
aI371573470
aI142592735
aI1097105120
aI87640290
aI67322084
aI328613098
aI1625690348
aI64040174
aI75080436
aI1571215093
aI1308509430
aI15735034
aI18230524
aI348447997
aI1539727614
aI49162880
aI279167748
aI298938630
aI19491594
aI2255316241
aI1280158482
aI576882464
aI54096689
aI2464867113
aI4005006215
aI1029848881
aI21680436
aI18012981
aI752511798
aI43168576
aI205825760
aI1098885444
aI32389958
aI2253700938
aI215510355
aI55418201
aI982647132
aI842685444
aI2236690784
aI2165511739
aI37949797
aI546483558
aI11073512
aI1334228852
aI17246581
aI2367785335
aI861682045
aI35956095
aI3128580480
aI2605005697
aI18261890
aI1535146375
aI1419355021
aI466099598
aI426231960
aI69519762
aI128449177
aI34426779
aI282692509
aI42508703
aI232167331
aI261705126
aI1419528619
aI123171022
aI3474409394
aI873723319
aI4865974714
aI2869505470
aI834548672
aI625662405
aI17726407
aI2374718922
aI181984719
aI19899344
aI28600275
aI402600917
aI336328667
aI604076513
aI404721128
aI349411311
aI30117361
aI775439870
atp282
Rp283
sg12
I20
sg13
g14
(g15
tp284
Rp285
Vhttp://tinyurl.com/zdv5hy2
p286
I3
sVhttp://tinyurl.com/jacx4vb
p287
I1
sVhttp://tinyurl.com/h4mx345
p288
I1
sVhttp://tinyurl.com/hgusvp4
p289
I1
sVhttp://tinyurl.com/jnwoqo3
p290
I1
sVhttp://tinyurl.com/jx9z55v
p291
I1
sVhttp://tinyurl.com/gpax6ak
p292
I1
sVhttp://tinyurl.com/z2jbna4
p293
I1
sVhttp://tinyurl.com/hkuafrw
p294
I1
sVhttp://tinyurl.com/zbjbrkd
p295
I1
sVhttp://tinyurl.com/zmbqf8j
p296
I2
sVhttp://tinyurl.com/zhmuz3b
p297
I2
sVhttp://tinyurl.com/z8uh5ho
p298
I1
sVhttp://tinyurl.com/ht7dnzc
p299
I1
sVhttp://tinyurl.com/hgq5yca
p300
I1
sVhttp://tinyurl.com/j8hvpd6
p301
I1
sVhttp://tinyurl.com/z3wawyn
p302
I1
sVhttp://tinyurl.com/hbtbecp
p303
I1
sVhttp://tinyurl.com/h74rtmd
p304
I4
sVhttp://tinyurl.com/zssboy9
p305
I1
sVhttp://tinyurl.com/gp9ptjs
p306
I1
sVhttp://tinyurl.com/zhceyts
p307
I1
sVhttp://tinyurl.com/zxncgf3
p308
I1
sVhttp://tinyurl.com/jbwyro5
p309
I1
sVhttp://tinyurl.com/zjs8sf3
p310
I1
sVhttp://tinyurl.com/hz2jjjp
p311
I1
sVhttp://tinyurl.com/z7okard
p312
I1
sVhttp://tinyurl.com/j7bm5e9
p313
I1
sVhttp://tinyurl.com/hbg2p6a
p314
I1
sVhttp://tinyurl.com/zptsrz6
p315
I1
sVhttp://tinyurl.com/jotqsl4
p316
I1
sVhttp://tinyurl.com/jv6joc8
p317
I1
sVhttp://tinyurl.com/zybjpzr
p318
I1
sVhttp://tinyurl.com/hcx65tz
p319
I1
sVhttp://tinyurl.com/zf4vhke
p320
I1
sVhttp://tinyurl.com/jc9onze
p321
I1
sVhttp://tinyurl.com/zpntt3o
p322
I1
sVhttp://tinyurl.com/zw8lbp4
p323
I1
sVhttp://tinyurl.com/h826wj3
p324
I1
sVhttp://tinyurl.com/z53cno2
p325
I1
sVhttp://tinyurl.com/hffra8r
p326
I1
sVhttp://tinyurl.com/zeopjmt
p327
I1
sVhttp://tinyurl.com/h2hhvle
p328
I1
sVhttp://tinyurl.com/zm3ydo6
p329
I1
sVhttp://tinyurl.com/hanejme
p330
I1
sVhttp://tinyurl.com/jn7gdfq
p331
I1
sVhttp://tinyurl.com/j27q4dg
p332
I1
sVhttp://tinyurl.com/jhh2nre
p333
I1
sVhttp://tinyurl.com/grhcwb4
p334
I1
sVhttp://tinyurl.com/h9hhow3
p335
I1
sVhttp://tinyurl.com/jpfck3p
p336
I1
sVhttp://tinyurl.com/gn9wsbx
p337
I1
sVhttp://tinyurl.com/zk9noh8
p338
I1
sVhttp://tinyurl.com/zel54ts
p339
I1
sVhttp://tinyurl.com/j3ej4ws
p340
I1
sVhttp://tinyurl.com/zvn2k9g
p341
I1
sVhttp://tinyurl.com/gpv7feb
p342
I1
sVhttp://tinyurl.com/zupedg3
p343
I1
sVhttp://tinyurl.com/zbus5yq
p344
I1
sVhttp://tinyurl.com/zdmao7p
p345
I1
sVhttp://tinyurl.com/zr7qklx
p346
I1
sVhttp://tinyurl.com/j4hbyel
p347
I2
sVhttp://tinyurl.com/hbmlpk3
p348
I1
sVhttp://tinyurl.com/jdq8mr4
p349
I1
sVhttp://tinyurl.com/h9g55fk
p350
I1
sVhttp://tinyurl.com/jgy4tf3
p351
I1
sVhttp://tinyurl.com/jngrjtz
p352
I2
sVhttp://tinyurl.com/gvzmjev
p353
I2
sVhttp://tinyurl.com/hx2dsed
p354
I1
sVhttp://tinyurl.com/j6lhw3l
p355
I1
sVhttp://tinyurl.com/hpm4yzx
p356
I1
sVhttp://tinyurl.com/zecac3z
p357
I1
sVhttp://tinyurl.com/zwzp2ny
p358
I1
sVhttp://tinyurl.com/jovj7d6
p359
I1
sVhttp://tinyurl.com/gkofkyn
p360
I1
sVhttp://tinyurl.com/j8ole5s
p361
I1
sVhttp://tinyurl.com/h9mrr89
p362
I1
sVhttp://tinyurl.com/jhg6hvd
p363
I1
sVhttp://tinyurl.com/jlz9jmb
p364
I1
sVhttp://tinyurl.com/hynlp2u
p365
I1
sVhttp://tinyurl.com/jrvyyy7
p366
I1
sVhttp://tinyurl.com/jhslpho
p367
I1
sVhttp://tinyurl.com/h8fzdyf
p368
I1
sVhttp://tinyurl.com/h5a4kvw
p369
I1
sVhttp://tinyurl.com/zx27vk9
p370
I1
sVhttp://tinyurl.com/ze7x9rc
p371
I1
sVhttp://tinyurl.com/glmv5z6
p372
I1
sVhttp://tinyurl.com/hmfjqso
p373
I1
sVhttp://tinyurl.com/zg86rmm
p374
I1
sVhttp://tinyurl.com/zufneqp
p375
I1
sVhttp://tinyurl.com/jrtrr5h
p376
I1
sVhttp://tinyurl.com/guu3f5k
p377
I2
sVhttp://tinyurl.com/zxk6l3j
p378
I2
sVhttp://tinyurl.com/h7o9ry2
p379
I1
sVhttp://tinyurl.com/gpt7qvh
p380
I1
sVhttp://tinyurl.com/h7d3hjb
p381
I1
sVhttp://tinyurl.com/zntb5s5
p382
I1
sVhttp://tinyurl.com/gtqyng8
p383
I1
sVhttp://tinyurl.com/jc4buxb
p384
I1
sVhttp://tinyurl.com/hwokryu
p385
I1
sVhttp://tinyurl.com/h5mswfx
p386
I1
sVhttp://tinyurl.com/gnbrvbw
p387
I1
sVhttp://tinyurl.com/zbhjfsb
p388
I1
sVhttp://tinyurl.com/hv83rq7
p389
I1
sVhttp://tinyurl.com/gvp34au
p390
I1
sVhttp://tinyurl.com/jq5c7wz
p391
I1
sVhttp://tinyurl.com/gq6rvgt
p392
I1
sVhttp://tinyurl.com/gvdtrt6
p393
I1
sVhttp://tinyurl.com/jgq9lbh
p394
I1
sVhttp://tinyurl.com/jpowxb8
p395
I1
sVhttp://tinyurl.com/zzhyvfj
p396
I1
sVhttp://tinyurl.com/j3sox2b
p397
I1
sVhttp://tinyurl.com/jf4hdwj
p398
I1
sVhttp://tinyurl.com/j37xab5
p399
I1
sVhttp://tinyurl.com/jxr7npz
p400
I1
sVhttp://tinyurl.com/z9uhq2h
p401
I1
sVhttp://tinyurl.com/j4hrf23
p402
I1
sVhttp://tinyurl.com/h2rg7yh
p403
I1
sVhttp://tinyurl.com/hqumdte
p404
I1
sVhttp://tinyurl.com/hjsrhhq
p405
I1
sVhttp://tinyurl.com/h5q4j2e
p406
I1
sVhttp://tinyurl.com/ho5mqz7
p407
I1
sVhttp://tinyurl.com/ja2sb5c
p408
I1
sVhttp://tinyurl.com/hd9ko4x
p409
I1
sVhttp://tinyurl.com/hedf62k
p410
I1
sVhttp://tinyurl.com/h6bkj95
p411
I1
sVhttp://tinyurl.com/z4kfgth
p412
I1
sVhttp://tinyurl.com/jj6pv8b
p413
I1
sVhttp://tinyurl.com/z9lnx97
p414
I1
sVhttp://tinyurl.com/z95shnj
p415
I1
sVhttp://tinyurl.com/hn3cghv
p416
I1
sVhttp://tinyurl.com/z5sns89
p417
I1
sVhttp://tinyurl.com/gn2y8do
p418
I1
sVhttp://tinyurl.com/j3w8njf
p419
I1
sVhttp://tinyurl.com/gvpd5aj
p420
I1
sVhttp://tinyurl.com/j7f6svd
p421
I1
sVhttp://tinyurl.com/hksynff
p422
I1
sVhttp://tinyurl.com/hsbhshy
p423
I1
sVhttp://tinyurl.com/hyxm474
p424
I1
sVhttp://tinyurl.com/zy2evps
p425
I1
sVhttp://tinyurl.com/gmwcnpl
p426
I1
sVhttp://tinyurl.com/j5uqnqm
p427
I1
sVhttp://tinyurl.com/hr5wswa
p428
I1
sVhttp://tinyurl.com/gljdfy2
p429
I1
sVhttp://tinyurl.com/hrp2v5c
p430
I1
sVhttp://tinyurl.com/gwzugng
p431
I2
sVhttp://tinyurl.com/z64zlyj
p432
I1
sVhttp://tinyurl.com/h2jrl3u
p433
I1
sVhttp://tinyurl.com/hz5uxd4
p434
I1
sVhttp://tinyurl.com/hm7v7v4
p435
I1
sVhttp://tinyurl.com/zrtaxle
p436
I1
sVhttp://tinyurl.com/jamnxpk
p437
I1
sVhttp://tinyurl.com/zrq9kro
p438
I1
sVhttp://tinyurl.com/hsh6pvr
p439
I1
sVhttp://tinyurl.com/h4ehtrb
p440
I1
sVhttp://tinyurl.com/zdk8bgy
p441
I1
sVhttp://tinyurl.com/jfaypwh
p442
I1
sVhttp://tinyurl.com/jdkzs9c
p443
I1
sVhttp://tinyurl.com/z7lcl9v
p444
I1
sVhttp://tinyurl.com/znnjh4f
p445
I1
sVhttp://tinyurl.com/j7ycysj
p446
I1
sVhttp://tinyurl.com/zcngazm
p447
I1
sVhttp://tinyurl.com/glfznh9
p448
I1
sVhttp://tinyurl.com/zl3r7qh
p449
I1
sVhttp://tinyurl.com/h8ugmo2
p450
I1
sVhttp://tinyurl.com/zwmq6rk
p451
I1
sVhttp://tinyurl.com/je2tu7z
p452
I1
sVhttp://tinyurl.com/znmzpqj
p453
I1
sVhttp://tinyurl.com/jycge8h
p454
I1
sVhttp://tinyurl.com/zs7efu7
p455
I1
sVhttp://tinyurl.com/huqt8er
p456
I1
sVhttp://tinyurl.com/gqfxs4u
p457
I1
sVhttp://tinyurl.com/zwr737p
p458
I1
sVhttp://tinyurl.com/hfywg6x
p459
I1
sVhttp://tinyurl.com/zuwjzq8
p460
I1
sVhttp://tinyurl.com/gqo5lut
p461
I1
sVhttp://tinyurl.com/hb77wdx
p462
I1
sVhttp://tinyurl.com/grsct52
p463
I1
sVhttp://tinyurl.com/hxnl4z4
p464
I1
sVhttp://tinyurl.com/ho4dsdk
p465
I1
sVhttp://tinyurl.com/zqq9x9v
p466
I1
sVhttp://tinyurl.com/z2nrdt7
p467
I1
sVhttp://tinyurl.com/zad4vud
p468
I1
sVhttp://tinyurl.com/h8f5kpt
p469
I1
sVhttp://tinyurl.com/gqdzhch
p470
I1
sVhttp://tinyurl.com/jxbxfvb
p471
I1
sVhttp://tinyurl.com/jv32xs4
p472
I1
sVhttp://tinyurl.com/zj4dyn9
p473
I1
sVhttp://tinyurl.com/jurkxad
p474
I1
sVhttp://tinyurl.com/jxupe9m
p475
I1
sVhttp://tinyurl.com/h5f4m8g
p476
I1
sVhttp://tinyurl.com/hyb98pg
p477
I1
sVhttp://tinyurl.com/j2fooap
p478
I1
sVhttp://tinyurl.com/jlb75l3
p479
I1
sVhttp://tinyurl.com/jmjz88p
p480
I1
sVhttp://tinyurl.com/gv82etj
p481
I1
sVhttp://tinyurl.com/hb6lrgl
p482
I1
sVhttp://tinyurl.com/j6eu4gu
p483
I1
sVhttp://tinyurl.com/jr9qoug
p484
I2
sVhttp://tinyurl.com/joceby6
p485
I1
sVhttp://tinyurl.com/jyagppn
p486
I1
sVhttp://tinyurl.com/zvh94cs
p487
I1
sVhttp://tinyurl.com/zn5tvhs
p488
I1
sVhttp://tinyurl.com/hkfjft4
p489
I1
sVhttp://tinyurl.com/hvyujlx
p490
I1
sVhttp://tinyurl.com/j9mcc85
p491
I1
sVhttp://tinyurl.com/hc5zwel
p492
I1
sVhttp://tinyurl.com/hxg29te
p493
I1
sVhttp://tinyurl.com/hq8zvtm
p494
I1
sVhttp://tinyurl.com/jlntmv6
p495
I1
sVhttp://tinyurl.com/zff8l64
p496
I1
sVhttp://tinyurl.com/zktoqp9
p497
I1
sVhttp://tinyurl.com/hkzr5dj
p498
I1
sVhttp://tinyurl.com/zvxw59o
p499
I1
sVhttp://tinyurl.com/ho9numq
p500
I1
sVhttp://tinyurl.com/z7a86y5
p501
I1
sVhttp://tinyurl.com/glu3asb
p502
I1
sVhttp://tinyurl.com/zuqajc4
p503
I1
sVhttp://tinyurl.com/hhecagy
p504
I1
sVhttp://tinyurl.com/jkhmr86
p505
I1
sVhttp://tinyurl.com/z4krc24
p506
I1
sVhttp://tinyurl.com/hdkajv9
p507
I1
sVhttp://tinyurl.com/gstq36b
p508
I1
sVhttp://tinyurl.com/jzh55z5
p509
I1
sVhttp://tinyurl.com/zcn69jx
p510
I1
sVhttp://tinyurl.com/h9bbgqt
p511
I2
sVhttp://tinyurl.com/z58cpxj
p512
I1
sVhttp://tinyurl.com/j75fu92
p513
I1
sVhttp://tinyurl.com/zv8bkal
p514
I1
sVhttp://tinyurl.com/j3be6oa
p515
I1
sVhttp://tinyurl.com/jowpe8t
p516
I1
sVhttp://tinyurl.com/gtm47nz
p517
I1
sVhttp://tinyurl.com/hq6qk4k
p518
I1
sVhttp://tinyurl.com/zyb9oj5
p519
I1
sVhttp://tinyurl.com/hz9mxlx
p520
I1
sVhttp://ln.is/tinyurl.com/QThRM
p521
I2
sVhttp://tinyurl.com/h4jrw3h
p522
I1
sVhttp://tinyurl.com/zl2buy4
p523
I1
sVhttp://tinyurl.com/grfulzo
p524
I1
sVhttp://tinyurl.com/j2ytu7v
p525
I1
sVhttp://tinyurl.com/js6sqrh
p526
I1
sVhttp://tinyurl.com/zxamw5x
p527
I1
sVhttp://tinyurl.com/jsozce4
p528
I1
sVhttp://tinyurl.com/gt6hysm
p529
I5
sVhttp://tinyurl.com/z3xdr3n
p530
I1
sVhttp://tinyurl.com/grgqrep
p531
I1
sVhttp://tinyurl.com/jrzbgo4
p532
I2
sVhttp://tinyurl.com/zhdqldb
p533
I1
sVhttp://tinyurl.com/jv7pv7v
p534
I1
sVhttp://tinyurl.com/gpz8r7z
p535
I1
sVhttp://tinyurl.com/hp9eh7u
p536
I1
sVhttp://tinyurl.com/zxhpd68
p537
I1
sVhttp://tinyurl.com/h8guwhv
p538
I1
sVhttp://tinyurl.com/h65q69z
p539
I1
sVhttp://tinyurl.com/j2r8yp5
p540
I1
sVhttp://tinyurl.com/zemkfm8
p541
I1
ssg274
Vrobert spencer champagne time it\u2019s a \u201cbloodbath\u201d at the state department via geller report
p542
sg276
I2
sg277
I19
sg278
I2
sa(dp543
g2
(dp544
g4
I181
sg5
I0
ssg6
I181
sg7
g8
((lp545
I2609896448
aI704236427937226752
aI708077878559318018
aI704679449074204672
aI703704738072809473
aI2481804299
aI3258009612
aI2493526274
aI3263007248
aI702619351426441216
aI2525991444
aI3065212949
aI2617259544
aI3241683481
aI3304999451
aI2498221596
aI705714480282472448
aI707788899377135617
aI2473034791
aI1232733224
aI2548575793
aI706409669372354560
aI2555175774
aI617446457
aI3352214075
aI2548366909
aI2577204992
aI2610208320
aI3346345227
aI2982747717
aI2418484694
aI3230729289
aI2690618444
aI2260220496
aI3351556707
aI2394897494
aI2419743319
aI2542504026
aI3394909278
aI3346271248
aI704656116928679936
aI2985713255
aI2501061235
aI3341395060
aI2360182392
aI2500707961
aI2256329066
aI2551000190
aI2977063552
aI2572162496
aI2474523266
aI1649520259
aI702380423352029184
aI2502471314
aI2749626010
aI2598333084
aI2448611485
aI3228805791
aI2471471270
aI3228657831
aI3254255787
aI3207232684
aI2551144110
aI706372692241424384
aI3334688952
aI2406443636
aI2386354879
aI2592288961
aI705329876228808704
aI1576121035
aI3159134415
aI2406636240
aI2392124628
aI3228673750
aI2612519887
aI2542215396
aI704207450669522944
aI2288346860
aI2525668591
aI2723982067
aI2473005307
aI3297112318
aI703147939640651776
aI2393789186
aI3197745640
aI706491187411230720
aI2357207815
aI2499419400
aI2485616393
aI2862942987
aI2385843984
aI2340184354
aI2896931156
aI3160620850
aI3228726070
aI2437455753
aI2424647834
aI1649447232
aI2327552310
aI2397730122
aI3322055139
aI3259634004
aI2551527769
aI2363531100
aI2474757982
aI1961984864
aI1397109601
aI2356138338
aI3207719273
aI2497087338
aI2719742695
aI2250582589
aI2241463152
aI2347361768
aI2394512246
aI2437266809
aI2549083519
aI2406294404
aI705010732384055296
aI2354409865
aI2316081553
aI3228854674
aI2260037011
aI3489040276
aI3228580245
aI2329155990
aI2475315609
aI3337564570
aI2269014427
aI3347616154
aI3331127199
aI2562436002
aI703562636949123073
aI2381065128
aI2487157163
aI2352174001
aI3347189703
aI1624890698
aI2405621695
aI2384445888
aI2282000322
aI3020298695
aI778182364992241664
aI2245455818
aI2604310477
aI706478631376306176
aI1343555576
aI2228279252
aI2356895702
aI2301448152
aI2437544931
aI2299968998
aI2391842280
aI2471633400
aI2521586516
aI1657398781
aI2366023166
atp546
Rp547
sg12
I20
sg13
g14
(g15
tp548
Rp549
Vhttp://tinyurl.com/gwxaxu3
p550
I181
ssg274
Vonline now see viola bailey viaarthur orgasm viaarthur   promocode porndan50
p551
sg276
I3
sg277
I19
sg278
I2
sa(dp552
g2
(dp553
g4
I15
sg5
I130
ssg6
I145
sg7
g8
((lp554
I717477187159363584
aI774680399767228417
aI29122563
aI14259716
aI1906072586
aI2456826896
aI55418201
aI2429107224
aI142277145
aI261093402
aI3004044829
aI22477859
aI2153665578
aI2493388848
aI760826425
aI15736890
aI2165511739
aI3110281226
aI284554824
aI2210283084
aI267122769
aI2403832916
aI2149437525
aI1041252439
aI799415535104561152
aI233917533
aI1291737787
aI2725005925
aI88045166
aI1655766132
aI269226613
aI205776502
aI49047671
aI18345594
aI740416304155332612
aI21003901
aI807372678818627588
aI266943104
aI50885249
aI15466627
aI4460610694
aI64008841
aI18459796
aI874752151
aI426231960
aI125674137
aI529604764
aI1642971589
aI25727653
aI2251894446
aI55394482
aI2893914293
aI90537143
aI32509625
aI236973242
aI3040944827
aI14791358
aI228134082
aI451272899
aI38550646
aI3750389961
aI597807308
aI151743182
aI51609807
aI1855467733
aI371573470
aI142592735
aI1097105120
aI87640290
aI743224333968023552
aI328613098
aI1625690348
aI64040174
aI75080436
aI1571215093
aI1308509430
aI15735034
aI18230524
aI348447997
aI1539727614
aI298938630
aI19491594
aI2255316241
aI1280158482
aI576882464
aI2464867113
aI4005006215
aI1029848881
aI21680436
aI18012981
aI752511798
aI43168576
aI1098885444
aI32389958
aI2253700938
aI215510355
aI229481305
aI982647132
aI842685444
aI2236690784
aI104334907
aI37949797
aI546483558
aI11073512
aI1334228852
aI17246581
aI2367785335
aI861682045
aI35956095
aI3128580480
aI2605005697
aI18261890
aI1535146375
aI1419355021
aI466099598
aI582367896
aI69519762
aI128449177
aI34426779
aI282692509
aI42508703
aI232167331
aI261705126
aI1419528619
aI3474409394
aI873723319
aI4865974714
aI43496095
aI3596687292
aI2869505470
aI834548672
aI223989188
aI625662405
aI17726407
aI2374718922
aI181984719
aI28600275
aI402600917
aI336328667
aI604076513
aI404721128
aI349411311
aI2894919166
aI775439870
atp555
Rp556
sg12
I20
sg13
g14
(g15
tp557
Rp558
Vhttp://tinyurl.com/jlyg6vp
p559
I1
sVhttp://tinyurl.com/hyo7tw9
p560
I4
sVhttp://tinyurl.com/zcovlb2
p561
I1
sVhttp://tinyurl.com/j4tapgg
p562
I1
sVhttp://tinyurl.com/zabck5b
p563
I1
sVhttp://tinyurl.com/huxvyv9
p564
I1
sVhttp://tinyurl.com/zya68wc
p565
I1
sVhttp://tinyurl.com/zeelsow
p566
I1
sVhttp://tinyurl.com/zxpox3h
p567
I1
sVhttp://tinyurl.com/jqxvbjd
p568
I1
sVhttp://tinyurl.com/zvtuojw
p569
I1
sVhttp://tinyurl.com/zf66zm2
p570
I4
sVhttp://tinyurl.com/zar9qwt
p571
I1
sVhttp://tinyurl.com/jcjw2s7
p572
I1
sVhttp://tinyurl.com/z7sjkqy
p573
I1
sVhttp://tinyurl.com/zp67ah4
p574
I1
sVhttp://tinyurl.com/j5r9x9z
p575
I1
sVhttp://tinyurl.com/zprejks
p576
I1
sVhttp://tinyurl.com/h29qleu
p577
I1
sVhttp://tinyurl.com/zwuoqot
p578
I1
sVhttp://tinyurl.com/jfodupp
p579
I1
sVhttp://tinyurl.com/h7p5wu3
p580
I1
sVhttp://tinyurl.com/h6nfot5
p581
I1
sVhttp://tinyurl.com/hmthc7f
p582
I1
sVhttp://tinyurl.com/jprp3e6
p583
I1
sVhttp://tinyurl.com/jv5nzg7
p584
I1
sVhttp://tinyurl.com/zlatlrp
p585
I1
sVhttp://tinyurl.com/zpkc5jk
p586
I1
sVhttp://tinyurl.com/zj2kmv7
p587
I1
sVhttp://tinyurl.com/zntpp9m
p588
I1
sVhttp://tinyurl.com/jhxl69f
p589
I1
sVhttp://tinyurl.com/jdypr2w
p590
I1
sVhttp://tinyurl.com/z6yxuhf
p591
I1
sVhttp://tinyurl.com/zs4fu9f
p592
I1
sVhttp://tinyurl.com/zosk5vp
p593
I2
sVhttp://tinyurl.com/j4ddzlv
p594
I1
sVhttp://tinyurl.com/gqrdbfb
p595
I1
sVhttp://tinyurl.com/jc4ytxm
p596
I1
sVhttp://tinyurl.com/j9mjlvu
p597
I1
sVhttp://tinyurl.com/zlzs8py
p598
I1
sVhttp://tinyurl.com/jok2tvq
p599
I1
sVhttp://tinyurl.com/hzwllgq
p600
I1
sVhttp://tinyurl.com/zbnfnxt
p601
I1
sVhttp://tinyurl.com/h2nvghd
p602
I1
sVhttp://tinyurl.com/zsbzban
p603
I2
sVhttp://tinyurl.com/jsdl6t3
p604
I1
sVhttp://tinyurl.com/h5vyt3y
p605
I1
sVhttp://tinyurl.com/gn4cp25
p606
I1
sVhttp://tinyurl.com/jqk5w7a
p607
I1
sVhttp://tinyurl.com/go375o8
p608
I1
sVhttp://tinyurl.com/z7497jn
p609
I1
sVhttp://tinyurl.com/j5ze7g8
p610
I1
sVhttp://tinyurl.com/jopcw7w
p611
I1
sVhttp://tinyurl.com/j9o4ox7
p612
I1
sVhttp://tinyurl.com/zpjfwnj
p613
I1
sVhttp://tinyurl.com/habv98y
p614
I1
sVhttp://tinyurl.com/grofdcc
p615
I1
sVhttp://tinyurl.com/h9afaus
p616
I1
sVhttp://tinyurl.com/jaftnl2
p617
I1
sVhttp://tinyurl.com/j94u3ca
p618
I1
sVhttp://tinyurl.com/hcuk2w6
p619
I1
sVhttp://tinyurl.com/honspp9
p620
I1
sVhttp://tinyurl.com/hwslv6g
p621
I1
sVhttp://tinyurl.com/zbuz424
p622
I2
sVhttp://tinyurl.com/jav5yab
p623
I1
sVhttp://tinyurl.com/zelo9q7
p624
I1
sVhttp://tinyurl.com/zqumtn3
p625
I1
sVhttp://tinyurl.com/j95q98b
p626
I1
sVhttp://tinyurl.com/hgry78b
p627
I1
sVhttp://tinyurl.com/hh862ar
p628
I1
sVhttp://tinyurl.com/zft66hs
p629
I1
sVhttp://tinyurl.com/zh8v5zm
p630
I1
sVhttp://tinyurl.com/zsxv6pb
p631
I1
sVhttp://tinyurl.com/jxrjzv5
p632
I1
sVhttp://tinyurl.com/hclwjtl
p633
I1
sVhttp://tinyurl.com/hrk4oyq
p634
I1
sVhttp://tinyurl.com/hg8xtb6
p635
I1
sVhttp://tinyurl.com/jet47kq
p636
I1
sVhttp://tinyurl.com/z2gaddf
p637
I1
sVhttp://tinyurl.com/gpbpz2m
p638
I1
sVhttp://tinyurl.com/gr3848l
p639
I2
sVhttp://tinyurl.com/hcol4ho
p640
I1
sVhttp://tinyurl.com/j2dwczn
p641
I1
sVhttp://tinyurl.com/hwljh58
p642
I1
sVhttp://tinyurl.com/grp49hl
p643
I1
sVhttp://tinyurl.com/z8dnpr5
p644
I1
sVhttp://tinyurl.com/z5tky4a
p645
I1
sVhttp://tinyurl.com/j58wcnk
p646
I2
sVhttp://tinyurl.com/zn5xplr
p647
I1
sVhttp://tinyurl.com/h6aecdf
p648
I1
sVhttp://tinyurl.com/jrdukaw
p649
I1
sVhttp://tinyurl.com/zjtqugd
p650
I1
sVhttp://tinyurl.com/jcfz6f2
p651
I1
sVhttp://tinyurl.com/hobg9es
p652
I1
sVhttp://tinyurl.com/h3sw5bn
p653
I1
sVhttp://tinyurl.com/zo3s6au
p654
I1
sVhttp://tinyurl.com/jheqybv
p655
I1
sVhttp://tinyurl.com/jdo3zqg
p656
I1
sVhttp://tinyurl.com/htth5z4
p657
I1
sVhttp://tinyurl.com/hfom324
p658
I1
sVhttp://tinyurl.com/gr6prpp
p659
I1
sVhttp://tinyurl.com/h6spr5b
p660
I1
sVhttp://tinyurl.com/ztne4fg
p661
I1
sVhttp://tinyurl.com/zc3oc7b
p662
I1
sVhttp://tinyurl.com/jxz2twj
p663
I1
sVhttp://tinyurl.com/zg9m5f2
p664
I1
sVhttp://tinyurl.com/h4cpz29
p665
I3
sVhttp://tinyurl.com/hsk2kam
p666
I1
sVhttp://tinyurl.com/ja3ohyd
p667
I1
sVhttp://tinyurl.com/zuvakll
p668
I1
sVhttp://tinyurl.com/zp9pyy8
p669
I1
sVhttp://tinyurl.com/zojpd5f
p670
I1
sVhttp://tinyurl.com/jrnljxa
p671
I1
sVhttp://tinyurl.com/hchzngg
p672
I1
sVhttp://tinyurl.com/jdowomh
p673
I1
sVhttp://tinyurl.com/jxa4a2a
p674
I1
sVhttp://tinyurl.com/gkt3q5k
p675
I1
sVhttp://tinyurl.com/hxo2nwl
p676
I1
sVhttp://tinyurl.com/hcexwwc
p677
I1
sVhttp://tinyurl.com/hl2kz45
p678
I1
sVhttp://tinyurl.com/jfhbgoh
p679
I1
sVhttp://tinyurl.com/h36snbv
p680
I1
sVhttp://tinyurl.com/hj2w2a5
p681
I1
sVhttp://tinyurl.com/zzg5pjz
p682
I1
sVhttp://tinyurl.com/jguapg3
p683
I2
sVhttp://tinyurl.com/hd9an4b
p684
I1
sVhttp://tinyurl.com/gwu3q57
p685
I2
sVhttp://tinyurl.com/jc88fn2
p686
I1
sVhttp://tinyurl.com/h73vnqc
p687
I1
sVhttp://tinyurl.com/gkut4um
p688
I1
ssg274
Vsenior trump appointee fired after backstabbing comments via geller report  good riddance to bad
p689
sg276
I4
sg277
I19
sg278
I2
sa(dp690
g2
(dp691
g4
I4
sg5
I130
ssg6
I134
sg7
g8
((lp692
I717477187159363584
aI707357095801298944
aI14259716
aI1906072586
aI2456826896
aI229481305
aI2429107224
aI142277145
aI261093402
aI3004044829
aI22477859
aI2153665578
aI2493388848
aI760826425
aI15736890
aI2165511739
aI3110281226
aI284554824
aI2210283084
aI267122769
aI2403832916
aI2149437525
aI1041252439
aI233917533
aI1291737787
aI2725005925
aI88045166
aI1655766132
aI269226613
aI205776502
aI49047671
aI18345594
aI740416304155332612
aI21003901
aI266943104
aI50885249
aI15466627
aI4460610694
aI64008841
aI18459796
aI874752151
aI582367896
aI125674137
aI43496095
aI25727653
aI2251894446
aI55394482
aI2893914293
aI90537143
aI32509625
aI236973242
aI3040944827
aI100608458
aI228134082
aI38550646
aI3750389961
aI597807308
aI151743182
aI1855467733
aI371573470
aI142592735
aI1097105120
aI87640290
aI328613098
aI1625690348
aI64040174
aI75080436
aI1571215093
aI1308509430
aI15735034
aI18230524
aI348447997
aI1539727614
aI298938630
aI19491594
aI2255316241
aI1280158482
aI576882464
aI2464867113
aI4005006215
aI3146738294
aI1029848881
aI21680436
aI18012981
aI752511798
aI43168576
aI1098885444
aI32389958
aI2253700938
aI215510355
aI55418201
aI982647132
aI842685444
aI2236690784
aI104334907
aI37949797
aI546483558
aI11073512
aI1334228852
aI17246581
aI2367785335
aI861682045
aI35956095
aI3128580480
aI2605005697
aI18261890
aI1535146375
aI1419355021
aI466099598
aI426231960
aI69519762
aI128449177
aI34426779
aI282692509
aI42508703
aI232167331
aI261705126
aI1419528619
aI3474409394
aI873723319
aI2869505470
aI834548672
aI625662405
aI17726407
aI2374718922
aI181984719
aI28600275
aI402600917
aI336328667
aI604076513
aI404721128
aI349411311
aI775439870
atp693
Rp694
sg12
I20
sg13
g14
(g15
tp695
Rp696
Vhttp://tinyurl.com/hbsk9x2
p697
I1
sVhttp://tinyurl.com/zdgslf8
p698
I1
sVhttp://tinyurl.com/hsav8j6
p699
I1
sVhttp://tinyurl.com/z7sol9c
p700
I1
sVhttp://tinyurl.com/j3aa93y
p701
I1
sVhttp://tinyurl.com/hcybunp
p702
I1
sVhttp://tinyurl.com/h7a9weu
p703
I1
sVhttp://tinyurl.com/zec5bk7
p704
I1
sVhttp://tinyurl.com/h4vgay8
p705
I1
sVhttp://tinyurl.com/htel52v
p706
I1
sVhttp://tinyurl.com/h8d3n2l
p707
I1
sVhttp://tinyurl.com/jh2ps8k
p708
I1
sVhttp://tinyurl.com/ht2n87y
p709
I1
sVhttp://tinyurl.com/hbna6nt
p710
I1
sVhttp://tinyurl.com/jcb9az8
p711
I1
sVhttp://tinyurl.com/z2en24o
p712
I1
sVhttp://tinyurl.com/zhlmw36
p713
I2
sVhttp://tinyurl.com/jcmpkwl
p714
I1
sVhttp://tinyurl.com/j9dttlv
p715
I1
sVhttp://tinyurl.com/h9wnqdv
p716
I1
sVhttp://tinyurl.com/glltw5r
p717
I1
sVhttp://tinyurl.com/hc7wpag
p718
I1
sVhttp://tinyurl.com/hs4adwf
p719
I1
sVhttp://tinyurl.com/jo966f8
p720
I1
sVhttp://tinyurl.com/gqwse7s
p721
I1
sVhttp://tinyurl.com/zbdxzvs
p722
I1
sVhttp://tinyurl.com/h6fesof
p723
I1
sVhttp://tinyurl.com/h9kba3h
p724
I1
sVhttp://tinyurl.com/j74ootc
p725
I1
sVhttp://tinyurl.com/ztxqqqq
p726
I1
sVhttp://tinyurl.com/jfyjada
p727
I1
sVhttp://tinyurl.com/zcfr9jj
p728
I1
sVhttp://tinyurl.com/jnrjov8
p729
I2
sVhttp://tinyurl.com/h39m8gc
p730
I1
sVhttp://tinyurl.com/hule5ma
p731
I1
sVhttp://tinyurl.com/goat6nb
p732
I1
sVhttp://tinyurl.com/j4klx6h
p733
I1
sVhttp://tinyurl.com/zdfe7pr
p734
I1
sVhttp://tinyurl.com/jqn6r2g
p735
I1
sVhttp://tinyurl.com/zghppsm
p736
I1
sVhttp://tinyurl.com/h3uthk3
p737
I1
sVhttp://tinyurl.com/zu3kheh
p738
I1
sVhttp://tinyurl.com/jspo48b
p739
I1
sVhttp://tinyurl.com/gwpru8d
p740
I1
sVhttp://tinyurl.com/ju5ncwu
p741
I1
sVhttp://tinyurl.com/zzdm8eq
p742
I1
sVhttp://tinyurl.com/jqqohjk
p743
I2
sVhttp://tinyurl.com/jpxgjlj
p744
I1
sVhttp://tinyurl.com/zbnknh7
p745
I1
sVhttp://tinyurl.com/jl55uw7
p746
I1
sVhttp://tinyurl.com/gp32ppn
p747
I1
sVhttp://tinyurl.com/jqtd27n
p748
I1
sVhttp://tinyurl.com/hq67x6p
p749
I1
sVhttp://tinyurl.com/goqbr3c
p750
I1
sVhttp://tinyurl.com/gv9auwn
p751
I1
sVhttp://tinyurl.com/gqqm62l
p752
I1
sVhttp://tinyurl.com/hqkqenp
p753
I1
sVhttp://tinyurl.com/hnp6cjh
p754
I1
sVhttp://tinyurl.com/jjz486d
p755
I1
sVhttp://tinyurl.com/zpjlx6u
p756
I1
sVhttp://tinyurl.com/hrtqdgn
p757
I1
sVhttp://tinyurl.com/hj8leqe
p758
I1
sVhttp://tinyurl.com/hkcpuon
p759
I1
sVhttp://tinyurl.com/z543t3p
p760
I1
sVhttp://tinyurl.com/zdvtmdp
p761
I1
sVhttp://tinyurl.com/hep3hxb
p762
I1
sVhttp://tinyurl.com/hphz4lh
p763
I1
sVhttp://tinyurl.com/hqb2gye
p764
I1
sVhttp://tinyurl.com/jog8kgg
p765
I1
sVhttp://tinyurl.com/z4ajhns
p766
I1
sVhttp://tinyurl.com/zeqa6mn
p767
I1
sVhttp://tinyurl.com/hgj7krd
p768
I1
sVhttp://tinyurl.com/jvcvxxq
p769
I1
sVhttp://tinyurl.com/zmlqwt3
p770
I1
sVhttp://tinyurl.com/z6lhy8g
p771
I1
sVhttp://tinyurl.com/z6md74h
p772
I1
sVhttp://tinyurl.com/gvsb8ts
p773
I1
sVhttp://tinyurl.com/zzbttmo
p774
I1
sVhttp://tinyurl.com/z9tgjn5
p775
I1
sVhttp://tinyurl.com/z688c2y
p776
I1
sVhttp://tinyurl.com/gopfl7b
p777
I1
sVhttp://tinyurl.com/j8kcz9y
p778
I1
sVhttp://tinyurl.com/hgec4wo
p779
I1
sVhttp://tinyurl.com/h4sd5vl
p780
I1
sVhttp://tinyurl.com/j29nglt
p781
I1
sVhttp://tinyurl.com/zjv2djh
p782
I1
sVhttp://tinyurl.com/jebjmhh
p783
I1
sVhttp://tinyurl.com/hrg34so
p784
I1
sVhttp://tinyurl.com/hx63jes
p785
I1
sVhttp://tinyurl.com/z426bc2
p786
I1
sVhttp://tinyurl.com/jxyt46s
p787
I1
sVhttp://tinyurl.com/hcm4kcw
p788
I1
sVhttp://tinyurl.com/zherrpn
p789
I1
sVhttp://tinyurl.com/zs3ootp
p790
I1
sVhttp://tinyurl.com/haoucga
p791
I1
sVhttp://tinyurl.com/hzm6hep
p792
I1
sVhttp://tinyurl.com/zsleagc
p793
I1
sVhttp://tinyurl.com/j3tp6en
p794
I1
sVhttp://tinyurl.com/jdew72x
p795
I1
sVhttp://tinyurl.com/joeg8oe
p796
I1
sVhttp://tinyurl.com/h9fy7rb
p797
I1
sVhttp://tinyurl.com/gry66zd
p798
I1
sVhttp://tinyurl.com/hroyoqx
p799
I2
sVhttp://tinyurl.com/jt5z7x9
p800
I1
sVhttp://tinyurl.com/j9jlzcl
p801
I1
sVhttp://tinyurl.com/jepohkx
p802
I1
sVhttp://tinyurl.com/hx9l9vw
p803
I1
sVhttp://tinyurl.com/hgow9z3
p804
I1
sVhttp://tinyurl.com/grlvt7k
p805
I1
sVhttp://tinyurl.com/jc532dy
p806
I1
sVhttp://tinyurl.com/zq6hhx3
p807
I1
sVhttp://tinyurl.com/zh8e9to
p808
I1
sVhttp://tinyurl.com/gwqo34e
p809
I1
sVhttp://tinyurl.com/j7w595a
p810
I1
sVhttp://tinyurl.com/zmou3vn
p811
I1
sVhttp://tinyurl.com/h7yf6lk
p812
I1
sVhttp://tinyurl.com/zz8c65k
p813
I1
sVhttp://tinyurl.com/zjguzhy
p814
I1
sVhttp://tinyurl.com/htrxldc
p815
I1
sVhttp://tinyurl.com/hggj36a
p816
I1
sVhttp://tinyurl.com/hvslpn6
p817
I1
sVhttp://tinyurl.com/zutn9cu
p818
I1
sVhttp://tinyurl.com/gnt9p6b
p819
I1
sVhttp://tinyurl.com/zlqh9o4
p820
I1
sVhttp://tinyurl.com/jb9qc82
p821
I1
sVhttp://tinyurl.com/z6kkscf
p822
I1
sVhttp://tinyurl.com/j6pc8zv
p823
I1
sVhttp://tinyurl.com/zxj86x4
p824
I1
sVhttp://tinyurl.com/gmh6maq
p825
I1
sVhttp://tinyurl.com/h2shddt
p826
I1
ssg274
Vuk museums put on isis alert report via geller report  after last weeks thwarted islamic attack
p827
sg276
I5
sg277
I19
sg278
I2
sa(dp828
g2
(dp829
g4
I132
sg5
I0
ssg6
I132
sg7
g8
((lp830
I831857905263538176
aI809778530766626816
aI819533985952825346
aI809969894435463172
aI818811890319011845
aI812957015840391168
aI819162303908036609
aI810027952591273984
aI818806789055528962
aI819546535276867584
aI824156394987327492
aI823173015575769088
aI810168021457178624
aI813036159622266881
aI820245314426707968
aI827865090724487168
aI820521176736808962
aI819575170008432641
aI810439128353488897
aI827876446106329088
aI818827540672356352
aI818833663827660801
aI820616181220421632
aI820254461637455872
aI810380263230476288
aI813020991253192704
aI260830319
aI810430070552743936
aI810052339239415808
aI828619166538096640
aI818836233765851137
aI819167746139136001
aI823150339612258306
aI810361779150880772
aI823502854820282368
aI820292048481755136
aI828109808716779520
aI812546706353094656
aI820639771076632576
aI821704076484165632
aI762755131918221313
aI812947419591680001
aI813043234251210752
aI820247479903887361
aI819171839645601793
aI810002730966196224
aI820285568906973184
aI826089917671288832
aI813039436321595392
aI812945639709380608
aI819185423163355136
aI823145343705444353
aI820605219117535234
aI819192531397115904
aI813017801413668864
aI826075398756659200
aI813367902929764352
aI812943602808594432
aI820637106133311489
aI820259636678836224
aI810367964818132992
aI823532794097741824
aI824993859360821248
aI820250482786480128
aI818808512142712833
aI813360580350251012
aI823878625854242817
aI819537924450492416
aI818853280247750656
aI820252512166912000
aI820262929563955201
aI819195791000543233
aI810035763748474880
aI819169438935023616
aI823168914297274368
aI820184942210494464
aI812950078419705857
aI823515101453897728
aI809790732978356224
aI823171974016811008
aI813364106186981376
aI825364523129270273
aI823507783056171010
aI821702641877012480
aI820621378608992256
aI823888334069985280
aI820508879695933441
aI819536070001901568
aI809990114105552896
aI813055257349492736
aI823520546511949824
aI823518174184255489
aI818841883900198913
aI818812790831923200
aI820176478025367553
aI809984074324602880
aI823874420489887748
aI819158512731189248
aI823531496736595968
aI810042868756840448
aI820256687516852224
aI812539280581136386
aI823534380194742272
aI820196254818791425
aI825337453477105664
aI820618102752718849
aI828634276287483904
aI823519235150221312
aI818844729731260416
aI810374428458631168
aI818830386423689216
aI820172555977773056
aI818850806510125057
aI813007582784679937
aI810149239032545280
aI820530492139155457
aI829314852778831874
aI820525404234485760
aI820181414540738560
aI813067210692247553
aI823154389468618753
aI813058343400927232
aI826058310008705024
aI810161150843355136
aI819164922089115648
aI813012629081845762
aI825353637870260224
aI819189736321363968
aI818810992037498880
aI819535104036876290
aI824995899466133508
atp831
Rp832
sg12
I20
sg13
g14
(g15
tp833
Rp834
Vhttp://tinyurl.com/h4vy9xp
p835
I132
sVhttp://WWW.HORNYFAMILY.ONLINE
p836
I132
ssg274
Vmom and son first love \u2013 rachel steele \u2013
p837
sg276
I6
sg277
I19
sg278
I2
sa(dp838
g2
(dp839
g4
I130
sg5
I0
ssg6
I130
sg7
g8
((lp840
I809778530766626816
aI809984074324602880
aI819533985952825346
aI809969894435463172
aI818811890319011845
aI812957015840391168
aI819162303908036609
aI810027952591273984
aI818806789055528962
aI819546535276867584
aI813360580350251012
aI823173015575769088
aI810168021457178624
aI813036159622266881
aI820245314426707968
aI827865090724487168
aI820521176736808962
aI819575170008432641
aI810439128353488897
aI827876446106329088
aI818827540672356352
aI818833663827660801
aI820616181220421632
aI820254461637455872
aI810361779150880772
aI810380263230476288
aI813020991253192704
aI810430070552743936
aI810052339239415808
aI828619166538096640
aI818836233765851137
aI819167746139136001
aI823150339612258306
aI823888334069985280
aI823502854820282368
aI820292048481755136
aI828109808716779520
aI812546706353094656
aI254001292
aI820639771076632576
aI821704076484165632
aI812947419591680001
aI813043234251210752
aI820250482786480128
aI819171839645601793
aI810002730966196224
aI820285568906973184
aI826089917671288832
aI813039436321595392
aI818830386423689216
aI823145343705444353
aI820605219117535234
aI819192531397115904
aI819543101647691777
aI813017801413668864
aI832890715994611713
aI826075398756659200
aI813367902929764352
aI812943602808594432
aI820637106133311489
aI820259636678836224
aI810367964818132992
aI823532794097741824
aI824993859360821248
aI818808512142712833
aI823878625854242817
aI819537924450492416
aI818853280247750656
aI810161150843355136
aI820252512166912000
aI820262929563955201
aI819195791000543233
aI810035763748474880
aI819169438935023616
aI823168914297274368
aI820184942210494464
aI812950078419705857
aI823515101453897728
aI809790732978356224
aI823171974016811008
aI813364106186981376
aI825364523129270273
aI823507783056171010
aI821702641877012480
aI820621378608992256
aI819185423163355136
aI820508879695933441
aI819536070001901568
aI809990114105552896
aI813055257349492736
aI823520546511949824
aI823518174184255489
aI818841883900198913
aI818812790831923200
aI820176478025367553
aI820247479903887361
aI823874420489887748
aI819158512731189248
aI823531496736595968
aI812945639709380608
aI820256687516852224
aI812539280581136386
aI823534380194742272
aI820196254818791425
aI825337453477105664
aI820618102752718849
aI828634276287483904
aI823519235150221312
aI818844729731260416
aI810374428458631168
aI820172555977773056
aI818850806510125057
aI813007582784679937
aI810149239032545280
aI820530492139155457
aI829314852778831874
aI820525404234485760
aI820181414540738560
aI813067210692247553
aI823154389468618753
aI813058343400927232
aI826058310008705024
aI810042868756840448
aI819164922089115648
aI813012629081845762
aI825353637870260224
aI819189736321363968
aI818810992037498880
aI819535104036876290
aI824995899466133508
atp841
Rp842
sg12
I20
sg13
g14
(g15
tp843
Rp844
Vhttp://tinyurl.com/glfqn99
p845
I130
ssg274
Vreal life czech twins 5 my pussy is horny again
p846
sg276
I7
sg277
I19
sg278
I2
sa(dp847
g2
(dp848
g4
I118
sg5
I0
ssg6
I118
sg7
g8
((lp849
I832250276895535104
aI831857905263538176
aI819533985952825346
aI831531439023796228
aI831489168333168645
aI812957015840391168
aI813067210692247553
aI810027952591273984
aI818806789055528962
aI819546535276867584
aI809969894435463172
aI818811890319011845
aI823173015575769088
aI810168021457178624
aI813036159622266881
aI809778530766626816
aI827865090724487168
aI820521176736808962
aI819575170008432641
aI810439128353488897
aI827876446106329088
aI818833663827660801
aI820616181220421632
aI820254461637455872
aI810361779150880772
aI810035763748474880
aI819537924450492416
aI810430070552743936
aI828619166538096640
aI818836233765851137
aI819167746139136001
aI823888334069985280
aI820292048481755136
aI828109808716779520
aI820639771076632576
aI821704076484165632
aI812947419591680001
aI813043234251210752
aI820247479903887361
aI819171839645601793
aI810002730966196224
aI820285568906973184
aI826089917671288832
aI813039436321595392
aI818830386423689216
aI823145343705444353
aI820605219117535234
aI819192531397115904
aI813017801413668864
aI826075398756659200
aI813367902929764352
aI812943602808594432
aI820637106133311489
aI820259636678836224
aI810367964818132992
aI823532794097741824
aI824993859360821248
aI820250482786480128
aI818808512142712833
aI813360580350251012
aI823878625854242817
aI813020991253192704
aI820252512166912000
aI820262929563955201
aI820245314426707968
aI819169438935023616
aI823168914297274368
aI820184942210494464
aI812950078419705857
aI823515101453897728
aI809790732978356224
aI823171974016811008
aI813364106186981376
aI823507783056171010
aI820621378608992256
aI819185423163355136
aI820508879695933441
aI819536070001901568
aI809990114105552896
aI813055257349492736
aI823520546511949824
aI820618102752718849
aI818841883900198913
aI818812790831923200
aI820176478025367553
aI809984074324602880
aI823874420489887748
aI3432998787
aI819158512731189248
aI823531496736595968
aI810042868756840448
aI820256687516852224
aI823518174184255489
aI823534380194742272
aI810380263230476288
aI825337453477105664
aI813007582784679937
aI828634276287483904
aI818844729731260416
aI810374428458631168
aI820172555977773056
aI818850806510125057
aI810149239032545280
aI820530492139155457
aI829314852778831874
aI820525404234485760
aI820181414540738560
aI819162303908036609
aI823154389468618753
aI813058343400927232
aI826058310008705024
aI810161150843355136
aI819164922089115648
aI813012629081845762
aI825353637870260224
aI819189736321363968
aI818810992037498880
aI812539280581136386
atp850
Rp851
sg12
I20
sg13
g14
(g15
tp852
Rp853
Vhttp://tinyurl.com/zgcf46g
p854
I118
ssg274
Vbouncing ass butt job joi
p855
sg276
I8
sg277
I19
sg278
I2
sa(dp856
g2
(dp857
g4
I109
sg5
I0
ssg6
I109
sg7
g8
((lp858
I831090493605842944
aI831130539331444737
aI830387523436179458
aI831531439023796228
aI831489168333168645
aI810161150843355136
aI813007582784679937
aI810027952591273984
aI819533985952825346
aI820250482786480128
aI819546535276867584
aI809969894435463172
aI818811890319011845
aI823173015575769088
aI813067210692247553
aI809778530766626816
aI827865090724487168
aI818806789055528962
aI819575170008432641
aI810439128353488897
aI827876446106329088
aI819171839645601793
aI820616181220421632
aI810035763748474880
aI813020991253192704
aI819192531397115904
aI818841883900198913
aI810430070552743936
aI828619166538096640
aI818836233765851137
aI819167746139136001
aI823888334069985280
aI799741504163954689
aI820292048481755136
aI810168021457178624
aI820639771076632576
aI821704076484165632
aI820521176736808962
aI812947419591680001
aI820247479903887361
aI818833663827660801
aI826089917671288832
aI813039436321595392
aI818830386423689216
aI823145343705444353
aI820605219117535234
aI819169438935023616
aI818810992037498880
aI813017801413668864
aI826075398756659200
aI813367902929764352
aI812943602808594432
aI820637106133311489
aI820259636678836224
aI823532794097741824
aI824993859360821248
aI831857905263538176
aI812950078419705857
aI813360580350251012
aI819537924450492416
aI820252512166912000
aI820262929563955201
aI820245314426707968
aI812957015840391168
aI823168914297274368
aI820184942210494464
aI818808512142712833
aI823515101453897728
aI809790732978356224
aI823171974016811008
aI823507783056171010
aI819185423163355136
aI820508879695933441
aI819536070001901568
aI809990114105552896
aI813055257349492736
aI823518174184255489
aI820181414540738560
aI818812790831923200
aI820176478025367553
aI809984074324602880
aI823874420489887748
aI3432998787
aI819158512731189248
aI823531496736595968
aI820256687516852224
aI812539280581136386
aI823534380194742272
aI810380263230476288
aI825337453477105664
aI820618102752718849
aI818844729731260416
aI810374428458631168
aI820172555977773056
aI818850806510125057
aI810149239032545280
aI820530492139155457
aI829314852778831874
aI828109808716779520
aI813036159622266881
aI819162303908036609
aI823154389468618753
aI813058343400927232
aI826058310008705024
aI810042868756840448
aI819164922089115648
aI825353637870260224
aI819189736321363968
aI820525404234485760
atp859
Rp860
sg12
I20
sg13
g14
(g15
tp861
Rp862
Vhttp://tinyurl.com/h6s2n38
p863
I109
ssg274
Vfucking my hot step mom
p864
sg276
I9
sg277
I19
sg278
I2
sa(dp865
g2
(dp866
g4
I0
sg5
I109
ssg6
I109
sg7
g8
((lp867
I804878412036718592
aI805531752735199232
aI717433611616722946
aI831726317892538372
aI711626097222352896
aI183334401
aI34767880
aI164433933
aI3046841348
aI829776597649592320
aI786732170702454785
aI29530156
aI1713231920
aI628362291
aI1461404725
aI738822991069339648
aI3228443193
aI2262449224
aI384824913
aI4004995154
aI4837558873
aI4445901914
aI377031259
aI138994783
aI3988783203
aI2448007782
aI315306600
aI323346544
aI817122913618972672
aI76669049
aI781274073934532608
aI51056265
aI2275656843
aI2992942742
aI735151261
aI764238468763553792
aI818750070531231745
aI70666952
aI600956086
aI748864861665386496
aI703234245
aI2169636551
aI1612240584
aI771761807786729472
aI3158034645
aI3745841956
aI2344476378
aI1579107548
aI849275107
aI520255716
aI2373453265
aI764161596394385408
aI2710773486
aI804762368869855232
aI45937910
aI2499618601
aI2851282219
aI750960698105143296
aI3268761864
aI2290167564
aI1113168145
aI389575954
aI868821781
aI127439131
aI2936963872
aI133418786
aI789848145995980801
aI476502313
aI548027179
aI2360642356
aI311718198
aI747628231369580544
aI2184712502
aI58888006
aI2522637639
aI323932492
aI802325389
aI556684113
aI3325579096
aI767267925975822336
aI824274545355948032
aI3626039658
aI2293180278
aI797320061279236096
aI89255298
aI162401668
aI807161649727729664
aI30575500
aI38815629
aI1642966416
aI1135884186
aI2907113889
aI754716879663591425
aI1578019142
aI156520369
aI2409833911
aI3386012092
aI819715324677357568
aI804862275962048512
aI700739023
aI3911513553
aI27931608
aI828611778036764672
aI381174754
aI3234381298
aI801180557631590400
atp868
Rp869
sg12
I20
sg13
g14
(g15
tp870
Rp871
Vhttp://tinyurl.com/poz5vr3
p872
I109
ssg274
Vi played the search the waves mini game in paradise island 2 and my score was 10 gameinsight paradiseisland2
p873
sg276
I10
sg277
I19
sg278
I2
sa(dp874
g2
(dp875
g4
I103
sg5
I2
ssg6
I105
sg7
g8
((lp876
I799359408295776256
aI827553885564841985
aI823218989815971842
aI828257135901495299
aI827883445003100164
aI828187497284980741
aI797387990033170432
aI809434923467702273
aI3980281097
aI824966050156576768
aI828198177509617667
aI2766539822
aI2902710551
aI111334297
aI45019930
aI799363263461003264
aI49141637
aI2769024473
aI740542236279050240
aI775757916536184833
aI82583227
aI804184616
aI2326232745
aI827922655823147008
aI175219117
aI1489867182
aI799739983552593920
aI3599977521
aI2753331123
aI74158900
aI4568062517
aI4114391479
aI1431530552
aI1520339316
aI775755061712547840
aI3544623027
aI809355618523971584
aI2844446912
aI759832930503962624
aI809428188115910657
aI3340160458
aI535076095
aI4196874867
aI797490794470998017
aI3599829497
aI750066315088584704
aI26598233
aI827946923965476864
aI828266978066518017
aI760504634062544897
aI811307457331003392
aI190667233
aI797798829311594496
aI2229102053
aI248767208
aI808428741839978496
aI2701992939
aI19507693
aI2206737648
aI597697138
aI2280474355
aI83440756
aI821074479589818369
aI546890230
aI307782775
aI310307832
aI750013306623168513
aI809362674148667392
aI89022589
aI763760766
aI760926228929019904
atp877
Rp878
sg12
I20
sg13
g14
(g15
tp879
Rp880
Vhttps://twitter.com/i/web/status/833400801708085249
p881
I1
sVhttps://twitter.com/i/web/status/833310197431033857
p882
I19
sVhttps://twitter.com/i/web/status/824787828450197508
p883
I1
sVhttps://twitter.com/i/web/status/833280004968574976
p884
I5
sVhttps://twitter.com/i/web/status/833461204223930369
p885
I8
sVhttps://twitter.com/i/web/status/833431004408848384
p886
I30
sVhttps://twitter.com/i/web/status/833340447300919296
p887
I2
sVhttps://twitter.com/i/web/status/833370615331553280
p888
I39
ssg274
Vrt amp 1 lucky rt\u2019er will win a 100 love2shop voucher  9000 flws  100 bonus  free slots spins \u27a1\u2026
p889
sg276
I11
sg277
I19
sg278
I2
sa(dp890
g2
(dp891
g4
I0
sg5
I102
ssg6
I102
sg7
g8
((lp892
I805531752735199232
aI828237371430821888
aI3046841348
aI796477036692996096
aI826032264966336513
aI827699216
aI29530156
aI803684535250526208
aI628362291
aI1461404725
aI3228443193
aI297492031
aI748864861665386496
aI3413567584
aI2688520771
aI809257667382255616
aI384824913
aI4445901914
aI3824472672
aI782776269528305664
aI2448007782
aI774806859387576320
aI315306600
aI817122913618972672
aI817046227170840576
aI32975988
aI827442928427503616
aI1539094153
aI2992942742
aI735151261
aI976541858
aI706203831374319617
aI766935211976175616
aI4739410092
aI3313998514
aI748168426561101824
aI544703684
aI703234245
aI29130964
aI716726510191828992
aI849275107
aI955935980
aI83063021
aI715711609038106624
aI93509928
aI818750070531231745
aI1510560506
aI2789745414
aI3268761864
aI2290167564
aI20762893
aI188679955
aI1677700375
aI4782241048
aI43658524
aI2827277087
aI262204200
aI476502313
aI2851282219
aI2184712502
aI402496825
aI747628231369580544
aI311718198
aI1578019142
aI1250022217
aI323932492
aI3748678995
aI807161649727729664
aI765330766146351105
aI192360819
aI387869556
aI767267925975822336
aI2293180278
aI2693086584
aI797320061279236096
aI89255298
aI804762368869855232
aI741829514
aI802325389
aI1642966416
aI743101558070644736
aI767118784733773824
aI764990833615441920
aI817663015491432449
aI945032616
aI816801988784570368
aI65884607
aI1904721344
aI804862275962048512
aI700739023
aI3911513553
aI4381197269
aI2929012182
aI831666631650770944
aI381174754
aI202124778
aI2525895660
aI3656436207
aI754716879663591425
aI4072127475
atp893
Rp894
sg12
I20
sg13
g14
(g15
tp895
Rp896
Vhttp://tinyurl.com/poz5vr3
p897
I102
ssg274
Vi played the search the waves mini game in paradise island 2 and my score was 10 paradiseisland2 gameinsight
p898
sg276
I12
sg277
I19
sg278
I2
sa(dp899
g2
(dp900
g4
I0
sg5
I87
ssg6
I87
sg7
g8
((lp901
I805531752735199232
aI789848145995980801
aI717433611616722946
aI826462802386833411
aI393785860
aI772476044523732992
aI825838976485425153
aI160603658
aI40984589
aI807314397718777856
aI789102673844994049
aI17748520
aI1461404725
aI71175223
aI58279483
aI2856993346
aI2525072566
aI503451575
aI827221070650425345
aI3189251150
aI781963789256261633
aI4837558873
aI4904909405
aI42957921
aI771720644547514368
aI4377717862
aI796055773507821568
aI423131754
aI2364942959
aI1554251888
aI383505012
aI362492533
aI3280139382
aI767421537288916992
aI264423573
aI3191028888
aI407308445
aI703811184
aI818812103951781889
aI27180711
aI773150059244302336
aI2229143220
aI3248289462
aI29130964
aI122413270
aI401142820
aI2344476378
aI344236768
aI89240295
aI788239262151946240
aI24569600
aI826403442436497408
aI443600137
aI2381371266
aI831216378451472384
aI532066608
aI21555513
aI4489878853
aI569186134
aI4812507961
aI764860797717770240
aI718883498757591040
aI3314776941
aI4861045625
aI89255298
aI1295555971
aI4826170756
aI774668202068422656
aI1135884186
aI2907113889
aI765572785686974464
aI443120037
aI3214449578
aI1920538027
aI12240302
aI826145853630988288
aI2603629494
aI2409833911
aI705563091254153216
aI969176652
aI4381197269
aI371817950
aI825527194365657088
aI253820401
aI87976946
aI269136889
aI377135101
atp902
Rp903
sg12
I20
sg13
g14
(g15
tp904
Rp905
Vhttp://tinyurl.com/q3qf2ej
p906
I87
ssg274
Vive just unlocked eager beaver achievement in paradise island 2   gameinsight paradiseisland2
p907
sg276
I13
sg277
I19
sg278
I2
sa(dp908
g2
(dp909
g4
I82
sg5
I0
ssg6
I82
sg7
g8
((lp910
I3291440128
aI814234613228912640
aI876222338
aI81627779
aI866839813
aI749710462661562368
aI260324231
aI1329179658
aI235521548
aI856540429
aI2780346221
aI2764789907
aI3448389268
aI268862229
aI1077434971
aI2983781721
aI177976217
aI2402025818
aI330227823
aI629718428
aI1708423837
aI282235038
aI516752773
aI28990241
aI789952049005858816
aI813721445872402433
aI712384734609936384
aI731440166
aI18673064
aI1929763164
aI772927160990433280
aI3331225515
aI119879085
aI2515220769
aI28551880
aI631409074
aI3209713007
aI401912222
aI1155417270
aI351587639
aI232936889
aI3197149114
aI3295475515
aI4220405056
aI352934981
aI345018913
aI93753223
aI236170825
aI20771915
aI591087054
aI1899577807
aI707680611604021248
aI232941908
aI3654189561
aI275912281
aI719512745859792896
aI718564180094283776
aI578371420
aI107612509
aI91178718
aI204538277
aI198160737
aI800462373052026880
aI3051048804
aI516840038
aI2312357352
aI214634785
aI26748013
aI347349998
aI186565999
aI25025444
aI2889239795
aI3323839431
aI249722873
aI2991839230
aI3121646975
atp911
Rp912
sg12
I20
sg13
g14
(g15
tp913
Rp914
Vhttps://twitter.com/i/web/status/833387578481053696
p915
I82
ssg274
Vmy bro has autism he asked me to help him made a video called its ok to be different please rt for him \u2764\ufe0f\ufe0f\u2026
p916
sg276
I14
sg277
I19
sg278
I2
sa(dp917
g2
(dp918
g4
I0
sg5
I80
ssg6
I80
sg7
g8
((lp919
I2670889039
atp920
Rp921
sg12
I20
sg13
g14
(g15
tp922
Rp923
Vhttp://tinyurl.com/hem4y9k
p924
I80
ssg274
Vmanufacturing technician  oregon
p925
sg276
I15
sg277
I19
sg278
I2
sa(dp926
g2
(dp927
g4
I0
sg5
I79
ssg6
I79
sg7
g8
((lp928
I134884209
atp929
Rp930
sg12
I20
sg13
g14
(g15
tp931
Rp932
Vhttp://tinyurl.com/FashionStylistAppTwiter
p933
I79
ssg274
Vfashion stylist available on itunes fashion style beauty model clothes designer
p934
sg276
I16
sg277
I19
sg278
I2
sa(dp935
g2
(dp936
g4
I0
sg5
I70
ssg6
I70
sg7
g8
((lp937
I801341707279368192
aI707033620200947712
aI821350185683001346
aI712236456115367939
aI716728992041189376
aI123571847
aI715711609038106624
aI2525895660
aI1407069578
aI818750070531231745
aI414513421
aI48930959
aI485971600
aI825767539556839424
aI35043347
aI2393739540
aI2765270425
aI931876548
aI3068300313
aI735151261
aI761310715621871616
aI767118784733773824
aI133418786
aI752672307814993920
aI745037962468007937
aI392141733
aI262204200
aI3301756295
aI133002156
aI1652766720
aI800879660930318336
aI1254672560
aI1061359795
aI156603678
aI311718198
aI814152281985675264
aI802667310448308224
aI730421800178319360
aI3219469379
aI813980465505763328
aI1578019142
aI809257667382255616
aI1536744650
aI409185505
aI301249155
aI385370447
aI554823505
aI2233963555
aI784420400260186112
aI133103225
aI819510422122303489
aI801488190242746368
aI374264028
aI1567208161
aI381174754
aI2790260283
aI1321256569
aI787065836
aI83063021
aI818360947563560960
aI2522637639
aI414476912
aI322232433
aI32975988
aI807161649727729664
aI2889000054
aI716726510191828992
aI706154650601295872
aI2960909819
atp938
Rp939
sg12
I20
sg13
g14
(g15
tp940
Rp941
Vhttp://tinyurl.com/q3qf2ej
p942
I70
ssg274
Vive just unlocked eager beaver achievement in paradise island 2   paradiseisland2 gameinsight
p943
sg276
I17
sg277
I19
sg278
I2
sa(dp944
g2
(dp945
g4
I65
sg5
I0
ssg6
I65
sg7
g8
((lp946
I831090493605842944
aI831130539331444737
aI830387523436179458
aI831531439023796228
aI831489168333168645
aI810168021457178624
aI813067210692247553
aI810161150843355136
aI819533985952825346
aI819536070001901568
aI820618102752718849
aI819537924450492416
aI809984074324602880
aI828109808716779520
aI813360580350251012
aI819164922089115648
aI818811890319011845
aI820525404234485760
aI810035763748474880
aI812957015840391168
aI820184942210494464
aI825337453477105664
aI813007582784679937
aI823874420489887748
aI819162303908036609
aI823171974016811008
aI823173015575769088
aI813020991253192704
aI821704076484165632
aI823518174184255489
aI827876446106329088
aI813058343400927232
aI820508879695933441
aI824993859360821248
aI820605219117535234
aI818810992037498880
aI813036159622266881
aI810439128353488897
aI820256687516852224
aI819189736321363968
aI813039436321595392
aI820616181220421632
aI819546535276867584
aI818844729731260416
aI819169438935023616
aI818812790831923200
aI819575170008432641
aI826075398756659200
aI820637106133311489
aI810042868756840448
aI820262929563955201
aI823534380194742272
aI810380263230476288
aI820292048481755136
aI820181414540738560
aI809778530766626816
aI825353637870260224
aI813367902929764352
aI820176478025367553
aI810430070552743936
aI826089917671288832
aI823532794097741824
aI818836233765851137
aI831857905263538176
aI809969894435463172
atp947
Rp948
sg12
I20
sg13
g14
(g15
tp949
Rp950
Vhttp://tinyurl.com/zvkg8j7
p951
I65
ssg274
Vlove bitch yasashii onna \u2013 episode 01 uncensored
p952
sg276
I18
sg277
I19
sg278
I2
sa(dp953
g2
(dp954
g4
I0
sg5
I64
ssg6
I64
sg7
g8
((lp955
I774668202068422656
aI832073556364234752
aI3294797570
aI3833260163
aI33437444
aI713034252993110016
aI781963789256261633
aI443600137
aI27337339
aI2290167564
aI20762893
aI544719704
aI738822991069339648
aI711626097222352896
aI973187232
aI66644385
aI793265620435476481
aI792731461564637184
aI3401182407
aI2795952829
aI591816877
aI832444337120231424
aI156520369
aI3439119411
aI611896502
aI71175223
aI4812507961
aI196249404
aI90078909
aI730421800178319360
aI1904721344
aI2239617217
aI3219469379
aI1618875332
aI460440647
aI1612240584
aI2409833911
aI1521515725
aI439871185
aI35216099
aI397784149
aI799938492612558848
aI717750885993078784
aI859470552
aI3181146970
aI767267925975822336
aI4904909405
aI710795167339446272
aI3988783203
aI713986512367591424
aI819715324677357568
aI202124778
aI3593902695
aI2725745644
aI264565999
aI808301672493621248
aI32975988
aI807161649727729664
aI771761807786729472
aI804862275962048512
aI2918611450
aI65884607
aI733815024930689024
aI377135101
atp956
Rp957
sg12
I20
sg13
g14
(g15
tp958
Rp959
Vhttp://tinyurl.com/qe8ngoq
p960
I64
ssg274
Vive completed the daily quest in paradise island 2 paradiseisland2 gameinsight
p961
sg276
I19
sg277
I19
sg278
I2
sa(dp962
g2
(dp963
g4
I62
sg5
I2
ssg6
I64
sg7
g8
((lp964
I756837704705445888
aI827553885564841985
aI823218989815971842
aI2919025923
aI828187497284980741
aI833372910362451968
aI797490794470998017
aI3980281097
aI750013306623168513
aI828315948096638978
aI3613146262
aI2769024473
aI111334297
aI45019930
aI49141637
aI374171424
aI775757916536184833
aI138073766
aI804184616
aI760926228929019904
aI1678654380
aI397380082
aI799739983552593920
aI2280474355
aI1431530552
aI775755061712547840
aI3544623027
aI809355618523971584
aI2844446912
aI759832930503962624
aI809428188115910657
aI209951303
aI2733097932
aI3303309772
aI27115602
aI26598233
aI190667233
aI797798829311594496
aI2229102053
aI248767208
aI808428741839978496
aI2701992939
aI597697138
aI4196874867
aI1520339316
aI307782775
aI310307832
aI3599829497
aI535076095
aI762728540680978432
atp965
Rp966
sg12
I20
sg13
g14
(g15
tp967
Rp968
Vhttp://tinyurl.com/Biggest-BINGO-Bonus
p969
I64
sVhttps://twitter.com/i/web/status/833456166797721603
p970
I1
sVhttps://twitter.com/i/web/status/833426023920304129
p971
I1
ssg274
Vrt amp 1 lucky rt\u2019er will win a 100 love2shop voucher  9000 flws 70 bingo bonus \u27a1
p972
sg276
I20
sg277
I19
sg278
I2
sa(dp973
g2
(dp974
g4
I50
sg5
I9
ssg6
I59
sg7
g8
((lp975
I4896578304
aI810178352871047168
aI43079427
aI74258710
aI253496966
aI3668745089
aI823674366911127552
aI158571949
aI236402192
aI289118612
aI37270422
aI834390576
aI3214872355
aI746512154057015297
aI2816234438
aI21838759
aI2481146024
aI4183694386
aI4459642286
aI808814655447646208
aI1905029168
aI618143282
aI616573748
aI402476085
aI103893046
aI815871284
aI58545470
aI535572415
aI123803200
aI1154279222
aI23987654
aI797819037870759936
aI2474878388
aI262203597
aI3018497279
aI21627728
aI4498870097
aI135558738
aI174891001
aI125322205
aI780553259698167808
aI191505959
aI32903277
aI811999433965654016
aI968462576
aI268571122
aI795270955245457408
aI417071508
aI1385511295
aI3434899966
aI806252849965531136
atp976
Rp977
sg12
I20
sg13
g14
(g15
tp978
Rp979
Vhttps://twitter.com/i/web/status/833477567495733248
p980
I2
sVhttps://twitter.com/i/web/status/833454902932299776
p981
I5
sVhttps://twitter.com/i/web/status/833439806986264576
p982
I3
sVhttps://twitter.com/i/web/status/833424700600676353
p983
I6
sVhttps://twitter.com/i/web/status/833417160575823872
p984
I4
sVhttps://twitter.com/i/web/status/833462458425688065
p985
I6
sVhttps://twitter.com/i/web/status/833432260611342336
p986
I10
sVhttps://twitter.com/i/web/status/833447353050861568
p987
I3
sVhttps://twitter.com/i/web/status/830034874614611969
p988
I12
sVhttps://twitter.com/i/web/status/833470014296571906
p989
I4
sVhttps://twitter.com/i/web/status/833326569439498240
p990
I4
ssg274
Vsign my petition kellyanne conway should be fired for lying making up crimesamp breaking the lawpromoting ivanka\u2026
p991
sg276
I21
sg277
I19
sg278
I2
sa(dp992
g2
(dp993
g4
I58
sg5
I0
ssg6
I58
sg7
g8
((lp994
I804694464321167360
aI829536336541601792
aI2701693059
aI2562084267
aI756755518136344576
aI785312144363368449
aI245611628
aI2878645527
aI30584173
aI16146963
aI787333113177223168
aI1006602775
aI52692507
aI370454046
aI3155303713
aI490764827
aI2153776164
aI746778695130558464
aI552134830
aI94900143
aI817598165197225984
aI3551046323
aI761453500635152385
aI2940962304
aI173939001
aI16474813
aI3237072821
aI3131156139
aI146450885
aI1048411340
aI316177812
aI4903439179
aI66130124
aI2781104846
aI33629859
aI506054009
aI21912925
aI94127383
aI716258080477077504
aI204986466
aI24344163
aI3120024676
aI707432781492699137
aI328669031
aI776456837474488320
aI52196460
aI708537581
aI758352751
aI16582131
aI437763243
aI24073719
aI123425656
aI470277881
aI13082142
aI4002356991
aI31035261
aI1901928318
aI196713215
atp995
Rp996
sg12
I20
sg13
g14
(g15
tp997
Rp998
Vhttp://tinyurl.com/glelmts
p999
I58
ssg274
Vwe need to mobilize for our sisters in ok  amp vote out every last person who voted for this resist unite survive h\u2026
p1000
sg276
I22
sg277
I19
sg278
I2
sa(dp1001
g2
(dp1002
g4
I50
sg5
I2
ssg6
I52
sg7
g8
((lp1003
I759832930503962624
aI797490794470998017
aI828257135901495299
aI827883445003100164
aI750385020473311232
aI809434923467702273
aI828266978066518017
aI262165258
aI828198177509617667
aI24857390
aI3613146262
aI2769024473
aI45019930
aI799359408295776256
aI827553885564841985
aI804184616
aI827922655823147008
aI175219117
aI1489867182
aI2736325426
aI3544623027
aI775755061712547840
aI760504634062544897
aI809355618523971584
aI2844446912
aI478810569
aI1163577079
aI3599829497
aI26598233
aI797387990033170432
aI797798829311594496
aI248767208
aI2701992939
aI23646956
aI597697138
aI1520339316
aI307782775
aI4663265657
aI809362674148667392
aI535076095
atp1004
Rp1005
sg12
I20
sg13
g14
(g15
tp1006
Rp1007
Vhttps://twitter.com/i/web/status/833229652760133632
p1008
I4
sVhttps://twitter.com/i/web/status/826983530387341317
p1009
I1
sVhttps://twitter.com/i/web/status/833441067601166337
p1010
I16
sVhttps://twitter.com/i/web/status/833353006217383938
p1011
I6
sVhttps://twitter.com/i/web/status/833380673754914816
p1012
I18
sVhttps://twitter.com/i/web/status/833410871426691073
p1013
I5
sVhttps://twitter.com/i/web/status/833473825870344192
p1014
I2
ssg274
Vrt amp 1 lucky rt\u2019er will win a 100 love2shop voucher  9000 flws  40 free bingo amp 30 free spins \u27a1\u2026
p1015
sg276
I23
sg277
I19
sg278
I2
sa(dp1016
g2
(dp1017
g4
I44
sg5
I5
ssg6
I49
sg7
g8
((lp1018
I754475994862399488
aI774598766506680320
aI2812081542
aI280662664
aI133570135
aI1892168792
aI19094676
aI739756952
aI18959644
aI132674975
aI253464864
aI389281501
aI330196261
aI95949788
aI14590764
aI52267693
aI310518109
aI2808914481
aI4183694386
aI129000249
aI1134567354
aI801688880663523328
aI577520062
aI771084313920176128
aI34236869
aI39786058
aI40565838
aI4498870097
aI4428271317
aI45479382
aI70035513
aI20040280
aI221434459
aI4535283420
aI174820573
aI706661951384911872
aI3158389602
aI408932708
aI328669031
aI202366356
aI268571122
aI261321846
aI919615224
aI289118612
aI1398493693
atp1019
Rp1020
sg12
I20
sg13
g14
(g15
tp1021
Rp1022
Vhttps://twitter.com/i/web/status/833447349900959744
p1023
I6
sVhttps://twitter.com/i/web/status/833462458824142850
p1024
I10
sVhttps://twitter.com/i/web/status/833477566027685888
p1025
I9
sVhttps://twitter.com/i/web/status/833386951319420933
p1026
I5
sVhttps://twitter.com/i/web/status/833432271617216516
p1027
I3
sVhttps://twitter.com/i/web/status/833417154628349953
p1028
I16
ssg274
Vand now republicans move to sell off 33m acres of national land sparking rallies pay attention\u2026
p1029
sg276
I24
sg277
I19
sg278
I2
sa(dp1030
g2
(dp1031
g4
I0
sg5
I49
ssg6
I49
sg7
g8
((lp1032
I729766174045638656
aI801488190242746368
aI83315202
aI2560697259
aI723962626103980032
aI760456190631546880
aI786732170702454785
aI30575500
aI485971600
aI1955686418
aI819715324677357568
aI513707413
aI3068300313
aI634012444
aI712452005579456512
aI2907113889
aI976541858
aI382469924
aI253820401
aI774668202068422656
aI972773173
aI830254616407334912
aI706203831374319617
aI722590031362154496
aI90078909
aI24569600
aI824274545355948032
aI801129920109776896
aI185695684
aI1578019142
aI503451575
aI1550166050
aI182559570
aI2929012182
aI4837558873
aI2781672285
aI380791518
aI415550687
aI25664224
aI499134948
aI529407593
aI202124778
aI2525895660
aI83063021
aI4869928433
aI87976946
aI1488103160
aI741616123
aI377135101
atp1033
Rp1034
sg12
I20
sg13
g14
(g15
tp1035
Rp1036
Vhttp://tinyurl.com/q3qf2ej
p1037
I49
ssg274
Vive just unlocked safety first achievement in paradise island 2   gameinsight paradiseisland2
p1038
sg276
I25
sg277
I19
sg278
I2
sa(dp1039
g2
(dp1040
g4
I0
sg5
I46
ssg6
I46
sg7
g8
((lp1041
I831216378451472384
aI707033620200947712
aI377031259
aI770317740330680324
aI3387041413
aI829776597649592320
aI808343903355236353
aI2775951340
aI2275656843
aI3178180876
aI802325389
aI41447054
aI1120086415
aI188679955
aI734163631978516484
aI156603678
aI765330766146351105
aI752672307814993920
aI823212236692946945
aI808301672493621248
aI383567145
aI816711834812219399
aI532066608
aI2252232632
aI2790260283
aI2795952829
aI4924267198
aI3219469379
aI1618875332
aI802667310448308224
aI3377803084
aI347062352
aI3748678995
aI726511616
aI767267925975822336
aI80472289
aI3998047588
aI719156391173365760
aI405056871
aI955935980
aI1026840818
aI383505012
aI804762368869855232
aI2191501303
aI1321256569
aI471923195
atp1042
Rp1043
sg12
I20
sg13
g14
(g15
tp1044
Rp1045
Vhttp://tinyurl.com/q3qf2ej
p1046
I46
ssg274
Vive just unlocked safety first achievement in paradise island 2   paradiseisland2 gameinsight
p1047
sg276
I26
sg277
I19
sg278
I2
sa(dp1048
g2
(dp1049
g4
I44
sg5
I2
ssg6
I46
sg7
g8
((lp1050
I740542236279050240
aI759832930503962624
aI828257135901495299
aI827883445003100164
aI827922655823147008
aI809434923467702273
aI828266978066518017
aI811307457331003392
aI828198177509617667
aI799363263461003264
aI799359408295776256
aI797490794470998017
aI804184616
aI3544623027
aI4114391479
aI1431530552
aI82583227
aI775757916536184833
aI809355618523971584
aI2844446912
aI824966050156576768
aI498315853
aI775755061712547840
aI827946923965476864
aI760504634062544897
aI797387990033170432
aI797798829311594496
aI248767208
aI587820650
aI2701992939
aI23646956
aI597697138
aI2280474355
aI1520339316
aI821074479589818369
aI3599829497
aI809362674148667392
aI535076095
atp1051
Rp1052
sg12
I20
sg13
g14
(g15
tp1053
Rp1054
Vhttps://twitter.com/i/web/status/833345604369657856
p1055
I4
sVhttps://twitter.com/i/web/status/833436090266746881
p1056
I5
sVhttps://twitter.com/i/web/status/822152986692636674
p1057
I2
sVhttps://twitter.com/i/web/status/833380674107219968
p1058
I2
sVhttps://twitter.com/i/web/status/833405903793745921
p1059
I1
sVhttps://twitter.com/i/web/status/833466293210726401
p1060
I32
ssg274
Vrt amp 1 lucky rt\u2019er will win a 100 love2shop voucher  9000 flws  15 free bingo money nodeposit \u27a1\u2026
p1061
sg276
I27
sg277
I19
sg278
I2
sa(dp1062
g2
(dp1063
g4
I0
sg5
I45
ssg6
I45
sg7
g8
((lp1064
I810665887057387520
aI718883498757591040
aI33437444
aI365602181
aI825527194365657088
aI3053639432
aI1407069578
aI802325389
aI291178511
aI3560125998
aI753076698992771076
aI714133864436793344
aI808301672493621248
aI805531752735199232
aI747957366176493568
aI774806859387576320
aI3439119411
aI1461404725
aI747628231369580544
aI4810200948
aI25284155
aI60252988
aI4924267198
aI1904721344
aI801129920109776896
aI1056123846
aI3401182407
aI73128393
aI720753739
aI347062352
aI276651732
aI350025173
aI261224278
aI710795167339446272
aI1177189472
aI42957921
aI381174754
aI771720644547514368
aI2563249639
aI202124778
aI3241473009
aI32975988
aI771761807786729472
aI133103225
aI2423082750
atp1065
Rp1066
sg12
I20
sg13
g14
(g15
tp1067
Rp1068
Vhttp://tinyurl.com/qe8ngoq
p1069
I45
ssg274
Vive completed the daily quest in paradise island 2 gameinsight paradiseisland2
p1070
sg276
I28
sg277
I19
sg278
I2
sa(dp1071
g2
(dp1072
g4
I0
sg5
I41
ssg6
I41
sg7
g8
((lp1073
I43851649
aI2754512037
aI540089921
aI2922807815
aI2497407722
aI778838730
aI2905330059
aI723734768
aI1368873361
aI42836882
aI2563267539
aI1345054160
aI1550957886
aI194470390
aI2678820983
aI574934425
aI454697850
aI2481701210
aI709437854
atp1074
Rp1075
sg12
I20
sg13
g14
(g15
tp1076
Rp1077
Vhttp://fb.me/2JUswhrSO
p1078
I1
sVhttp://fb.me/5J2HvXRn1
p1079
I1
sVhttp://fb.me/81kFQLFM4
p1080
I1
sVhttp://tinyurl.com/jfewm5c
p1081
I41
ssg274
Vdawn tawn laid to rest amidst tears how about his \u2018rbnfy\u2019 album in via otowngist
p1082
sg276
I29
sg277
I19
sg278
I2
sa(dp1083
g2
(dp1084
g4
I0
sg5
I40
ssg6
I40
sg7
g8
((lp1085
I43851649
aI2754512037
aI540089921
aI2922807815
aI2497407722
aI778838730
aI2905330059
aI723734768
aI1368873361
aI42836882
aI2563267539
aI1345054160
aI1550957886
aI194470390
aI2678820983
aI574934425
aI454697850
aI2481701210
aI709437854
atp1086
Rp1087
sg12
I20
sg13
g14
(g15
tp1088
Rp1089
Vhttp://fb.me/1KHwo17a8
p1090
I1
sVhttp://tinyurl.com/h5b352c
p1091
I40
sVhttp://fb.me/1ddSmanUB
p1092
I1
ssg274
Vaudio chidoo officialchidoo  just love me in via otowngist
p1093
sg276
I30
sg277
I19
sg278
I2
sa(dp1094
g2
(dp1095
g4
I36
sg5
I4
ssg6
I40
sg7
g8
((lp1096
I779571376957120512
aI814966999331782656
aI792364902514040832
aI710626504108072961
aI1362799170
aI385046287
aI544158224
aI289118612
aI770113440
aI3436790726
aI2481146024
aI1905029168
aI4789822643
aI2811590198
aI2334655159
aI349160379
aI259917502
aI705289537
aI135576770
aI585032395
aI23987654
aI1173533258
aI4049811659
aI3368604629
aI54413273
aI2530744286
aI49441808
aI1612776804
aI15549417
aI968462576
aI811999433965654016
aI95727422
aI377258998
aI79539767
aI233213435
aI313037820
atp1097
Rp1098
sg12
I20
sg13
g14
(g15
tp1099
Rp1100
Vhttps://twitter.com/i/web/status/833454911627071488
p1101
I22
sVhttps://twitter.com/i/web/status/833439808072609792
p1102
I5
sVhttps://twitter.com/i/web/status/833424705583452165
p1103
I6
sVhttps://twitter.com/i/web/status/833470013264785408
p1104
I4
sVhttps://twitter.com/i/web/status/833409614888759296
p1105
I3
ssg274
Vtrump signs bill repealing the stream protection rule which saves streams amp rivers from coal mining runoff\u2026
p1106
sg276
I31
sg277
I19
sg278
I2
sa(dp1107
g2
(dp1108
g4
I0
sg5
I40
ssg6
I40
sg7
g8
((lp1109
I729766174045638656
aI789848145995980801
aI770317740330680324
aI824024115296239621
aI705563091254153216
aI808343903355236353
aI852466056
aI51056265
aI1397540568
aI825767539556839424
aI188679955
aI185695684
aI127439131
aI703978885
aI718883498757591040
aI401142820
aI790059404972269568
aI411282228
aI3009891125
aI60252988
aI730421800178319360
aI804862275962048512
aI821536522696392704
aI1612240584
aI969176652
aI28519245
aI385370447
aI347062352
aI718599757367795712
aI544719704
aI4692859100
aI371817950
aI470432863
aI381174754
aI2846262628
aI788239262151946240
aI717597993004834816
aI1321256569
aI822994764584939520
aI1034182014
atp1110
Rp1111
sg12
I20
sg13
g14
(g15
tp1112
Rp1113
Vhttp://tinyurl.com/q3qf2ej
p1114
I40
ssg274
Vive just unlocked mansion action achievement in paradise island 2   gameinsight paradiseisland2
p1115
sg276
I32
sg277
I19
sg278
I2
sa(dp1116
g2
(dp1117
g4
I9
sg5
I30
ssg6
I39
sg7
g8
((lp1118
I11071232
aI763196274795421697
aI828416775758950402
aI777692848527331328
aI127244680
aI423685641
aI830552753533571074
aI2346202254
aI56482835
aI2396898073
aI464075929
aI2823223151
aI223022239
aI720047327168303104
aI76367780
aI829733092814364672
aI2919480028
aI93253551
aI1305760944
aI3255048882
aI409495989
aI1189112119
aI114580895
aI1253034265
aI279027518
aI19212015
aI38864579
aI436346570
aI459002067
aI1481005656
aI516027356
aI284743006
aI609844319
aI1479683899
aI285918059
aI74772716
aI21690351
aI21548659
aI751976443
atp1119
Rp1120
sg12
I20
sg13
g14
(g15
tp1121
Rp1122
Vhttp://www.tinyurl.com/z8p9xxr
p1123
I39
ssg274
Vnea president sends letter to education secretary betsy devos
p1124
sg276
I33
sg277
I19
sg278
I2
sa(dp1125
g2
(dp1126
g4
I17
sg5
I21
ssg6
I38
sg7
g8
((lp1127
I729010894617743360
aI2244512905
aI256203095
aI588559501
aI2388064016
aI2563324959
aI256628776
aI17493421
aI215058742
aI446506935
aI57195194
aI3237038023
aI259649352
aI2361413834
aI105857751
aI1411071067
aI533331937
aI3128277731
aI330510566
aI924245222
aI1621220348
aI265177970
aI259689332
aI3244741237
aI259674489
aI117021052
aI4643167998
atp1128
Rp1129
sg12
I20
sg13
g14
(g15
tp1130
Rp1131
Vhttp://tinyurl.com/TestApps2GP
p1132
I38
ssg274
Vget paid for testing mobile apps   make money by using smartphone please retweet
p1133
sg276
I34
sg277
I19
sg278
I2
sa(dp1134
g2
(dp1135
g4
I36
sg5
I1
ssg6
I37
sg7
g8
((lp1136
I715211078930669568
aI712008468207538177
aI724204043648667652
aI728600324907401221
aI725023646037737472
aI723454016026468353
aI2762921748
aI729946897956278272
aI2804807963
aI2814680666
aI729822075918159872
aI2797894512
aI713749266506784769
aI730171304666640384
aI2808573352
aI2799073500
aI2808537387
aI2840750130
aI2836260409
aI723076286470451200
aI2430809024
aI2767290050
aI2804771915
aI2804544587
aI2738434128
aI2805292889
aI2806854106
aI2810497884
aI2475954810
aI2797110112
aI731696125527265280
aI2807793003
aI2807327854
aI2737538288
aI2472013560
aI2595234938
aI2806724734
atp1137
Rp1138
sg12
I20
sg13
g14
(g15
tp1139
Rp1140
Vhttp://tinyurl.com/packing-XXX-tax
p1141
I14
sVhttp://tinyurl.com/XXX-best-muslim
p1142
I10
sVhttp://tinyurl.com/mobi-maoni-XXX
p1143
I1
sVhttp://tinyurl.com/XXX-stepdad
p1144
I1
sVhttp://tinyurl.com/grandma-XXX
p1145
I1
sVhttp://tinyurl.com/XXX-stella
p1146
I6
sVhttp://tinyurl.com/set-XXX-fairy
p1147
I1
sVhttp://tinyurl.com/XXX-state-bad
p1148
I1
sVhttp://tinyurl.com/XXX-women
p1149
I1
sVhttp://tinyurl.com/jejak-XXX
p1150
I1
ssg274
V\U0001f525\U0001f525\U0001f525all i want you to know i love you\U0001f496\U0001f496\U0001f496
p1151
sg276
I35
sg277
I19
sg278
I2
sa(dp1152
g2
(dp1153
g4
I32
sg5
I4
ssg6
I36
sg7
g8
((lp1154
I821939292532604928
aI830518309661581313
aI48981762
aI828243719497383939
aI828750996083978244
aI819596660196130816
aI3222286221
aI385046287
aI1598812760
aI289118612
aI456334233
aI739756952
aI750781552053878788
aI385292192
aI720773694755311616
aI23987654
aI872482854
aI254410154
aI2359537176
aI123803200
aI2332808262
aI20336330
aI755141620199108608
aI1367567570
aI15476568
aI158059353
aI822642797002035200
aI65758693
aI337205614
aI3352912754
aI827037887619231744
aI22503678
atp1155
Rp1156
sg12
I20
sg13
g14
(g15
tp1157
Rp1158
Vhttps://twitter.com/i/web/status/833442084954763265
p1159
I12
sVhttps://twitter.com/i/web/status/833186886067843074
p1160
I5
sVhttps://twitter.com/i/web/status/833337879162187779
p1161
I1
sVhttps://twitter.com/i/web/status/833473769545007105
p1162
I7
sVhttps://twitter.com/i/web/status/833443569235001344
p1163
I2
sVhttps://twitter.com/i/web/status/833413393730138113
p1164
I1
sVhttps://twitter.com/i/web/status/833215578169028608
p1165
I1
sVhttps://twitter.com/i/web/status/833368081409925121
p1166
I1
sVhttps://twitter.com/i/web/status/833458732055027712
p1167
I6
ssg274
Vbombshell trump campaign aides had repeated contacts with russian intelligence for 1 year before election\u2026
p1168
sg276
I36
sg277
I19
sg278
I2
sa(dp1169
g2
(dp1170
g4
I0
sg5
I36
ssg6
I36
sg7
g8
((lp1171
I807314397718777856
aI789848145995980801
aI301249155
aI569186134
aI729803575598026752
aI808343903355236353
aI1407069578
aI4701138316
aI4188042179
aI4782241048
aI772476044523732992
aI443120037
aI790059404972269568
aI4098296367
aI48026802
aI611896502
aI2409833911
aI1518729528
aI2972651321
aI878891167
aI705563091254153216
aI767118784733773824
aI71175223
aI969176652
aI385370447
aI336563280
aI122413270
aI4812507961
aI374264028
aI4904909405
aI3172814288
aI3429888587
aI782776269528305664
aI719156391173365760
aI3280139382
aI825767539556839424
atp1172
Rp1173
sg12
I20
sg13
g14
(g15
tp1174
Rp1175
Vhttp://tinyurl.com/q3qf2ej
p1176
I36
ssg274
Vive just unlocked best day ever achievement in paradise island 2   gameinsight paradiseisland2
p1177
sg276
I37
sg277
I19
sg278
I2
sa(dp1178
g2
(dp1179
g4
I0
sg5
I35
ssg6
I35
sg7
g8
((lp1180
I788239262151946240
aI794617734592073728
aI827654922413948931
aI830083637760651268
aI705563091254153216
aI740559674068455425
aI1642966416
aI4782241048
aI1110889494
aI719156391173365760
aI407308445
aI772476044523732992
aI729766174045638656
aI808343903355236353
aI443120037
aI816730353083752448
aI880715864
aI378969885
aI48026802
aI71175223
aI1518729528
aI2972651321
aI756088218370600960
aI4856556476
aI809257667382255616
aI746298414279819264
aI720753739
aI969176652
aI385370447
aI3172814288
aI2409833911
aI544719704
aI754803125819613184
aI3280139382
aI771761807786729472
atp1181
Rp1182
sg12
I20
sg13
g14
(g15
tp1183
Rp1184
Vhttp://tinyurl.com/q3qf2ej
p1185
I35
ssg274
Vive just unlocked a blacktie affair achievement in paradise island 2   gameinsight paradiseisland2
p1186
sg276
I38
sg277
I19
sg278
I2
sa(dp1187
g2
(dp1188
g4
I0
sg5
I34
ssg6
I34
sg7
g8
((lp1189
I783887022310109184
aI825838976485425153
aI831866108579868674
aI782776269528305664
aI807598955383164929
aI3268761864
aI160603658
aI2290167564
aI2381371266
aI227766422
aI813980465505763328
aI734824484062908416
aI824985871510286336
aI4098296367
aI805531752735199232
aI1942315573
aI3248289462
aI503451575
aI738716346
aI878891167
aI832052540
aI266239179
aI720753739
aI880715864
aI710355043069915136
aI77289570
aI520255716
aI373670502
aI803684535250526208
aI2364942959
aI322232433
aI4645692916
aI764860797717770240
aI3280139382
atp1190
Rp1191
sg12
I20
sg13
g14
(g15
tp1192
Rp1193
Vhttp://tinyurl.com/q3qf2ej
p1194
I34
ssg274
Vive just unlocked mansion action achievement in paradise island 2   paradiseisland2 gameinsight
p1195
sg276
I39
sg277
I19
sg278
I2
sa(dp1196
g2
(dp1197
g4
I31
sg5
I1
ssg6
I32
sg7
g8
((lp1198
I785493280146518016
aI823957504526786560
aI830814014015959042
aI832307322357678083
aI832265538386743302
aI792042027118628865
aI829127727919878145
aI833240886884630528
aI824314493953945602
aI3318481042
aI833411070626783235
aI797880965766987776
aI828367624933343232
aI830088699522273281
aI780646076344709120
aI831915643045822464
aI819818645777838080
aI64020164
aI231422534
aI827284213384650752
aI1307120714
aI2353713740
aI832315413002346497
aI844508382
aI822999369377054720
aI722431486805348352
aI3969826407
aI3225660008
aI830254549193535488
aI832985011594940416
aI319261172
aI761875170600640512
atp1199
Rp1200
sg12
I20
sg13
g14
(g15
tp1201
Rp1202
Vhttp://tinyurl.com/h5236j3
p1203
I32
sVhttps://twitter.com/i/web/status/833457841155559424
p1204
I1
ssg274
Varticle about earnings in instagram using the direct sales company instagram   training\u2026
p1205
sg276
I40
sg277
I19
sg278
I2
sa(dp1206
g2
(dp1207
g4
I31
sg5
I1
ssg6
I32
sg7
g8
((lp1208
I732949465926119424
aI2776685824
aI711580204146237444
aI727267408382144512
aI713517639734153217
aI2841629065
aI2735922186
aI2436845707
aI3154915853
aI2763149083
aI2840172956
aI2740552224
aI712036692673298433
aI2763346471
aI3105446569
aI2793373998
aI3138727216
aI2464498616
aI2801703230
aI2796302671
aI2807838033
aI2805423316
aI2797183449
aI2778698074
aI2808648539
aI2284624506
aI2765859806
aI3157623519
aI3176350180
aI2806701035
aI710328372757458944
aI2804081146
atp1209
Rp1210
sg12
I20
sg13
g14
(g15
tp1211
Rp1212
Vhttp://tinyurl.com/iron-during-XXX
p1213
I7
sVhttp://tinyurl.com/XXX-anonymous
p1214
I10
sVhttp://tinyurl.com/surat-XXX-canin
p1215
I1
sVhttp://tinyurl.com/XXX-womanboy
p1216
I2
sVhttp://tinyurl.com/modeling-XXX
p1217
I1
sVhttp://tinyurl.com/XXX-woman-over
p1218
I10
sVhttp://tinyurl.com/fuck-XXX-key
p1219
I1
ssg274
Voh give me what i need tonight
p1220
sg276
I41
sg277
I19
sg278
I2
sa(dp1221
g2
(dp1222
g4
I28
sg5
I4
ssg6
I32
sg7
g8
((lp1223
I826137149753921536
aI755141620199108608
aI750781552053878788
aI758516960489533440
aI775036511330902017
aI2359537176
aI289118612
aI739756952
aI456334233
aI20184990
aI385292192
aI896193828
aI59355559
aI3173758122
aI124535856
aI244693950
aI472314695
aI133609928
aI2980625739
aI880929493
aI81231446
aI829123928
aI158059353
aI201087454
aI128163680
aI800540782893535232
aI337205614
aI259490295
aI22503678
atp1224
Rp1225
sg12
I20
sg13
g14
(g15
tp1226
Rp1227
Vhttp://tinyurl.com/hz4k43l
p1228
I32
ssg274
Vsally yatesgot the ball rolling on michael flynn\u2019s resignation
p1229
sg276
I42
sg277
I19
sg278
I2
sa(dp1230
g2
(dp1231
g4
I30
sg5
I1
ssg6
I31
sg7
g8
((lp1232
I700922102359179264
aI781211193386164225
aI4870812034
aI754042204289544192
aI732243213310955521
aI1877144342
aI819442791843409920
aI826568415267524608
aI749573383688421377
aI3865272743
aI707886504
aI1512384684
aI1337221681
aI813020502755135488
aI4911196726
aI1204760508
aI3199532605
aI773190713987203072
aI894164162
aI792277021736865792
aI976771531
aI1685045564
aI1854292458
aI2294241263
aI3437032432
aI830454144955666432
aI3420415221
aI3254189046
aI754334153353682944
aI1958478972
aI809991073036730368
atp1233
Rp1234
sg12
I20
sg13
g14
(g15
tp1235
Rp1236
Vhttps://tinyurl.com/groowaz
p1237
I31
sVhttps://twitter.com/i/web/status/833421028298747905
p1238
I1
ssg274
Vinnisfree x loo\u03c0\u03b413  scan \uc774\ub2ec\uc758\uc18c\ub140 loo\u03c0\u03b4 hyunjin for high cut magazine vol 192 hq\u2192   amp\u2026
p1239
sg276
I43
sg277
I19
sg278
I2
sa(dp1240
g2
(dp1241
g4
I31
sg5
I0
ssg6
I31
sg7
g8
((lp1242
I713458932065247232
aI724737118170284033
aI724587419119448069
aI2841000326
aI714499319559241729
aI2808517000
aI2753545746
aI2791835539
aI2501528215
aI713862684471664641
aI2750800934
aI723600668993396736
aI2600877703
aI2691478316
aI715468436814577664
aI2807705521
aI2808516274
aI730277198008045568
aI2600905268
aI2804860989
aI2806833472
aI731212513711403008
aI2762773843
aI2793611864
aI2797409242
aI2805121373
aI2798394852
aI2588605296
aI2653012724
aI2753576821
aI2770049276
atp1243
Rp1244
sg12
I20
sg13
g14
(g15
tp1245
Rp1246
Vhttp://tinyurl.com/XXX-ah-mature
p1247
I10
sVhttp://tinyurl.com/adam-puma-XXX
p1248
I5
sVhttp://tinyurl.com/registry-XXX
p1249
I15
sVhttp://tinyurl.com/gems-royal-XXX
p1250
I1
ssg274
Vdont turn around i dont want you seeing me cry
p1251
sg276
I44
sg277
I19
sg278
I2
sa(dp1252
g2
(dp1253
g4
I26
sg5
I5
ssg6
I31
sg7
g8
((lp1254
I4896578304
aI774598766506680320
aI4325055621
aI797819037870759936
aI738242391157706753
aI289118612
aI814599523901337601
aI191505959
aI242988968
aI204534066
aI808870904541233152
aI4183694386
aI815871284
aI95727422
aI23987654
aI446088777
aI966442706
aI1392545108
aI121216105
aI337205614
aI58545470
aI244120440
aI24214420
aI22503678
aI855585919
atp1255
Rp1256
sg12
I20
sg13
g14
(g15
tp1257
Rp1258
Vhttps://twitter.com/i/web/status/833462456211107841
p1259
I1
sVhttps://twitter.com/i/web/status/833417161821523975
p1260
I12
sVhttps://twitter.com/i/web/status/833477554430418944
p1261
I4
sVhttps://twitter.com/i/web/status/833130271054635008
p1262
I1
sVhttps://twitter.com/i/web/status/833432266953064449
p1263
I5
sVhttps://twitter.com/i/web/status/833447361481416704
p1264
I8
ssg274
Vtrump family\u2019s elaborate lifestyle is a \u2018logistical nightmare\u2019 \u2014 at taxpayer expense over 10 million aweek\u2026
p1265
sg276
I45
sg277
I19
sg278
I2
sa(dp1266
g2
(dp1267
g4
I29
sg5
I1
ssg6
I30
sg7
g8
((lp1268
I798208894623420416
aI808095824303505409
aI833378996192673795
aI732415591613485056
aI833442728633565185
aI2354077712
aI2164278417
aI832447153641492483
aI4861549205
aI776174149265793025
aI2758481447
aI232213676
aI2257101661
aI833480161827905536
aI345064250
aI3700713019
aI833474168238673920
aI33345605
aI96885574
aI582247244
aI2738315469
aI2479017943
aI2182635229
aI715423976
aI822916066661711872
aI1733363184
aI3420477173
aI2927852281
aI577281664
atp1269
Rp1270
sg12
I20
sg13
g14
(g15
tp1271
Rp1272
Vhttp://tinyurl.com/jhetdm5
p1273
I30
ssg274
Vmake sure to enter my valentines giveaway
p1274
sg276
I46
sg277
I19
sg278
I2
sa(dp1275
g2
(dp1276
g4
I29
sg5
I1
ssg6
I30
sg7
g8
((lp1277
I826750204598706176
aI781211193386164225
aI1093842434
aI739179375086571520
aI732243213310955521
aI4285553547
aI4870812034
aI819442791843409920
aI136127014
aI3865272743
aI707886504
aI750651213763325952
aI1512384684
aI2195641398
aI773190713987203072
aI761268242614743040
aI1204760508
aI3199532605
aI785085759095209984
aI894164162
aI792277021736865792
aI4841543112
aI754042204289544192
aI97318874
aI596951388
aI397426405
aI798037216974938112
aI1685045564
aI1854292458
aI3420415221
atp1278
Rp1279
sg12
I20
sg13
g14
(g15
tp1280
Rp1281
Vhttps://tinyurl.com/zct3stx
p1282
I30
sVhttps://twitter.com/i/web/status/833416552607277057
p1283
I1
ssg274
Vinnisfree x loo\u03c0\u03b413  scan \uc774\ub2ec\uc758\uc18c\ub140 loo\u03c0\u03b4 hs amp hj for high cut magazine vol 192 hq\u2192   amp\u2026
p1284
sg276
I47
sg277
I19
sg278
I2
sa(dp1285
g2
(dp1286
g4
I30
sg5
I0
ssg6
I30
sg7
g8
((lp1287
I723372996790882304
aI810367964818132992
aI813012629081845762
aI810361779150880772
aI820621378608992256
aI823878625854242817
aI819535104036876290
aI824995899466133508
aI813364106186981376
aI828634276287483904
aI819195791000543233
aI810002730966196224
aI821702641877012480
aI823519235150221312
aI820285568906973184
aI3146332468
aI820254461637455872
aI825364523129270273
aI823150339612258306
aI812945639709380608
aI813043234251210752
aI818853280247750656
aI820196254818791425
aI823502854820282368
aI810052339239415808
aI812546706353094656
aI818827540672356352
aI260830319
aI823520546511949824
aI819543101647691777
atp1288
Rp1289
sg12
I20
sg13
g14
(g15
tp1290
Rp1291
Vhttp://tinyurl.com/hwwfhsa
p1292
I30
ssg274
Vevery morning ritual masterbate and squirt
p1293
sg276
I48
sg277
I19
sg278
I2
sa(dp1294
g2
(dp1295
g4
I26
sg5
I4
ssg6
I30
sg7
g8
((lp1296
I811209924470538240
aI757683923648385025
aI811999433965654016
aI385046287
aI289118612
aI244403743
aI1670681766
aI191505959
aI2481146024
aI228399021
aI2395323950
aI1905029168
aI4789822643
aI3140860980
aI1154279222
aI2334655159
aI2991070780
aI123803200
aI23987654
aI99016014
aI1934935632
aI313037820
aI780553259698167808
aI93223785
aI2815004652
aI968462576
aI166001916
atp1297
Rp1298
sg12
I20
sg13
g14
(g15
tp1299
Rp1300
Vhttps://twitter.com/i/web/status/833470016960000000
p1301
I2
sVhttps://twitter.com/i/web/status/833439812933791744
p1302
I10
sVhttps://twitter.com/i/web/status/833424955291348993
p1303
I4
sVhttps://twitter.com/i/web/status/833122962723201024
p1304
I4
sVhttps://twitter.com/i/web/status/833454905927032835
p1305
I10
ssg274
Vcongress moves to give away national lands discounting billions in revenue and affecting 6 million jobs\u2026
p1306
sg276
I49
sg277
I19
sg278
I2
sa(dp1307
g2
(dp1308
g4
I0
sg5
I30
ssg6
I30
sg7
g8
((lp1309
I43851649
aI2754512037
aI540089921
aI2922807815
aI2497407722
aI778838730
aI2905330059
aI723734768
aI1368873361
aI42836882
aI2563267539
aI1345054160
aI1550957886
aI194470390
aI2678820983
aI574934425
aI454697850
aI2481701210
aI709437854
atp1310
Rp1311
sg12
I20
sg13
g14
(g15
tp1312
Rp1313
Vhttp://fb.me/7oqcH25QI
p1314
I1
sVhttp://tinyurl.com/hq62eou
p1315
I30
ssg274
Vimo governor shouts down deputy for nursing 2019 guber ambition in via otowngist
p1316
sg276
I50
sg277
I19
sg278
I2
sa(dp1317
g2
(dp1318
g4
I25
sg5
I4
ssg6
I29
sg7
g8
((lp1319
I826137149753921536
aI728923910687866881
aI48981762
aI750781552053878788
aI755141620199108608
aI385046287
aI544158224
aI739756952
aI289118612
aI456334233
aI2359537176
aI801172894646763524
aI298154404
aI23987654
aI55620779
aI16322349
aI1931982908
aI244693950
aI44828614
aI133609928
aI2980625739
aI128163680
aI65758693
aI337205614
aI29897850
atp1320
Rp1321
sg12
I20
sg13
g14
(g15
tp1322
Rp1323
Vhttp://tinyurl.com/gnge9kl
p1324
I29
ssg274
Vhouse republicans vote to overturn rule protecting waterways from mining
p1325
sg276
I51
sg277
I19
sg278
I2
sa(dp1326
g2
(dp1327
g4
I0
sg5
I29
ssg6
I29
sg7
g8
((lp1328
I767421537288916992
aI789848145995980801
aI830083637760651268
aI2789745414
aI825838976485425153
aI2275656843
aI164433933
aI188679955
aI3068300313
aI634012444
aI976541858
aI786732170702454785
aI548027179
aI832444337120231424
aI1061359795
aI1518729528
aI818882225689231360
aI302469579
aI740559674068455425
aI2191501303
aI29130964
aI1321256569
aI371817950
aI529407593
aI2525895660
aI60624375
aI801129920109776896
aI2396788734
atp1329
Rp1330
sg12
I20
sg13
g14
(g15
tp1331
Rp1332
Vhttp://tinyurl.com/q3qf2ej
p1333
I29
ssg274
Vive just unlocked green area achievement in paradise island 2   gameinsight paradiseisland2
p1334
sg276
I52
sg277
I19
sg278
I2
sa(dp1335
g2
(dp1336
g4
I25
sg5
I4
ssg6
I29
sg7
g8
((lp1337
I792364902514040832
aI759155531332390912
aI796473629617819652
aI811999433965654016
aI757987650460680193
aI385046287
aI49441808
aI289118612
aI483360857
aI72978331
aI2481146024
aI1905029168
aI4789822643
aI2334655159
aI95727422
aI738582777365299200
aI357581251
aI3436790726
aI3368604629
aI54413273
aI394962139
aI463394016
aI824272036931469312
aI847545582
aI968462576
aI313037820
atp1338
Rp1339
sg12
I20
sg13
g14
(g15
tp1340
Rp1341
Vhttps://twitter.com/i/web/status/833470017584898048
p1342
I6
sVhttps://twitter.com/i/web/status/833439807351177220
p1343
I3
sVhttps://twitter.com/i/web/status/833424715708506114
p1344
I2
sVhttps://twitter.com/i/web/status/833454911039893504
p1345
I17
sVhttps://twitter.com/i/web/status/833349227161985024
p1346
I1
ssg274
Vflorida congressman drafts bill to \u2018completely abolish\u2019 the epa they got the votes and the man to sign it\u2026
p1347
sg276
I53
sg277
I19
sg278
I2
sa(dp1348
g2
(dp1349
g4
I29
sg5
I0
ssg6
I29
sg7
g8
((lp1350
I783052301816762368
aI830418154065010688
aI823173749264551940
aI831943801686020096
aI2855768843
aI820195855
aI228470040
aI20567713
aI3076277411
aI23109286
aI605677482
aI3432283947
aI58861230
aI1891476528
aI2484192951
aI1919552952
aI2480858434
aI370187589
aI391559239
aI271008074
aI3120244175
aI1010003028
aI132257273
aI460182754
aI628652787
aI33795832
aI527041401
aI335891707
aI499336189
atp1351
Rp1352
sg12
I20
sg13
g14
(g15
tp1353
Rp1354
Vhttp://tinyurl.com/TerriBauman
p1355
I29
ssg274
Vcan you do these jobs as shown in image if yes then please visit   please retweet
p1356
sg276
I54
sg277
I19
sg278
I2
sa(dp1357
g2
(dp1358
g4
I1
sg5
I28
ssg6
I29
sg7
g8
((lp1359
I56235266
aI73917827
aI2279382065
aI249418897
aI49301962
aI3220761804
aI553159362
aI2157628590
aI145880433
aI962379313
aI237577877
aI299395799
aI908553368
aI2788065209
aI1539479131
atp1360
Rp1361
sg12
I20
sg13
g14
(g15
tp1362
Rp1363
Vhttp://tinyurl.com/hlosbyh
p1364
I2
sVhttp://tinyurl.com/h7qyv8t
p1365
I1
sVhttp://tinyurl.com/huflrct
p1366
I1
sVhttp://tinyurl.com/h5jmtj8
p1367
I1
sVhttp://tinyurl.com/j4kubkf
p1368
I1
sVhttp://tinyurl.com/jazpafm
p1369
I1
sVhttp://tinyurl.com/z8bv6hs
p1370
I1
sVhttp://tinyurl.com/zg7xd9o
p1371
I1
sVhttp://tinyurl.com/hoox3mt
p1372
I1
sVhttp://tinyurl.com/grulexb
p1373
I1
sVhttp://tinyurl.com/hd5fo3a
p1374
I1
sVhttp://tinyurl.com/hz35gvt
p1375
I1
sVhttp://tinyurl.com/jd96spj
p1376
I1
sVhttp://tinyurl.com/j3hcxzz
p1377
I1
sVhttp://tinyurl.com/jgw2tnu
p1378
I1
sVhttp://tinyurl.com/z25rjpn
p1379
I1
sVhttp://tinyurl.com/zsepqau
p1380
I1
sVhttp://tinyurl.com/jv2a5tn
p1381
I1
sVhttp://tinyurl.com/gt6lcq9
p1382
I1
sVhttp://tinyurl.com/hek7bjv
p1383
I1
sVhttp://tinyurl.com/h45mtgq
p1384
I1
sVhttp://tinyurl.com/zb286cu
p1385
I1
sVhttp://tinyurl.com/jopcono
p1386
I1
sVhttp://tinyurl.com/z45ncaf
p1387
I1
sVhttp://tinyurl.com/jpagtos
p1388
I1
sVhttp://tinyurl.com/h72knvj
p1389
I1
sVhttp://tinyurl.com/zyjr8sz
p1390
I1
sVhttp://tinyurl.com/zuy8b7c
p1391
I1
ssg274
Vfaqs about the practical ed tech summer camps via practical ed tech  a few weeks ago i announced
p1392
sg276
I55
sg277
I19
sg278
I2
sa(dp1393
g2
(dp1394
g4
I28
sg5
I0
ssg6
I28
sg7
g8
((lp1395
I734978646465646592
aI790601614402785280
aI796835809823522818
aI824390949178576896
aI830083698083061761
aI3159147915
aI1957816716
aI771049316278501378
aI264076816
aI59167512
aI2727791899
aI869176992
aI999453985
aI716004945628151809
aI3390098350
aI1510520886
aI90966455
aI19191480
aI825840137468801024
aI744856700969193472
aI709606293623844864
aI2892983181
aI318182225
aI29785176
aI986810594
aI2401888740
aI101823726
aI2293810932
atp1396
Rp1397
sg12
I20
sg13
g14
(g15
tp1398
Rp1399
Vhttp://tinyurl.com/j8rdvz9
p1400
I28
ssg274
Vnanaj79 barbl219 chelseaclinton heres the real truth   read it and weep keep the 11816 tears\u2026
p1401
sg276
I56
sg277
I19
sg278
I2
sa(dp1402
g2
(dp1403
g4
I28
sg5
I0
ssg6
I28
sg7
g8
((lp1404
I728655669600129024
aI731636418708160513
aI2798198659
aI2804829317
aI725021662240972800
aI711086074802663425
aI2310739722
aI2795511580
aI2804197409
aI720463400153837569
aI714094152976310278
aI724703560634609664
aI2797093551
aI3123095344
aI2762303412
aI2807218101
aI724120895753576448
aI2793384000
aI2638869955
aI2805099333
aI2852419271
aI2401668307
aI2805313108
aI2806748629
aI2792133728
aI710709565327872000
aI715338817679597568
aI2271343226
atp1405
Rp1406
sg12
I20
sg13
g14
(g15
tp1407
Rp1408
Vhttp://tinyurl.com/chubby-XXX-mom
p1409
I2
sVhttp://tinyurl.com/XXX-space
p1410
I11
sVhttp://tinyurl.com/area-XXX
p1411
I14
sVhttp://tinyurl.com/katy-XXX-your
p1412
I1
ssg274
V\U0001f493\U0001f497\U0001f495\U0001f49e\U0001f60dlick your lips as i soak my feet\U0001f339\U0001f339\U0001f339
p1413
sg276
I57
sg277
I19
sg278
I2
sa(dp1414
g2
(dp1415
g4
I0
sg5
I27
ssg6
I27
sg7
g8
((lp1416
I767421537288916992
aI786732170702454785
aI831866108579868674
aI788239262151946240
aI825838976485425153
aI48930959
aI1642966416
aI2393739540
aI4194955264
aI818750070531231745
aI2522637639
aI3009891125
aI2790260283
aI4856556476
aI4924267198
aI809257667382255616
aI756088218370600960
aI1321256569
aI544719704
aI371817950
aI239644392
aI60252988
aI2423082750
aI269136889
aI2960909819
aI2396788734
aI796477036692996096
atp1417
Rp1418
sg12
I20
sg13
g14
(g15
tp1419
Rp1420
Vhttp://tinyurl.com/q3qf2ej
p1421
I27
ssg274
Vive just unlocked best day ever achievement in paradise island 2   paradiseisland2 gameinsight
p1422
sg276
I58
sg277
I19
sg278
I2
sa(dp1423
g2
(dp1424
g4
I0
sg5
I26
ssg6
I26
sg7
g8
((lp1425
I241395137
aI172126666
aI62103949
aI912723343
aI768538291
aI95868151
aI348035352
aI268827675
aI299943485
aI371004542
atp1426
Rp1427
sg12
I20
sg13
g14
(g15
tp1428
Rp1429
Vhttp://tinyurl.com/z52dbhl
p1430
I1
sVhttp://tinyurl.com/h4mqho9
p1431
I1
sVhttp://tinyurl.com/j3s7jet
p1432
I1
sVhttp://tinyurl.com/h745zfl
p1433
I1
sVhttp://tinyurl.com/jeyj4ux
p1434
I1
sVhttp://tinyurl.com/zpdrha9
p1435
I1
sVhttp://tinyurl.com/hr3e2k4
p1436
I1
sVhttp://ln.is/tinyurl.com/jbZ3z
p1437
I1
sVhttp://tinyurl.com/hswaz68
p1438
I1
sVhttp://tinyurl.com/hdvkwqc
p1439
I1
sVhttp://tinyurl.com/h9wpkjt
p1440
I1
sVhttp://tinyurl.com/gkvdumj
p1441
I1
sVhttp://ln.is/tinyurl.com/AayS2
p1442
I1
sVhttp://tinyurl.com/hyukwqp
p1443
I1
sVhttp://tinyurl.com/zbv9oga
p1444
I1
sVhttp://tinyurl.com/jonyfjz
p1445
I1
sVhttp://tinyurl.com/z7uxjdw
p1446
I1
sVhttp://ln.is/tinyurl.com/yPYf9
p1447
I1
sVhttp://tinyurl.com/ha6syl4
p1448
I1
sVhttp://tinyurl.com/hq6cxn3
p1449
I1
sVhttp://tinyurl.com/hgk8r6p
p1450
I1
sVhttp://ln.is/tinyurl.com/c4FfS
p1451
I1
sVhttp://ln.is/tinyurl.com/bi5Pd
p1452
I1
sVhttp://tinyurl.com/zd46j6l
p1453
I1
sVhttp://ln.is/tinyurl.com/eE1w3
p1454
I1
sVhttp://tinyurl.com/jppadfc
p1455
I1
ssg274
Vpapa john\u2019s 40 off any regular priced large or xlarge pizza via swaggrabber  papa johns is
p1456
sg276
I59
sg277
I19
sg278
I2
sa(dp1457
g2
(dp1458
g4
I25
sg5
I1
ssg6
I26
sg7
g8
((lp1459
I713439807066779648
aI713010036386185216
aI713840694079700994
aI2802718597
aI733523979839799302
aI712808332818558977
aI2804756235
aI2797959948
aI2269834381
aI2762498964
aI2804465181
aI2806437278
aI3098971427
aI714001462108368896
aI733853337297256448
aI2762609473
aI2606562187
aI2360822924
aI2805225550
aI729085239490953216
aI3133593040
aI2806892835
aI713407999805689856
aI2540876389
aI2604814452
aI2677484413
atp1460
Rp1461
sg12
I20
sg13
g14
(g15
tp1462
Rp1463
Vhttp://tinyurl.com/board-XXX
p1464
I9
sVhttp://tinyurl.com/XXX-seniors
p1465
I7
sVhttp://tinyurl.com/fort-XXX-tumblr
p1466
I9
sVhttp://tinyurl.com/faked-XXX
p1467
I1
ssg274
V\U0001f48b\U0001f525\U0001f525\U0001f493\U0001f48bthat kinda loving makes me wanna pull down the shade yeah\U0001f48b\U0001f525\U0001f525\U0001f493\U0001f48b
p1468
sg276
I60
sg277
I19
sg278
I2
sa(dp1469
g2
(dp1470
g4
I25
sg5
I1
ssg6
I26
sg7
g8
((lp1471
I73429651
aI46682248
aI344140170
aI456983692
aI119578771
aI2487686152
aI17958426
aI70126236
aI17494046
aI1467922544
aI32140588
aI19200433
aI24486328
aI2751268319
aI78506305
aI19319374
aI844584786
aI133421140
aI173420124
aI151730271
aI47713256
aI126049514
aI413767918
aI73834352
aI44507891
aI166392567
atp1472
Rp1473
sg12
I20
sg13
g14
(g15
tp1474
Rp1475
Vhttp://tinyurl.com/htaram4
p1476
I26
ssg274
Vwe have announced the winners of the 2016 pbwa blumenthal memorial writing contest the results
p1477
sg276
I61
sg277
I19
sg278
I2
sa(dp1478
g2
(dp1479
g4
I1
sg5
I25
ssg6
I26
sg7
g8
((lp1480
I241395137
aI172126666
aI62103949
aI912723343
aI768538291
aI426155988
aI95868151
aI348035352
aI268827675
aI299943485
aI371004542
atp1481
Rp1482
sg12
I20
sg13
g14
(g15
tp1483
Rp1484
Vhttp://tinyurl.com/j73wetf
p1485
I1
sVhttp://tinyurl.com/zhmfo4j
p1486
I1
sVhttp://ln.is/tinyurl.com/0177y
p1487
I1
sVhttp://ln.is/tinyurl.com/Q24zC
p1488
I1
sVhttp://tinyurl.com/zpmyzzh
p1489
I1
sVhttp://tinyurl.com/hkkdr3j
p1490
I1
sVhttp://tinyurl.com/jmypntx
p1491
I1
sVhttp://tinyurl.com/z2vy5s2
p1492
I1
sVhttp://tinyurl.com/j8b2gfg
p1493
I1
sVhttp://tinyurl.com/jh4w3tf
p1494
I1
sVhttp://tinyurl.com/z9m8ulb
p1495
I1
sVhttp://tinyurl.com/grdmzov
p1496
I1
sVhttp://tinyurl.com/hgxdu29
p1497
I1
sVhttp://ln.is/tinyurl.com/HkyRT
p1498
I1
sVhttp://ln.is/tinyurl.com/Yplyt
p1499
I1
sVhttp://tinyurl.com/hwkn3ow
p1500
I1
sVhttp://tinyurl.com/gmcp3bu
p1501
I1
sVhttp://tinyurl.com/jzf9rwv
p1502
I1
sVhttp://ln.is/tinyurl.com/wY6qh
p1503
I1
sVhttp://tinyurl.com/hsnekpo
p1504
I1
sVhttp://tinyurl.com/hs27bmx
p1505
I2
sVhttp://tinyurl.com/judlabf
p1506
I1
sVhttp://tinyurl.com/jzrxf53
p1507
I1
sVhttp://tinyurl.com/zv247z7
p1508
I1
sVhttp://tinyurl.com/hyg3jwv
p1509
I1
ssg274
Vshopkins cool n creamy pack 679 was 13 via swaggrabber  amazon has the shopkins cool n
p1510
sg276
I62
sg277
I19
sg278
I2
sa(dp1511
g2
(dp1512
g4
I24
sg5
I1
ssg6
I25
sg7
g8
((lp1513
I755568200402821120
aI275498881
aI160365314
aI21351301
aI14788929
aI15564187
aI1031342630
aI14621479
aI445703
aI213104561
aI17186101
aI2705425206
aI14661876
aI171370298
aI154950848
aI26200513
aI620468675
aI18663642
aI14156602
aI291199456
aI931691
aI1512255732
aI393585402
aI37609340
aI39828094
atp1514
Rp1515
sg12
I20
sg13
g14
(g15
tp1516
Rp1517
Vhttp://tinyurl.com/j5vvzhu
p1518
I25
sVhttp://fb.me/MGV1LAMI
p1519
I25
ssg274
Va very good reason to not use uber
p1520
sg276
I63
sg277
I19
sg278
I2
sa(dp1521
g2
(dp1522
g4
I0
sg5
I25
ssg6
I25
sg7
g8
((lp1523
I241395137
aI172126666
aI62103949
aI912723343
aI768538291
aI95868151
aI348035352
aI268827675
aI299943485
aI371004542
atp1524
Rp1525
sg12
I20
sg13
g14
(g15
tp1526
Rp1527
Vhttp://tinyurl.com/grmzg5f
p1528
I1
sVhttp://tinyurl.com/heyh96n
p1529
I1
sVhttp://tinyurl.com/z9hnnaj
p1530
I1
sVhttp://tinyurl.com/hkly3k5
p1531
I1
sVhttp://tinyurl.com/herffn8
p1532
I1
sVhttp://tinyurl.com/grm3tnv
p1533
I1
sVhttp://tinyurl.com/jq8pdyr
p1534
I1
sVhttp://ln.is/tinyurl.com/zkJDo
p1535
I1
sVhttp://tinyurl.com/hbz7t6v
p1536
I1
sVhttp://tinyurl.com/jmhzjpv
p1537
I1
sVhttp://ln.is/tinyurl.com/7UvAF
p1538
I1
sVhttp://tinyurl.com/gu6c6sl
p1539
I1
sVhttp://tinyurl.com/ju86u4m
p1540
I1
sVhttp://tinyurl.com/zt79ku6
p1541
I1
sVhttp://tinyurl.com/hhplb6m
p1542
I1
sVhttp://ln.is/tinyurl.com/n3mbb
p1543
I1
sVhttp://ln.is/tinyurl.com/fmj0G
p1544
I1
sVhttp://tinyurl.com/jawfqkt
p1545
I1
sVhttp://tinyurl.com/zrcjc6p
p1546
I1
sVhttp://ln.is/tinyurl.com/NygQc
p1547
I1
sVhttp://tinyurl.com/z7kyswd
p1548
I1
sVhttp://tinyurl.com/hktoavk
p1549
I1
sVhttp://tinyurl.com/gnmvghq
p1550
I1
sVhttp://ln.is/tinyurl.com/E3Bze
p1551
I1
sVhttp://tinyurl.com/hsx63hg
p1552
I1
ssg274
Vhot wheels ai intelligent race system starter kit 4156 was 100 via swaggrabber  amazon has
p1553
sg276
I64
sg277
I19
sg278
I2
sa(dp1554
g2
(dp1555
g4
I0
sg5
I25
ssg6
I25
sg7
g8
((lp1556
I241395137
aI172126666
aI62103949
aI912723343
aI768538291
aI95868151
aI348035352
aI268827675
aI299943485
aI371004542
atp1557
Rp1558
sg12
I20
sg13
g14
(g15
tp1559
Rp1560
Vhttp://ln.is/tinyurl.com/ZgO7I
p1561
I1
sVhttp://tinyurl.com/h2rnynq
p1562
I1
sVhttp://tinyurl.com/zulqglj
p1563
I1
sVhttp://tinyurl.com/gw5zl6l
p1564
I1
sVhttp://tinyurl.com/zydjt34
p1565
I1
sVhttp://tinyurl.com/z2vt73t
p1566
I1
sVhttp://tinyurl.com/hubpy5u
p1567
I1
sVhttp://tinyurl.com/z77oltd
p1568
I1
sVhttp://ln.is/tinyurl.com/14LuO
p1569
I1
sVhttp://ln.is/tinyurl.com/uxL7X
p1570
I1
sVhttp://tinyurl.com/j8ae9sv
p1571
I1
sVhttp://ln.is/tinyurl.com/mTbvn
p1572
I1
sVhttp://tinyurl.com/zekprmp
p1573
I1
sVhttp://tinyurl.com/jj27ybs
p1574
I1
sVhttp://tinyurl.com/zoqwrny
p1575
I1
sVhttp://tinyurl.com/gmgp2t9
p1576
I1
sVhttp://tinyurl.com/zyxx8ry
p1577
I1
sVhttp://ln.is/tinyurl.com/duKh2
p1578
I1
sVhttp://tinyurl.com/j88eld4
p1579
I1
sVhttp://tinyurl.com/hp7jt8e
p1580
I1
sVhttp://tinyurl.com/jg7hw9j
p1581
I1
sVhttp://tinyurl.com/h4ycdv9
p1582
I1
sVhttp://tinyurl.com/hb3dmun
p1583
I1
sVhttp://tinyurl.com/hncsnfy
p1584
I1
sVhttp://tinyurl.com/gnmlujk
p1585
I1
ssg274
Vhurry the boxcar children mysteries books one through twelve kindle books 399 was 60
p1586
sg276
I65
sg277
I19
sg278
I2
sa(dp1587
g2
(dp1588
g4
I0
sg5
I25
ssg6
I25
sg7
g8
((lp1589
I719641081164480512
aI705919730834673664
aI734099598650773504
aI734755509442613248
aI717485557518041089
atp1590
Rp1591
sg12
I20
sg13
g14
(g15
tp1592
Rp1593
Vhttp://tinyurl.com/z799nun
p1594
I25
ssg274
Vjapan japantravel travel japan news this week 19 february 2017
p1595
sg276
I66
sg277
I19
sg278
I2
sa(dp1596
g2
(dp1597
g4
I23
sg5
I1
ssg6
I24
sg7
g8
((lp1598
I712818557839654913
aI61077259
aI119758732
aI578526738
aI129009301
aI420771608
aI1629306649
aI2394967279
aI2331869725
aI130954459
aI371326500
aI2320050732
aI96923053
aI620654767
aI2727772486
aI338822989
aI92898770
aI2835837911
aI354857947
aI400938340
aI2655033317
aI291917932
aI342439023
aI408169073
atp1599
Rp1600
sg12
I20
sg13
g14
(g15
tp1601
Rp1602
Vhttps://twitter.com/rotoworld_bb/status/833458198497599490
p1603
I24
ssg274
Vhave fun yankees fans jon nose how to handle new york real well
p1604
sg276
I67
sg277
I19
sg278
I2
sa(dp1605
g2
(dp1606
g4
I0
sg5
I24
ssg6
I24
sg7
g8
((lp1607
I241395137
aI172126666
aI62103949
aI912723343
aI768538291
aI95868151
aI348035352
aI268827675
aI299943485
aI371004542
atp1608
Rp1609
sg12
I20
sg13
g14
(g15
tp1610
Rp1611
Vhttp://tinyurl.com/hasa2h3
p1612
I1
sVhttp://tinyurl.com/zdobwc9
p1613
I1
sVhttp://tinyurl.com/hsqneud
p1614
I1
sVhttp://tinyurl.com/huuzhdq
p1615
I1
sVhttp://ln.is/tinyurl.com/ygVLK
p1616
I1
sVhttp://ln.is/tinyurl.com/SATTp
p1617
I1
sVhttp://tinyurl.com/zdul6al
p1618
I1
sVhttp://tinyurl.com/hhom6hg
p1619
I1
sVhttp://tinyurl.com/h9lhyuo
p1620
I1
sVhttp://tinyurl.com/jzedm3u
p1621
I1
sVhttp://tinyurl.com/haplhtx
p1622
I1
sVhttp://tinyurl.com/hplgpye
p1623
I1
sVhttp://ln.is/tinyurl.com/cKVSe
p1624
I1
sVhttp://tinyurl.com/jc4vytn
p1625
I1
sVhttp://tinyurl.com/h72kvfr
p1626
I1
sVhttp://ln.is/tinyurl.com/fWFZT
p1627
I1
sVhttp://tinyurl.com/hkv3mus
p1628
I1
sVhttp://tinyurl.com/zow97dg
p1629
I1
sVhttp://tinyurl.com/hktstdf
p1630
I1
sVhttp://tinyurl.com/ze32jhe
p1631
I1
sVhttp://tinyurl.com/gna8onf
p1632
I1
sVhttp://tinyurl.com/jq45qjk
p1633
I1
sVhttp://tinyurl.com/zdudtjt
p1634
I1
sVhttp://ln.is/tinyurl.com/5FvK0
p1635
I1
ssg274
Vkids 18piece tool set with blue toolbox 1674 was 30 via swaggrabber  walmart has the kids
p1636
sg276
I68
sg277
I19
sg278
I2
sa(dp1637
g2
(dp1638
g4
I24
sg5
I0
ssg6
I24
sg7
g8
((lp1639
I715493052454998016
aI727582198434390016
aI2614393986
aI714329218121875460
aI723210483885596672
aI2304325255
aI3112792715
aI719948120164065282
aI714868742078013444
aI713160365933068288
aI2808619173
aI2756619440
aI2678882610
aI713820819810443264
aI2810673336
aI3128007104
aI724098595188805632
aI713830707739668480
aI2819016654
aI2599715924
aI2653109582
aI715378363284779008
aI728872784068280320
aI713862788708503552
atp1640
Rp1641
sg12
I20
sg13
g14
(g15
tp1642
Rp1643
Vhttp://tinyurl.com/XXX-femdom-kdv
p1644
I4
sVhttp://tinyurl.com/XXX-sean-alone
p1645
I10
sVhttp://tinyurl.com/posted-dim-XXX
p1646
I10
ssg274
V\U0001f496\U0001f496\U0001f496but you are wading through it\U0001f63b\U0001f63b\U0001f63b
p1647
sg276
I69
sg277
I19
sg278
I2
sa(dp1648
g2
(dp1649
g4
I24
sg5
I0
ssg6
I24
sg7
g8
((lp1650
I723019231080509440
aI729686062658928640
aI733325271986786306
aI2744518278
aI724478104471785473
aI2678460296
aI714510658084147202
aI2841597326
aI2808869136
aI3185663320
aI2354344852
aI2818184864
aI2652840871
aI724151908773015552
aI2750664493
aI721441836745768960
aI717244267014410240
aI2599505492
aI2364845656
aI2797271769
aI722652106759532544
aI2819642346
aI2769044340
aI2611756920
atp1651
Rp1652
sg12
I20
sg13
g14
(g15
tp1653
Rp1654
Vhttp://tinyurl.com/XXX-blog-gambar
p1655
I13
sVhttp://tinyurl.com/road-XXX-gems
p1656
I11
ssg274
V\U0001f493\U0001f497\U0001f495\U0001f49e\U0001f60dand the canvas in my mind \U0001f493\U0001f497\U0001f495\U0001f49e\U0001f60d
p1657
sg276
I70
sg277
I19
sg278
I2
sa(dp1658
g2
(dp1659
g4
I24
sg5
I0
ssg6
I24
sg7
g8
((lp1660
I711249730144178176
aI715672690456150017
aI712970148932558850
aI2814597764
aI714594301431439365
aI712933823592415232
aI713631633027506177
aI2675392386
aI2804288787
aI2360143267
aI729122803283275776
aI2762710064
aI3107720887
aI3171283384
aI2762745920
aI2749642976
aI730562786728775680
aI2794860900
aI2363102815
aI2436578144
aI2476484324
aI3103684197
aI2462881130
aI3124723567
atp1661
Rp1662
sg12
I20
sg13
g14
(g15
tp1663
Rp1664
Vhttp://tinyurl.com/shipping-XXX
p1665
I11
sVhttp://tinyurl.com/portal-XXX
p1666
I13
ssg274
V\U0001f48b\U0001f493\U0001f498\U0001f63byouve got me totally hypnotized\U0001f940\U0001f339\U0001f48b\U0001f498
p1667
sg276
I71
sg277
I19
sg278
I2
sa(dp1668
g2
(dp1669
g4
I0
sg5
I23
ssg6
I23
sg7
g8
((lp1670
I43851649
aI2754512037
aI540089921
aI2922807815
aI2497407722
aI778838730
aI2905330059
aI723734768
aI1368873361
aI42836882
aI2563267539
aI1345054160
aI1550957886
aI194470390
aI2678820983
aI574934425
aI454697850
aI2481701210
aI709437854
atp1671
Rp1672
sg12
I20
sg13
g14
(g15
tp1673
Rp1674
Vhttp://fb.me/17WNzTT19
p1675
I1
sVhttp://fb.me/1d4JdRTwO
p1676
I1
sVhttp://tinyurl.com/hkk78vg
p1677
I23
ssg274
Vaudio shanko shankorasheed tomorrow in via otowngist
p1678
sg276
I72
sg277
I19
sg278
I2
sa(dp1679
g2
(dp1680
g4
I23
sg5
I0
ssg6
I23
sg7
g8
((lp1681
I714505408388403200
aI712939837054038016
aI714020793231933440
aI2762572939
aI2750925325
aI2428438427
aI715584999156744192
aI2751675050
aI2808224944
aI2344863540
aI2805005752
aI2363028930
aI2668625803
aI2651026758
aI714427960497979392
aI4899434837
aI2803280640
aI714434882563411968
aI713816963869384704
aI2800454376
aI2763187946
aI2739103735
aI2602824746
atp1682
Rp1683
sg12
I20
sg13
g14
(g15
tp1684
Rp1685
Vhttp://tinyurl.com/back-well-XXX
p1686
I6
sVhttp://tinyurl.com/latina-self-XXX
p1687
I10
sVhttp://tinyurl.com/en-XXX-posting
p1688
I7
ssg274
V\U0001f493\U0001f497\U0001f495\U0001f49e\U0001f60di can feel so unsexy for someone so beautiful\U0001f940\U0001f339\U0001f48b\U0001f498
p1689
sg276
I73
sg277
I19
sg278
I2
sa(dp1690
g2
(dp1691
g4
I0
sg5
I23
ssg6
I23
sg7
g8
((lp1692
I780186824417415172
aI2871898541
atp1693
Rp1694
sg12
I20
sg13
g14
(g15
tp1695
Rp1696
Vhttps://twitter.com/i/web/status/833472532133081090
p1697
I1
sVhttps://twitter.com/i/web/status/833476059869884416
p1698
I1
sVhttps://twitter.com/i/web/status/833480638615392257
p1699
I1
sVhttps://twitter.com/i/web/status/833468764113006593
p1700
I1
sVhttps://twitter.com/i/web/status/833476623156523013
p1701
I1
sVhttps://twitter.com/i/web/status/833472582926086144
p1702
I1
sVhttps://twitter.com/i/web/status/833476075585941504
p1703
I1
sVhttps://twitter.com/i/web/status/833476112768438275
p1704
I1
sVhttps://twitter.com/i/web/status/833468549368840193
p1705
I1
sVhttps://twitter.com/i/web/status/833468584848400384
p1706
I1
sVhttps://twitter.com/i/web/status/833470034815115264
p1707
I1
sVhttps://twitter.com/i/web/status/833475871935709184
p1708
I1
sVhttps://twitter.com/i/web/status/833475812758274048
p1709
I1
sVhttps://twitter.com/i/web/status/833475054612672513
p1710
I1
sVhttps://twitter.com/i/web/status/833480583980396544
p1711
I1
sVhttps://twitter.com/i/web/status/833468779296354304
p1712
I1
sVhttps://twitter.com/i/web/status/833468824666140673
p1713
I1
sVhttps://twitter.com/i/web/status/833476563953971200
p1714
I1
sVhttps://twitter.com/i/web/status/833475835524947968
p1715
I1
sVhttps://twitter.com/i/web/status/833470076691030017
p1716
I1
sVhttps://twitter.com/i/web/status/833476587819585536
p1717
I1
sVhttps://twitter.com/i/web/status/833475121323061249
p1718
I1
sVhttps://twitter.com/i/web/status/833480608298983424
p1719
I1
ssg274
Vnew receptionist job western cape greet and direct all walkin customers aread more   \u2026
p1720
sg276
I74
sg277
I19
sg278
I2
sa(dp1721
g2
(dp1722
g4
I23
sg5
I0
ssg6
I23
sg7
g8
((lp1723
I737602077703053312
aI813815584983056385
aI355509893
aI797490794470998017
aI274870409
aI828642572
aI455227163
aI71256092
aI3765271453
aI56223647
aI1693920283
aI2811232299
aI3599977521
aI3384669875
aI1887797048
aI356133573
aI478810569
aI42246478
aI3332298195
aI2534943072
aI3837997042
aI27064563
aI2326833531
atp1724
Rp1725
sg12
I20
sg13
g14
(g15
tp1726
Rp1727
Vhttps://twitter.com/i/web/status/832971270924992512
p1728
I23
ssg274
Vweekend competition \u2728still time to \u2728 win \u2728panties amp scented candle\u2728 rt pinned tweet amp f us purplenannyeco1 tampc\u2026
p1729
sg276
I75
sg277
I19
sg278
I2
sa(dp1730
g2
(dp1731
g4
I0
sg5
I23
ssg6
I23
sg7
g8
((lp1732
I828237371430821888
aI827442928427503616
aI122413270
aI723962626103980032
aI789848145995980801
aI79418248
aI726511616
aI485971600
aI772476044523732992
aI976541858
aI945032616
aI2499618601
aI816801988784570368
aI3313998514
aI972773173
aI738822991069339648
aI129765703
aI2929012182
aI4904909405
aI833073635996925952
aI849275107
aI2293180278
aI797320061279236096
atp1733
Rp1734
sg12
I20
sg13
g14
(g15
tp1735
Rp1736
Vhttp://tinyurl.com/jk685fs
p1737
I23
ssg274
Vi played the search the waves mini game in paradise island 2 and my score was 9 gameinsight paradiseisland2
p1738
sg276
I76
sg277
I19
sg278
I2
sa(dp1739
g2
(dp1740
g4
I19
sg5
I4
ssg6
I23
sg7
g8
((lp1741
I814966999331782656
aI321069889
aI738242391157706753
aI811999433965654016
aI757683923648385025
aI15549417
aI1672469546
aI191505959
aI313037820
aI385046287
aI968462576
aI4764953297
aI4789822643
aI289118612
aI1905029168
aI79539767
aI2305441177
aI997420128
aI244403743
atp1742
Rp1743
sg12
I20
sg13
g14
(g15
tp1744
Rp1745
Vhttps://twitter.com/i/web/status/833409608668631040
p1746
I2
sVhttps://twitter.com/i/web/status/833470006105104384
p1747
I1
sVhttps://twitter.com/i/web/status/833439808886300672
p1748
I7
sVhttps://twitter.com/i/web/status/833454906413572096
p1749
I9
sVhttps://twitter.com/i/web/status/833424708922118147
p1750
I4
ssg274
Vtrump fires atty gen yates for refusing to enforce travel ban which she thinks is illegal break law or get fired\u2026
p1751
sg276
I77
sg277
I19
sg278
I2
sa(dp1752
g2
(dp1753
g4
I22
sg5
I1
ssg6
I23
sg7
g8
((lp1754
I730669310859825152
aI715024188336119808
aI732403431747522560
aI2732023176
aI2797178350
aI2819687204
aI3196357936
aI2606583859
aI2745321912
aI2466451262
aI3113177152
aI2651903814
aI2680237776
aI2352205524
aI714125927383490560
aI2757429474
aI731153572436578304
aI2348119013
aI2807776102
aI745014260087070720
aI2794712043
aI2805350638
aI3208563063
atp1755
Rp1756
sg12
I20
sg13
g14
(g15
tp1757
Rp1758
Vhttp://tinyurl.com/only-XXX-beach
p1759
I13
sVhttp://tinyurl.com/these-XXX
p1760
I10
ssg274
V\U0001f525\U0001f525\U0001f525all i need is the time to show you\U0001f496\U0001f496\U0001f496
p1761
sg276
I78
sg277
I19
sg278
I2
sa(dp1762
g2
(dp1763
g4
I22
sg5
I0
ssg6
I22
sg7
g8
((lp1764
I715364347497865216
aI725132697002205185
aI714893917905428482
aI715284959854985216
aI713077014572478465
aI2807769225
aI2806753547
aI724126436945096706
aI714470927958982657
aI2752832348
aI3116038956
aI2864186800
aI2809262642
aI713321364623482880
aI3147924794
aI2806673727
aI2797133505
aI728613464361607170
aI2763164892
aI2797338975
aI715147771863547905
aI2298947563
atp1765
Rp1766
sg12
I20
sg13
g14
(g15
tp1767
Rp1768
Vhttp://tinyurl.com/XXX-active
p1769
I14
sVhttp://tinyurl.com/loli-XXX-age
p1770
I5
sVhttp://tinyurl.com/shipping-XXX
p1771
I3
ssg274
V\U0001f940\U0001f339\U0001f48b\U0001f498and i dont want to miss a thing\U0001f48b\U0001f525\U0001f525\U0001f493\U0001f48b
p1772
sg276
I79
sg277
I19
sg278
I2
sa(dp1773
g2
(dp1774
g4
I22
sg5
I0
ssg6
I22
sg7
g8
((lp1775
I728993813151256576
aI723089487966801921
aI729067084286709762
aI715466953276669952
aI2806311182
aI2804811279
aI3147923230
aI3134614949
aI2750909508
aI2763117062
aI2762311116
aI3095980750
aI2802733399
aI2793707864
aI2803669214
aI713565133725835264
aI2686288232
aI2734669801
aI3113080938
aI2688161137
aI3122992247
aI2740611962
atp1776
Rp1777
sg12
I20
sg13
g14
(g15
tp1778
Rp1779
Vhttp://tinyurl.com/switch-lamb-XXX
p1780
I10
sVhttp://tinyurl.com/pistols-XXX
p1781
I12
ssg274
V\U0001f48b\U0001f525\U0001f525\U0001f493\U0001f48byou know that maybe its time for miracles \U0001f940\U0001f339\U0001f48b\U0001f498
p1782
sg276
I80
sg277
I19
sg278
I2
sa(dp1783
g2
(dp1784
g4
I0
sg5
I22
ssg6
I22
sg7
g8
((lp1785
I43851649
aI2754512037
aI540089921
aI2922807815
aI2497407722
aI778838730
aI2905330059
aI723734768
aI1368873361
aI42836882
aI2563267539
aI1345054160
aI1550957886
aI194470390
aI2678820983
aI574934425
aI454697850
aI2481701210
aI709437854
atp1786
Rp1787
sg12
I20
sg13
g14
(g15
tp1788
Rp1789
Vhttp://fb.me/3s94FFqaA
p1790
I1
sVhttp://tinyurl.com/ztdk2pc
p1791
I22
ssg274
Vwhy perricomo was buried hours after his death as iruno mourns in via otowngist
p1792
sg276
I81
sg277
I19
sg278
I2
sa(dp1793
g2
(dp1794
g4
I0
sg5
I22
ssg6
I22
sg7
g8
((lp1795
I43851649
aI2754512037
aI540089921
aI2922807815
aI2497407722
aI778838730
aI2905330059
aI723734768
aI1368873361
aI42836882
aI2563267539
aI1345054160
aI1550957886
aI194470390
aI2678820983
aI574934425
aI454697850
aI2481701210
aI709437854
atp1796
Rp1797
sg12
I20
sg13
g14
(g15
tp1798
Rp1799
Vhttp://tinyurl.com/hhjonwj
p1800
I22
sVhttp://fb.me/6gdoyeHMN
p1801
I1
ssg274
Vvideo phillyblack iamphillyblack  lunchtime in via otowngist
p1802
sg276
I82
sg277
I19
sg278
I2
sa(dp1803
g2
(dp1804
g4
I22
sg5
I0
ssg6
I22
sg7
g8
((lp1805
I714114854064418816
aI725520853866303488
aI728631707637796866
aI711486350944509956
aI714320730117251072
aI3208924701
aI2561556126
aI2762844720
aI3099413157
aI712775388166901760
aI2525508265
aI727948983784591360
aI2811627440
aI724844126169092096
aI2804985155
aI2768904776
aI2715793357
aI2750119508
aI715256385395691520
aI2797407987
aI3145757436
aI2762442109
atp1806
Rp1807
sg12
I20
sg13
g14
(g15
tp1808
Rp1809
Vhttp://tinyurl.com/XXX-turkish
p1810
I15
sVhttp://tinyurl.com/XXX-adult-wankz
p1811
I1
sVhttp://tinyurl.com/XXX-anonymous
p1812
I6
ssg274
V\U0001f940\U0001f339\U0001f48b\U0001f498yes i am to myself what jekyll must have been to hyde\U0001f48b\U0001f525\U0001f525\U0001f493\U0001f48b
p1813
sg276
I83
sg277
I19
sg278
I2
sa(dp1814
g2
(dp1815
g4
I22
sg5
I0
ssg6
I22
sg7
g8
((lp1816
I721058672076529664
aI724917273962631169
aI713503183570468866
aI2811275780
aI710956741408780288
aI710137912004907009
aI2797586571
aI2819011614
aI2807789471
aI2500192680
aI2808568249
aI2559059006
aI3199647173
aI2805204815
aI1381134932
aI2797119448
aI715465044054700032
aI2757072769
aI3097034608
aI283223285
aI2808421247
aI3151627647
atp1817
Rp1818
sg12
I20
sg13
g14
(g15
tp1819
Rp1820
Vhttp://tinyurl.com/XXX-crazy-space
p1821
I8
sVhttp://tinyurl.com/pistols-XXX
p1822
I7
sVhttp://tinyurl.com/cast-nun-XXX
p1823
I1
sVhttp://tinyurl.com/purchase-XXX
p1824
I6
ssg274
V\U0001f48b\U0001f525\U0001f525\U0001f493\U0001f48ballow me to get you right\U0001f940\U0001f339\U0001f48b\U0001f498
p1825
sg276
I84
sg277
I19
sg278
I2
sa(dp1826
g2
(dp1827
g4
I22
sg5
I0
ssg6
I22
sg7
g8
((lp1828
I831030192210456576
aI831124211473096704
aI832203386837626882
aI833332627327234051
aI831006163491647492
aI831011420850434053
aI831022100450193408
aI830449106225033217
aI820583818943938562
aI832206628585828353
aI833291263487070212
aI833309446751137792
aI833239026379345921
aI831866262389010432
aI832209858879369217
aI833344244601417729
aI833234807731544064
aI832215952783577089
aI833313419738492929
aI832967074976714752
aI260830319
aI831525333509689344
atp1829
Rp1830
sg12
I20
sg13
g14
(g15
tp1831
Rp1832
Vhttp://tinyurl.com/jrbq5la
p1833
I22
ssg274
Vthrees company 4 \u2013 scene 1
p1834
sg276
I85
sg277
I19
sg278
I2
sa(dp1835
g2
(dp1836
g4
I22
sg5
I0
ssg6
I22
sg7
g8
((lp1837
I831494360239730688
aI831030192210456576
aI832203386837626882
aI833332627327234051
aI831006163491647492
aI831011420850434053
aI831022100450193408
aI833239026379345921
aI830449106225033217
aI833291263487070212
aI833309446751137792
aI832206628585828353
aI831866262389010432
aI832209858879369217
aI833344244601417729
aI833234807731544064
aI832215952783577089
aI833313419738492929
aI831124211473096704
aI832967074976714752
aI260830319
aI831525333509689344
atp1838
Rp1839
sg12
I20
sg13
g14
(g15
tp1840
Rp1841
Vhttp://tinyurl.com/j6m38zb
p1842
I22
ssg274
Vsexy mexican n black pussy banged by hairy paki
p1843
sg276
I86
sg277
I19
sg278
I2
sa(dp1844
g2
(dp1845
g4
I0
sg5
I22
ssg6
I22
sg7
g8
((lp1846
I765572785686974464
aI830291011339505664
aI127633174
aI726511616
aI830408221563056129
aI1120086415
aI2992942742
aI1550166050
aI476502313
aI747628231369580544
aI2795952829
aI297492031
aI1904721344
aI2522637639
aI2802551627
aI4445901914
aI1567208161
aI520255716
aI764161596394385408
aI2525895660
aI2293180278
aI2462708990
atp1847
Rp1848
sg12
I20
sg13
g14
(g15
tp1849
Rp1850
Vhttp://tinyurl.com/jk685fs
p1851
I22
ssg274
Vi played the search the waves mini game in paradise island 2 and my score was 9 paradiseisland2 gameinsight
p1852
sg276
I87
sg277
I19
sg278
I2
sa(dp1853
g2
(dp1854
g4
I0
sg5
I22
ssg6
I22
sg7
g8
((lp1855
I782776269528305664
aI830408221563056129
aI790059404972269568
aI807598955383164929
aI51056265
aI2275057683
aI407308445
aI805531752735199232
aI3009891125
aI611896502
aI503451575
aI4812507961
aI60252988
aI4188042179
aI336563280
aI707013619431571456
aI2960909819
aI239644392
aI783887022310109184
aI2837595247
aI825767539556839424
aI2423082750
atp1856
Rp1857
sg12
I20
sg13
g14
(g15
tp1858
Rp1859
Vhttp://tinyurl.com/q3qf2ej
p1860
I22
ssg274
Vive just unlocked a blacktie affair achievement in paradise island 2   paradiseisland2 gameinsight
p1861
sg276
I88
sg277
I19
sg278
I2
sa(dp1862
g2
(dp1863
g4
I22
sg5
I0
ssg6
I22
sg7
g8
((lp1864
I723372996790882304
aI810052339239415808
aI819535104036876290
aI824995899466133508
aI823519235150221312
aI819195791000543233
aI791039564412547081
aI823150339612258306
aI820196254818791425
aI821702641877012480
aI831494360239730688
aI812945639709380608
aI818853280247750656
aI620590926
aI825364523129270273
aI745370304470482945
aI823502854820282368
aI829248963127734272
aI812546706353094656
aI818827540672356352
aI260830319
aI819543101647691777
atp1865
Rp1866
sg12
I20
sg13
g14
(g15
tp1867
Rp1868
Vhttp://tinyurl.com/h88eajb
p1869
I22
ssg274
Vgeizer \u2013 agressive anal with dildo
p1870
sg276
I89
sg277
I19
sg278
I2
sa(dp1871
g2
(dp1872
g4
I22
sg5
I0
ssg6
I22
sg7
g8
((lp1873
I729686313075625984
aI713667847218663425
aI3170007939
aI729614525733834752
aI724153143869739009
aI2794813228
aI2758146314
aI2968268301
aI2357845010
aI2762548904
aI2806845100
aI723527158002376704
aI3150758973
aI2800449216
aI2797112777
aI715439650664525824
aI3182642380
aI2798270030
aI2810168916
aI2810240480
aI2290187635
aI2770597753
atp1874
Rp1875
sg12
I20
sg13
g14
(g15
tp1876
Rp1877
Vhttp://tinyurl.com/kings-XXX
p1878
I9
sVhttp://tinyurl.com/XXX-reply
p1879
I13
ssg274
V\U0001f48b\U0001f493\U0001f498\U0001f63bfor a perfect world where children are laughing\U0001f940\U0001f339\U0001f48b\U0001f498
p1880
sg276
I90
sg277
I19
sg278
I2
sa(dp1881
g2
(dp1882
g4
I0
sg5
I22
ssg6
I22
sg7
g8
((lp1883
I241395137
aI172126666
aI62103949
aI912723343
aI768538291
aI95868151
aI348035352
aI268827675
aI299943485
aI371004542
atp1884
Rp1885
sg12
I20
sg13
g14
(g15
tp1886
Rp1887
Vhttp://tinyurl.com/z9cfu8r
p1888
I1
sVhttp://tinyurl.com/j6jrtjx
p1889
I1
sVhttp://ln.is/tinyurl.com/yyf3G
p1890
I1
sVhttp://tinyurl.com/hb8np6t
p1891
I1
sVhttp://tinyurl.com/gucyjbu
p1892
I1
sVhttp://tinyurl.com/hf2h8uu
p1893
I2
sVhttp://ln.is/tinyurl.com/6V2w7
p1894
I1
sVhttp://ln.is/tinyurl.com/n4Pa9
p1895
I1
sVhttp://tinyurl.com/juyadmo
p1896
I1
sVhttp://tinyurl.com/zs85l9u
p1897
I1
sVhttp://tinyurl.com/zxkczmt
p1898
I1
sVhttp://ln.is/tinyurl.com/hS6Hf
p1899
I1
sVhttp://tinyurl.com/jh43kj5
p1900
I1
sVhttp://tinyurl.com/jfuhtnz
p1901
I1
sVhttp://tinyurl.com/gn7ktl3
p1902
I1
sVhttp://tinyurl.com/jxslmdg
p1903
I1
sVhttp://tinyurl.com/zvvkr4k
p1904
I1
sVhttp://ln.is/tinyurl.com/bombv
p1905
I1
sVhttp://tinyurl.com/zpz3s8j
p1906
I1
sVhttp://tinyurl.com/h665ggl
p1907
I1
sVhttp://ln.is/tinyurl.com/IMRzi
p1908
I1
ssg274
Vsuave skin solutions cocoa butter and shea body lotion only 111 via swaggrabber  amazon has the
p1909
sg276
I91
sg277
I19
sg278
I2
sa(dp1910
g2
(dp1911
g4
I21
sg5
I0
ssg6
I21
sg7
g8
((lp1912
I715341302536257536
aI725678784624660481
aI2797153666
aI711018244795211777
aI2766321734
aI725673922155450368
aI2797150695
aI733718197120172032
aI714751999795937281
aI2825197831
aI713438351848644608
aI714841082333421569
aI2360644208
aI722935679211057152
aI2808105574
aI2804130294
aI2689230360
aI2797668378
aI3123321181
aI2571764382
aI3136824194
atp1913
Rp1914
sg12
I20
sg13
g14
(g15
tp1915
Rp1916
Vhttp://tinyurl.com/active-tomb-XXX
p1917
I9
sVhttp://tinyurl.com/board-XXX
p1918
I11
sVhttp://tinyurl.com/egypt-XXX
p1919
I1
ssg274
V\U0001f940\U0001f339\U0001f48b\U0001f498thinking on you in the final throes\U0001f940\U0001f339\U0001f48b\U0001f498
p1920
sg276
I92
sg277
I19
sg278
I2
sa(dp1921
g2
(dp1922
g4
I1
sg5
I20
ssg6
I21
sg7
g8
((lp1923
I818887600354115584
aI2875964131
aI227741667
aI57704726
aI62497351
aI4143158632
aI25007722
aI374038701
aI214481006
aI94621981
aI101924303
aI832447153641492483
aI204472948
aI18204910
aI709454486
aI112641079
aI1455074330
aI110208495
aI497987996
aI82519674
aI1236455119
atp1924
Rp1925
sg12
I20
sg13
g14
(g15
tp1926
Rp1927
Vhttp://tinyurl.com/zjbuf8z
p1928
I21
ssg274
V200 amazon gift card giveaway
p1929
sg276
I93
sg277
I19
sg278
I2
sa(dp1930
g2
(dp1931
g4
I21
sg5
I0
ssg6
I21
sg7
g8
((lp1932
I825584146282070016
aI1411700928
aI35547650
aI1617220837
aI576362534
aI4662427213
aI619142063
aI3308340915
aI1283192660
aI4809785973
aI889617336
aI43571808
aI1458017178
aI2997898367
aI246100604
aI43377245
aI1445275189
atp1933
Rp1934
sg12
I20
sg13
g14
(g15
tp1935
Rp1936
Vhttp://tinyurl.com/playfulsvideos
p1937
I21
ssg274
Vget up on this lifetime snapchat in my mv store
p1938
sg276
I94
sg277
I19
sg278
I2
sa(dp1939
g2
(dp1940
g4
I17
sg5
I4
ssg6
I21
sg7
g8
((lp1941
I804758864935591936
aI758516960489533440
aI3890104635
aI2788972943
aI3357427702
aI818223548791541760
aI801508241968660481
aI242988968
aI32366249
aI385046287
aI301055281
aI4183694386
aI289118612
aI327787638
aI739756952
aI330488319
aI831815773
aI210818207
atp1942
Rp1943
sg12
I20
sg13
g14
(g15
tp1944
Rp1945
Vhttps://twitter.com/i/web/status/833436052790640640
p1946
I10
sVhttps://twitter.com/i/web/status/833420953082294278
p1947
I2
sVhttps://twitter.com/i/web/status/833466257739509760
p1948
I4
sVhttps://twitter.com/i/web/status/833451155397160962
p1949
I5
ssg274
Vtrumps nsa adviser flynn had a series of contacts with the russians that began before the election\u2026
p1950
sg276
I95
sg277
I19
sg278
I2
sa(dp1951
g2
(dp1952
g4
I1
sg5
I20
ssg6
I21
sg7
g8
((lp1953
I76908416
aI72254160
aI2883385265
aI126016806
aI298027175
atp1954
Rp1955
sg12
I20
sg13
g14
(g15
tp1956
Rp1957
Vhttp://tinyurl.com/Sassitude
p1958
I21
ssg274
Vthe royal peach palette  kyshadow\U0001f629\U0001f60d\U0001f495   available at   \u2728
p1959
sg276
I96
sg277
I19
sg278
I2
sa.